
out/libos_test_dl.so:     file format elf32-littlearm
out/libos_test_dl.so
architecture: armv7, flags 0x00000150:
HAS_SYMS, DYNAMIC, D_PAGED
start address 0x000034e0

Program Header:
0x70000001 off    0x0000e0cc vaddr 0x0000e0cc paddr 0x0000e0cc align 2**2
         filesz 0x00000628 memsz 0x00000628 flags r--
    LOAD off    0x00000000 vaddr 0x00000000 paddr 0x00000000 align 2**12
         filesz 0x0000e6f4 memsz 0x0000e6f4 flags r-x
    LOAD off    0x0000ef48 vaddr 0x0000ff48 paddr 0x0000ff48 align 2**12
         filesz 0x0000031c memsz 0x00000338 flags rw-
 DYNAMIC off    0x0000ef50 vaddr 0x0000ff50 paddr 0x0000ff50 align 2**2
         filesz 0x000000b0 memsz 0x000000b0 flags rw-
   STACK off    0x00000000 vaddr 0x00000000 paddr 0x00000000 align 2**4
         filesz 0x00000000 memsz 0x00000000 flags rwx
   RELRO off    0x0000ef48 vaddr 0x0000ff48 paddr 0x0000ff48 align 2**0
         filesz 0x000000b8 memsz 0x000000b8 flags r--

Dynamic Section:
  SONAME               b3091a65-9751-4784-abf7-0298a7cc35ba
  INIT_ARRAY           0x0000ff48
  INIT_ARRAYSZ         0x00000008
  HASH                 0x000000f4
  GNU_HASH             0x0000075c
  STRTAB               0x00001be4
  SYMTAB               0x00000eb4
  STRSZ                0x00000fa8
  SYMENT               0x00000010
  PLTGOT               0x00010000
  PLTRELSZ             0x00000390
  PLTREL               0x00000011
  JMPREL               0x00002be4
  REL                  0x00002b8c
  RELSZ                0x00000058
  RELENT               0x00000008
  RELCOUNT             0x00000006
private flags = 5000400: [Version5 EABI] [hard-float ABI]

Sections:
Idx Name          Size      VMA       LMA       File off  Algn
  0 .hash         00000668  000000f4  000000f4  000000f4  2**2
                  CONTENTS, ALLOC, LOAD, READONLY, DATA
  1 .gnu.hash     00000758  0000075c  0000075c  0000075c  2**2
                  CONTENTS, ALLOC, LOAD, READONLY, DATA
  2 .dynsym       00000d30  00000eb4  00000eb4  00000eb4  2**2
                  CONTENTS, ALLOC, LOAD, READONLY, DATA
  3 .dynstr       00000fa8  00001be4  00001be4  00001be4  2**0
                  CONTENTS, ALLOC, LOAD, READONLY, DATA
  4 .rel.dyn      00000058  00002b8c  00002b8c  00002b8c  2**2
                  CONTENTS, ALLOC, LOAD, READONLY, DATA
  5 .rel.plt      00000390  00002be4  00002be4  00002be4  2**2
                  CONTENTS, ALLOC, LOAD, READONLY, DATA
  6 .plt          0000056c  00002f74  00002f74  00002f74  2**2
                  CONTENTS, ALLOC, LOAD, READONLY, CODE
  7 .text         00009d66  000034e0  000034e0  000034e0  2**2
                  CONTENTS, ALLOC, LOAD, READONLY, CODE
  8 .rodata       00000662  0000d248  0000d248  0000d248  2**2
                  CONTENTS, ALLOC, LOAD, READONLY, DATA
  9 .ARM.extab    00000820  0000d8ac  0000d8ac  0000d8ac  2**2
                  CONTENTS, ALLOC, LOAD, READONLY, DATA
 10 .ARM.exidx    00000628  0000e0cc  0000e0cc  0000e0cc  2**2
                  CONTENTS, ALLOC, LOAD, READONLY, DATA
 11 .init_array   00000008  0000ff48  0000ff48  0000ef48  2**2
                  CONTENTS, ALLOC, LOAD, DATA
 12 .dynamic      000000b0  0000ff50  0000ff50  0000ef50  2**2
                  CONTENTS, ALLOC, LOAD, DATA
 13 .got          000001e8  00010000  00010000  0000f000  2**2
                  CONTENTS, ALLOC, LOAD, DATA
 14 .data         0000007c  000101e8  000101e8  0000f1e8  2**2
                  CONTENTS, ALLOC, LOAD, DATA
 15 .bss          0000001c  00010264  00010264  0000f264  2**2
                  ALLOC
 16 .comment      0000005d  00000000  00000000  0000f264  2**0
                  CONTENTS, READONLY
 17 .ARM.attributes 00000035  00000000  00000000  0000f2c1  2**0
                  CONTENTS, READONLY
 18 .debug_aranges 000004b0  00000000  00000000  0000f2f8  2**3
                  CONTENTS, READONLY, DEBUGGING, OCTETS
 19 .debug_info   00006a93  00000000  00000000  0000f7a8  2**0
                  CONTENTS, READONLY, DEBUGGING, OCTETS
 20 .debug_abbrev 00001a6b  00000000  00000000  0001623b  2**0
                  CONTENTS, READONLY, DEBUGGING, OCTETS
 21 .debug_line   00005bc0  00000000  00000000  00017ca6  2**0
                  CONTENTS, READONLY, DEBUGGING, OCTETS
 22 .debug_frame  00002050  00000000  00000000  0001d868  2**2
                  CONTENTS, READONLY, DEBUGGING, OCTETS
 23 .debug_str    0000e908  00000000  00000000  0001f8b8  2**0
                  CONTENTS, READONLY, DEBUGGING, OCTETS
 24 .debug_ranges 00000240  00000000  00000000  0002e1c0  2**3
                  CONTENTS, READONLY, DEBUGGING, OCTETS
 25 .debug_macro  0001105e  00000000  00000000  0002e400  2**0
                  CONTENTS, READONLY, DEBUGGING, OCTETS
SYMBOL TABLE:
000000f4 l    d  .hash	00000000 .hash
0000075c l    d  .gnu.hash	00000000 .gnu.hash
00000eb4 l    d  .dynsym	00000000 .dynsym
00001be4 l    d  .dynstr	00000000 .dynstr
00002b8c l    d  .rel.dyn	00000000 .rel.dyn
00002be4 l    d  .rel.plt	00000000 .rel.plt
00002f74 l    d  .plt	00000000 .plt
000034e0 l    d  .text	00000000 .text
0000d248 l    d  .rodata	00000000 .rodata
0000d8ac l    d  .ARM.extab	00000000 .ARM.extab
0000e0cc l    d  .ARM.exidx	00000000 .ARM.exidx
0000ff48 l    d  .init_array	00000000 .init_array
0000ff50 l    d  .dynamic	00000000 .dynamic
00010000 l    d  .got	00000000 .got
000101e8 l    d  .data	00000000 .data
00010264 l    d  .bss	00000000 .bss
00000000 l    d  .comment	00000000 .comment
00000000 l    d  .ARM.attributes	00000000 .ARM.attributes
00000000 l    d  .debug_aranges	00000000 .debug_aranges
00000000 l    d  .debug_info	00000000 .debug_info
00000000 l    d  .debug_abbrev	00000000 .debug_abbrev
00000000 l    d  .debug_line	00000000 .debug_line
00000000 l    d  .debug_frame	00000000 .debug_frame
00000000 l    d  .debug_str	00000000 .debug_str
00000000 l    d  .debug_ranges	00000000 .debug_ranges
00000000 l    d  .debug_macro	00000000 .debug_macro
00000000 l    df *ABS*	00000000 os_test_lib_dl.c
000034e0 l     F .text	00000048 os_test_shlib_dl_init
00000000 l    df *ABS*	00000000 os_test_lib_dl_cxx.cpp
00010264 l     O .bss	00000004 _ZL24os_test_lib_dl_ctor_test
00003588 l     F .text	00000034 _Z41__static_initialization_and_destruction_0ii
000035bc l     F .text	00000016 _GLOBAL__sub_I_os_test_lib_dl_cxx.cpp
00000000 l    df *ABS*	00000000 aeabi_unwind.c
00000000 l    df *ABS*	00000000 tee_api_panic.c
00003642 l     F .text	00000024 check_res
00003666 l     F .text	00000040 check_access
00000000 l    df *ABS*	00000000 utee_syscalls_a32.o
00000000 l    df *ABS*	00000000 tee_api.c
00010268 l     O .bss	00000004 tee_api_instance_data
00003cf4 l     F .text	000002fe copy_param
00003ff2 l     F .text	00000110 update_out_param
0000d2c4 l     O .rodata	0000000b __func__.0
00000000 l    df *ABS*	00000000 tee_system_pta.c
00004774 l     F .text	00000064 reg_pair_to_64
000047d8 l     F .text	0000003a reg_pair_from_64
00004812 l     F .text	0000007e invoke_system_pta
0001026c l     O .bss	00000004 sess.3
0000d328 l     O .rodata	00000010 uuid.2
0000d338 l     O .rodata	0000000a __func__.1
0000d344 l     O .rodata	00000017 __func__.0
00000000 l    df *ABS*	00000000 bget_malloc.c
00004aa4 l     F .text	0000001a tag_asan_free
00004abe l     F .text	0000001a tag_asan_alloced
00004ad8 l     F .text	00000024 memset_unchecked
00004afc l     F .text	00000024 memcpy_unchecked
00004b20 l     F .text	00000090 buf_get_pos
0000d75c l     O .rodata	00000005 __func__.9
0000d764 l     O .rodata	00000006 __func__.8
0000d76c l     O .rodata	00000006 __func__.7
0000d774 l     O .rodata	00000005 __func__.6
0000d77c l     O .rodata	00000006 __func__.5
0000d784 l     O .rodata	00000007 __func__.4
00010270 l     O .bss	00000004 bchain
00010274 l     O .bss	00000004 bp
000101e8 l     O .data	00000004 next
00010278 l     O .bss	00000004 mymalloc
0001027c l     O .bss	00000004 myfree
000101ec l     O .data	0000001c mypoolset
00005588 l     F .text	0000004c myrand
000055d4 l     F .text	00000024 mysrand
000055f8 l     F .text	00000064 stats
0000565c l     F .text	0000003e blimit
0000d78c l     O .rodata	0000000f __func__.3
00005ab0 l     F .text	0000001c malloc_lock
00005acc l     F .text	0000001a malloc_unlock
00010208 l     O .data	0000005c malloc_ctx
00005ae6 l     F .text	0000001a print_oom
00005b00 l     F .text	00000064 raw_malloc_return_hook
00005b64 l     F .text	00000044 gen_malloc_reset_stats
00005bc4 l     F .text	00000042 gen_malloc_get_stats
00005c2c l     F .text	00000018 raw_malloc_validate_pools
00005c44 l     F .text	0000002c bpool_foreach_iterator_init
00005c70 l     F .text	000000d8 bpool_foreach_pool
0000d79c l     O .rodata	00000013 __func__.2
00005d48 l     F .text	00000076 bpool_foreach
00005dbe l     F .text	0000009c raw_memalign
00005e5a l     F .text	0000002e raw_malloc
00005e88 l     F .text	00000032 raw_free
00005eba l     F .text	000000ca raw_calloc
00005f84 l     F .text	000000ac raw_realloc
00006030 l     F .text	0000005c bget_buf_size
0000d7b0 l     O .rodata	0000000e __func__.1
000060dc l     F .text	0000004c free_helper
0000617c l     F .text	0000002e realloc_unlocked
0000624c l     F .text	00000026 get_payload_start_size
000062ae l     F .text	0000013e gen_malloc_add_pool
0000d7c0 l     O .rodata	00000014 __func__.0
000063ec l     F .text	000000a8 gen_malloc_buffer_is_within_alloced
00006494 l     F .text	000000ba gen_malloc_buffer_overlaps_heap
00000000 l    df *ABS*	00000000 memcpy.c
00000000 l    df *ABS*	00000000 memmove.c
00000000 l    df *ABS*	00000000 memset.c
00000000 l    df *ABS*	00000000 strlen.c
00000000 l    df *ABS*	00000000 trace.c
00006a14 l     F .text	00000054 trace_level_to_string
0000d7f8 l     O .rodata	00000005 lvl_strs.0
00006a68 l     F .text	00000060 print_thread_id
00006ac8 l     F .text	0000001e print_core_id
00000000 l    df *ABS*	00000000 consttime_memcmp.c
00000000 l    df *ABS*	00000000 snprintk.c
0000d800 l     O .rodata	00000011 hexdigits
0000d814 l     O .rodata	00000011 HEXDIGITS
000070a4 l     F .text	00000fe0 kprintf
00007006 l     F .text	0000009e uuid2str
00000000 l    df *ABS*	00000000 memchr.c
00000000 l    df *ABS*	00000000 arm32_aeabi_ldivmod_a32.o
00000000 l    df *ABS*	00000000 arm32_aeabi_ldivmod.c
000081c8 l     F .text	0000012a division_lqr
000082f2 l     F .text	0000007c ul_div_qr
00000000 l    df *ABS*	00000000 assert.c
00000000 l    df *ABS*	00000000 trace_ext.c
00000000 l    df *ABS*	00000000 tee_api_operations.c
00008628 l     F .text	0000006e __tee_alg_get_class
00008696 l     F .text	00000046 __tee_alg_get_main_alg
000086dc l     F .text	00000036 __tee_alg_get_key_type
00008712 l     F .text	0000022e __tee_alg_get_digest_size
00009f00 l     F .text	00000048 init_hash_operation
0000a0fa l     F .text	00000330 tee_buffer_update
00000000 l    df *ABS*	00000000 tee_api_objects.c
00000000 l    df *ABS*	00000000 snprintf.c
00000000 l    df *ABS*	00000000 
0000ff50 l     O *ABS*	00000000 _DYNAMIC
00010000 l     O *ABS*	00000000 _GLOBAL_OFFSET_TABLE_
000085f0 g     F .text	00000038 putchar
0000c6f6 g     F .text	00000164 TEE_PopulateTransientObject
000049d8 g     F .text	000000cc tee_invoke_supp_plugin
000083d0 g     F .text	000000e0 __l_divmod
00009f48 g     F .text	0000005c TEE_DigestUpdate
000046a0 g     F .text	00000046 TEE_Realloc
00009b8a g     F .text	00000232 TEE_SetOperationKey2
00003810 g     F .text	00000034 __utee_check_inout_annotation
00008544 g     F .text	00000074 printf
0000c85a g     F .text	00000048 TEE_InitRefAttribute
0000386c g     F .text	00000014 _utee_log
00004220 g     F .text	00000126 TEE_InvokeTACommand
000036a6 g     F .text	0000005a __utee_check_outbuf_annotation
00003b08 g     F .text	00000014 _utee_cryp_random_number_generate
0000ae80 g     F .text	00000224 TEE_AEEncryptFinal
00006f32 g     F .text	0000002e vsnprintk
000066c2 g     F .text	0000013e memmove
0000d1dc g     F .text	0000003c snprintf
0000c8a2 g     F .text	00000048 TEE_InitValueAttribute
000035f6 g     F .text	00000010 __aeabi_unwind_cpp_pr0
00003a68 g     F .text	00000014 _utee_cryp_obj_restrict_usage
0000c696 g     F .text	00000060 TEE_ResetTransientObject
00003b90 g     F .text	00000018 _utee_asymm_operate
0000a062 g     F .text	00000098 TEE_CipherInit
00003c2c g     F .text	00000014 _utee_storage_free_enum
0000ce50 g     F .text	0000005a TEE_StartPersistentObjectEnumerator
000065a4 g     F .text	0000002c malloc_buffer_overlaps_heap
000039d0 g     F .text	00000014 _utee_hash_init
0000ab72 g     F .text	000000ee TEE_AEInit
00006ae6 g     F .text	00000036 trace_printf
00003ce0 g     F .text	00000014 _utee_cache_operation
000065d0 g     F .text	000000f2 memcpy
00003628 g     F .text	0000001a TEE_Panic
000081b0 g     F .text	00000018 __aeabi_uldivmod
00009dbc g     F .text	00000144 TEE_CopyOperation
000085b8 g     F .text	00000038 puts
00005c06 g     F .text	00000026 malloc_get_stats
00004600 g     F .text	0000002c TEE_GetREETime
0000cd92 g     F .text	0000005a TEE_AllocatePersistentObjectEnumerator
0000b284 g     F .text	000001c2 TEE_AsymmetricEncrypt
00003700 g     F .text	00000040 __utee_check_instring_annotation
0000608c g     F .text	00000050 malloc
0000c9ee g     F .text	00000126 TEE_GenerateKey
0000d218 g     F .text	0000002e vsnprintf
00000000         *UND*	00000000 trace_level
00004fe4 g     F .text	000000c8 bgetr
00003bc0 g     F .text	00000018 _utee_storage_obj_open
0000a42a g     F .text	000001b6 TEE_CipherUpdate
000039e4 g     F .text	00000014 _utee_hash_update
000097f4 g     F .text	000001cc TEE_GetOperationInfoMultiple
00000000         *UND*	00000000 trace_ext_prefix
00003c68 g     F .text	00000014 _utee_storage_next_enum
00004f3c g     F .text	000000a8 bgetz
00004448 g     F .text	0000001c TEE_GetInstanceData
000044fe g     F .text	00000038 TEE_Wait
00003616 g     F .text	00000010 __aeabi_unwind_cpp_pr2
0000472a g     F .text	00000024 TEE_CacheFlush
00006b1c g     F .text	0000030c trace_vprintf
00003bf0 g     F .text	00000014 _utee_storage_obj_del
000084b0 g     F .text	00000048 _assert_log
000039a8 g     F .text	00000014 _utee_cryp_state_copy
00004928 g     F .text	000000b0 tee_unmap
0000aa80 g     F .text	000000f2 TEE_MACCompareFinal
0000cd22 g     F .text	00000070 TEE_RenamePersistentObject
00009fa4 g     F .text	000000be TEE_DigestDoFinal
00003798 g     F .text	00000034 __utee_check_out_annotation
000038d8 g     F .text	00000014 _utee_close_ta_session
0000b446 g     F .text	000001c2 TEE_AsymmetricDecrypt
0000cb14 g     F .text	000000be TEE_OpenPersistentObject
00006e48 g     F .text	000000b4 consttime_memcmp
00003858 g     F .text	00000014 _utee_return
00003880 g     F .text	00000014 __utee_panic
00006290 g     F .text	0000001e free_wipe
00003844 g     F .text	00000014 _utee_panic
00003ccc g     F .text	00000014 _utee_cryp_obj_generate_key
0000c8ea g     F .text	0000004c TEE_CopyObjectAttributes
00003ca4 g     F .text	00000014 _utee_storage_obj_trunc
0000392c g     F .text	00000014 _utee_unmask_cancellation
00006128 g     F .text	00000054 calloc
0000462c g     F .text	00000074 TEE_Malloc
000043e2 g     F .text	00000042 TEE_CheckMemoryAccessRights
0000836e g     F .text	00000062 __ul_divmod
00003894 g     F .text	00000018 _utee_get_property
0000cf6c g     F .text	00000092 TEE_ReadObjectData
0000c3dc g     F .text	000000cc TEE_GetObjectBufferAttribute
0000973c g     F .text	0000004a TEE_FreeOperation
0000c10c g     F .text	0000017e __utee_from_attr
0000ccdc g     F .text	00000046 TEE_CloseAndDeletePersistentObject1
0000b0a4 g     F .text	000001e0 TEE_AEDecryptFinal
00003740 g     F .text	00000058 __utee_check_outstring_annotation
00004464 g     F .text	00000024 TEE_MemMove
00003b78 g     F .text	00000018 _utee_authenc_dec_final
00003c7c g     F .text	00000014 _utee_storage_obj_read
0000a898 g     F .text	00000072 TEE_MACInit
0000b608 g     F .text	000001b4 TEE_AsymmetricSignDigest
00008084 g     F .text	00000114 memchr
0000437a g     F .text	00000034 TEE_UnmaskCancellation
0000c28a g     F .text	0000006e TEE_GetObjectInfo
00003cb8 g     F .text	00000014 _utee_storage_obj_seek
0000acda g     F .text	000001a6 TEE_AEUpdate
0000c636 g     F .text	00000060 TEE_FreeTransientObject
00003918 g     F .text	00000014 _utee_check_access_rights
00003c40 g     F .text	00000014 _utee_storage_reset_enum
0000569a g     F .text	00000416 bget_main_test
0000bb38 g     F .text	00000026 rand
000037cc g     F .text	00000044 __utee_check_attr_in_annotation
00003b48 g     F .text	00000018 _utee_authenc_update_payload
00009786 g     F .text	0000006e TEE_GetOperationInfo
00003a90 g     F .text	00000014 _utee_cryp_obj_alloc
0000bb5e g     F .text	000005ae TEE_IsAlgorithmSupported
00005ba8 g     F .text	0000001c malloc_reset_stats
00006fd2 g     F .text	00000034 __vsprintf
0000397c g     F .text	00000014 _utee_set_ta_time
000038ec g     F .text	00000018 _utee_invoke_ta_command
0000c390 g     F .text	0000004c TEE_RestrictObjectUsage1
000061aa g     F .text	0000004e realloc
000099c0 g     F .text	00000080 TEE_ResetOperation
000044ac g     F .text	00000026 TEE_MemFill
000035d4  w    F .text	00000022 _ZN19OsTestLibDlCtorTestC1Ev
0000654e g     F .text	0000002a malloc_add_pool
0000a90a g     F .text	00000082 TEE_MACUpdate
000035d4  w    F .text	00000022 _ZN19OsTestLibDlCtorTestC2Ev
000069f0 g     F .text	00000024 trace_get_level
0000c344 g     F .text	0000004c TEE_RestrictObjectUsage
0000c59a g     F .text	00000032 TEE_CloseObject
00003a10 g     F .text	00000014 _utee_cipher_init
00003a54 g     F .text	00000014 _utee_cryp_obj_get_info
000053e4 g     F .text	000000fc bpool
00003990 g     F .text	00000018 _utee_cryp_state_alloc
00004346 g     F .text	00000034 TEE_GetCancellationFlag
000045ba g     F .text	00000046 TEE_SetTAPersistentTime
00006800 g     F .text	0000011c memset
00004536 g     F .text	00000084 TEE_GetTAPersistentTime
00006e28 g     F .text	0000001e dhex_dump
0000cbd2 g     F .text	000000d8 TEE_CreatePersistentObject
000043ae g     F .text	00000034 TEE_MaskCancellation
0000ac60 g     F .text	0000007a TEE_AEUpdateAAD
0000d07c g     F .text	0000006c TEE_TruncateObjectData
00003a7c g     F .text	00000014 _utee_cryp_obj_get_attr
00003528 g     F .text	00000020 os_test_shlib_dl_add
0000c2f8 g     F .text	0000004c TEE_GetObjectInfo1
000069a8 g     F .text	00000048 trace_set_level
00003a3c g     F .text	00000018 _utee_cipher_final
0000c4a8 g     F .text	000000f2 TEE_GetObjectValueAttribute
00009a40 g     F .text	0000014a TEE_SetOperationKey
000039bc g     F .text	00000014 _utee_cryp_state_free
000038c0 g     F .text	00000018 _utee_open_ta_session
00003c54 g     F .text	00000014 _utee_storage_start_enum
0000d0e8 g     F .text	000000f4 TEE_SeekObjectData
00004890 g     F .text	00000098 tee_map_zi
000061f8 g     F .text	00000054 memalign
0000a5e0 g     F .text	000002b8 TEE_CipherDoFinal
00003b60 g     F .text	00000018 _utee_authenc_enc_final
00006578 g     F .text	0000002c malloc_buffer_is_within_alloced
00003aa4 g     F .text	00000014 _utee_cryp_obj_close
00000000         *UND*	00000000 os_test_global
00003940 g     F .text	00000014 _utee_mask_cancellation
00003c04 g     F .text	00000014 _utee_storage_obj_rename
0000cffe g     F .text	0000007e TEE_WriteObjectData
0000ce1e g     F .text	00000032 TEE_ResetPersistentObjectEnumerator
00003c90 g     F .text	00000014 _utee_storage_obj_write
00003b34 g     F .text	00000014 _utee_authenc_update_aad
00006efc g     F .text	00000036 snprintk
00003ae0 g     F .text	00000014 _utee_cryp_obj_copy
0000b946 g     F .text	000001c6 TEE_DeriveKey
00004bb0 g     F .text	0000038c bget
0000c5cc g     F .text	0000006a TEE_AllocateTransientObject
00003954 g     F .text	00000014 _utee_wait
000046e6 g     F .text	00000020 TEE_Free
0000474e g     F .text	00000024 TEE_CacheInvalidate
000084f8 g     F .text	00000014 _assert_break
00003968 g     F .text	00000014 _utee_get_time
00008940 g     F .text	00000dfc TEE_AllocateOperation
00003acc g     F .text	00000014 _utee_cryp_obj_populate
0000bb0c g     F .text	0000002c TEE_GenerateRandom
00004488 g     F .text	00000024 TEE_MemCompare
00003a24 g     F .text	00000018 _utee_cipher_update
00006f60 g     F .text	00000072 __vsnprintf
0000cdec g     F .text	00000032 TEE_FreePersistentObjectEnumerator
00004102 g     F .text	000000ee TEE_OpenTASession
0000850c g     F .text	00000024 trace_ext_puts
00008530 g     F .text	00000014 trace_ext_get_thread_id
0000ccaa g     F .text	00000032 TEE_CloseAndDeletePersistentObject
00003af4 g     F .text	00000014 _utee_cryp_derive_key
00003ab8 g     F .text	00000014 _utee_cryp_obj_reset
00004706 g     F .text	00000024 TEE_CacheClean
00003548 g     F .text	00000014 os_test_shlib_dl_panic
000038ac g     F .text	00000014 _utee_get_property_name_to_index
00003b1c g     F .text	00000018 _utee_authenc_init
0000c936 g     F .text	000000b8 TEE_CopyObjectAttributes1
0000691c g     F .text	0000008a strlen
00003606 g     F .text	00000010 __aeabi_unwind_cpp_pr1
00003c18 g     F .text	00000014 _utee_storage_alloc_enum
0000355c g     F .text	0000002c os_test_shlib_dl_cxx_ctor
000044d2 g     F .text	0000002c TEE_GetSystemTime
00003ba8 g     F .text	00000018 _utee_asymm_verify
000050ac g     F .text	00000338 brel
00004424 g     F .text	00000024 TEE_SetInstanceData
00003904 g     F .text	00000014 _utee_get_cancellation_flag
00008198 g     F .text	00000018 __aeabi_ldivmod
0000ceaa g     F .text	000000c2 TEE_GetNextPersistentObject
000041f0 g     F .text	00000030 TEE_CloseTASession
0000b7bc g     F .text	0000018a TEE_AsymmetricVerifyDigest
00003bd8 g     F .text	00000018 _utee_storage_obj_create
00006272 g     F .text	0000001e free
000054e0 g     F .text	000000a8 bstats
0000a98c g     F .text	000000f4 TEE_MACComputeFinal
000039f8 g     F .text	00000018 _utee_hash_final



Disassembly of section .plt:

00002f74 <.plt>:
    2f74:	e52de004 	push	{lr}		; (str lr, [sp, #-4]!)
    2f78:	e59fe004 	ldr	lr, [pc, #4]	; 2f84 <.plt+0x10>
    2f7c:	e08fe00e 	add	lr, pc, lr
    2f80:	e5bef008 	ldr	pc, [lr, #8]!
    2f84:	0000d07c 	.word	0x0000d07c

00002f88 <__l_divmod@plt>:
    2f88:	e28fc600 	add	ip, pc, #0, 12
    2f8c:	e28cca0d 	add	ip, ip, #53248	; 0xd000
    2f90:	e5bcf07c 	ldr	pc, [ip, #124]!	; 0x7c

00002f94 <TEE_SetOperationKey2@plt>:
    2f94:	e28fc600 	add	ip, pc, #0, 12
    2f98:	e28cca0d 	add	ip, ip, #53248	; 0xd000
    2f9c:	e5bcf074 	ldr	pc, [ip, #116]!	; 0x74

00002fa0 <__utee_check_inout_annotation@plt>:
    2fa0:	e28fc600 	add	ip, pc, #0, 12
    2fa4:	e28cca0d 	add	ip, ip, #53248	; 0xd000
    2fa8:	e5bcf06c 	ldr	pc, [ip, #108]!	; 0x6c

00002fac <printf@plt>:
    2fac:	e28fc600 	add	ip, pc, #0, 12
    2fb0:	e28cca0d 	add	ip, ip, #53248	; 0xd000
    2fb4:	e5bcf064 	ldr	pc, [ip, #100]!	; 0x64

00002fb8 <_utee_log@plt>:
    2fb8:	e28fc600 	add	ip, pc, #0, 12
    2fbc:	e28cca0d 	add	ip, ip, #53248	; 0xd000
    2fc0:	e5bcf05c 	ldr	pc, [ip, #92]!	; 0x5c

00002fc4 <TEE_InvokeTACommand@plt>:
    2fc4:	e28fc600 	add	ip, pc, #0, 12
    2fc8:	e28cca0d 	add	ip, ip, #53248	; 0xd000
    2fcc:	e5bcf054 	ldr	pc, [ip, #84]!	; 0x54

00002fd0 <__utee_check_outbuf_annotation@plt>:
    2fd0:	e28fc600 	add	ip, pc, #0, 12
    2fd4:	e28cca0d 	add	ip, ip, #53248	; 0xd000
    2fd8:	e5bcf04c 	ldr	pc, [ip, #76]!	; 0x4c

00002fdc <_utee_cryp_random_number_generate@plt>:
    2fdc:	e28fc600 	add	ip, pc, #0, 12
    2fe0:	e28cca0d 	add	ip, ip, #53248	; 0xd000
    2fe4:	e5bcf044 	ldr	pc, [ip, #68]!	; 0x44

00002fe8 <vsnprintk@plt>:
    2fe8:	e28fc600 	add	ip, pc, #0, 12
    2fec:	e28cca0d 	add	ip, ip, #53248	; 0xd000
    2ff0:	e5bcf03c 	ldr	pc, [ip, #60]!	; 0x3c

00002ff4 <memmove@plt>:
    2ff4:	e28fc600 	add	ip, pc, #0, 12
    2ff8:	e28cca0d 	add	ip, ip, #53248	; 0xd000
    2ffc:	e5bcf034 	ldr	pc, [ip, #52]!	; 0x34

00003000 <_utee_cryp_obj_restrict_usage@plt>:
    3000:	e28fc600 	add	ip, pc, #0, 12
    3004:	e28cca0d 	add	ip, ip, #53248	; 0xd000
    3008:	e5bcf02c 	ldr	pc, [ip, #44]!	; 0x2c

0000300c <TEE_ResetTransientObject@plt>:
    300c:	e28fc600 	add	ip, pc, #0, 12
    3010:	e28cca0d 	add	ip, ip, #53248	; 0xd000
    3014:	e5bcf024 	ldr	pc, [ip, #36]!	; 0x24

00003018 <_utee_asymm_operate@plt>:
    3018:	e28fc600 	add	ip, pc, #0, 12
    301c:	e28cca0d 	add	ip, ip, #53248	; 0xd000
    3020:	e5bcf01c 	ldr	pc, [ip, #28]!

00003024 <_utee_storage_free_enum@plt>:
    3024:	e28fc600 	add	ip, pc, #0, 12
    3028:	e28cca0d 	add	ip, ip, #53248	; 0xd000
    302c:	e5bcf014 	ldr	pc, [ip, #20]!

00003030 <_utee_hash_init@plt>:
    3030:	e28fc600 	add	ip, pc, #0, 12
    3034:	e28cca0d 	add	ip, ip, #53248	; 0xd000
    3038:	e5bcf00c 	ldr	pc, [ip, #12]!

0000303c <trace_printf@plt>:
    303c:	e28fc600 	add	ip, pc, #0, 12
    3040:	e28cca0d 	add	ip, ip, #53248	; 0xd000
    3044:	e5bcf004 	ldr	pc, [ip, #4]!

00003048 <_utee_cache_operation@plt>:
    3048:	e28fc600 	add	ip, pc, #0, 12
    304c:	e28cca0c 	add	ip, ip, #12, 20	; 0xc000
    3050:	e5bcfffc 	ldr	pc, [ip, #4092]!	; 0xffc

00003054 <memcpy@plt>:
    3054:	e28fc600 	add	ip, pc, #0, 12
    3058:	e28cca0c 	add	ip, ip, #12, 20	; 0xc000
    305c:	e5bcfff4 	ldr	pc, [ip, #4084]!	; 0xff4

00003060 <TEE_Panic@plt>:
    3060:	e28fc600 	add	ip, pc, #0, 12
    3064:	e28cca0c 	add	ip, ip, #12, 20	; 0xc000
    3068:	e5bcffec 	ldr	pc, [ip, #4076]!	; 0xfec

0000306c <__aeabi_uldivmod@plt>:
    306c:	e28fc600 	add	ip, pc, #0, 12
    3070:	e28cca0c 	add	ip, ip, #12, 20	; 0xc000
    3074:	e5bcffe4 	ldr	pc, [ip, #4068]!	; 0xfe4

00003078 <malloc@plt>:
    3078:	e28fc600 	add	ip, pc, #0, 12
    307c:	e28cca0c 	add	ip, ip, #12, 20	; 0xc000
    3080:	e5bcffdc 	ldr	pc, [ip, #4060]!	; 0xfdc

00003084 <vsnprintf@plt>:
    3084:	e28fc600 	add	ip, pc, #0, 12
    3088:	e28cca0c 	add	ip, ip, #12, 20	; 0xc000
    308c:	e5bcffd4 	ldr	pc, [ip, #4052]!	; 0xfd4

00003090 <bgetr@plt>:
    3090:	e28fc600 	add	ip, pc, #0, 12
    3094:	e28cca0c 	add	ip, ip, #12, 20	; 0xc000
    3098:	e5bcffcc 	ldr	pc, [ip, #4044]!	; 0xfcc

0000309c <_utee_storage_obj_open@plt>:
    309c:	e28fc600 	add	ip, pc, #0, 12
    30a0:	e28cca0c 	add	ip, ip, #12, 20	; 0xc000
    30a4:	e5bcffc4 	ldr	pc, [ip, #4036]!	; 0xfc4

000030a8 <_utee_hash_update@plt>:
    30a8:	e28fc600 	add	ip, pc, #0, 12
    30ac:	e28cca0c 	add	ip, ip, #12, 20	; 0xc000
    30b0:	e5bcffbc 	ldr	pc, [ip, #4028]!	; 0xfbc

000030b4 <_utee_storage_next_enum@plt>:
    30b4:	e28fc600 	add	ip, pc, #0, 12
    30b8:	e28cca0c 	add	ip, ip, #12, 20	; 0xc000
    30bc:	e5bcffb4 	ldr	pc, [ip, #4020]!	; 0xfb4

000030c0 <bgetz@plt>:
    30c0:	e28fc600 	add	ip, pc, #0, 12
    30c4:	e28cca0c 	add	ip, ip, #12, 20	; 0xc000
    30c8:	e5bcffac 	ldr	pc, [ip, #4012]!	; 0xfac

000030cc <trace_vprintf@plt>:
    30cc:	e28fc600 	add	ip, pc, #0, 12
    30d0:	e28cca0c 	add	ip, ip, #12, 20	; 0xc000
    30d4:	e5bcffa4 	ldr	pc, [ip, #4004]!	; 0xfa4

000030d8 <_utee_storage_obj_del@plt>:
    30d8:	e28fc600 	add	ip, pc, #0, 12
    30dc:	e28cca0c 	add	ip, ip, #12, 20	; 0xc000
    30e0:	e5bcff9c 	ldr	pc, [ip, #3996]!	; 0xf9c

000030e4 <_assert_log@plt>:
    30e4:	e28fc600 	add	ip, pc, #0, 12
    30e8:	e28cca0c 	add	ip, ip, #12, 20	; 0xc000
    30ec:	e5bcff94 	ldr	pc, [ip, #3988]!	; 0xf94

000030f0 <_utee_cryp_state_copy@plt>:
    30f0:	e28fc600 	add	ip, pc, #0, 12
    30f4:	e28cca0c 	add	ip, ip, #12, 20	; 0xc000
    30f8:	e5bcff8c 	ldr	pc, [ip, #3980]!	; 0xf8c

000030fc <tee_unmap@plt>:
    30fc:	e28fc600 	add	ip, pc, #0, 12
    3100:	e28cca0c 	add	ip, ip, #12, 20	; 0xc000
    3104:	e5bcff84 	ldr	pc, [ip, #3972]!	; 0xf84

00003108 <__utee_check_out_annotation@plt>:
    3108:	e28fc600 	add	ip, pc, #0, 12
    310c:	e28cca0c 	add	ip, ip, #12, 20	; 0xc000
    3110:	e5bcff7c 	ldr	pc, [ip, #3964]!	; 0xf7c

00003114 <_utee_close_ta_session@plt>:
    3114:	e28fc600 	add	ip, pc, #0, 12
    3118:	e28cca0c 	add	ip, ip, #12, 20	; 0xc000
    311c:	e5bcff74 	ldr	pc, [ip, #3956]!	; 0xf74

00003120 <consttime_memcmp@plt>:
    3120:	e28fc600 	add	ip, pc, #0, 12
    3124:	e28cca0c 	add	ip, ip, #12, 20	; 0xc000
    3128:	e5bcff6c 	ldr	pc, [ip, #3948]!	; 0xf6c

0000312c <__utee_panic@plt>:
    312c:	e28fc600 	add	ip, pc, #0, 12
    3130:	e28cca0c 	add	ip, ip, #12, 20	; 0xc000
    3134:	e5bcff64 	ldr	pc, [ip, #3940]!	; 0xf64

00003138 <_utee_panic@plt>:
    3138:	e28fc600 	add	ip, pc, #0, 12
    313c:	e28cca0c 	add	ip, ip, #12, 20	; 0xc000
    3140:	e5bcff5c 	ldr	pc, [ip, #3932]!	; 0xf5c

00003144 <_utee_cryp_obj_generate_key@plt>:
    3144:	e28fc600 	add	ip, pc, #0, 12
    3148:	e28cca0c 	add	ip, ip, #12, 20	; 0xc000
    314c:	e5bcff54 	ldr	pc, [ip, #3924]!	; 0xf54

00003150 <_utee_storage_obj_trunc@plt>:
    3150:	e28fc600 	add	ip, pc, #0, 12
    3154:	e28cca0c 	add	ip, ip, #12, 20	; 0xc000
    3158:	e5bcff4c 	ldr	pc, [ip, #3916]!	; 0xf4c

0000315c <_utee_unmask_cancellation@plt>:
    315c:	e28fc600 	add	ip, pc, #0, 12
    3160:	e28cca0c 	add	ip, ip, #12, 20	; 0xc000
    3164:	e5bcff44 	ldr	pc, [ip, #3908]!	; 0xf44

00003168 <calloc@plt>:
    3168:	e28fc600 	add	ip, pc, #0, 12
    316c:	e28cca0c 	add	ip, ip, #12, 20	; 0xc000
    3170:	e5bcff3c 	ldr	pc, [ip, #3900]!	; 0xf3c

00003174 <TEE_Malloc@plt>:
    3174:	e28fc600 	add	ip, pc, #0, 12
    3178:	e28cca0c 	add	ip, ip, #12, 20	; 0xc000
    317c:	e5bcff34 	ldr	pc, [ip, #3892]!	; 0xf34

00003180 <TEE_CheckMemoryAccessRights@plt>:
    3180:	e28fc600 	add	ip, pc, #0, 12
    3184:	e28cca0c 	add	ip, ip, #12, 20	; 0xc000
    3188:	e5bcff2c 	ldr	pc, [ip, #3884]!	; 0xf2c

0000318c <__ul_divmod@plt>:
    318c:	e28fc600 	add	ip, pc, #0, 12
    3190:	e28cca0c 	add	ip, ip, #12, 20	; 0xc000
    3194:	e5bcff24 	ldr	pc, [ip, #3876]!	; 0xf24

00003198 <TEE_FreeOperation@plt>:
    3198:	e28fc600 	add	ip, pc, #0, 12
    319c:	e28cca0c 	add	ip, ip, #12, 20	; 0xc000
    31a0:	e5bcff1c 	ldr	pc, [ip, #3868]!	; 0xf1c

000031a4 <__utee_from_attr@plt>:
    31a4:	e28fc600 	add	ip, pc, #0, 12
    31a8:	e28cca0c 	add	ip, ip, #12, 20	; 0xc000
    31ac:	e5bcff14 	ldr	pc, [ip, #3860]!	; 0xf14

000031b0 <TEE_CloseAndDeletePersistentObject1@plt>:
    31b0:	e28fc600 	add	ip, pc, #0, 12
    31b4:	e28cca0c 	add	ip, ip, #12, 20	; 0xc000
    31b8:	e5bcff0c 	ldr	pc, [ip, #3852]!	; 0xf0c

000031bc <_utee_authenc_dec_final@plt>:
    31bc:	e28fc600 	add	ip, pc, #0, 12
    31c0:	e28cca0c 	add	ip, ip, #12, 20	; 0xc000
    31c4:	e5bcff04 	ldr	pc, [ip, #3844]!	; 0xf04

000031c8 <_utee_storage_obj_read@plt>:
    31c8:	e28fc600 	add	ip, pc, #0, 12
    31cc:	e28cca0c 	add	ip, ip, #12, 20	; 0xc000
    31d0:	e5bcfefc 	ldr	pc, [ip, #3836]!	; 0xefc

000031d4 <memchr@plt>:
    31d4:	e28fc600 	add	ip, pc, #0, 12
    31d8:	e28cca0c 	add	ip, ip, #12, 20	; 0xc000
    31dc:	e5bcfef4 	ldr	pc, [ip, #3828]!	; 0xef4

000031e0 <_utee_storage_obj_seek@plt>:
    31e0:	e28fc600 	add	ip, pc, #0, 12
    31e4:	e28cca0c 	add	ip, ip, #12, 20	; 0xc000
    31e8:	e5bcfeec 	ldr	pc, [ip, #3820]!	; 0xeec

000031ec <TEE_FreeTransientObject@plt>:
    31ec:	e28fc600 	add	ip, pc, #0, 12
    31f0:	e28cca0c 	add	ip, ip, #12, 20	; 0xc000
    31f4:	e5bcfee4 	ldr	pc, [ip, #3812]!	; 0xee4

000031f8 <_utee_check_access_rights@plt>:
    31f8:	e28fc600 	add	ip, pc, #0, 12
    31fc:	e28cca0c 	add	ip, ip, #12, 20	; 0xc000
    3200:	e5bcfedc 	ldr	pc, [ip, #3804]!	; 0xedc

00003204 <_utee_storage_reset_enum@plt>:
    3204:	e28fc600 	add	ip, pc, #0, 12
    3208:	e28cca0c 	add	ip, ip, #12, 20	; 0xc000
    320c:	e5bcfed4 	ldr	pc, [ip, #3796]!	; 0xed4

00003210 <rand@plt>:
    3210:	e28fc600 	add	ip, pc, #0, 12
    3214:	e28cca0c 	add	ip, ip, #12, 20	; 0xc000
    3218:	e5bcfecc 	ldr	pc, [ip, #3788]!	; 0xecc

0000321c <__utee_check_attr_in_annotation@plt>:
    321c:	e28fc600 	add	ip, pc, #0, 12
    3220:	e28cca0c 	add	ip, ip, #12, 20	; 0xc000
    3224:	e5bcfec4 	ldr	pc, [ip, #3780]!	; 0xec4

00003228 <_utee_authenc_update_payload@plt>:
    3228:	e28fc600 	add	ip, pc, #0, 12
    322c:	e28cca0c 	add	ip, ip, #12, 20	; 0xc000
    3230:	e5bcfebc 	ldr	pc, [ip, #3772]!	; 0xebc

00003234 <_utee_cryp_obj_alloc@plt>:
    3234:	e28fc600 	add	ip, pc, #0, 12
    3238:	e28cca0c 	add	ip, ip, #12, 20	; 0xc000
    323c:	e5bcfeb4 	ldr	pc, [ip, #3764]!	; 0xeb4

00003240 <_utee_set_ta_time@plt>:
    3240:	e28fc600 	add	ip, pc, #0, 12
    3244:	e28cca0c 	add	ip, ip, #12, 20	; 0xc000
    3248:	e5bcfeac 	ldr	pc, [ip, #3756]!	; 0xeac

0000324c <_utee_invoke_ta_command@plt>:
    324c:	e28fc600 	add	ip, pc, #0, 12
    3250:	e28cca0c 	add	ip, ip, #12, 20	; 0xc000
    3254:	e5bcfea4 	ldr	pc, [ip, #3748]!	; 0xea4

00003258 <TEE_RestrictObjectUsage1@plt>:
    3258:	e28fc600 	add	ip, pc, #0, 12
    325c:	e28cca0c 	add	ip, ip, #12, 20	; 0xc000
    3260:	e5bcfe9c 	ldr	pc, [ip, #3740]!	; 0xe9c

00003264 <realloc@plt>:
    3264:	e28fc600 	add	ip, pc, #0, 12
    3268:	e28cca0c 	add	ip, ip, #12, 20	; 0xc000
    326c:	e5bcfe94 	ldr	pc, [ip, #3732]!	; 0xe94

00003270 <TEE_ResetOperation@plt>:
    3270:	e28fc600 	add	ip, pc, #0, 12
    3274:	e28cca0c 	add	ip, ip, #12, 20	; 0xc000
    3278:	e5bcfe8c 	ldr	pc, [ip, #3724]!	; 0xe8c

0000327c <TEE_MemFill@plt>:
    327c:	e28fc600 	add	ip, pc, #0, 12
    3280:	e28cca0c 	add	ip, ip, #12, 20	; 0xc000
    3284:	e5bcfe84 	ldr	pc, [ip, #3716]!	; 0xe84

00003288 <_ZN19OsTestLibDlCtorTestC1Ev@plt>:
    3288:	e28fc600 	add	ip, pc, #0, 12
    328c:	e28cca0c 	add	ip, ip, #12, 20	; 0xc000
    3290:	e5bcfe7c 	ldr	pc, [ip, #3708]!	; 0xe7c

00003294 <trace_get_level@plt>:
    3294:	e28fc600 	add	ip, pc, #0, 12
    3298:	e28cca0c 	add	ip, ip, #12, 20	; 0xc000
    329c:	e5bcfe74 	ldr	pc, [ip, #3700]!	; 0xe74

000032a0 <_utee_cipher_init@plt>:
    32a0:	e28fc600 	add	ip, pc, #0, 12
    32a4:	e28cca0c 	add	ip, ip, #12, 20	; 0xc000
    32a8:	e5bcfe6c 	ldr	pc, [ip, #3692]!	; 0xe6c

000032ac <_utee_cryp_obj_get_info@plt>:
    32ac:	e28fc600 	add	ip, pc, #0, 12
    32b0:	e28cca0c 	add	ip, ip, #12, 20	; 0xc000
    32b4:	e5bcfe64 	ldr	pc, [ip, #3684]!	; 0xe64

000032b8 <bpool@plt>:
    32b8:	e28fc600 	add	ip, pc, #0, 12
    32bc:	e28cca0c 	add	ip, ip, #12, 20	; 0xc000
    32c0:	e5bcfe5c 	ldr	pc, [ip, #3676]!	; 0xe5c

000032c4 <_utee_cryp_state_alloc@plt>:
    32c4:	e28fc600 	add	ip, pc, #0, 12
    32c8:	e28cca0c 	add	ip, ip, #12, 20	; 0xc000
    32cc:	e5bcfe54 	ldr	pc, [ip, #3668]!	; 0xe54

000032d0 <memset@plt>:
    32d0:	e28fc600 	add	ip, pc, #0, 12
    32d4:	e28cca0c 	add	ip, ip, #12, 20	; 0xc000
    32d8:	e5bcfe4c 	ldr	pc, [ip, #3660]!	; 0xe4c

000032dc <_utee_cryp_obj_get_attr@plt>:
    32dc:	e28fc600 	add	ip, pc, #0, 12
    32e0:	e28cca0c 	add	ip, ip, #12, 20	; 0xc000
    32e4:	e5bcfe44 	ldr	pc, [ip, #3652]!	; 0xe44

000032e8 <TEE_GetObjectInfo1@plt>:
    32e8:	e28fc600 	add	ip, pc, #0, 12
    32ec:	e28cca0c 	add	ip, ip, #12, 20	; 0xc000
    32f0:	e5bcfe3c 	ldr	pc, [ip, #3644]!	; 0xe3c

000032f4 <_utee_cipher_final@plt>:
    32f4:	e28fc600 	add	ip, pc, #0, 12
    32f8:	e28cca0c 	add	ip, ip, #12, 20	; 0xc000
    32fc:	e5bcfe34 	ldr	pc, [ip, #3636]!	; 0xe34

00003300 <TEE_SetOperationKey@plt>:
    3300:	e28fc600 	add	ip, pc, #0, 12
    3304:	e28cca0c 	add	ip, ip, #12, 20	; 0xc000
    3308:	e5bcfe2c 	ldr	pc, [ip, #3628]!	; 0xe2c

0000330c <_utee_cryp_state_free@plt>:
    330c:	e28fc600 	add	ip, pc, #0, 12
    3310:	e28cca0c 	add	ip, ip, #12, 20	; 0xc000
    3314:	e5bcfe24 	ldr	pc, [ip, #3620]!	; 0xe24

00003318 <_utee_open_ta_session@plt>:
    3318:	e28fc600 	add	ip, pc, #0, 12
    331c:	e28cca0c 	add	ip, ip, #12, 20	; 0xc000
    3320:	e5bcfe1c 	ldr	pc, [ip, #3612]!	; 0xe1c

00003324 <_utee_storage_start_enum@plt>:
    3324:	e28fc600 	add	ip, pc, #0, 12
    3328:	e28cca0c 	add	ip, ip, #12, 20	; 0xc000
    332c:	e5bcfe14 	ldr	pc, [ip, #3604]!	; 0xe14

00003330 <tee_map_zi@plt>:
    3330:	e28fc600 	add	ip, pc, #0, 12
    3334:	e28cca0c 	add	ip, ip, #12, 20	; 0xc000
    3338:	e5bcfe0c 	ldr	pc, [ip, #3596]!	; 0xe0c

0000333c <_utee_authenc_enc_final@plt>:
    333c:	e28fc600 	add	ip, pc, #0, 12
    3340:	e28cca0c 	add	ip, ip, #12, 20	; 0xc000
    3344:	e5bcfe04 	ldr	pc, [ip, #3588]!	; 0xe04

00003348 <_utee_cryp_obj_close@plt>:
    3348:	e28fc600 	add	ip, pc, #0, 12
    334c:	e28cca0c 	add	ip, ip, #12, 20	; 0xc000
    3350:	e5bcfdfc 	ldr	pc, [ip, #3580]!	; 0xdfc

00003354 <_utee_mask_cancellation@plt>:
    3354:	e28fc600 	add	ip, pc, #0, 12
    3358:	e28cca0c 	add	ip, ip, #12, 20	; 0xc000
    335c:	e5bcfdf4 	ldr	pc, [ip, #3572]!	; 0xdf4

00003360 <_utee_storage_obj_rename@plt>:
    3360:	e28fc600 	add	ip, pc, #0, 12
    3364:	e28cca0c 	add	ip, ip, #12, 20	; 0xc000
    3368:	e5bcfdec 	ldr	pc, [ip, #3564]!	; 0xdec

0000336c <_utee_storage_obj_write@plt>:
    336c:	e28fc600 	add	ip, pc, #0, 12
    3370:	e28cca0c 	add	ip, ip, #12, 20	; 0xc000
    3374:	e5bcfde4 	ldr	pc, [ip, #3556]!	; 0xde4

00003378 <_utee_authenc_update_aad@plt>:
    3378:	e28fc600 	add	ip, pc, #0, 12
    337c:	e28cca0c 	add	ip, ip, #12, 20	; 0xc000
    3380:	e5bcfddc 	ldr	pc, [ip, #3548]!	; 0xddc

00003384 <snprintk@plt>:
    3384:	e28fc600 	add	ip, pc, #0, 12
    3388:	e28cca0c 	add	ip, ip, #12, 20	; 0xc000
    338c:	e5bcfdd4 	ldr	pc, [ip, #3540]!	; 0xdd4

00003390 <_utee_cryp_obj_copy@plt>:
    3390:	e28fc600 	add	ip, pc, #0, 12
    3394:	e28cca0c 	add	ip, ip, #12, 20	; 0xc000
    3398:	e5bcfdcc 	ldr	pc, [ip, #3532]!	; 0xdcc

0000339c <bget@plt>:
    339c:	e28fc600 	add	ip, pc, #0, 12
    33a0:	e28cca0c 	add	ip, ip, #12, 20	; 0xc000
    33a4:	e5bcfdc4 	ldr	pc, [ip, #3524]!	; 0xdc4

000033a8 <TEE_AllocateTransientObject@plt>:
    33a8:	e28fc600 	add	ip, pc, #0, 12
    33ac:	e28cca0c 	add	ip, ip, #12, 20	; 0xc000
    33b0:	e5bcfdbc 	ldr	pc, [ip, #3516]!	; 0xdbc

000033b4 <_utee_wait@plt>:
    33b4:	e28fc600 	add	ip, pc, #0, 12
    33b8:	e28cca0c 	add	ip, ip, #12, 20	; 0xc000
    33bc:	e5bcfdb4 	ldr	pc, [ip, #3508]!	; 0xdb4

000033c0 <TEE_Free@plt>:
    33c0:	e28fc600 	add	ip, pc, #0, 12
    33c4:	e28cca0c 	add	ip, ip, #12, 20	; 0xc000
    33c8:	e5bcfdac 	ldr	pc, [ip, #3500]!	; 0xdac

000033cc <_assert_break@plt>:
    33cc:	e28fc600 	add	ip, pc, #0, 12
    33d0:	e28cca0c 	add	ip, ip, #12, 20	; 0xc000
    33d4:	e5bcfda4 	ldr	pc, [ip, #3492]!	; 0xda4

000033d8 <_utee_get_time@plt>:
    33d8:	e28fc600 	add	ip, pc, #0, 12
    33dc:	e28cca0c 	add	ip, ip, #12, 20	; 0xc000
    33e0:	e5bcfd9c 	ldr	pc, [ip, #3484]!	; 0xd9c

000033e4 <_utee_cryp_obj_populate@plt>:
    33e4:	e28fc600 	add	ip, pc, #0, 12
    33e8:	e28cca0c 	add	ip, ip, #12, 20	; 0xc000
    33ec:	e5bcfd94 	ldr	pc, [ip, #3476]!	; 0xd94

000033f0 <TEE_GenerateRandom@plt>:
    33f0:	e28fc600 	add	ip, pc, #0, 12
    33f4:	e28cca0c 	add	ip, ip, #12, 20	; 0xc000
    33f8:	e5bcfd8c 	ldr	pc, [ip, #3468]!	; 0xd8c

000033fc <_utee_cipher_update@plt>:
    33fc:	e28fc600 	add	ip, pc, #0, 12
    3400:	e28cca0c 	add	ip, ip, #12, 20	; 0xc000
    3404:	e5bcfd84 	ldr	pc, [ip, #3460]!	; 0xd84

00003408 <__vsnprintf@plt>:
    3408:	e28fc600 	add	ip, pc, #0, 12
    340c:	e28cca0c 	add	ip, ip, #12, 20	; 0xc000
    3410:	e5bcfd7c 	ldr	pc, [ip, #3452]!	; 0xd7c

00003414 <TEE_OpenTASession@plt>:
    3414:	e28fc600 	add	ip, pc, #0, 12
    3418:	e28cca0c 	add	ip, ip, #12, 20	; 0xc000
    341c:	e5bcfd74 	ldr	pc, [ip, #3444]!	; 0xd74

00003420 <trace_ext_puts@plt>:
    3420:	e28fc600 	add	ip, pc, #0, 12
    3424:	e28cca0c 	add	ip, ip, #12, 20	; 0xc000
    3428:	e5bcfd6c 	ldr	pc, [ip, #3436]!	; 0xd6c

0000342c <trace_ext_get_thread_id@plt>:
    342c:	e28fc600 	add	ip, pc, #0, 12
    3430:	e28cca0c 	add	ip, ip, #12, 20	; 0xc000
    3434:	e5bcfd64 	ldr	pc, [ip, #3428]!	; 0xd64

00003438 <_utee_cryp_derive_key@plt>:
    3438:	e28fc600 	add	ip, pc, #0, 12
    343c:	e28cca0c 	add	ip, ip, #12, 20	; 0xc000
    3440:	e5bcfd5c 	ldr	pc, [ip, #3420]!	; 0xd5c

00003444 <_utee_cryp_obj_reset@plt>:
    3444:	e28fc600 	add	ip, pc, #0, 12
    3448:	e28cca0c 	add	ip, ip, #12, 20	; 0xc000
    344c:	e5bcfd54 	ldr	pc, [ip, #3412]!	; 0xd54

00003450 <_utee_authenc_init@plt>:
    3450:	e28fc600 	add	ip, pc, #0, 12
    3454:	e28cca0c 	add	ip, ip, #12, 20	; 0xc000
    3458:	e5bcfd4c 	ldr	pc, [ip, #3404]!	; 0xd4c

0000345c <TEE_CopyObjectAttributes1@plt>:
    345c:	e28fc600 	add	ip, pc, #0, 12
    3460:	e28cca0c 	add	ip, ip, #12, 20	; 0xc000
    3464:	e5bcfd44 	ldr	pc, [ip, #3396]!	; 0xd44

00003468 <strlen@plt>:
    3468:	e28fc600 	add	ip, pc, #0, 12
    346c:	e28cca0c 	add	ip, ip, #12, 20	; 0xc000
    3470:	e5bcfd3c 	ldr	pc, [ip, #3388]!	; 0xd3c

00003474 <_utee_storage_alloc_enum@plt>:
    3474:	e28fc600 	add	ip, pc, #0, 12
    3478:	e28cca0c 	add	ip, ip, #12, 20	; 0xc000
    347c:	e5bcfd34 	ldr	pc, [ip, #3380]!	; 0xd34

00003480 <_utee_asymm_verify@plt>:
    3480:	e28fc600 	add	ip, pc, #0, 12
    3484:	e28cca0c 	add	ip, ip, #12, 20	; 0xc000
    3488:	e5bcfd2c 	ldr	pc, [ip, #3372]!	; 0xd2c

0000348c <brel@plt>:
    348c:	e28fc600 	add	ip, pc, #0, 12
    3490:	e28cca0c 	add	ip, ip, #12, 20	; 0xc000
    3494:	e5bcfd24 	ldr	pc, [ip, #3364]!	; 0xd24

00003498 <_utee_get_cancellation_flag@plt>:
    3498:	e28fc600 	add	ip, pc, #0, 12
    349c:	e28cca0c 	add	ip, ip, #12, 20	; 0xc000
    34a0:	e5bcfd1c 	ldr	pc, [ip, #3356]!	; 0xd1c

000034a4 <_utee_storage_obj_create@plt>:
    34a4:	e28fc600 	add	ip, pc, #0, 12
    34a8:	e28cca0c 	add	ip, ip, #12, 20	; 0xc000
    34ac:	e5bcfd14 	ldr	pc, [ip, #3348]!	; 0xd14

000034b0 <free@plt>:
    34b0:	e28fc600 	add	ip, pc, #0, 12
    34b4:	e28cca0c 	add	ip, ip, #12, 20	; 0xc000
    34b8:	e5bcfd0c 	ldr	pc, [ip, #3340]!	; 0xd0c

000034bc <bstats@plt>:
    34bc:	e28fc600 	add	ip, pc, #0, 12
    34c0:	e28cca0c 	add	ip, ip, #12, 20	; 0xc000
    34c4:	e5bcfd04 	ldr	pc, [ip, #3332]!	; 0xd04

000034c8 <TEE_MACComputeFinal@plt>:
    34c8:	e28fc600 	add	ip, pc, #0, 12
    34cc:	e28cca0c 	add	ip, ip, #12, 20	; 0xc000
    34d0:	e5bcfcfc 	ldr	pc, [ip, #3324]!	; 0xcfc

000034d4 <_utee_hash_final@plt>:
    34d4:	e28fc600 	add	ip, pc, #0, 12
    34d8:	e28cca0c 	add	ip, ip, #12, 20	; 0xc000
    34dc:	e5bcfcf4 	ldr	pc, [ip, #3316]!	; 0xcf4

Disassembly of section .text:

000034e0 <os_test_shlib_dl_init>:
os_test_shlib_dl_init():
/home/qemu-sgx/devel/optee/out-br/build/optee_test_ext-1.0/ta/os_test_lib_dl/os_test_lib_dl.c:13
    34e0:	f84d 7d04 	str.w	r7, [sp, #-4]!
    34e4:	af00      	add	r7, sp, #0
    34e6:	4a0e      	ldr	r2, [pc, #56]	; (3520 <os_test_shlib_dl_init+0x40>)
    34e8:	447a      	add	r2, pc
/home/qemu-sgx/devel/optee/out-br/build/optee_test_ext-1.0/ta/os_test_lib_dl/os_test_lib_dl.c:14
    34ea:	4b0e      	ldr	r3, [pc, #56]	; (3524 <os_test_shlib_dl_init+0x44>)
    34ec:	58d3      	ldr	r3, [r2, r3]
    34ee:	6819      	ldr	r1, [r3, #0]
    34f0:	460b      	mov	r3, r1
    34f2:	ea4f 0383 	mov.w	r3, r3, lsl #2
    34f6:	440b      	add	r3, r1
    34f8:	ea4f 0343 	mov.w	r3, r3, lsl #1
    34fc:	4619      	mov	r1, r3
    34fe:	4b09      	ldr	r3, [pc, #36]	; (3524 <os_test_shlib_dl_init+0x44>)
    3500:	58d3      	ldr	r3, [r2, r3]
    3502:	6019      	str	r1, [r3, #0]
/home/qemu-sgx/devel/optee/out-br/build/optee_test_ext-1.0/ta/os_test_lib_dl/os_test_lib_dl.c:15
    3504:	4b07      	ldr	r3, [pc, #28]	; (3524 <os_test_shlib_dl_init+0x44>)
    3506:	58d3      	ldr	r3, [r2, r3]
    3508:	681b      	ldr	r3, [r3, #0]
    350a:	f103 0103 	add.w	r1, r3, #3
    350e:	4b05      	ldr	r3, [pc, #20]	; (3524 <os_test_shlib_dl_init+0x44>)
    3510:	58d3      	ldr	r3, [r2, r3]
    3512:	6019      	str	r1, [r3, #0]
/home/qemu-sgx/devel/optee/out-br/build/optee_test_ext-1.0/ta/os_test_lib_dl/os_test_lib_dl.c:17
    3514:	bf00      	nop
    3516:	46bd      	mov	sp, r7
    3518:	f85d 7b04 	ldr.w	r7, [sp], #4
    351c:	4770      	bx	lr
    351e:	bf00      	nop
    3520:	0000cb14 	.word	0x0000cb14
    3524:	000001e0 	.word	0x000001e0

00003528 <os_test_shlib_dl_add>:
os_test_shlib_dl_add():
/home/qemu-sgx/devel/optee/out-br/build/optee_test_ext-1.0/ta/os_test_lib_dl/os_test_lib_dl.c:20
    3528:	f84d 7d04 	str.w	r7, [sp, #-4]!
    352c:	b083      	sub	sp, #12
    352e:	af00      	add	r7, sp, #0
    3530:	6078      	str	r0, [r7, #4]
    3532:	6039      	str	r1, [r7, #0]
/home/qemu-sgx/devel/optee/out-br/build/optee_test_ext-1.0/ta/os_test_lib_dl/os_test_lib_dl.c:21
    3534:	687a      	ldr	r2, [r7, #4]
    3536:	683b      	ldr	r3, [r7, #0]
    3538:	4413      	add	r3, r2
/home/qemu-sgx/devel/optee/out-br/build/optee_test_ext-1.0/ta/os_test_lib_dl/os_test_lib_dl.c:22
    353a:	4618      	mov	r0, r3
    353c:	f107 070c 	add.w	r7, r7, #12
    3540:	46bd      	mov	sp, r7
    3542:	f85d 7b04 	ldr.w	r7, [sp], #4
    3546:	4770      	bx	lr

00003548 <os_test_shlib_dl_panic>:
os_test_shlib_dl_panic():
/home/qemu-sgx/devel/optee/out-br/build/optee_test_ext-1.0/ta/os_test_lib_dl/os_test_lib_dl.c:25
    3548:	e96d 7e02 	strd	r7, lr, [sp, #-8]!
    354c:	af00      	add	r7, sp, #0
/home/qemu-sgx/devel/optee/out-br/build/optee_test_ext-1.0/ta/os_test_lib_dl/os_test_lib_dl.c:26
    354e:	f04f 0000 	mov.w	r0, #0
    3552:	f7ff ed86 	blx	3060 <TEE_Panic@plt>
/home/qemu-sgx/devel/optee/out-br/build/optee_test_ext-1.0/ta/os_test_lib_dl/os_test_lib_dl.c:27
    3556:	bf00      	nop
    3558:	46bd      	mov	sp, r7
    355a:	bd80      	pop	{r7, pc}

0000355c <os_test_shlib_dl_cxx_ctor>:
os_test_shlib_dl_cxx_ctor():
/home/qemu-sgx/devel/optee/out-br/build/optee_test_ext-1.0/ta/os_test_lib_dl/os_test_lib_dl_cxx.cpp:21
    355c:	f84d 7d04 	str.w	r7, [sp, #-4]!
    3560:	af00      	add	r7, sp, #0
/home/qemu-sgx/devel/optee/out-br/build/optee_test_ext-1.0/ta/os_test_lib_dl/os_test_lib_dl_cxx.cpp:22
    3562:	4b08      	ldr	r3, [pc, #32]	; (3584 <os_test_shlib_dl_cxx_ctor+0x28>)
    3564:	447b      	add	r3, pc
    3566:	681b      	ldr	r3, [r3, #0]
    3568:	2b02      	cmp	r3, #2
    356a:	d004      	beq.n	3576 <os_test_shlib_dl_cxx_ctor+0x1a>
/home/qemu-sgx/devel/optee/out-br/build/optee_test_ext-1.0/ta/os_test_lib_dl/os_test_lib_dl_cxx.cpp:23
    356c:	f04f 0300 	mov.w	r3, #0
    3570:	f6cf 73ff 	movt	r3, #65535	; 0xffff
    3574:	e001      	b.n	357a <os_test_shlib_dl_cxx_ctor+0x1e>
/home/qemu-sgx/devel/optee/out-br/build/optee_test_ext-1.0/ta/os_test_lib_dl/os_test_lib_dl_cxx.cpp:25
    3576:	f04f 0300 	mov.w	r3, #0
/home/qemu-sgx/devel/optee/out-br/build/optee_test_ext-1.0/ta/os_test_lib_dl/os_test_lib_dl_cxx.cpp:26
    357a:	4618      	mov	r0, r3
    357c:	46bd      	mov	sp, r7
    357e:	f85d 7b04 	ldr.w	r7, [sp], #4
    3582:	4770      	bx	lr
    3584:	0000ccfc 	.word	0x0000ccfc

00003588 <_Z41__static_initialization_and_destruction_0ii>:
_Z41__static_initialization_and_destruction_0ii():
/home/qemu-sgx/devel/optee/out-br/build/optee_test_ext-1.0/ta/os_test_lib_dl/os_test_lib_dl_cxx.cpp:26
    3588:	e96d 7e02 	strd	r7, lr, [sp, #-8]!
    358c:	b082      	sub	sp, #8
    358e:	af00      	add	r7, sp, #0
    3590:	6078      	str	r0, [r7, #4]
    3592:	6039      	str	r1, [r7, #0]
    3594:	687b      	ldr	r3, [r7, #4]
    3596:	2b01      	cmp	r3, #1
    3598:	d109      	bne.n	35ae <_Z41__static_initialization_and_destruction_0ii+0x26>
/home/qemu-sgx/devel/optee/out-br/build/optee_test_ext-1.0/ta/os_test_lib_dl/os_test_lib_dl_cxx.cpp:26 (discriminator 1)
    359a:	683b      	ldr	r3, [r7, #0]
    359c:	f64f 72ff 	movw	r2, #65535	; 0xffff
    35a0:	4293      	cmp	r3, r2
    35a2:	d104      	bne.n	35ae <_Z41__static_initialization_and_destruction_0ii+0x26>
/home/qemu-sgx/devel/optee/out-br/build/optee_test_ext-1.0/ta/os_test_lib_dl/os_test_lib_dl_cxx.cpp:18
    35a4:	4b04      	ldr	r3, [pc, #16]	; (35b8 <_Z41__static_initialization_and_destruction_0ii+0x30>)
    35a6:	447b      	add	r3, pc
    35a8:	4618      	mov	r0, r3
    35aa:	f7ff ee6e 	blx	3288 <_ZN19OsTestLibDlCtorTestC1Ev@plt>
/home/qemu-sgx/devel/optee/out-br/build/optee_test_ext-1.0/ta/os_test_lib_dl/os_test_lib_dl_cxx.cpp:26
    35ae:	bf00      	nop
    35b0:	f107 0708 	add.w	r7, r7, #8
    35b4:	46bd      	mov	sp, r7
    35b6:	bd80      	pop	{r7, pc}
    35b8:	0000ccba 	.word	0x0000ccba

000035bc <_GLOBAL__sub_I_os_test_lib_dl_cxx.cpp>:
_GLOBAL__sub_I_os_test_lib_dl_cxx.cpp():
/home/qemu-sgx/devel/optee/out-br/build/optee_test_ext-1.0/ta/os_test_lib_dl/os_test_lib_dl_cxx.cpp:26
    35bc:	e96d 7e02 	strd	r7, lr, [sp, #-8]!
    35c0:	af00      	add	r7, sp, #0
    35c2:	f64f 71ff 	movw	r1, #65535	; 0xffff
    35c6:	f04f 0001 	mov.w	r0, #1
    35ca:	f7ff ffdd 	bl	3588 <_Z41__static_initialization_and_destruction_0ii>
    35ce:	46bd      	mov	sp, r7
    35d0:	bd80      	pop	{r7, pc}
    35d2:	bf00      	nop

000035d4 <_ZN19OsTestLibDlCtorTestC1Ev>:
_ZN19OsTestLibDlCtorTestC2Ev():
/home/qemu-sgx/devel/optee/out-br/build/optee_test_ext-1.0/ta/os_test_lib_dl/os_test_lib_dl_cxx.cpp:13
    35d4:	f84d 7d04 	str.w	r7, [sp, #-4]!
    35d8:	b083      	sub	sp, #12
    35da:	af00      	add	r7, sp, #0
    35dc:	6078      	str	r0, [r7, #4]
    35de:	687b      	ldr	r3, [r7, #4]
    35e0:	f04f 0202 	mov.w	r2, #2
    35e4:	601a      	str	r2, [r3, #0]
    35e6:	687b      	ldr	r3, [r7, #4]
    35e8:	4618      	mov	r0, r3
    35ea:	f107 070c 	add.w	r7, r7, #12
    35ee:	46bd      	mov	sp, r7
    35f0:	f85d 7b04 	ldr.w	r7, [sp], #4
    35f4:	4770      	bx	lr

000035f6 <__aeabi_unwind_cpp_pr0>:
__aeabi_unwind_cpp_pr0():
/home/qemu-sgx/devel/optee/optee_os/lib/libutils/ext/arch/arm/aeabi_unwind.c:8
    35f6:	f84d 7d04 	str.w	r7, [sp, #-4]!
    35fa:	af00      	add	r7, sp, #0
/home/qemu-sgx/devel/optee/optee_os/lib/libutils/ext/arch/arm/aeabi_unwind.c:9
    35fc:	bf00      	nop
    35fe:	46bd      	mov	sp, r7
    3600:	f85d 7b04 	ldr.w	r7, [sp], #4
    3604:	4770      	bx	lr

00003606 <__aeabi_unwind_cpp_pr1>:
__aeabi_unwind_cpp_pr1():
/home/qemu-sgx/devel/optee/optee_os/lib/libutils/ext/arch/arm/aeabi_unwind.c:13
    3606:	f84d 7d04 	str.w	r7, [sp, #-4]!
    360a:	af00      	add	r7, sp, #0
/home/qemu-sgx/devel/optee/optee_os/lib/libutils/ext/arch/arm/aeabi_unwind.c:14
    360c:	bf00      	nop
    360e:	46bd      	mov	sp, r7
    3610:	f85d 7b04 	ldr.w	r7, [sp], #4
    3614:	4770      	bx	lr

00003616 <__aeabi_unwind_cpp_pr2>:
__aeabi_unwind_cpp_pr2():
/home/qemu-sgx/devel/optee/optee_os/lib/libutils/ext/arch/arm/aeabi_unwind.c:18
    3616:	f84d 7d04 	str.w	r7, [sp, #-4]!
    361a:	af00      	add	r7, sp, #0
/home/qemu-sgx/devel/optee/optee_os/lib/libutils/ext/arch/arm/aeabi_unwind.c:19
    361c:	bf00      	nop
    361e:	46bd      	mov	sp, r7
    3620:	f85d 7b04 	ldr.w	r7, [sp], #4
    3624:	4770      	bx	lr
	...

00003628 <TEE_Panic>:
TEE_Panic():
/home/qemu-sgx/devel/optee/optee_os/lib/libutee/tee_api_panic.c:23
    3628:	e96d 7e02 	strd	r7, lr, [sp, #-8]!
    362c:	b082      	sub	sp, #8
    362e:	af00      	add	r7, sp, #0
    3630:	6078      	str	r0, [r7, #4]
/home/qemu-sgx/devel/optee/optee_os/lib/libutee/tee_api_panic.c:24
    3632:	6878      	ldr	r0, [r7, #4]
    3634:	f7ff ed80 	blx	3138 <_utee_panic@plt>
/home/qemu-sgx/devel/optee/optee_os/lib/libutee/tee_api_panic.c:28
    3638:	bf00      	nop
    363a:	f107 0708 	add.w	r7, r7, #8
    363e:	46bd      	mov	sp, r7
    3640:	bd80      	pop	{r7, pc}

00003642 <check_res>:
check_res():
/home/qemu-sgx/devel/optee/optee_os/lib/libutee/tee_api_panic.c:31
    3642:	e96d 7e02 	strd	r7, lr, [sp, #-8]!
    3646:	b082      	sub	sp, #8
    3648:	af00      	add	r7, sp, #0
    364a:	6078      	str	r0, [r7, #4]
    364c:	6039      	str	r1, [r7, #0]
/home/qemu-sgx/devel/optee/optee_os/lib/libutee/tee_api_panic.c:32
    364e:	683b      	ldr	r3, [r7, #0]
    3650:	2b00      	cmp	r3, #0
    3652:	d003      	beq.n	365c <check_res+0x1a>
/home/qemu-sgx/devel/optee/optee_os/lib/libutee/tee_api_panic.c:34
    3654:	f04f 0000 	mov.w	r0, #0
    3658:	f7ff ed02 	blx	3060 <TEE_Panic@plt>
/home/qemu-sgx/devel/optee/optee_os/lib/libutee/tee_api_panic.c:36
    365c:	bf00      	nop
    365e:	f107 0708 	add.w	r7, r7, #8
    3662:	46bd      	mov	sp, r7
    3664:	bd80      	pop	{r7, pc}

00003666 <check_access>:
check_access():
/home/qemu-sgx/devel/optee/optee_os/lib/libutee/tee_api_panic.c:39
    3666:	e96d 7e02 	strd	r7, lr, [sp, #-8]!
    366a:	b084      	sub	sp, #16
    366c:	af00      	add	r7, sp, #0
    366e:	60f8      	str	r0, [r7, #12]
    3670:	60b9      	str	r1, [r7, #8]
    3672:	607a      	str	r2, [r7, #4]
/home/qemu-sgx/devel/optee/optee_os/lib/libutee/tee_api_panic.c:40
    3674:	687b      	ldr	r3, [r7, #4]
    3676:	2b00      	cmp	r3, #0
    3678:	d102      	bne.n	3680 <check_access+0x1a>
/home/qemu-sgx/devel/optee/optee_os/lib/libutee/tee_api_panic.c:41
    367a:	f04f 0300 	mov.w	r3, #0
    367e:	e00d      	b.n	369c <check_access+0x36>
/home/qemu-sgx/devel/optee/optee_os/lib/libutee/tee_api_panic.c:43
    3680:	68bb      	ldr	r3, [r7, #8]
    3682:	2b00      	cmp	r3, #0
    3684:	d104      	bne.n	3690 <check_access+0x2a>
/home/qemu-sgx/devel/optee/optee_os/lib/libutee/tee_api_panic.c:44
    3686:	f04f 030f 	mov.w	r3, #15
    368a:	f6cf 73ff 	movt	r3, #65535	; 0xffff
    368e:	e005      	b.n	369c <check_access+0x36>
/home/qemu-sgx/devel/optee/optee_os/lib/libutee/tee_api_panic.c:47
    3690:	687a      	ldr	r2, [r7, #4]
    3692:	68b9      	ldr	r1, [r7, #8]
    3694:	68f8      	ldr	r0, [r7, #12]
    3696:	f7ff ed74 	blx	3180 <TEE_CheckMemoryAccessRights@plt>
    369a:	4603      	mov	r3, r0
/home/qemu-sgx/devel/optee/optee_os/lib/libutee/tee_api_panic.c:50
    369c:	4618      	mov	r0, r3
    369e:	f107 0710 	add.w	r7, r7, #16
    36a2:	46bd      	mov	sp, r7
    36a4:	bd80      	pop	{r7, pc}

000036a6 <__utee_check_outbuf_annotation>:
__utee_check_outbuf_annotation():
/home/qemu-sgx/devel/optee/optee_os/lib/libutee/tee_api_panic.c:53
    36a6:	e96d 7e02 	strd	r7, lr, [sp, #-8]!
    36aa:	b082      	sub	sp, #8
    36ac:	af00      	add	r7, sp, #0
    36ae:	6078      	str	r0, [r7, #4]
    36b0:	6039      	str	r1, [r7, #0]
/home/qemu-sgx/devel/optee/optee_os/lib/libutee/tee_api_panic.c:54
    36b2:	f04f 0204 	mov.w	r2, #4
    36b6:	6839      	ldr	r1, [r7, #0]
    36b8:	f04f 0003 	mov.w	r0, #3
    36bc:	f7ff ffd3 	bl	3666 <check_access>
    36c0:	4603      	mov	r3, r0
    36c2:	4619      	mov	r1, r3
    36c4:	4b0c      	ldr	r3, [pc, #48]	; (36f8 <__utee_check_outbuf_annotation+0x52>)
    36c6:	447b      	add	r3, pc
    36c8:	4618      	mov	r0, r3
    36ca:	f7ff ffba 	bl	3642 <check_res>
/home/qemu-sgx/devel/optee/optee_os/lib/libutee/tee_api_panic.c:56
    36ce:	683b      	ldr	r3, [r7, #0]
    36d0:	681b      	ldr	r3, [r3, #0]
    36d2:	461a      	mov	r2, r3
    36d4:	6879      	ldr	r1, [r7, #4]
    36d6:	f04f 0006 	mov.w	r0, #6
    36da:	f7ff ffc4 	bl	3666 <check_access>
    36de:	4603      	mov	r3, r0
    36e0:	4619      	mov	r1, r3
    36e2:	4b06      	ldr	r3, [pc, #24]	; (36fc <__utee_check_outbuf_annotation+0x56>)
    36e4:	447b      	add	r3, pc
    36e6:	4618      	mov	r0, r3
    36e8:	f7ff ffab 	bl	3642 <check_res>
/home/qemu-sgx/devel/optee/optee_os/lib/libutee/tee_api_panic.c:58
    36ec:	bf00      	nop
    36ee:	f107 0708 	add.w	r7, r7, #8
    36f2:	46bd      	mov	sp, r7
    36f4:	bd80      	pop	{r7, pc}
    36f6:	bf00      	nop
    36f8:	00009b7e 	.word	0x00009b7e
    36fc:	00009b70 	.word	0x00009b70

00003700 <__utee_check_instring_annotation>:
__utee_check_instring_annotation():
/home/qemu-sgx/devel/optee/optee_os/lib/libutee/tee_api_panic.c:61
    3700:	e96d 7e02 	strd	r7, lr, [sp, #-8]!
    3704:	b082      	sub	sp, #8
    3706:	af00      	add	r7, sp, #0
    3708:	6078      	str	r0, [r7, #4]
/home/qemu-sgx/devel/optee/optee_os/lib/libutee/tee_api_panic.c:63
    370a:	6878      	ldr	r0, [r7, #4]
    370c:	f7ff eeac 	blx	3468 <strlen@plt>
    3710:	4603      	mov	r3, r0
/home/qemu-sgx/devel/optee/optee_os/lib/libutee/tee_api_panic.c:62
    3712:	f103 0301 	add.w	r3, r3, #1
    3716:	461a      	mov	r2, r3
    3718:	6879      	ldr	r1, [r7, #4]
    371a:	f04f 0001 	mov.w	r0, #1
    371e:	f7ff ffa2 	bl	3666 <check_access>
    3722:	4603      	mov	r3, r0
    3724:	4619      	mov	r1, r3
    3726:	4b05      	ldr	r3, [pc, #20]	; (373c <__utee_check_instring_annotation+0x3c>)
    3728:	447b      	add	r3, pc
    372a:	4618      	mov	r0, r3
    372c:	f7ff ff89 	bl	3642 <check_res>
/home/qemu-sgx/devel/optee/optee_os/lib/libutee/tee_api_panic.c:64
    3730:	bf00      	nop
    3732:	f107 0708 	add.w	r7, r7, #8
    3736:	46bd      	mov	sp, r7
    3738:	bd80      	pop	{r7, pc}
    373a:	bf00      	nop
    373c:	00009b3c 	.word	0x00009b3c

00003740 <__utee_check_outstring_annotation>:
__utee_check_outstring_annotation():
/home/qemu-sgx/devel/optee/optee_os/lib/libutee/tee_api_panic.c:67
    3740:	e96d 7e02 	strd	r7, lr, [sp, #-8]!
    3744:	b082      	sub	sp, #8
    3746:	af00      	add	r7, sp, #0
    3748:	6078      	str	r0, [r7, #4]
    374a:	6039      	str	r1, [r7, #0]
/home/qemu-sgx/devel/optee/optee_os/lib/libutee/tee_api_panic.c:68
    374c:	f04f 0204 	mov.w	r2, #4
    3750:	6839      	ldr	r1, [r7, #0]
    3752:	f04f 0003 	mov.w	r0, #3
    3756:	f7ff ff86 	bl	3666 <check_access>
    375a:	4603      	mov	r3, r0
    375c:	4619      	mov	r1, r3
    375e:	4b0c      	ldr	r3, [pc, #48]	; (3790 <__utee_check_outstring_annotation+0x50>)
    3760:	447b      	add	r3, pc
    3762:	4618      	mov	r0, r3
    3764:	f7ff ff6d 	bl	3642 <check_res>
/home/qemu-sgx/devel/optee/optee_os/lib/libutee/tee_api_panic.c:70
    3768:	683b      	ldr	r3, [r7, #0]
    376a:	681b      	ldr	r3, [r3, #0]
    376c:	461a      	mov	r2, r3
    376e:	6879      	ldr	r1, [r7, #4]
    3770:	f04f 0006 	mov.w	r0, #6
    3774:	f7ff ff77 	bl	3666 <check_access>
    3778:	4603      	mov	r3, r0
    377a:	4619      	mov	r1, r3
    377c:	4b05      	ldr	r3, [pc, #20]	; (3794 <__utee_check_outstring_annotation+0x54>)
    377e:	447b      	add	r3, pc
    3780:	4618      	mov	r0, r3
    3782:	f7ff ff5e 	bl	3642 <check_res>
/home/qemu-sgx/devel/optee/optee_os/lib/libutee/tee_api_panic.c:72
    3786:	bf00      	nop
    3788:	f107 0708 	add.w	r7, r7, #8
    378c:	46bd      	mov	sp, r7
    378e:	bd80      	pop	{r7, pc}
    3790:	00009b10 	.word	0x00009b10
    3794:	00009b02 	.word	0x00009b02

00003798 <__utee_check_out_annotation>:
__utee_check_out_annotation():
/home/qemu-sgx/devel/optee/optee_os/lib/libutee/tee_api_panic.c:75
    3798:	e96d 7e02 	strd	r7, lr, [sp, #-8]!
    379c:	b082      	sub	sp, #8
    379e:	af00      	add	r7, sp, #0
    37a0:	6078      	str	r0, [r7, #4]
    37a2:	6039      	str	r1, [r7, #0]
/home/qemu-sgx/devel/optee/optee_os/lib/libutee/tee_api_panic.c:76
    37a4:	683a      	ldr	r2, [r7, #0]
    37a6:	6879      	ldr	r1, [r7, #4]
    37a8:	f04f 0002 	mov.w	r0, #2
    37ac:	f7ff ff5b 	bl	3666 <check_access>
    37b0:	4603      	mov	r3, r0
    37b2:	4619      	mov	r1, r3
    37b4:	4b04      	ldr	r3, [pc, #16]	; (37c8 <__utee_check_out_annotation+0x30>)
    37b6:	447b      	add	r3, pc
    37b8:	4618      	mov	r0, r3
    37ba:	f7ff ff42 	bl	3642 <check_res>
/home/qemu-sgx/devel/optee/optee_os/lib/libutee/tee_api_panic.c:78
    37be:	bf00      	nop
    37c0:	f107 0708 	add.w	r7, r7, #8
    37c4:	46bd      	mov	sp, r7
    37c6:	bd80      	pop	{r7, pc}
    37c8:	00009ada 	.word	0x00009ada

000037cc <__utee_check_attr_in_annotation>:
__utee_check_attr_in_annotation():
/home/qemu-sgx/devel/optee/optee_os/lib/libutee/tee_api_panic.c:81
    37cc:	e96d 7e02 	strd	r7, lr, [sp, #-8]!
    37d0:	b082      	sub	sp, #8
    37d2:	af00      	add	r7, sp, #0
    37d4:	6078      	str	r0, [r7, #4]
    37d6:	6039      	str	r1, [r7, #0]
/home/qemu-sgx/devel/optee/optee_os/lib/libutee/tee_api_panic.c:82
    37d8:	683a      	ldr	r2, [r7, #0]
    37da:	4613      	mov	r3, r2
    37dc:	ea4f 0343 	mov.w	r3, r3, lsl #1
    37e0:	4413      	add	r3, r2
    37e2:	ea4f 0383 	mov.w	r3, r3, lsl #2
    37e6:	461a      	mov	r2, r3
    37e8:	6879      	ldr	r1, [r7, #4]
    37ea:	f04f 0001 	mov.w	r0, #1
    37ee:	f7ff ff3a 	bl	3666 <check_access>
    37f2:	4603      	mov	r3, r0
    37f4:	4619      	mov	r1, r3
    37f6:	4b05      	ldr	r3, [pc, #20]	; (380c <__utee_check_attr_in_annotation+0x40>)
    37f8:	447b      	add	r3, pc
    37fa:	4618      	mov	r0, r3
    37fc:	f7ff ff21 	bl	3642 <check_res>
/home/qemu-sgx/devel/optee/optee_os/lib/libutee/tee_api_panic.c:84
    3800:	bf00      	nop
    3802:	f107 0708 	add.w	r7, r7, #8
    3806:	46bd      	mov	sp, r7
    3808:	bd80      	pop	{r7, pc}
    380a:	bf00      	nop
    380c:	00009aa0 	.word	0x00009aa0

00003810 <__utee_check_inout_annotation>:
__utee_check_inout_annotation():
/home/qemu-sgx/devel/optee/optee_os/lib/libutee/tee_api_panic.c:87
    3810:	e96d 7e02 	strd	r7, lr, [sp, #-8]!
    3814:	b082      	sub	sp, #8
    3816:	af00      	add	r7, sp, #0
    3818:	6078      	str	r0, [r7, #4]
    381a:	6039      	str	r1, [r7, #0]
/home/qemu-sgx/devel/optee/optee_os/lib/libutee/tee_api_panic.c:88
    381c:	683a      	ldr	r2, [r7, #0]
    381e:	6879      	ldr	r1, [r7, #4]
    3820:	f04f 0003 	mov.w	r0, #3
    3824:	f7ff ff1f 	bl	3666 <check_access>
    3828:	4603      	mov	r3, r0
    382a:	4619      	mov	r1, r3
    382c:	4b04      	ldr	r3, [pc, #16]	; (3840 <__utee_check_inout_annotation+0x30>)
    382e:	447b      	add	r3, pc
    3830:	4618      	mov	r0, r3
    3832:	f7ff ff06 	bl	3642 <check_res>
/home/qemu-sgx/devel/optee/optee_os/lib/libutee/tee_api_panic.c:90
    3836:	bf00      	nop
    3838:	f107 0708 	add.w	r7, r7, #8
    383c:	46bd      	mov	sp, r7
    383e:	bd80      	pop	{r7, pc}
    3840:	00009a76 	.word	0x00009a76

00003844 <_utee_panic>:
_utee_panic():
/home/qemu-sgx/devel/optee/optee_os/lib/libutee/arch/arm/utee_syscalls_a32.S:48
    3844:	e92d4fff 	push	{r0, r1, r2, r3, r4, r5, r6, r7, r8, r9, sl, fp, lr}
/home/qemu-sgx/devel/optee/optee_os/lib/libutee/arch/arm/utee_syscalls_a32.S:50
    3848:	e1a0e00f 	mov	lr, pc
/home/qemu-sgx/devel/optee/optee_os/lib/libutee/arch/arm/utee_syscalls_a32.S:51
    384c:	e52de004 	push	{lr}		; (str lr, [sp, #-4]!)
/home/qemu-sgx/devel/optee/optee_os/lib/libutee/arch/arm/utee_syscalls_a32.S:53
    3850:	e1a0100d 	mov	r1, sp
/home/qemu-sgx/devel/optee/optee_os/lib/libutee/arch/arm/utee_syscalls_a32.S:54
    3854:	ebfffe34 	bl	312c <__utee_panic@plt>

00003858 <_utee_return>:
_utee_return():
/home/qemu-sgx/devel/optee/optee_os/lib/libutee/arch/arm/utee_syscalls_asm.S:8
    3858:	e92d40e0 	push	{r5, r6, r7, lr}
    385c:	e3a07000 	mov	r7, #0
    3860:	e3a06000 	mov	r6, #0
    3864:	ef000000 	svc	0x00000000
    3868:	e8bd80e0 	pop	{r5, r6, r7, pc}

0000386c <_utee_log>:
_utee_log():
/home/qemu-sgx/devel/optee/optee_os/lib/libutee/arch/arm/utee_syscalls_asm.S:10
    386c:	e92d40e0 	push	{r5, r6, r7, lr}
    3870:	e3a07001 	mov	r7, #1
    3874:	e3a06000 	mov	r6, #0
    3878:	ef000000 	svc	0x00000000
    387c:	e8bd80e0 	pop	{r5, r6, r7, pc}

00003880 <__utee_panic>:
__utee_panic():
/home/qemu-sgx/devel/optee/optee_os/lib/libutee/arch/arm/utee_syscalls_asm.S:12
    3880:	e92d40e0 	push	{r5, r6, r7, lr}
    3884:	e3a07002 	mov	r7, #2
    3888:	e3a06000 	mov	r6, #0
    388c:	ef000000 	svc	0x00000000
    3890:	e8bd80e0 	pop	{r5, r6, r7, pc}

00003894 <_utee_get_property>:
_utee_get_property():
/home/qemu-sgx/devel/optee/optee_os/lib/libutee/arch/arm/utee_syscalls_asm.S:14
    3894:	e92d40e0 	push	{r5, r6, r7, lr}
    3898:	e3a07003 	mov	r7, #3
    389c:	e3a06003 	mov	r6, #3
    38a0:	e28d5010 	add	r5, sp, #16
    38a4:	ef000000 	svc	0x00000000
    38a8:	e8bd80e0 	pop	{r5, r6, r7, pc}

000038ac <_utee_get_property_name_to_index>:
_utee_get_property_name_to_index():
/home/qemu-sgx/devel/optee/optee_os/lib/libutee/arch/arm/utee_syscalls_asm.S:16
    38ac:	e92d40e0 	push	{r5, r6, r7, lr}
    38b0:	e3a07004 	mov	r7, #4
    38b4:	e3a06000 	mov	r6, #0
    38b8:	ef000000 	svc	0x00000000
    38bc:	e8bd80e0 	pop	{r5, r6, r7, pc}

000038c0 <_utee_open_ta_session>:
_utee_open_ta_session():
/home/qemu-sgx/devel/optee/optee_os/lib/libutee/arch/arm/utee_syscalls_asm.S:19
    38c0:	e92d40e0 	push	{r5, r6, r7, lr}
    38c4:	e3a07005 	mov	r7, #5
    38c8:	e3a06001 	mov	r6, #1
    38cc:	e28d5010 	add	r5, sp, #16
    38d0:	ef000000 	svc	0x00000000
    38d4:	e8bd80e0 	pop	{r5, r6, r7, pc}

000038d8 <_utee_close_ta_session>:
_utee_close_ta_session():
/home/qemu-sgx/devel/optee/optee_os/lib/libutee/arch/arm/utee_syscalls_asm.S:21
    38d8:	e92d40e0 	push	{r5, r6, r7, lr}
    38dc:	e3a07006 	mov	r7, #6
    38e0:	e3a06000 	mov	r6, #0
    38e4:	ef000000 	svc	0x00000000
    38e8:	e8bd80e0 	pop	{r5, r6, r7, pc}

000038ec <_utee_invoke_ta_command>:
_utee_invoke_ta_command():
/home/qemu-sgx/devel/optee/optee_os/lib/libutee/arch/arm/utee_syscalls_asm.S:23
    38ec:	e92d40e0 	push	{r5, r6, r7, lr}
    38f0:	e3a07007 	mov	r7, #7
    38f4:	e3a06001 	mov	r6, #1
    38f8:	e28d5010 	add	r5, sp, #16
    38fc:	ef000000 	svc	0x00000000
    3900:	e8bd80e0 	pop	{r5, r6, r7, pc}

00003904 <_utee_get_cancellation_flag>:
_utee_get_cancellation_flag():
/home/qemu-sgx/devel/optee/optee_os/lib/libutee/arch/arm/utee_syscalls_asm.S:25
    3904:	e92d40e0 	push	{r5, r6, r7, lr}
    3908:	e3a07009 	mov	r7, #9
    390c:	e3a06000 	mov	r6, #0
    3910:	ef000000 	svc	0x00000000
    3914:	e8bd80e0 	pop	{r5, r6, r7, pc}

00003918 <_utee_check_access_rights>:
_utee_check_access_rights():
/home/qemu-sgx/devel/optee/optee_os/lib/libutee/arch/arm/utee_syscalls_asm.S:28
    3918:	e92d40e0 	push	{r5, r6, r7, lr}
    391c:	e3a07008 	mov	r7, #8
    3920:	e3a06000 	mov	r6, #0
    3924:	ef000000 	svc	0x00000000
    3928:	e8bd80e0 	pop	{r5, r6, r7, pc}

0000392c <_utee_unmask_cancellation>:
_utee_unmask_cancellation():
/home/qemu-sgx/devel/optee/optee_os/lib/libutee/arch/arm/utee_syscalls_asm.S:30
    392c:	e92d40e0 	push	{r5, r6, r7, lr}
    3930:	e3a0700a 	mov	r7, #10
    3934:	e3a06000 	mov	r6, #0
    3938:	ef000000 	svc	0x00000000
    393c:	e8bd80e0 	pop	{r5, r6, r7, pc}

00003940 <_utee_mask_cancellation>:
_utee_mask_cancellation():
/home/qemu-sgx/devel/optee/optee_os/lib/libutee/arch/arm/utee_syscalls_asm.S:32
    3940:	e92d40e0 	push	{r5, r6, r7, lr}
    3944:	e3a0700b 	mov	r7, #11
    3948:	e3a06000 	mov	r6, #0
    394c:	ef000000 	svc	0x00000000
    3950:	e8bd80e0 	pop	{r5, r6, r7, pc}

00003954 <_utee_wait>:
_utee_wait():
/home/qemu-sgx/devel/optee/optee_os/lib/libutee/arch/arm/utee_syscalls_asm.S:34
    3954:	e92d40e0 	push	{r5, r6, r7, lr}
    3958:	e3a0700c 	mov	r7, #12
    395c:	e3a06000 	mov	r6, #0
    3960:	ef000000 	svc	0x00000000
    3964:	e8bd80e0 	pop	{r5, r6, r7, pc}

00003968 <_utee_get_time>:
_utee_get_time():
/home/qemu-sgx/devel/optee/optee_os/lib/libutee/arch/arm/utee_syscalls_asm.S:36
    3968:	e92d40e0 	push	{r5, r6, r7, lr}
    396c:	e3a0700d 	mov	r7, #13
    3970:	e3a06000 	mov	r6, #0
    3974:	ef000000 	svc	0x00000000
    3978:	e8bd80e0 	pop	{r5, r6, r7, pc}

0000397c <_utee_set_ta_time>:
_utee_set_ta_time():
/home/qemu-sgx/devel/optee/optee_os/lib/libutee/arch/arm/utee_syscalls_asm.S:38
    397c:	e92d40e0 	push	{r5, r6, r7, lr}
    3980:	e3a0700e 	mov	r7, #14
    3984:	e3a06000 	mov	r6, #0
    3988:	ef000000 	svc	0x00000000
    398c:	e8bd80e0 	pop	{r5, r6, r7, pc}

00003990 <_utee_cryp_state_alloc>:
_utee_cryp_state_alloc():
/home/qemu-sgx/devel/optee/optee_os/lib/libutee/arch/arm/utee_syscalls_asm.S:40
    3990:	e92d40e0 	push	{r5, r6, r7, lr}
    3994:	e3a0700f 	mov	r7, #15
    3998:	e3a06001 	mov	r6, #1
    399c:	e28d5010 	add	r5, sp, #16
    39a0:	ef000000 	svc	0x00000000
    39a4:	e8bd80e0 	pop	{r5, r6, r7, pc}

000039a8 <_utee_cryp_state_copy>:
_utee_cryp_state_copy():
/home/qemu-sgx/devel/optee/optee_os/lib/libutee/arch/arm/utee_syscalls_asm.S:42
    39a8:	e92d40e0 	push	{r5, r6, r7, lr}
    39ac:	e3a07010 	mov	r7, #16
    39b0:	e3a06000 	mov	r6, #0
    39b4:	ef000000 	svc	0x00000000
    39b8:	e8bd80e0 	pop	{r5, r6, r7, pc}

000039bc <_utee_cryp_state_free>:
_utee_cryp_state_free():
/home/qemu-sgx/devel/optee/optee_os/lib/libutee/arch/arm/utee_syscalls_asm.S:44
    39bc:	e92d40e0 	push	{r5, r6, r7, lr}
    39c0:	e3a07011 	mov	r7, #17
    39c4:	e3a06000 	mov	r6, #0
    39c8:	ef000000 	svc	0x00000000
    39cc:	e8bd80e0 	pop	{r5, r6, r7, pc}

000039d0 <_utee_hash_init>:
_utee_hash_init():
/home/qemu-sgx/devel/optee/optee_os/lib/libutee/arch/arm/utee_syscalls_asm.S:46
    39d0:	e92d40e0 	push	{r5, r6, r7, lr}
    39d4:	e3a07012 	mov	r7, #18
    39d8:	e3a06000 	mov	r6, #0
    39dc:	ef000000 	svc	0x00000000
    39e0:	e8bd80e0 	pop	{r5, r6, r7, pc}

000039e4 <_utee_hash_update>:
_utee_hash_update():
/home/qemu-sgx/devel/optee/optee_os/lib/libutee/arch/arm/utee_syscalls_asm.S:48
    39e4:	e92d40e0 	push	{r5, r6, r7, lr}
    39e8:	e3a07013 	mov	r7, #19
    39ec:	e3a06000 	mov	r6, #0
    39f0:	ef000000 	svc	0x00000000
    39f4:	e8bd80e0 	pop	{r5, r6, r7, pc}

000039f8 <_utee_hash_final>:
_utee_hash_final():
/home/qemu-sgx/devel/optee/optee_os/lib/libutee/arch/arm/utee_syscalls_asm.S:50
    39f8:	e92d40e0 	push	{r5, r6, r7, lr}
    39fc:	e3a07014 	mov	r7, #20
    3a00:	e3a06001 	mov	r6, #1
    3a04:	e28d5010 	add	r5, sp, #16
    3a08:	ef000000 	svc	0x00000000
    3a0c:	e8bd80e0 	pop	{r5, r6, r7, pc}

00003a10 <_utee_cipher_init>:
_utee_cipher_init():
/home/qemu-sgx/devel/optee/optee_os/lib/libutee/arch/arm/utee_syscalls_asm.S:52
    3a10:	e92d40e0 	push	{r5, r6, r7, lr}
    3a14:	e3a07015 	mov	r7, #21
    3a18:	e3a06000 	mov	r6, #0
    3a1c:	ef000000 	svc	0x00000000
    3a20:	e8bd80e0 	pop	{r5, r6, r7, pc}

00003a24 <_utee_cipher_update>:
_utee_cipher_update():
/home/qemu-sgx/devel/optee/optee_os/lib/libutee/arch/arm/utee_syscalls_asm.S:54
    3a24:	e92d40e0 	push	{r5, r6, r7, lr}
    3a28:	e3a07016 	mov	r7, #22
    3a2c:	e3a06001 	mov	r6, #1
    3a30:	e28d5010 	add	r5, sp, #16
    3a34:	ef000000 	svc	0x00000000
    3a38:	e8bd80e0 	pop	{r5, r6, r7, pc}

00003a3c <_utee_cipher_final>:
_utee_cipher_final():
/home/qemu-sgx/devel/optee/optee_os/lib/libutee/arch/arm/utee_syscalls_asm.S:56
    3a3c:	e92d40e0 	push	{r5, r6, r7, lr}
    3a40:	e3a07017 	mov	r7, #23
    3a44:	e3a06001 	mov	r6, #1
    3a48:	e28d5010 	add	r5, sp, #16
    3a4c:	ef000000 	svc	0x00000000
    3a50:	e8bd80e0 	pop	{r5, r6, r7, pc}

00003a54 <_utee_cryp_obj_get_info>:
_utee_cryp_obj_get_info():
/home/qemu-sgx/devel/optee/optee_os/lib/libutee/arch/arm/utee_syscalls_asm.S:58
    3a54:	e92d40e0 	push	{r5, r6, r7, lr}
    3a58:	e3a07018 	mov	r7, #24
    3a5c:	e3a06000 	mov	r6, #0
    3a60:	ef000000 	svc	0x00000000
    3a64:	e8bd80e0 	pop	{r5, r6, r7, pc}

00003a68 <_utee_cryp_obj_restrict_usage>:
_utee_cryp_obj_restrict_usage():
/home/qemu-sgx/devel/optee/optee_os/lib/libutee/arch/arm/utee_syscalls_asm.S:60
    3a68:	e92d40e0 	push	{r5, r6, r7, lr}
    3a6c:	e3a07019 	mov	r7, #25
    3a70:	e3a06000 	mov	r6, #0
    3a74:	ef000000 	svc	0x00000000
    3a78:	e8bd80e0 	pop	{r5, r6, r7, pc}

00003a7c <_utee_cryp_obj_get_attr>:
_utee_cryp_obj_get_attr():
/home/qemu-sgx/devel/optee/optee_os/lib/libutee/arch/arm/utee_syscalls_asm.S:63
    3a7c:	e92d40e0 	push	{r5, r6, r7, lr}
    3a80:	e3a0701a 	mov	r7, #26
    3a84:	e3a06000 	mov	r6, #0
    3a88:	ef000000 	svc	0x00000000
    3a8c:	e8bd80e0 	pop	{r5, r6, r7, pc}

00003a90 <_utee_cryp_obj_alloc>:
_utee_cryp_obj_alloc():
/home/qemu-sgx/devel/optee/optee_os/lib/libutee/arch/arm/utee_syscalls_asm.S:65
    3a90:	e92d40e0 	push	{r5, r6, r7, lr}
    3a94:	e3a0701b 	mov	r7, #27
    3a98:	e3a06000 	mov	r6, #0
    3a9c:	ef000000 	svc	0x00000000
    3aa0:	e8bd80e0 	pop	{r5, r6, r7, pc}

00003aa4 <_utee_cryp_obj_close>:
_utee_cryp_obj_close():
/home/qemu-sgx/devel/optee/optee_os/lib/libutee/arch/arm/utee_syscalls_asm.S:67
    3aa4:	e92d40e0 	push	{r5, r6, r7, lr}
    3aa8:	e3a0701c 	mov	r7, #28
    3aac:	e3a06000 	mov	r6, #0
    3ab0:	ef000000 	svc	0x00000000
    3ab4:	e8bd80e0 	pop	{r5, r6, r7, pc}

00003ab8 <_utee_cryp_obj_reset>:
_utee_cryp_obj_reset():
/home/qemu-sgx/devel/optee/optee_os/lib/libutee/arch/arm/utee_syscalls_asm.S:69
    3ab8:	e92d40e0 	push	{r5, r6, r7, lr}
    3abc:	e3a0701d 	mov	r7, #29
    3ac0:	e3a06000 	mov	r6, #0
    3ac4:	ef000000 	svc	0x00000000
    3ac8:	e8bd80e0 	pop	{r5, r6, r7, pc}

00003acc <_utee_cryp_obj_populate>:
_utee_cryp_obj_populate():
/home/qemu-sgx/devel/optee/optee_os/lib/libutee/arch/arm/utee_syscalls_asm.S:71
    3acc:	e92d40e0 	push	{r5, r6, r7, lr}
    3ad0:	e3a0701e 	mov	r7, #30
    3ad4:	e3a06000 	mov	r6, #0
    3ad8:	ef000000 	svc	0x00000000
    3adc:	e8bd80e0 	pop	{r5, r6, r7, pc}

00003ae0 <_utee_cryp_obj_copy>:
_utee_cryp_obj_copy():
/home/qemu-sgx/devel/optee/optee_os/lib/libutee/arch/arm/utee_syscalls_asm.S:73
    3ae0:	e92d40e0 	push	{r5, r6, r7, lr}
    3ae4:	e3a0701f 	mov	r7, #31
    3ae8:	e3a06000 	mov	r6, #0
    3aec:	ef000000 	svc	0x00000000
    3af0:	e8bd80e0 	pop	{r5, r6, r7, pc}

00003af4 <_utee_cryp_derive_key>:
_utee_cryp_derive_key():
/home/qemu-sgx/devel/optee/optee_os/lib/libutee/arch/arm/utee_syscalls_asm.S:75
    3af4:	e92d40e0 	push	{r5, r6, r7, lr}
    3af8:	e3a07020 	mov	r7, #32
    3afc:	e3a06000 	mov	r6, #0
    3b00:	ef000000 	svc	0x00000000
    3b04:	e8bd80e0 	pop	{r5, r6, r7, pc}

00003b08 <_utee_cryp_random_number_generate>:
_utee_cryp_random_number_generate():
/home/qemu-sgx/devel/optee/optee_os/lib/libutee/arch/arm/utee_syscalls_asm.S:77
    3b08:	e92d40e0 	push	{r5, r6, r7, lr}
    3b0c:	e3a07021 	mov	r7, #33	; 0x21
    3b10:	e3a06000 	mov	r6, #0
    3b14:	ef000000 	svc	0x00000000
    3b18:	e8bd80e0 	pop	{r5, r6, r7, pc}

00003b1c <_utee_authenc_init>:
_utee_authenc_init():
/home/qemu-sgx/devel/optee/optee_os/lib/libutee/arch/arm/utee_syscalls_asm.S:80
    3b1c:	e92d40e0 	push	{r5, r6, r7, lr}
    3b20:	e3a07022 	mov	r7, #34	; 0x22
    3b24:	e3a06002 	mov	r6, #2
    3b28:	e28d5010 	add	r5, sp, #16
    3b2c:	ef000000 	svc	0x00000000
    3b30:	e8bd80e0 	pop	{r5, r6, r7, pc}

00003b34 <_utee_authenc_update_aad>:
_utee_authenc_update_aad():
/home/qemu-sgx/devel/optee/optee_os/lib/libutee/arch/arm/utee_syscalls_asm.S:82
    3b34:	e92d40e0 	push	{r5, r6, r7, lr}
    3b38:	e3a07023 	mov	r7, #35	; 0x23
    3b3c:	e3a06000 	mov	r6, #0
    3b40:	ef000000 	svc	0x00000000
    3b44:	e8bd80e0 	pop	{r5, r6, r7, pc}

00003b48 <_utee_authenc_update_payload>:
_utee_authenc_update_payload():
/home/qemu-sgx/devel/optee/optee_os/lib/libutee/arch/arm/utee_syscalls_asm.S:84
    3b48:	e92d40e0 	push	{r5, r6, r7, lr}
    3b4c:	e3a07024 	mov	r7, #36	; 0x24
    3b50:	e3a06001 	mov	r6, #1
    3b54:	e28d5010 	add	r5, sp, #16
    3b58:	ef000000 	svc	0x00000000
    3b5c:	e8bd80e0 	pop	{r5, r6, r7, pc}

00003b60 <_utee_authenc_enc_final>:
_utee_authenc_enc_final():
/home/qemu-sgx/devel/optee/optee_os/lib/libutee/arch/arm/utee_syscalls_asm.S:87
    3b60:	e92d40e0 	push	{r5, r6, r7, lr}
    3b64:	e3a07025 	mov	r7, #37	; 0x25
    3b68:	e3a06003 	mov	r6, #3
    3b6c:	e28d5010 	add	r5, sp, #16
    3b70:	ef000000 	svc	0x00000000
    3b74:	e8bd80e0 	pop	{r5, r6, r7, pc}

00003b78 <_utee_authenc_dec_final>:
_utee_authenc_dec_final():
/home/qemu-sgx/devel/optee/optee_os/lib/libutee/arch/arm/utee_syscalls_asm.S:89
    3b78:	e92d40e0 	push	{r5, r6, r7, lr}
    3b7c:	e3a07026 	mov	r7, #38	; 0x26
    3b80:	e3a06003 	mov	r6, #3
    3b84:	e28d5010 	add	r5, sp, #16
    3b88:	ef000000 	svc	0x00000000
    3b8c:	e8bd80e0 	pop	{r5, r6, r7, pc}

00003b90 <_utee_asymm_operate>:
_utee_asymm_operate():
/home/qemu-sgx/devel/optee/optee_os/lib/libutee/arch/arm/utee_syscalls_asm.S:91
    3b90:	e92d40e0 	push	{r5, r6, r7, lr}
    3b94:	e3a07027 	mov	r7, #39	; 0x27
    3b98:	e3a06003 	mov	r6, #3
    3b9c:	e28d5010 	add	r5, sp, #16
    3ba0:	ef000000 	svc	0x00000000
    3ba4:	e8bd80e0 	pop	{r5, r6, r7, pc}

00003ba8 <_utee_asymm_verify>:
_utee_asymm_verify():
/home/qemu-sgx/devel/optee/optee_os/lib/libutee/arch/arm/utee_syscalls_asm.S:93
    3ba8:	e92d40e0 	push	{r5, r6, r7, lr}
    3bac:	e3a07028 	mov	r7, #40	; 0x28
    3bb0:	e3a06003 	mov	r6, #3
    3bb4:	e28d5010 	add	r5, sp, #16
    3bb8:	ef000000 	svc	0x00000000
    3bbc:	e8bd80e0 	pop	{r5, r6, r7, pc}

00003bc0 <_utee_storage_obj_open>:
_utee_storage_obj_open():
/home/qemu-sgx/devel/optee/optee_os/lib/libutee/arch/arm/utee_syscalls_asm.S:95
    3bc0:	e92d40e0 	push	{r5, r6, r7, lr}
    3bc4:	e3a07029 	mov	r7, #41	; 0x29
    3bc8:	e3a06001 	mov	r6, #1
    3bcc:	e28d5010 	add	r5, sp, #16
    3bd0:	ef000000 	svc	0x00000000
    3bd4:	e8bd80e0 	pop	{r5, r6, r7, pc}

00003bd8 <_utee_storage_obj_create>:
_utee_storage_obj_create():
/home/qemu-sgx/devel/optee/optee_os/lib/libutee/arch/arm/utee_syscalls_asm.S:97
    3bd8:	e92d40e0 	push	{r5, r6, r7, lr}
    3bdc:	e3a0702a 	mov	r7, #42	; 0x2a
    3be0:	e3a06004 	mov	r6, #4
    3be4:	e28d5010 	add	r5, sp, #16
    3be8:	ef000000 	svc	0x00000000
    3bec:	e8bd80e0 	pop	{r5, r6, r7, pc}

00003bf0 <_utee_storage_obj_del>:
_utee_storage_obj_del():
/home/qemu-sgx/devel/optee/optee_os/lib/libutee/arch/arm/utee_syscalls_asm.S:99
    3bf0:	e92d40e0 	push	{r5, r6, r7, lr}
    3bf4:	e3a0702b 	mov	r7, #43	; 0x2b
    3bf8:	e3a06000 	mov	r6, #0
    3bfc:	ef000000 	svc	0x00000000
    3c00:	e8bd80e0 	pop	{r5, r6, r7, pc}

00003c04 <_utee_storage_obj_rename>:
_utee_storage_obj_rename():
/home/qemu-sgx/devel/optee/optee_os/lib/libutee/arch/arm/utee_syscalls_asm.S:101
    3c04:	e92d40e0 	push	{r5, r6, r7, lr}
    3c08:	e3a0702c 	mov	r7, #44	; 0x2c
    3c0c:	e3a06000 	mov	r6, #0
    3c10:	ef000000 	svc	0x00000000
    3c14:	e8bd80e0 	pop	{r5, r6, r7, pc}

00003c18 <_utee_storage_alloc_enum>:
_utee_storage_alloc_enum():
/home/qemu-sgx/devel/optee/optee_os/lib/libutee/arch/arm/utee_syscalls_asm.S:103
    3c18:	e92d40e0 	push	{r5, r6, r7, lr}
    3c1c:	e3a0702d 	mov	r7, #45	; 0x2d
    3c20:	e3a06000 	mov	r6, #0
    3c24:	ef000000 	svc	0x00000000
    3c28:	e8bd80e0 	pop	{r5, r6, r7, pc}

00003c2c <_utee_storage_free_enum>:
_utee_storage_free_enum():
/home/qemu-sgx/devel/optee/optee_os/lib/libutee/arch/arm/utee_syscalls_asm.S:105
    3c2c:	e92d40e0 	push	{r5, r6, r7, lr}
    3c30:	e3a0702e 	mov	r7, #46	; 0x2e
    3c34:	e3a06000 	mov	r6, #0
    3c38:	ef000000 	svc	0x00000000
    3c3c:	e8bd80e0 	pop	{r5, r6, r7, pc}

00003c40 <_utee_storage_reset_enum>:
_utee_storage_reset_enum():
/home/qemu-sgx/devel/optee/optee_os/lib/libutee/arch/arm/utee_syscalls_asm.S:107
    3c40:	e92d40e0 	push	{r5, r6, r7, lr}
    3c44:	e3a0702f 	mov	r7, #47	; 0x2f
    3c48:	e3a06000 	mov	r6, #0
    3c4c:	ef000000 	svc	0x00000000
    3c50:	e8bd80e0 	pop	{r5, r6, r7, pc}

00003c54 <_utee_storage_start_enum>:
_utee_storage_start_enum():
/home/qemu-sgx/devel/optee/optee_os/lib/libutee/arch/arm/utee_syscalls_asm.S:109
    3c54:	e92d40e0 	push	{r5, r6, r7, lr}
    3c58:	e3a07030 	mov	r7, #48	; 0x30
    3c5c:	e3a06000 	mov	r6, #0
    3c60:	ef000000 	svc	0x00000000
    3c64:	e8bd80e0 	pop	{r5, r6, r7, pc}

00003c68 <_utee_storage_next_enum>:
_utee_storage_next_enum():
/home/qemu-sgx/devel/optee/optee_os/lib/libutee/arch/arm/utee_syscalls_asm.S:111
    3c68:	e92d40e0 	push	{r5, r6, r7, lr}
    3c6c:	e3a07031 	mov	r7, #49	; 0x31
    3c70:	e3a06000 	mov	r6, #0
    3c74:	ef000000 	svc	0x00000000
    3c78:	e8bd80e0 	pop	{r5, r6, r7, pc}

00003c7c <_utee_storage_obj_read>:
_utee_storage_obj_read():
/home/qemu-sgx/devel/optee/optee_os/lib/libutee/arch/arm/utee_syscalls_asm.S:113
    3c7c:	e92d40e0 	push	{r5, r6, r7, lr}
    3c80:	e3a07032 	mov	r7, #50	; 0x32
    3c84:	e3a06000 	mov	r6, #0
    3c88:	ef000000 	svc	0x00000000
    3c8c:	e8bd80e0 	pop	{r5, r6, r7, pc}

00003c90 <_utee_storage_obj_write>:
_utee_storage_obj_write():
/home/qemu-sgx/devel/optee/optee_os/lib/libutee/arch/arm/utee_syscalls_asm.S:115
    3c90:	e92d40e0 	push	{r5, r6, r7, lr}
    3c94:	e3a07033 	mov	r7, #51	; 0x33
    3c98:	e3a06000 	mov	r6, #0
    3c9c:	ef000000 	svc	0x00000000
    3ca0:	e8bd80e0 	pop	{r5, r6, r7, pc}

00003ca4 <_utee_storage_obj_trunc>:
_utee_storage_obj_trunc():
/home/qemu-sgx/devel/optee/optee_os/lib/libutee/arch/arm/utee_syscalls_asm.S:117
    3ca4:	e92d40e0 	push	{r5, r6, r7, lr}
    3ca8:	e3a07034 	mov	r7, #52	; 0x34
    3cac:	e3a06000 	mov	r6, #0
    3cb0:	ef000000 	svc	0x00000000
    3cb4:	e8bd80e0 	pop	{r5, r6, r7, pc}

00003cb8 <_utee_storage_obj_seek>:
_utee_storage_obj_seek():
/home/qemu-sgx/devel/optee/optee_os/lib/libutee/arch/arm/utee_syscalls_asm.S:119
    3cb8:	e92d40e0 	push	{r5, r6, r7, lr}
    3cbc:	e3a07035 	mov	r7, #53	; 0x35
    3cc0:	e3a06000 	mov	r6, #0
    3cc4:	ef000000 	svc	0x00000000
    3cc8:	e8bd80e0 	pop	{r5, r6, r7, pc}

00003ccc <_utee_cryp_obj_generate_key>:
_utee_cryp_obj_generate_key():
/home/qemu-sgx/devel/optee/optee_os/lib/libutee/arch/arm/utee_syscalls_asm.S:121
    3ccc:	e92d40e0 	push	{r5, r6, r7, lr}
    3cd0:	e3a07036 	mov	r7, #54	; 0x36
    3cd4:	e3a06000 	mov	r6, #0
    3cd8:	ef000000 	svc	0x00000000
    3cdc:	e8bd80e0 	pop	{r5, r6, r7, pc}

00003ce0 <_utee_cache_operation>:
_utee_cache_operation():
/home/qemu-sgx/devel/optee/optee_os/lib/libutee/arch/arm/utee_syscalls_asm.S:124
    3ce0:	e92d40e0 	push	{r5, r6, r7, lr}
    3ce4:	e3a07046 	mov	r7, #70	; 0x46
    3ce8:	e3a06000 	mov	r6, #0
    3cec:	ef000000 	svc	0x00000000
    3cf0:	e8bd80e0 	pop	{r5, r6, r7, pc}

00003cf4 <copy_param>:
copy_param():
/home/qemu-sgx/devel/optee/optee_os/lib/libutee/tee_api.c:29
    3cf4:	e96d 4508 	strd	r4, r5, [sp, #-32]!
    3cf8:	e9cd 7802 	strd	r7, r8, [sp, #8]
    3cfc:	e9cd 9a04 	strd	r9, sl, [sp, #16]
    3d00:	e9cd be06 	strd	fp, lr, [sp, #24]
    3d04:	b090      	sub	sp, #64	; 0x40
    3d06:	af00      	add	r7, sp, #0
    3d08:	61f8      	str	r0, [r7, #28]
    3d0a:	61b9      	str	r1, [r7, #24]
    3d0c:	617a      	str	r2, [r7, #20]
    3d0e:	613b      	str	r3, [r7, #16]
/home/qemu-sgx/devel/optee/optee_os/lib/libutee/tee_api.c:30
    3d10:	f04f 0300 	mov.w	r3, #0
    3d14:	63fb      	str	r3, [r7, #60]	; 0x3c
/home/qemu-sgx/devel/optee/optee_os/lib/libutee/tee_api.c:31
    3d16:	f04f 0300 	mov.w	r3, #0
    3d1a:	63bb      	str	r3, [r7, #56]	; 0x38
/home/qemu-sgx/devel/optee/optee_os/lib/libutee/tee_api.c:32
    3d1c:	f04f 0300 	mov.w	r3, #0
    3d20:	637b      	str	r3, [r7, #52]	; 0x34
/home/qemu-sgx/devel/optee/optee_os/lib/libutee/tee_api.c:33
    3d22:	f04f 0308 	mov.w	r3, #8
    3d26:	62fb      	str	r3, [r7, #44]	; 0x2c
/home/qemu-sgx/devel/optee/optee_os/lib/libutee/tee_api.c:34
    3d28:	f04f 0300 	mov.w	r3, #0
    3d2c:	623b      	str	r3, [r7, #32]
/home/qemu-sgx/devel/optee/optee_os/lib/libutee/tee_api.c:35
    3d2e:	f04f 0300 	mov.w	r3, #0
    3d32:	633b      	str	r3, [r7, #48]	; 0x30
/home/qemu-sgx/devel/optee/optee_os/lib/libutee/tee_api.c:36
    3d34:	f04f 0300 	mov.w	r3, #0
    3d38:	62bb      	str	r3, [r7, #40]	; 0x28
/home/qemu-sgx/devel/optee/optee_os/lib/libutee/tee_api.c:37
    3d3a:	f04f 0301 	mov.w	r3, #1
    3d3e:	627b      	str	r3, [r7, #36]	; 0x24
/home/qemu-sgx/devel/optee/optee_os/lib/libutee/tee_api.c:45
    3d40:	693b      	ldr	r3, [r7, #16]
    3d42:	f04f 0200 	mov.w	r2, #0
    3d46:	601a      	str	r2, [r3, #0]
/home/qemu-sgx/devel/optee/optee_os/lib/libutee/tee_api.c:46
    3d48:	6e3b      	ldr	r3, [r7, #96]	; 0x60
    3d4a:	f04f 0200 	mov.w	r2, #0
    3d4e:	601a      	str	r2, [r3, #0]
/home/qemu-sgx/devel/optee/optee_os/lib/libutee/tee_api.c:47
    3d50:	f04f 0300 	mov.w	r3, #0
    3d54:	63fb      	str	r3, [r7, #60]	; 0x3c
    3d56:	e04b      	b.n	3df0 <copy_param+0xfc>
/home/qemu-sgx/devel/optee/optee_os/lib/libutee/tee_api.c:48
    3d58:	6bfb      	ldr	r3, [r7, #60]	; 0x3c
    3d5a:	ea4f 0383 	mov.w	r3, r3, lsl #2
    3d5e:	6e7a      	ldr	r2, [r7, #100]	; 0x64
    3d60:	4413      	add	r3, r2
    3d62:	f04f 0200 	mov.w	r2, #0
    3d66:	601a      	str	r2, [r3, #0]
/home/qemu-sgx/devel/optee/optee_os/lib/libutee/tee_api.c:49
    3d68:	6bfb      	ldr	r3, [r7, #60]	; 0x3c
    3d6a:	ea4f 0383 	mov.w	r3, r3, lsl #2
    3d6e:	69ba      	ldr	r2, [r7, #24]
    3d70:	fa22 f303 	lsr.w	r3, r2, r3
    3d74:	f003 030f 	and.w	r3, r3, #15
    3d78:	f1a3 0305 	sub.w	r3, r3, #5
    3d7c:	2b02      	cmp	r3, #2
    3d7e:	d830      	bhi.n	3de2 <copy_param+0xee>
/home/qemu-sgx/devel/optee/optee_os/lib/libutee/tee_api.c:53
    3d80:	6bfb      	ldr	r3, [r7, #60]	; 0x3c
    3d82:	ea4f 03c3 	mov.w	r3, r3, lsl #3
    3d86:	697a      	ldr	r2, [r7, #20]
    3d88:	4413      	add	r3, r2
    3d8a:	681b      	ldr	r3, [r3, #0]
    3d8c:	633b      	str	r3, [r7, #48]	; 0x30
/home/qemu-sgx/devel/optee/optee_os/lib/libutee/tee_api.c:54
    3d8e:	6bfb      	ldr	r3, [r7, #60]	; 0x3c
    3d90:	ea4f 03c3 	mov.w	r3, r3, lsl #3
    3d94:	697a      	ldr	r2, [r7, #20]
    3d96:	4413      	add	r3, r2
    3d98:	685b      	ldr	r3, [r3, #4]
    3d9a:	62bb      	str	r3, [r7, #40]	; 0x28
/home/qemu-sgx/devel/optee/optee_os/lib/libutee/tee_api.c:64
    3d9c:	6b3b      	ldr	r3, [r7, #48]	; 0x30
    3d9e:	2b00      	cmp	r3, #0
    3da0:	d021      	beq.n	3de6 <copy_param+0xf2>
/home/qemu-sgx/devel/optee/optee_os/lib/libutee/tee_api.c:64 (discriminator 1)
    3da2:	6abb      	ldr	r3, [r7, #40]	; 0x28
    3da4:	2b00      	cmp	r3, #0
    3da6:	d01e      	beq.n	3de6 <copy_param+0xf2>
/home/qemu-sgx/devel/optee/optee_os/lib/libutee/tee_api.c:65 (discriminator 2)
    3da8:	6aba      	ldr	r2, [r7, #40]	; 0x28
    3daa:	6b39      	ldr	r1, [r7, #48]	; 0x30
    3dac:	6a78      	ldr	r0, [r7, #36]	; 0x24
    3dae:	f7ff e9e8 	blx	3180 <TEE_CheckMemoryAccessRights@plt>
    3db2:	4603      	mov	r3, r0
/home/qemu-sgx/devel/optee/optee_os/lib/libutee/tee_api.c:64 (discriminator 2)
    3db4:	2b00      	cmp	r3, #0
    3db6:	d116      	bne.n	3de6 <copy_param+0xf2>
/home/qemu-sgx/devel/optee/optee_os/lib/libutee/tee_api.c:66
    3db8:	f107 0220 	add.w	r2, r7, #32
    3dbc:	6bfb      	ldr	r3, [r7, #60]	; 0x3c
    3dbe:	4413      	add	r3, r2
    3dc0:	f04f 0201 	mov.w	r2, #1
    3dc4:	701a      	strb	r2, [r3, #0]
/home/qemu-sgx/devel/optee/optee_os/lib/libutee/tee_api.c:67
    3dc6:	6afa      	ldr	r2, [r7, #44]	; 0x2c
    3dc8:	6abb      	ldr	r3, [r7, #40]	; 0x28
    3dca:	4413      	add	r3, r2
    3dcc:	f103 32ff 	add.w	r2, r3, #4294967295	; 0xffffffff
    3dd0:	6afb      	ldr	r3, [r7, #44]	; 0x2c
    3dd2:	f1c3 0300 	rsb	r3, r3, #0
    3dd6:	ea03 0302 	and.w	r3, r3, r2
    3dda:	6b7a      	ldr	r2, [r7, #52]	; 0x34
    3ddc:	4413      	add	r3, r2
    3dde:	637b      	str	r3, [r7, #52]	; 0x34
/home/qemu-sgx/devel/optee/optee_os/lib/libutee/tee_api.c:69
    3de0:	e001      	b.n	3de6 <copy_param+0xf2>
/home/qemu-sgx/devel/optee/optee_os/lib/libutee/tee_api.c:71
    3de2:	bf00      	nop
    3de4:	e000      	b.n	3de8 <copy_param+0xf4>
/home/qemu-sgx/devel/optee/optee_os/lib/libutee/tee_api.c:69
    3de6:	bf00      	nop
/home/qemu-sgx/devel/optee/optee_os/lib/libutee/tee_api.c:47 (discriminator 2)
    3de8:	6bfb      	ldr	r3, [r7, #60]	; 0x3c
    3dea:	f103 0301 	add.w	r3, r3, #1
    3dee:	63fb      	str	r3, [r7, #60]	; 0x3c
/home/qemu-sgx/devel/optee/optee_os/lib/libutee/tee_api.c:47 (discriminator 1)
    3df0:	6bfb      	ldr	r3, [r7, #60]	; 0x3c
    3df2:	2b03      	cmp	r3, #3
    3df4:	d9b0      	bls.n	3d58 <copy_param+0x64>
/home/qemu-sgx/devel/optee/optee_os/lib/libutee/tee_api.c:75
    3df6:	6b7b      	ldr	r3, [r7, #52]	; 0x34
    3df8:	2b00      	cmp	r3, #0
    3dfa:	d013      	beq.n	3e24 <copy_param+0x130>
/home/qemu-sgx/devel/optee/optee_os/lib/libutee/tee_api.c:76
    3dfc:	f04f 0104 	mov.w	r1, #4
    3e00:	6b78      	ldr	r0, [r7, #52]	; 0x34
    3e02:	f7ff ea96 	blx	3330 <tee_map_zi@plt>
    3e06:	63b8      	str	r0, [r7, #56]	; 0x38
/home/qemu-sgx/devel/optee/optee_os/lib/libutee/tee_api.c:77
    3e08:	6bbb      	ldr	r3, [r7, #56]	; 0x38
    3e0a:	2b00      	cmp	r3, #0
    3e0c:	d104      	bne.n	3e18 <copy_param+0x124>
/home/qemu-sgx/devel/optee/optee_os/lib/libutee/tee_api.c:78
    3e0e:	f04f 030c 	mov.w	r3, #12
    3e12:	f6cf 73ff 	movt	r3, #65535	; 0xffff
    3e16:	e0df      	b.n	3fd8 <copy_param+0x2e4>
/home/qemu-sgx/devel/optee/optee_os/lib/libutee/tee_api.c:79
    3e18:	693b      	ldr	r3, [r7, #16]
    3e1a:	6bba      	ldr	r2, [r7, #56]	; 0x38
    3e1c:	601a      	str	r2, [r3, #0]
/home/qemu-sgx/devel/optee/optee_os/lib/libutee/tee_api.c:80
    3e1e:	6e3b      	ldr	r3, [r7, #96]	; 0x60
    3e20:	6b7a      	ldr	r2, [r7, #52]	; 0x34
    3e22:	601a      	str	r2, [r3, #0]
/home/qemu-sgx/devel/optee/optee_os/lib/libutee/tee_api.c:83
    3e24:	69bb      	ldr	r3, [r7, #24]
    3e26:	f04f 0200 	mov.w	r2, #0
    3e2a:	60bb      	str	r3, [r7, #8]
    3e2c:	60fa      	str	r2, [r7, #12]
    3e2e:	69fb      	ldr	r3, [r7, #28]
    3e30:	e9d7 1202 	ldrd	r1, r2, [r7, #8]
    3e34:	e9c3 1200 	strd	r1, r2, [r3]
/home/qemu-sgx/devel/optee/optee_os/lib/libutee/tee_api.c:84
    3e38:	f04f 0300 	mov.w	r3, #0
    3e3c:	63fb      	str	r3, [r7, #60]	; 0x3c
    3e3e:	e0c5      	b.n	3fcc <copy_param+0x2d8>
/home/qemu-sgx/devel/optee/optee_os/lib/libutee/tee_api.c:85
    3e40:	6bfb      	ldr	r3, [r7, #60]	; 0x3c
    3e42:	ea4f 0383 	mov.w	r3, r3, lsl #2
    3e46:	69ba      	ldr	r2, [r7, #24]
    3e48:	fa22 f303 	lsr.w	r3, r2, r3
    3e4c:	f003 030f 	and.w	r3, r3, #15
    3e50:	2b07      	cmp	r3, #7
    3e52:	f200 809a 	bhi.w	3f8a <copy_param+0x296>
    3e56:	2b05      	cmp	r3, #5
    3e58:	d231      	bcs.n	3ebe <copy_param+0x1ca>
    3e5a:	2b01      	cmp	r3, #1
    3e5c:	d002      	beq.n	3e64 <copy_param+0x170>
    3e5e:	2b03      	cmp	r3, #3
    3e60:	f040 8093 	bne.w	3f8a <copy_param+0x296>
/home/qemu-sgx/devel/optee/optee_os/lib/libutee/tee_api.c:88
    3e64:	6bfb      	ldr	r3, [r7, #60]	; 0x3c
    3e66:	ea4f 03c3 	mov.w	r3, r3, lsl #3
    3e6a:	697a      	ldr	r2, [r7, #20]
    3e6c:	4413      	add	r3, r2
    3e6e:	681a      	ldr	r2, [r3, #0]
    3e70:	6bfb      	ldr	r3, [r7, #60]	; 0x3c
    3e72:	ea4f 0343 	mov.w	r3, r3, lsl #1
    3e76:	f04f 0100 	mov.w	r1, #0
    3e7a:	4614      	mov	r4, r2
    3e7c:	460d      	mov	r5, r1
    3e7e:	69fa      	ldr	r2, [r7, #28]
    3e80:	f103 0301 	add.w	r3, r3, #1
    3e84:	ea4f 03c3 	mov.w	r3, r3, lsl #3
    3e88:	4413      	add	r3, r2
    3e8a:	e9c3 4500 	strd	r4, r5, [r3]
/home/qemu-sgx/devel/optee/optee_os/lib/libutee/tee_api.c:89
    3e8e:	6bfb      	ldr	r3, [r7, #60]	; 0x3c
    3e90:	ea4f 03c3 	mov.w	r3, r3, lsl #3
    3e94:	697a      	ldr	r2, [r7, #20]
    3e96:	4413      	add	r3, r2
    3e98:	685a      	ldr	r2, [r3, #4]
    3e9a:	6bfb      	ldr	r3, [r7, #60]	; 0x3c
    3e9c:	ea4f 0343 	mov.w	r3, r3, lsl #1
    3ea0:	f103 0301 	add.w	r3, r3, #1
    3ea4:	f04f 0100 	mov.w	r1, #0
    3ea8:	4690      	mov	r8, r2
    3eaa:	4689      	mov	r9, r1
    3eac:	69fa      	ldr	r2, [r7, #28]
    3eae:	f103 0301 	add.w	r3, r3, #1
    3eb2:	ea4f 03c3 	mov.w	r3, r3, lsl #3
    3eb6:	4413      	add	r3, r2
    3eb8:	e9c3 8900 	strd	r8, r9, [r3]
/home/qemu-sgx/devel/optee/optee_os/lib/libutee/tee_api.c:90
    3ebc:	e082      	b.n	3fc4 <copy_param+0x2d0>
/home/qemu-sgx/devel/optee/optee_os/lib/libutee/tee_api.c:94
    3ebe:	6bfb      	ldr	r3, [r7, #60]	; 0x3c
    3ec0:	ea4f 03c3 	mov.w	r3, r3, lsl #3
    3ec4:	697a      	ldr	r2, [r7, #20]
    3ec6:	4413      	add	r3, r2
    3ec8:	685b      	ldr	r3, [r3, #4]
    3eca:	62bb      	str	r3, [r7, #40]	; 0x28
/home/qemu-sgx/devel/optee/optee_os/lib/libutee/tee_api.c:95
    3ecc:	f107 0220 	add.w	r2, r7, #32
    3ed0:	6bfb      	ldr	r3, [r7, #60]	; 0x3c
    3ed2:	4413      	add	r3, r2
    3ed4:	781b      	ldrb	r3, [r3, #0]
    3ed6:	2b00      	cmp	r3, #0
    3ed8:	d02b      	beq.n	3f32 <copy_param+0x23e>
/home/qemu-sgx/devel/optee/optee_os/lib/libutee/tee_api.c:96
    3eda:	6bbb      	ldr	r3, [r7, #56]	; 0x38
    3edc:	633b      	str	r3, [r7, #48]	; 0x30
/home/qemu-sgx/devel/optee/optee_os/lib/libutee/tee_api.c:97
    3ede:	6bfb      	ldr	r3, [r7, #60]	; 0x3c
    3ee0:	ea4f 0383 	mov.w	r3, r3, lsl #2
    3ee4:	6e7a      	ldr	r2, [r7, #100]	; 0x64
    3ee6:	4413      	add	r3, r2
    3ee8:	6bba      	ldr	r2, [r7, #56]	; 0x38
    3eea:	601a      	str	r2, [r3, #0]
/home/qemu-sgx/devel/optee/optee_os/lib/libutee/tee_api.c:98
    3eec:	6afa      	ldr	r2, [r7, #44]	; 0x2c
    3eee:	6abb      	ldr	r3, [r7, #40]	; 0x28
    3ef0:	4413      	add	r3, r2
    3ef2:	f103 32ff 	add.w	r2, r3, #4294967295	; 0xffffffff
    3ef6:	6afb      	ldr	r3, [r7, #44]	; 0x2c
    3ef8:	f1c3 0300 	rsb	r3, r3, #0
    3efc:	ea03 0302 	and.w	r3, r3, r2
    3f00:	6bba      	ldr	r2, [r7, #56]	; 0x38
    3f02:	4413      	add	r3, r2
    3f04:	63bb      	str	r3, [r7, #56]	; 0x38
/home/qemu-sgx/devel/optee/optee_os/lib/libutee/tee_api.c:99
    3f06:	6bfb      	ldr	r3, [r7, #60]	; 0x3c
    3f08:	ea4f 0383 	mov.w	r3, r3, lsl #2
    3f0c:	69ba      	ldr	r2, [r7, #24]
    3f0e:	fa22 f303 	lsr.w	r3, r2, r3
    3f12:	f003 030f 	and.w	r3, r3, #15
    3f16:	2b06      	cmp	r3, #6
    3f18:	d012      	beq.n	3f40 <copy_param+0x24c>
/home/qemu-sgx/devel/optee/optee_os/lib/libutee/tee_api.c:101
    3f1a:	6bfb      	ldr	r3, [r7, #60]	; 0x3c
    3f1c:	ea4f 03c3 	mov.w	r3, r3, lsl #3
    3f20:	697a      	ldr	r2, [r7, #20]
    3f22:	4413      	add	r3, r2
    3f24:	681b      	ldr	r3, [r3, #0]
    3f26:	6aba      	ldr	r2, [r7, #40]	; 0x28
    3f28:	4619      	mov	r1, r3
    3f2a:	6b38      	ldr	r0, [r7, #48]	; 0x30
    3f2c:	f7ff e892 	blx	3054 <memcpy@plt>
    3f30:	e006      	b.n	3f40 <copy_param+0x24c>
/home/qemu-sgx/devel/optee/optee_os/lib/libutee/tee_api.c:103
    3f32:	6bfb      	ldr	r3, [r7, #60]	; 0x3c
    3f34:	ea4f 03c3 	mov.w	r3, r3, lsl #3
    3f38:	697a      	ldr	r2, [r7, #20]
    3f3a:	4413      	add	r3, r2
    3f3c:	681b      	ldr	r3, [r3, #0]
    3f3e:	633b      	str	r3, [r7, #48]	; 0x30
/home/qemu-sgx/devel/optee/optee_os/lib/libutee/tee_api.c:105
    3f40:	6b3a      	ldr	r2, [r7, #48]	; 0x30
    3f42:	6bfb      	ldr	r3, [r7, #60]	; 0x3c
    3f44:	ea4f 0343 	mov.w	r3, r3, lsl #1
    3f48:	f04f 0100 	mov.w	r1, #0
    3f4c:	4692      	mov	sl, r2
    3f4e:	468b      	mov	fp, r1
    3f50:	69fa      	ldr	r2, [r7, #28]
    3f52:	f103 0301 	add.w	r3, r3, #1
    3f56:	ea4f 03c3 	mov.w	r3, r3, lsl #3
    3f5a:	4413      	add	r3, r2
    3f5c:	e9c3 ab00 	strd	sl, fp, [r3]
/home/qemu-sgx/devel/optee/optee_os/lib/libutee/tee_api.c:106
    3f60:	6bfb      	ldr	r3, [r7, #60]	; 0x3c
    3f62:	ea4f 0343 	mov.w	r3, r3, lsl #1
    3f66:	f103 0301 	add.w	r3, r3, #1
    3f6a:	6aba      	ldr	r2, [r7, #40]	; 0x28
    3f6c:	f04f 0100 	mov.w	r1, #0
    3f70:	603a      	str	r2, [r7, #0]
    3f72:	6079      	str	r1, [r7, #4]
    3f74:	69fa      	ldr	r2, [r7, #28]
    3f76:	f103 0301 	add.w	r3, r3, #1
    3f7a:	ea4f 03c3 	mov.w	r3, r3, lsl #3
    3f7e:	4413      	add	r3, r2
    3f80:	e9d7 1200 	ldrd	r1, r2, [r7]
    3f84:	e9c3 1200 	strd	r1, r2, [r3]
/home/qemu-sgx/devel/optee/optee_os/lib/libutee/tee_api.c:107
    3f88:	e01c      	b.n	3fc4 <copy_param+0x2d0>
/home/qemu-sgx/devel/optee/optee_os/lib/libutee/tee_api.c:109
    3f8a:	6bfb      	ldr	r3, [r7, #60]	; 0x3c
    3f8c:	ea4f 0343 	mov.w	r3, r3, lsl #1
    3f90:	69fa      	ldr	r2, [r7, #28]
    3f92:	f103 0301 	add.w	r3, r3, #1
    3f96:	ea4f 03c3 	mov.w	r3, r3, lsl #3
    3f9a:	4413      	add	r3, r2
    3f9c:	efc0 0010 	vmov.i32	d16, #0	; 0x00000000
    3fa0:	edc3 0b00 	vstr	d16, [r3]
/home/qemu-sgx/devel/optee/optee_os/lib/libutee/tee_api.c:110
    3fa4:	6bfb      	ldr	r3, [r7, #60]	; 0x3c
    3fa6:	ea4f 0343 	mov.w	r3, r3, lsl #1
    3faa:	f103 0301 	add.w	r3, r3, #1
    3fae:	69fa      	ldr	r2, [r7, #28]
    3fb0:	f103 0301 	add.w	r3, r3, #1
    3fb4:	ea4f 03c3 	mov.w	r3, r3, lsl #3
    3fb8:	4413      	add	r3, r2
    3fba:	efc0 0010 	vmov.i32	d16, #0	; 0x00000000
    3fbe:	edc3 0b00 	vstr	d16, [r3]
/home/qemu-sgx/devel/optee/optee_os/lib/libutee/tee_api.c:111
    3fc2:	bf00      	nop
/home/qemu-sgx/devel/optee/optee_os/lib/libutee/tee_api.c:84 (discriminator 2)
    3fc4:	6bfb      	ldr	r3, [r7, #60]	; 0x3c
    3fc6:	f103 0301 	add.w	r3, r3, #1
    3fca:	63fb      	str	r3, [r7, #60]	; 0x3c
/home/qemu-sgx/devel/optee/optee_os/lib/libutee/tee_api.c:84 (discriminator 1)
    3fcc:	6bfb      	ldr	r3, [r7, #60]	; 0x3c
    3fce:	2b03      	cmp	r3, #3
    3fd0:	f67f af36 	bls.w	3e40 <copy_param+0x14c>
/home/qemu-sgx/devel/optee/optee_os/lib/libutee/tee_api.c:115
    3fd4:	f04f 0300 	mov.w	r3, #0
/home/qemu-sgx/devel/optee/optee_os/lib/libutee/tee_api.c:116 (discriminator 1)
    3fd8:	4618      	mov	r0, r3
    3fda:	f107 0740 	add.w	r7, r7, #64	; 0x40
    3fde:	46bd      	mov	sp, r7
    3fe0:	e9dd 4500 	ldrd	r4, r5, [sp]
    3fe4:	e9dd 7802 	ldrd	r7, r8, [sp, #8]
    3fe8:	e9dd 9a04 	ldrd	r9, sl, [sp, #16]
    3fec:	b006      	add	sp, #24
    3fee:	e8bd 8800 	ldmia.w	sp!, {fp, pc}

00003ff2 <update_out_param>:
update_out_param():
/home/qemu-sgx/devel/optee/optee_os/lib/libutee/tee_api.c:121
    3ff2:	e96d 7e02 	strd	r7, lr, [sp, #-8]!
    3ff6:	b08a      	sub	sp, #40	; 0x28
    3ff8:	af00      	add	r7, sp, #0
    3ffa:	60f8      	str	r0, [r7, #12]
    3ffc:	60b9      	str	r1, [r7, #8]
    3ffe:	607a      	str	r2, [r7, #4]
/home/qemu-sgx/devel/optee/optee_os/lib/libutee/tee_api.c:123
    4000:	687b      	ldr	r3, [r7, #4]
    4002:	e9d3 2300 	ldrd	r2, r3, [r3]
    4006:	4613      	mov	r3, r2
    4008:	623b      	str	r3, [r7, #32]
/home/qemu-sgx/devel/optee/optee_os/lib/libutee/tee_api.c:125
    400a:	f04f 0300 	mov.w	r3, #0
    400e:	627b      	str	r3, [r7, #36]	; 0x24
    4010:	e06e      	b.n	40f0 <update_out_param+0xfe>
/home/qemu-sgx/devel/optee/optee_os/lib/libutee/tee_api.c:126
    4012:	6a7b      	ldr	r3, [r7, #36]	; 0x24
    4014:	ea4f 0343 	mov.w	r3, r3, lsl #1
    4018:	687a      	ldr	r2, [r7, #4]
    401a:	f103 0301 	add.w	r3, r3, #1
    401e:	ea4f 03c3 	mov.w	r3, r3, lsl #3
    4022:	4413      	add	r3, r2
    4024:	e9d3 2300 	ldrd	r2, r3, [r3]
    4028:	4613      	mov	r3, r2
    402a:	61fb      	str	r3, [r7, #28]
/home/qemu-sgx/devel/optee/optee_os/lib/libutee/tee_api.c:127
    402c:	6a7b      	ldr	r3, [r7, #36]	; 0x24
    402e:	ea4f 0343 	mov.w	r3, r3, lsl #1
    4032:	f103 0301 	add.w	r3, r3, #1
    4036:	687a      	ldr	r2, [r7, #4]
    4038:	f103 0301 	add.w	r3, r3, #1
    403c:	ea4f 03c3 	mov.w	r3, r3, lsl #3
    4040:	4413      	add	r3, r2
    4042:	e9d3 2300 	ldrd	r2, r3, [r3]
    4046:	4613      	mov	r3, r2
    4048:	61bb      	str	r3, [r7, #24]
/home/qemu-sgx/devel/optee/optee_os/lib/libutee/tee_api.c:129
    404a:	6a7b      	ldr	r3, [r7, #36]	; 0x24
    404c:	ea4f 0383 	mov.w	r3, r3, lsl #2
    4050:	6a3a      	ldr	r2, [r7, #32]
    4052:	fa22 f303 	lsr.w	r3, r2, r3
    4056:	f003 030f 	and.w	r3, r3, #15
    405a:	2b03      	cmp	r3, #3
    405c:	d802      	bhi.n	4064 <update_out_param+0x72>
    405e:	2b02      	cmp	r3, #2
    4060:	d205      	bcs.n	406e <update_out_param+0x7c>
/home/qemu-sgx/devel/optee/optee_os/lib/libutee/tee_api.c:143
    4062:	e040      	b.n	40e6 <update_out_param+0xf4>
    4064:	f1a3 0306 	sub.w	r3, r3, #6
/home/qemu-sgx/devel/optee/optee_os/lib/libutee/tee_api.c:129
    4068:	2b01      	cmp	r3, #1
    406a:	d83c      	bhi.n	40e6 <update_out_param+0xf4>
    406c:	e00e      	b.n	408c <update_out_param+0x9a>
/home/qemu-sgx/devel/optee/optee_os/lib/libutee/tee_api.c:132
    406e:	6a7b      	ldr	r3, [r7, #36]	; 0x24
    4070:	ea4f 03c3 	mov.w	r3, r3, lsl #3
    4074:	68fa      	ldr	r2, [r7, #12]
    4076:	4413      	add	r3, r2
    4078:	69fa      	ldr	r2, [r7, #28]
    407a:	601a      	str	r2, [r3, #0]
/home/qemu-sgx/devel/optee/optee_os/lib/libutee/tee_api.c:133
    407c:	6a7b      	ldr	r3, [r7, #36]	; 0x24
    407e:	ea4f 03c3 	mov.w	r3, r3, lsl #3
    4082:	68fa      	ldr	r2, [r7, #12]
    4084:	4413      	add	r3, r2
    4086:	69ba      	ldr	r2, [r7, #24]
    4088:	605a      	str	r2, [r3, #4]
/home/qemu-sgx/devel/optee/optee_os/lib/libutee/tee_api.c:134
    408a:	e02d      	b.n	40e8 <update_out_param+0xf6>
/home/qemu-sgx/devel/optee/optee_os/lib/libutee/tee_api.c:137
    408c:	6a7b      	ldr	r3, [r7, #36]	; 0x24
    408e:	ea4f 0383 	mov.w	r3, r3, lsl #2
    4092:	68ba      	ldr	r2, [r7, #8]
    4094:	4413      	add	r3, r2
    4096:	681b      	ldr	r3, [r3, #0]
    4098:	2b00      	cmp	r3, #0
    409a:	d01c      	beq.n	40d6 <update_out_param+0xe4>
/home/qemu-sgx/devel/optee/optee_os/lib/libutee/tee_api.c:138
    409c:	6a7b      	ldr	r3, [r7, #36]	; 0x24
    409e:	ea4f 03c3 	mov.w	r3, r3, lsl #3
    40a2:	68fa      	ldr	r2, [r7, #12]
    40a4:	4413      	add	r3, r2
    40a6:	6818      	ldr	r0, [r3, #0]
    40a8:	6a7b      	ldr	r3, [r7, #36]	; 0x24
    40aa:	ea4f 0383 	mov.w	r3, r3, lsl #2
    40ae:	68ba      	ldr	r2, [r7, #8]
    40b0:	4413      	add	r3, r2
    40b2:	6819      	ldr	r1, [r3, #0]
/home/qemu-sgx/devel/optee/optee_os/lib/libutee/tee_api.c:139
    40b4:	69bb      	ldr	r3, [r7, #24]
    40b6:	617b      	str	r3, [r7, #20]
    40b8:	6a7b      	ldr	r3, [r7, #36]	; 0x24
    40ba:	ea4f 03c3 	mov.w	r3, r3, lsl #3
    40be:	68fa      	ldr	r2, [r7, #12]
    40c0:	4413      	add	r3, r2
    40c2:	685b      	ldr	r3, [r3, #4]
    40c4:	613b      	str	r3, [r7, #16]
    40c6:	693a      	ldr	r2, [r7, #16]
    40c8:	697b      	ldr	r3, [r7, #20]
    40ca:	4293      	cmp	r3, r2
    40cc:	bf28      	it	cs
    40ce:	4613      	movcs	r3, r2
/home/qemu-sgx/devel/optee/optee_os/lib/libutee/tee_api.c:138
    40d0:	461a      	mov	r2, r3
    40d2:	f7fe efc0 	blx	3054 <memcpy@plt>
/home/qemu-sgx/devel/optee/optee_os/lib/libutee/tee_api.c:140
    40d6:	6a7b      	ldr	r3, [r7, #36]	; 0x24
    40d8:	ea4f 03c3 	mov.w	r3, r3, lsl #3
    40dc:	68fa      	ldr	r2, [r7, #12]
    40de:	4413      	add	r3, r2
    40e0:	69ba      	ldr	r2, [r7, #24]
    40e2:	605a      	str	r2, [r3, #4]
/home/qemu-sgx/devel/optee/optee_os/lib/libutee/tee_api.c:141
    40e4:	e000      	b.n	40e8 <update_out_param+0xf6>
/home/qemu-sgx/devel/optee/optee_os/lib/libutee/tee_api.c:143
    40e6:	bf00      	nop
/home/qemu-sgx/devel/optee/optee_os/lib/libutee/tee_api.c:125 (discriminator 2)
    40e8:	6a7b      	ldr	r3, [r7, #36]	; 0x24
    40ea:	f103 0301 	add.w	r3, r3, #1
    40ee:	627b      	str	r3, [r7, #36]	; 0x24
/home/qemu-sgx/devel/optee/optee_os/lib/libutee/tee_api.c:125 (discriminator 1)
    40f0:	6a7b      	ldr	r3, [r7, #36]	; 0x24
    40f2:	2b03      	cmp	r3, #3
    40f4:	d98d      	bls.n	4012 <update_out_param+0x20>
/home/qemu-sgx/devel/optee/optee_os/lib/libutee/tee_api.c:146
    40f6:	bf00      	nop
    40f8:	bf00      	nop
    40fa:	f107 0728 	add.w	r7, r7, #40	; 0x28
    40fe:	46bd      	mov	sp, r7
    4100:	bd80      	pop	{r7, pc}

00004102 <TEE_OpenTASession>:
TEE_OpenTASession():
/home/qemu-sgx/devel/optee/optee_os/lib/libutee/tee_api.c:154
    4102:	e96d 7e02 	strd	r7, lr, [sp, #-8]!
    4106:	b0a2      	sub	sp, #136	; 0x88
    4108:	af02      	add	r7, sp, #8
    410a:	60f8      	str	r0, [r7, #12]
    410c:	60b9      	str	r1, [r7, #8]
    410e:	607a      	str	r2, [r7, #4]
    4110:	603b      	str	r3, [r7, #0]
/home/qemu-sgx/devel/optee/optee_os/lib/libutee/tee_api.c:155
    4112:	f04f 0300 	mov.w	r3, #0
    4116:	67fb      	str	r3, [r7, #124]	; 0x7c
/home/qemu-sgx/devel/optee/optee_os/lib/libutee/tee_api.c:157
    4118:	f04f 0300 	mov.w	r3, #0
    411c:	62fb      	str	r3, [r7, #44]	; 0x2c
/home/qemu-sgx/devel/optee/optee_os/lib/libutee/tee_api.c:158
    411e:	f04f 0300 	mov.w	r3, #0
    4122:	62bb      	str	r3, [r7, #40]	; 0x28
/home/qemu-sgx/devel/optee/optee_os/lib/libutee/tee_api.c:159
    4124:	f04f 0300 	mov.w	r3, #0
    4128:	627b      	str	r3, [r7, #36]	; 0x24
/home/qemu-sgx/devel/optee/optee_os/lib/libutee/tee_api.c:160
    412a:	f107 0314 	add.w	r3, r7, #20
    412e:	efc0 0010 	vmov.i32	d16, #0	; 0x00000000
    4132:	edc3 0b00 	vstr	d16, [r3]
    4136:	edc3 0b02 	vstr	d16, [r3, #8]
/home/qemu-sgx/devel/optee/optee_os/lib/libutee/tee_api.c:162
    413a:	687b      	ldr	r3, [r7, #4]
    413c:	2b00      	cmp	r3, #0
    413e:	d004      	beq.n	414a <TEE_OpenTASession+0x48>
/home/qemu-sgx/devel/optee/optee_os/lib/libutee/tee_api.c:163
    4140:	f04f 0120 	mov.w	r1, #32
    4144:	6838      	ldr	r0, [r7, #0]
    4146:	f7fe ef2c 	blx	2fa0 <__utee_check_inout_annotation@plt>
/home/qemu-sgx/devel/optee/optee_os/lib/libutee/tee_api.c:166
    414a:	f04f 0104 	mov.w	r1, #4
    414e:	f8d7 0088 	ldr.w	r0, [r7, #136]	; 0x88
    4152:	f7fe efda 	blx	3108 <__utee_check_out_annotation@plt>
/home/qemu-sgx/devel/optee/optee_os/lib/libutee/tee_api.c:168
    4156:	f107 0228 	add.w	r2, r7, #40	; 0x28
    415a:	f107 0030 	add.w	r0, r7, #48	; 0x30
    415e:	f107 0314 	add.w	r3, r7, #20
    4162:	9301      	str	r3, [sp, #4]
    4164:	f107 0324 	add.w	r3, r7, #36	; 0x24
    4168:	9300      	str	r3, [sp, #0]
    416a:	4613      	mov	r3, r2
    416c:	683a      	ldr	r2, [r7, #0]
    416e:	6879      	ldr	r1, [r7, #4]
    4170:	f7ff fdc0 	bl	3cf4 <copy_param>
    4174:	67f8      	str	r0, [r7, #124]	; 0x7c
/home/qemu-sgx/devel/optee/optee_os/lib/libutee/tee_api.c:169
    4176:	6ffb      	ldr	r3, [r7, #124]	; 0x7c
    4178:	2b00      	cmp	r3, #0
    417a:	d125      	bne.n	41c8 <TEE_OpenTASession+0xc6>
/home/qemu-sgx/devel/optee/optee_os/lib/libutee/tee_api.c:171
    417c:	f107 012c 	add.w	r1, r7, #44	; 0x2c
    4180:	f107 0230 	add.w	r2, r7, #48	; 0x30
    4184:	f8d7 308c 	ldr.w	r3, [r7, #140]	; 0x8c
    4188:	9300      	str	r3, [sp, #0]
    418a:	460b      	mov	r3, r1
    418c:	68b9      	ldr	r1, [r7, #8]
    418e:	68f8      	ldr	r0, [r7, #12]
    4190:	f7ff e8c2 	blx	3318 <_utee_open_ta_session@plt>
    4194:	67f8      	str	r0, [r7, #124]	; 0x7c
/home/qemu-sgx/devel/optee/optee_os/lib/libutee/tee_api.c:173
    4196:	f107 0230 	add.w	r2, r7, #48	; 0x30
    419a:	f107 0314 	add.w	r3, r7, #20
    419e:	4619      	mov	r1, r3
    41a0:	6838      	ldr	r0, [r7, #0]
    41a2:	f7ff ff26 	bl	3ff2 <update_out_param>
/home/qemu-sgx/devel/optee/optee_os/lib/libutee/tee_api.c:174
    41a6:	6abb      	ldr	r3, [r7, #40]	; 0x28
    41a8:	2b00      	cmp	r3, #0
    41aa:	d00f      	beq.n	41cc <TEE_OpenTASession+0xca>
/home/qemu-sgx/devel/optee/optee_os/lib/libutee/tee_api.c:175
    41ac:	6abb      	ldr	r3, [r7, #40]	; 0x28
    41ae:	6a7a      	ldr	r2, [r7, #36]	; 0x24
    41b0:	4611      	mov	r1, r2
    41b2:	4618      	mov	r0, r3
    41b4:	f7fe efa2 	blx	30fc <tee_unmap@plt>
    41b8:	67b8      	str	r0, [r7, #120]	; 0x78
/home/qemu-sgx/devel/optee/optee_os/lib/libutee/tee_api.c:177
    41ba:	6fbb      	ldr	r3, [r7, #120]	; 0x78
    41bc:	2b00      	cmp	r3, #0
    41be:	d005      	beq.n	41cc <TEE_OpenTASession+0xca>
/home/qemu-sgx/devel/optee/optee_os/lib/libutee/tee_api.c:178
    41c0:	6fb8      	ldr	r0, [r7, #120]	; 0x78
    41c2:	f7fe ef4e 	blx	3060 <TEE_Panic@plt>
    41c6:	e002      	b.n	41ce <TEE_OpenTASession+0xcc>
/home/qemu-sgx/devel/optee/optee_os/lib/libutee/tee_api.c:170
    41c8:	bf00      	nop
    41ca:	e000      	b.n	41ce <TEE_OpenTASession+0xcc>
/home/qemu-sgx/devel/optee/optee_os/lib/libutee/tee_api.c:181
    41cc:	bf00      	nop
/home/qemu-sgx/devel/optee/optee_os/lib/libutee/tee_api.c:187
    41ce:	6ffb      	ldr	r3, [r7, #124]	; 0x7c
    41d0:	2b00      	cmp	r3, #0
    41d2:	d002      	beq.n	41da <TEE_OpenTASession+0xd8>
/home/qemu-sgx/devel/optee/optee_os/lib/libutee/tee_api.c:188
    41d4:	f04f 0300 	mov.w	r3, #0
    41d8:	62fb      	str	r3, [r7, #44]	; 0x2c
/home/qemu-sgx/devel/optee/optee_os/lib/libutee/tee_api.c:190
    41da:	6afb      	ldr	r3, [r7, #44]	; 0x2c
    41dc:	461a      	mov	r2, r3
    41de:	f8d7 3088 	ldr.w	r3, [r7, #136]	; 0x88
    41e2:	601a      	str	r2, [r3, #0]
/home/qemu-sgx/devel/optee/optee_os/lib/libutee/tee_api.c:191
    41e4:	6ffb      	ldr	r3, [r7, #124]	; 0x7c
/home/qemu-sgx/devel/optee/optee_os/lib/libutee/tee_api.c:192
    41e6:	4618      	mov	r0, r3
    41e8:	f107 0780 	add.w	r7, r7, #128	; 0x80
    41ec:	46bd      	mov	sp, r7
    41ee:	bd80      	pop	{r7, pc}

000041f0 <TEE_CloseTASession>:
TEE_CloseTASession():
/home/qemu-sgx/devel/optee/optee_os/lib/libutee/tee_api.c:195
    41f0:	e96d 7e02 	strd	r7, lr, [sp, #-8]!
    41f4:	b084      	sub	sp, #16
    41f6:	af00      	add	r7, sp, #0
    41f8:	6078      	str	r0, [r7, #4]
/home/qemu-sgx/devel/optee/optee_os/lib/libutee/tee_api.c:196
    41fa:	687b      	ldr	r3, [r7, #4]
    41fc:	2b00      	cmp	r3, #0
    41fe:	d00a      	beq.n	4216 <TEE_CloseTASession+0x26>
/home/qemu-sgx/devel/optee/optee_os/lib/libutee/tee_api.c:197
    4200:	687b      	ldr	r3, [r7, #4]
    4202:	4618      	mov	r0, r3
    4204:	f7fe ef86 	blx	3114 <_utee_close_ta_session@plt>
    4208:	60f8      	str	r0, [r7, #12]
/home/qemu-sgx/devel/optee/optee_os/lib/libutee/tee_api.c:199
    420a:	68fb      	ldr	r3, [r7, #12]
    420c:	2b00      	cmp	r3, #0
    420e:	d002      	beq.n	4216 <TEE_CloseTASession+0x26>
/home/qemu-sgx/devel/optee/optee_os/lib/libutee/tee_api.c:200
    4210:	68f8      	ldr	r0, [r7, #12]
    4212:	f7fe ef26 	blx	3060 <TEE_Panic@plt>
/home/qemu-sgx/devel/optee/optee_os/lib/libutee/tee_api.c:202
    4216:	bf00      	nop
    4218:	f107 0710 	add.w	r7, r7, #16
    421c:	46bd      	mov	sp, r7
    421e:	bd80      	pop	{r7, pc}

00004220 <TEE_InvokeTACommand>:
TEE_InvokeTACommand():
/home/qemu-sgx/devel/optee/optee_os/lib/libutee/tee_api.c:209
    4220:	e96d 7e02 	strd	r7, lr, [sp, #-8]!
    4224:	b0a2      	sub	sp, #136	; 0x88
    4226:	af02      	add	r7, sp, #8
    4228:	60f8      	str	r0, [r7, #12]
    422a:	60b9      	str	r1, [r7, #8]
    422c:	607a      	str	r2, [r7, #4]
    422e:	603b      	str	r3, [r7, #0]
/home/qemu-sgx/devel/optee/optee_os/lib/libutee/tee_api.c:210
    4230:	f04f 0300 	mov.w	r3, #0
    4234:	67fb      	str	r3, [r7, #124]	; 0x7c
/home/qemu-sgx/devel/optee/optee_os/lib/libutee/tee_api.c:211
    4236:	f04f 0303 	mov.w	r3, #3
    423a:	677b      	str	r3, [r7, #116]	; 0x74
/home/qemu-sgx/devel/optee/optee_os/lib/libutee/tee_api.c:213
    423c:	f04f 0300 	mov.w	r3, #0
    4240:	627b      	str	r3, [r7, #36]	; 0x24
/home/qemu-sgx/devel/optee/optee_os/lib/libutee/tee_api.c:214
    4242:	f04f 0300 	mov.w	r3, #0
    4246:	623b      	str	r3, [r7, #32]
/home/qemu-sgx/devel/optee/optee_os/lib/libutee/tee_api.c:215
    4248:	f107 0310 	add.w	r3, r7, #16
    424c:	efc0 0010 	vmov.i32	d16, #0	; 0x00000000
    4250:	edc3 0b00 	vstr	d16, [r3]
    4254:	edc3 0b02 	vstr	d16, [r3, #8]
/home/qemu-sgx/devel/optee/optee_os/lib/libutee/tee_api.c:217
    4258:	683b      	ldr	r3, [r7, #0]
    425a:	2b00      	cmp	r3, #0
    425c:	d005      	beq.n	426a <TEE_InvokeTACommand+0x4a>
/home/qemu-sgx/devel/optee/optee_os/lib/libutee/tee_api.c:218
    425e:	f04f 0120 	mov.w	r1, #32
    4262:	f8d7 0088 	ldr.w	r0, [r7, #136]	; 0x88
    4266:	f7fe ee9c 	blx	2fa0 <__utee_check_inout_annotation@plt>
/home/qemu-sgx/devel/optee/optee_os/lib/libutee/tee_api.c:221
    426a:	f8d7 308c 	ldr.w	r3, [r7, #140]	; 0x8c
    426e:	2b00      	cmp	r3, #0
    4270:	d005      	beq.n	427e <TEE_InvokeTACommand+0x5e>
/home/qemu-sgx/devel/optee/optee_os/lib/libutee/tee_api.c:222
    4272:	f04f 0104 	mov.w	r1, #4
    4276:	f8d7 008c 	ldr.w	r0, [r7, #140]	; 0x8c
    427a:	f7fe ef46 	blx	3108 <__utee_check_out_annotation@plt>
/home/qemu-sgx/devel/optee/optee_os/lib/libutee/tee_api.c:225
    427e:	f107 0224 	add.w	r2, r7, #36	; 0x24
    4282:	f107 0028 	add.w	r0, r7, #40	; 0x28
    4286:	f107 0310 	add.w	r3, r7, #16
    428a:	9301      	str	r3, [sp, #4]
    428c:	f107 0320 	add.w	r3, r7, #32
    4290:	9300      	str	r3, [sp, #0]
    4292:	4613      	mov	r3, r2
    4294:	f8d7 2088 	ldr.w	r2, [r7, #136]	; 0x88
    4298:	6839      	ldr	r1, [r7, #0]
    429a:	f7ff fd2b 	bl	3cf4 <copy_param>
    429e:	67f8      	str	r0, [r7, #124]	; 0x7c
/home/qemu-sgx/devel/optee/optee_os/lib/libutee/tee_api.c:226
    42a0:	6ffb      	ldr	r3, [r7, #124]	; 0x7c
    42a2:	2b00      	cmp	r3, #0
    42a4:	d125      	bne.n	42f2 <TEE_InvokeTACommand+0xd2>
/home/qemu-sgx/devel/optee/optee_os/lib/libutee/tee_api.c:228
    42a6:	68f8      	ldr	r0, [r7, #12]
    42a8:	f107 0228 	add.w	r2, r7, #40	; 0x28
    42ac:	f107 0374 	add.w	r3, r7, #116	; 0x74
    42b0:	9300      	str	r3, [sp, #0]
    42b2:	4613      	mov	r3, r2
    42b4:	687a      	ldr	r2, [r7, #4]
    42b6:	68b9      	ldr	r1, [r7, #8]
    42b8:	f7fe efc8 	blx	324c <_utee_invoke_ta_command@plt>
    42bc:	67f8      	str	r0, [r7, #124]	; 0x7c
/home/qemu-sgx/devel/optee/optee_os/lib/libutee/tee_api.c:231
    42be:	f107 0228 	add.w	r2, r7, #40	; 0x28
    42c2:	f107 0310 	add.w	r3, r7, #16
    42c6:	4619      	mov	r1, r3
    42c8:	f8d7 0088 	ldr.w	r0, [r7, #136]	; 0x88
    42cc:	f7ff fe91 	bl	3ff2 <update_out_param>
/home/qemu-sgx/devel/optee/optee_os/lib/libutee/tee_api.c:232
    42d0:	6a7b      	ldr	r3, [r7, #36]	; 0x24
    42d2:	2b00      	cmp	r3, #0
    42d4:	d00f      	beq.n	42f6 <TEE_InvokeTACommand+0xd6>
/home/qemu-sgx/devel/optee/optee_os/lib/libutee/tee_api.c:233
    42d6:	6a7b      	ldr	r3, [r7, #36]	; 0x24
    42d8:	6a3a      	ldr	r2, [r7, #32]
    42da:	4611      	mov	r1, r2
    42dc:	4618      	mov	r0, r3
    42de:	f7fe ef0e 	blx	30fc <tee_unmap@plt>
    42e2:	67b8      	str	r0, [r7, #120]	; 0x78
/home/qemu-sgx/devel/optee/optee_os/lib/libutee/tee_api.c:235
    42e4:	6fbb      	ldr	r3, [r7, #120]	; 0x78
    42e6:	2b00      	cmp	r3, #0
    42e8:	d005      	beq.n	42f6 <TEE_InvokeTACommand+0xd6>
/home/qemu-sgx/devel/optee/optee_os/lib/libutee/tee_api.c:236
    42ea:	6fb8      	ldr	r0, [r7, #120]	; 0x78
    42ec:	f7fe eeb8 	blx	3060 <TEE_Panic@plt>
    42f0:	e002      	b.n	42f8 <TEE_InvokeTACommand+0xd8>
/home/qemu-sgx/devel/optee/optee_os/lib/libutee/tee_api.c:227
    42f2:	bf00      	nop
    42f4:	e000      	b.n	42f8 <TEE_InvokeTACommand+0xd8>
/home/qemu-sgx/devel/optee/optee_os/lib/libutee/tee_api.c:239
    42f6:	bf00      	nop
/home/qemu-sgx/devel/optee/optee_os/lib/libutee/tee_api.c:240
    42f8:	f8d7 308c 	ldr.w	r3, [r7, #140]	; 0x8c
    42fc:	2b00      	cmp	r3, #0
    42fe:	d003      	beq.n	4308 <TEE_InvokeTACommand+0xe8>
/home/qemu-sgx/devel/optee/optee_os/lib/libutee/tee_api.c:241
    4300:	6f7a      	ldr	r2, [r7, #116]	; 0x74
    4302:	f8d7 308c 	ldr.w	r3, [r7, #140]	; 0x8c
    4306:	601a      	str	r2, [r3, #0]
/home/qemu-sgx/devel/optee/optee_os/lib/libutee/tee_api.c:243
    4308:	6f7b      	ldr	r3, [r7, #116]	; 0x74
    430a:	2b04      	cmp	r3, #4
    430c:	d101      	bne.n	4312 <TEE_InvokeTACommand+0xf2>
/home/qemu-sgx/devel/optee/optee_os/lib/libutee/tee_api.c:244
    430e:	6ffb      	ldr	r3, [r7, #124]	; 0x7c
    4310:	e014      	b.n	433c <TEE_InvokeTACommand+0x11c>
/home/qemu-sgx/devel/optee/optee_os/lib/libutee/tee_api.c:246
    4312:	6ffb      	ldr	r3, [r7, #124]	; 0x7c
    4314:	2b00      	cmp	r3, #0
    4316:	d010      	beq.n	433a <TEE_InvokeTACommand+0x11a>
/home/qemu-sgx/devel/optee/optee_os/lib/libutee/tee_api.c:246 (discriminator 1)
    4318:	6ffa      	ldr	r2, [r7, #124]	; 0x7c
    431a:	f04f 030c 	mov.w	r3, #12
    431e:	f6cf 73ff 	movt	r3, #65535	; 0xffff
    4322:	429a      	cmp	r2, r3
    4324:	d009      	beq.n	433a <TEE_InvokeTACommand+0x11a>
/home/qemu-sgx/devel/optee/optee_os/lib/libutee/tee_api.c:247
    4326:	6ffa      	ldr	r2, [r7, #124]	; 0x7c
    4328:	f243 0324 	movw	r3, #12324	; 0x3024
    432c:	f6cf 73ff 	movt	r3, #65535	; 0xffff
    4330:	429a      	cmp	r2, r3
    4332:	d002      	beq.n	433a <TEE_InvokeTACommand+0x11a>
/home/qemu-sgx/devel/optee/optee_os/lib/libutee/tee_api.c:249
    4334:	6ff8      	ldr	r0, [r7, #124]	; 0x7c
    4336:	f7fe ee94 	blx	3060 <TEE_Panic@plt>
/home/qemu-sgx/devel/optee/optee_os/lib/libutee/tee_api.c:251
    433a:	6ffb      	ldr	r3, [r7, #124]	; 0x7c
/home/qemu-sgx/devel/optee/optee_os/lib/libutee/tee_api.c:252 (discriminator 1)
    433c:	4618      	mov	r0, r3
    433e:	f107 0780 	add.w	r7, r7, #128	; 0x80
    4342:	46bd      	mov	sp, r7
    4344:	bd80      	pop	{r7, pc}

00004346 <TEE_GetCancellationFlag>:
TEE_GetCancellationFlag():
/home/qemu-sgx/devel/optee/optee_os/lib/libutee/tee_api.c:257
    4346:	e96d 7e02 	strd	r7, lr, [sp, #-8]!
    434a:	b082      	sub	sp, #8
    434c:	af00      	add	r7, sp, #0
/home/qemu-sgx/devel/optee/optee_os/lib/libutee/tee_api.c:259
    434e:	463b      	mov	r3, r7
    4350:	4618      	mov	r0, r3
    4352:	f7ff e8a2 	blx	3498 <_utee_get_cancellation_flag@plt>
    4356:	6078      	str	r0, [r7, #4]
/home/qemu-sgx/devel/optee/optee_os/lib/libutee/tee_api.c:261
    4358:	687b      	ldr	r3, [r7, #4]
    435a:	2b00      	cmp	r3, #0
    435c:	d002      	beq.n	4364 <TEE_GetCancellationFlag+0x1e>
/home/qemu-sgx/devel/optee/optee_os/lib/libutee/tee_api.c:262
    435e:	f04f 0300 	mov.w	r3, #0
    4362:	603b      	str	r3, [r7, #0]
/home/qemu-sgx/devel/optee/optee_os/lib/libutee/tee_api.c:263
    4364:	683b      	ldr	r3, [r7, #0]
    4366:	2b00      	cmp	r3, #0
    4368:	bf14      	ite	ne
    436a:	2301      	movne	r3, #1
    436c:	2300      	moveq	r3, #0
    436e:	b2db      	uxtb	r3, r3
/home/qemu-sgx/devel/optee/optee_os/lib/libutee/tee_api.c:264
    4370:	4618      	mov	r0, r3
    4372:	f107 0708 	add.w	r7, r7, #8
    4376:	46bd      	mov	sp, r7
    4378:	bd80      	pop	{r7, pc}

0000437a <TEE_UnmaskCancellation>:
TEE_UnmaskCancellation():
/home/qemu-sgx/devel/optee/optee_os/lib/libutee/tee_api.c:267
    437a:	e96d 7e02 	strd	r7, lr, [sp, #-8]!
    437e:	b082      	sub	sp, #8
    4380:	af00      	add	r7, sp, #0
/home/qemu-sgx/devel/optee/optee_os/lib/libutee/tee_api.c:269
    4382:	463b      	mov	r3, r7
    4384:	4618      	mov	r0, r3
    4386:	f7fe eeea 	blx	315c <_utee_unmask_cancellation@plt>
    438a:	6078      	str	r0, [r7, #4]
/home/qemu-sgx/devel/optee/optee_os/lib/libutee/tee_api.c:271
    438c:	687b      	ldr	r3, [r7, #4]
    438e:	2b00      	cmp	r3, #0
    4390:	d002      	beq.n	4398 <TEE_UnmaskCancellation+0x1e>
/home/qemu-sgx/devel/optee/optee_os/lib/libutee/tee_api.c:272
    4392:	6878      	ldr	r0, [r7, #4]
    4394:	f7fe ee64 	blx	3060 <TEE_Panic@plt>
/home/qemu-sgx/devel/optee/optee_os/lib/libutee/tee_api.c:273
    4398:	683b      	ldr	r3, [r7, #0]
    439a:	2b00      	cmp	r3, #0
    439c:	bf14      	ite	ne
    439e:	2301      	movne	r3, #1
    43a0:	2300      	moveq	r3, #0
    43a2:	b2db      	uxtb	r3, r3
/home/qemu-sgx/devel/optee/optee_os/lib/libutee/tee_api.c:274
    43a4:	4618      	mov	r0, r3
    43a6:	f107 0708 	add.w	r7, r7, #8
    43aa:	46bd      	mov	sp, r7
    43ac:	bd80      	pop	{r7, pc}

000043ae <TEE_MaskCancellation>:
TEE_MaskCancellation():
/home/qemu-sgx/devel/optee/optee_os/lib/libutee/tee_api.c:277
    43ae:	e96d 7e02 	strd	r7, lr, [sp, #-8]!
    43b2:	b082      	sub	sp, #8
    43b4:	af00      	add	r7, sp, #0
/home/qemu-sgx/devel/optee/optee_os/lib/libutee/tee_api.c:279
    43b6:	463b      	mov	r3, r7
    43b8:	4618      	mov	r0, r3
    43ba:	f7fe efcc 	blx	3354 <_utee_mask_cancellation@plt>
    43be:	6078      	str	r0, [r7, #4]
/home/qemu-sgx/devel/optee/optee_os/lib/libutee/tee_api.c:281
    43c0:	687b      	ldr	r3, [r7, #4]
    43c2:	2b00      	cmp	r3, #0
    43c4:	d002      	beq.n	43cc <TEE_MaskCancellation+0x1e>
/home/qemu-sgx/devel/optee/optee_os/lib/libutee/tee_api.c:282
    43c6:	6878      	ldr	r0, [r7, #4]
    43c8:	f7fe ee4a 	blx	3060 <TEE_Panic@plt>
/home/qemu-sgx/devel/optee/optee_os/lib/libutee/tee_api.c:283
    43cc:	683b      	ldr	r3, [r7, #0]
    43ce:	2b00      	cmp	r3, #0
    43d0:	bf14      	ite	ne
    43d2:	2301      	movne	r3, #1
    43d4:	2300      	moveq	r3, #0
    43d6:	b2db      	uxtb	r3, r3
/home/qemu-sgx/devel/optee/optee_os/lib/libutee/tee_api.c:284
    43d8:	4618      	mov	r0, r3
    43da:	f107 0708 	add.w	r7, r7, #8
    43de:	46bd      	mov	sp, r7
    43e0:	bd80      	pop	{r7, pc}

000043e2 <TEE_CheckMemoryAccessRights>:
TEE_CheckMemoryAccessRights():
/home/qemu-sgx/devel/optee/optee_os/lib/libutee/tee_api.c:290
    43e2:	e96d 7e02 	strd	r7, lr, [sp, #-8]!
    43e6:	b086      	sub	sp, #24
    43e8:	af00      	add	r7, sp, #0
    43ea:	60f8      	str	r0, [r7, #12]
    43ec:	60b9      	str	r1, [r7, #8]
    43ee:	607a      	str	r2, [r7, #4]
/home/qemu-sgx/devel/optee/optee_os/lib/libutee/tee_api.c:293
    43f0:	687b      	ldr	r3, [r7, #4]
    43f2:	2b00      	cmp	r3, #0
    43f4:	d102      	bne.n	43fc <TEE_CheckMemoryAccessRights+0x1a>
/home/qemu-sgx/devel/optee/optee_os/lib/libutee/tee_api.c:294
    43f6:	f04f 0300 	mov.w	r3, #0
    43fa:	e00e      	b.n	441a <TEE_CheckMemoryAccessRights+0x38>
/home/qemu-sgx/devel/optee/optee_os/lib/libutee/tee_api.c:297
    43fc:	687a      	ldr	r2, [r7, #4]
    43fe:	68b9      	ldr	r1, [r7, #8]
    4400:	68f8      	ldr	r0, [r7, #12]
    4402:	f7fe eefa 	blx	31f8 <_utee_check_access_rights@plt>
    4406:	6178      	str	r0, [r7, #20]
/home/qemu-sgx/devel/optee/optee_os/lib/libutee/tee_api.c:298
    4408:	697b      	ldr	r3, [r7, #20]
    440a:	2b00      	cmp	r3, #0
    440c:	d103      	bne.n	4416 <TEE_CheckMemoryAccessRights+0x34>
/home/qemu-sgx/devel/optee/optee_os/lib/libutee/tee_api.c:306
    440e:	f04f 0300 	mov.w	r3, #0
    4412:	617b      	str	r3, [r7, #20]
    4414:	e000      	b.n	4418 <TEE_CheckMemoryAccessRights+0x36>
/home/qemu-sgx/devel/optee/optee_os/lib/libutee/tee_api.c:299
    4416:	bf00      	nop
/home/qemu-sgx/devel/optee/optee_os/lib/libutee/tee_api.c:308
    4418:	697b      	ldr	r3, [r7, #20]
/home/qemu-sgx/devel/optee/optee_os/lib/libutee/tee_api.c:309
    441a:	4618      	mov	r0, r3
    441c:	f107 0718 	add.w	r7, r7, #24
    4420:	46bd      	mov	sp, r7
    4422:	bd80      	pop	{r7, pc}

00004424 <TEE_SetInstanceData>:
TEE_SetInstanceData():
/home/qemu-sgx/devel/optee/optee_os/lib/libutee/tee_api.c:312
    4424:	f84d 7d04 	str.w	r7, [sp, #-4]!
    4428:	b083      	sub	sp, #12
    442a:	af00      	add	r7, sp, #0
    442c:	6078      	str	r0, [r7, #4]
/home/qemu-sgx/devel/optee/optee_os/lib/libutee/tee_api.c:313
    442e:	4b05      	ldr	r3, [pc, #20]	; (4444 <TEE_SetInstanceData+0x20>)
    4430:	447b      	add	r3, pc
    4432:	687a      	ldr	r2, [r7, #4]
    4434:	601a      	str	r2, [r3, #0]
/home/qemu-sgx/devel/optee/optee_os/lib/libutee/tee_api.c:314
    4436:	bf00      	nop
    4438:	f107 070c 	add.w	r7, r7, #12
    443c:	46bd      	mov	sp, r7
    443e:	f85d 7b04 	ldr.w	r7, [sp], #4
    4442:	4770      	bx	lr
    4444:	0000be34 	.word	0x0000be34

00004448 <TEE_GetInstanceData>:
TEE_GetInstanceData():
/home/qemu-sgx/devel/optee/optee_os/lib/libutee/tee_api.c:317
    4448:	f84d 7d04 	str.w	r7, [sp, #-4]!
    444c:	af00      	add	r7, sp, #0
/home/qemu-sgx/devel/optee/optee_os/lib/libutee/tee_api.c:318
    444e:	4b04      	ldr	r3, [pc, #16]	; (4460 <TEE_GetInstanceData+0x18>)
    4450:	447b      	add	r3, pc
    4452:	681b      	ldr	r3, [r3, #0]
/home/qemu-sgx/devel/optee/optee_os/lib/libutee/tee_api.c:319
    4454:	4618      	mov	r0, r3
    4456:	46bd      	mov	sp, r7
    4458:	f85d 7b04 	ldr.w	r7, [sp], #4
    445c:	4770      	bx	lr
    445e:	bf00      	nop
    4460:	0000be14 	.word	0x0000be14

00004464 <TEE_MemMove>:
TEE_MemMove():
/home/qemu-sgx/devel/optee/optee_os/lib/libutee/tee_api.c:322
    4464:	e96d 7e02 	strd	r7, lr, [sp, #-8]!
    4468:	b084      	sub	sp, #16
    446a:	af00      	add	r7, sp, #0
    446c:	60f8      	str	r0, [r7, #12]
    446e:	60b9      	str	r1, [r7, #8]
    4470:	607a      	str	r2, [r7, #4]
/home/qemu-sgx/devel/optee/optee_os/lib/libutee/tee_api.c:323
    4472:	687a      	ldr	r2, [r7, #4]
    4474:	68b9      	ldr	r1, [r7, #8]
    4476:	68f8      	ldr	r0, [r7, #12]
    4478:	f7fe edbc 	blx	2ff4 <memmove@plt>
    447c:	4603      	mov	r3, r0
/home/qemu-sgx/devel/optee/optee_os/lib/libutee/tee_api.c:324
    447e:	4618      	mov	r0, r3
    4480:	f107 0710 	add.w	r7, r7, #16
    4484:	46bd      	mov	sp, r7
    4486:	bd80      	pop	{r7, pc}

00004488 <TEE_MemCompare>:
TEE_MemCompare():
/home/qemu-sgx/devel/optee/optee_os/lib/libutee/tee_api.c:327
    4488:	e96d 7e02 	strd	r7, lr, [sp, #-8]!
    448c:	b084      	sub	sp, #16
    448e:	af00      	add	r7, sp, #0
    4490:	60f8      	str	r0, [r7, #12]
    4492:	60b9      	str	r1, [r7, #8]
    4494:	607a      	str	r2, [r7, #4]
/home/qemu-sgx/devel/optee/optee_os/lib/libutee/tee_api.c:328
    4496:	687a      	ldr	r2, [r7, #4]
    4498:	68b9      	ldr	r1, [r7, #8]
    449a:	68f8      	ldr	r0, [r7, #12]
    449c:	f7fe ee40 	blx	3120 <consttime_memcmp@plt>
    44a0:	4603      	mov	r3, r0
/home/qemu-sgx/devel/optee/optee_os/lib/libutee/tee_api.c:329
    44a2:	4618      	mov	r0, r3
    44a4:	f107 0710 	add.w	r7, r7, #16
    44a8:	46bd      	mov	sp, r7
    44aa:	bd80      	pop	{r7, pc}

000044ac <TEE_MemFill>:
TEE_MemFill():
/home/qemu-sgx/devel/optee/optee_os/lib/libutee/tee_api.c:332
    44ac:	e96d 7e02 	strd	r7, lr, [sp, #-8]!
    44b0:	b084      	sub	sp, #16
    44b2:	af00      	add	r7, sp, #0
    44b4:	60f8      	str	r0, [r7, #12]
    44b6:	60b9      	str	r1, [r7, #8]
    44b8:	607a      	str	r2, [r7, #4]
/home/qemu-sgx/devel/optee/optee_os/lib/libutee/tee_api.c:333
    44ba:	68bb      	ldr	r3, [r7, #8]
    44bc:	687a      	ldr	r2, [r7, #4]
    44be:	4619      	mov	r1, r3
    44c0:	68f8      	ldr	r0, [r7, #12]
    44c2:	f7fe ef06 	blx	32d0 <memset@plt>
    44c6:	4603      	mov	r3, r0
/home/qemu-sgx/devel/optee/optee_os/lib/libutee/tee_api.c:334
    44c8:	4618      	mov	r0, r3
    44ca:	f107 0710 	add.w	r7, r7, #16
    44ce:	46bd      	mov	sp, r7
    44d0:	bd80      	pop	{r7, pc}

000044d2 <TEE_GetSystemTime>:
TEE_GetSystemTime():
/home/qemu-sgx/devel/optee/optee_os/lib/libutee/tee_api.c:339
    44d2:	e96d 7e02 	strd	r7, lr, [sp, #-8]!
    44d6:	b084      	sub	sp, #16
    44d8:	af00      	add	r7, sp, #0
    44da:	6078      	str	r0, [r7, #4]
/home/qemu-sgx/devel/optee/optee_os/lib/libutee/tee_api.c:340
    44dc:	6879      	ldr	r1, [r7, #4]
    44de:	f04f 0000 	mov.w	r0, #0
    44e2:	f7fe ef7a 	blx	33d8 <_utee_get_time@plt>
    44e6:	60f8      	str	r0, [r7, #12]
/home/qemu-sgx/devel/optee/optee_os/lib/libutee/tee_api.c:342
    44e8:	68fb      	ldr	r3, [r7, #12]
    44ea:	2b00      	cmp	r3, #0
    44ec:	d002      	beq.n	44f4 <TEE_GetSystemTime+0x22>
/home/qemu-sgx/devel/optee/optee_os/lib/libutee/tee_api.c:343
    44ee:	68f8      	ldr	r0, [r7, #12]
    44f0:	f7fe edb6 	blx	3060 <TEE_Panic@plt>
/home/qemu-sgx/devel/optee/optee_os/lib/libutee/tee_api.c:344
    44f4:	bf00      	nop
    44f6:	f107 0710 	add.w	r7, r7, #16
    44fa:	46bd      	mov	sp, r7
    44fc:	bd80      	pop	{r7, pc}

000044fe <TEE_Wait>:
TEE_Wait():
/home/qemu-sgx/devel/optee/optee_os/lib/libutee/tee_api.c:347
    44fe:	e96d 7e02 	strd	r7, lr, [sp, #-8]!
    4502:	b084      	sub	sp, #16
    4504:	af00      	add	r7, sp, #0
    4506:	6078      	str	r0, [r7, #4]
/home/qemu-sgx/devel/optee/optee_os/lib/libutee/tee_api.c:348
    4508:	6878      	ldr	r0, [r7, #4]
    450a:	f7fe ef54 	blx	33b4 <_utee_wait@plt>
    450e:	60f8      	str	r0, [r7, #12]
/home/qemu-sgx/devel/optee/optee_os/lib/libutee/tee_api.c:350
    4510:	68fb      	ldr	r3, [r7, #12]
    4512:	2b00      	cmp	r3, #0
    4514:	d009      	beq.n	452a <TEE_Wait+0x2c>
/home/qemu-sgx/devel/optee/optee_os/lib/libutee/tee_api.c:350 (discriminator 1)
    4516:	68fa      	ldr	r2, [r7, #12]
    4518:	f04f 0302 	mov.w	r3, #2
    451c:	f6cf 73ff 	movt	r3, #65535	; 0xffff
    4520:	429a      	cmp	r2, r3
    4522:	d002      	beq.n	452a <TEE_Wait+0x2c>
/home/qemu-sgx/devel/optee/optee_os/lib/libutee/tee_api.c:351
    4524:	68f8      	ldr	r0, [r7, #12]
    4526:	f7fe ed9c 	blx	3060 <TEE_Panic@plt>
/home/qemu-sgx/devel/optee/optee_os/lib/libutee/tee_api.c:353
    452a:	68fb      	ldr	r3, [r7, #12]
/home/qemu-sgx/devel/optee/optee_os/lib/libutee/tee_api.c:354
    452c:	4618      	mov	r0, r3
    452e:	f107 0710 	add.w	r7, r7, #16
    4532:	46bd      	mov	sp, r7
    4534:	bd80      	pop	{r7, pc}

00004536 <TEE_GetTAPersistentTime>:
TEE_GetTAPersistentTime():
/home/qemu-sgx/devel/optee/optee_os/lib/libutee/tee_api.c:357
    4536:	e96d 7e02 	strd	r7, lr, [sp, #-8]!
    453a:	b084      	sub	sp, #16
    453c:	af00      	add	r7, sp, #0
    453e:	6078      	str	r0, [r7, #4]
/home/qemu-sgx/devel/optee/optee_os/lib/libutee/tee_api.c:360
    4540:	6879      	ldr	r1, [r7, #4]
    4542:	f04f 0001 	mov.w	r0, #1
    4546:	f7fe ef48 	blx	33d8 <_utee_get_time@plt>
    454a:	60f8      	str	r0, [r7, #12]
/home/qemu-sgx/devel/optee/optee_os/lib/libutee/tee_api.c:362
    454c:	68fb      	ldr	r3, [r7, #12]
    454e:	2b00      	cmp	r3, #0
    4550:	d00e      	beq.n	4570 <TEE_GetTAPersistentTime+0x3a>
/home/qemu-sgx/devel/optee/optee_os/lib/libutee/tee_api.c:362 (discriminator 1)
    4552:	68fa      	ldr	r2, [r7, #12]
    4554:	f243 030f 	movw	r3, #12303	; 0x300f
    4558:	f6cf 73ff 	movt	r3, #65535	; 0xffff
    455c:	429a      	cmp	r2, r3
    455e:	d007      	beq.n	4570 <TEE_GetTAPersistentTime+0x3a>
/home/qemu-sgx/devel/optee/optee_os/lib/libutee/tee_api.c:363
    4560:	687b      	ldr	r3, [r7, #4]
    4562:	f04f 0200 	mov.w	r2, #0
    4566:	601a      	str	r2, [r3, #0]
/home/qemu-sgx/devel/optee/optee_os/lib/libutee/tee_api.c:364
    4568:	687b      	ldr	r3, [r7, #4]
    456a:	f04f 0200 	mov.w	r2, #0
    456e:	605a      	str	r2, [r3, #4]
/home/qemu-sgx/devel/optee/optee_os/lib/libutee/tee_api.c:367
    4570:	68fb      	ldr	r3, [r7, #12]
    4572:	2b00      	cmp	r3, #0
    4574:	d01b      	beq.n	45ae <TEE_GetTAPersistentTime+0x78>
/home/qemu-sgx/devel/optee/optee_os/lib/libutee/tee_api.c:367 (discriminator 1)
    4576:	68fb      	ldr	r3, [r7, #12]
    4578:	f513 4f30 	cmn.w	r3, #45056	; 0xb000
    457c:	d017      	beq.n	45ae <TEE_GetTAPersistentTime+0x78>
/home/qemu-sgx/devel/optee/optee_os/lib/libutee/tee_api.c:368
    457e:	68fa      	ldr	r2, [r7, #12]
    4580:	f245 0301 	movw	r3, #20481	; 0x5001
    4584:	f6cf 73ff 	movt	r3, #65535	; 0xffff
    4588:	429a      	cmp	r2, r3
    458a:	d010      	beq.n	45ae <TEE_GetTAPersistentTime+0x78>
/home/qemu-sgx/devel/optee/optee_os/lib/libutee/tee_api.c:369
    458c:	68fa      	ldr	r2, [r7, #12]
    458e:	f243 030f 	movw	r3, #12303	; 0x300f
    4592:	f6cf 73ff 	movt	r3, #65535	; 0xffff
    4596:	429a      	cmp	r2, r3
    4598:	d009      	beq.n	45ae <TEE_GetTAPersistentTime+0x78>
/home/qemu-sgx/devel/optee/optee_os/lib/libutee/tee_api.c:370
    459a:	68fa      	ldr	r2, [r7, #12]
    459c:	f04f 030c 	mov.w	r3, #12
    45a0:	f6cf 73ff 	movt	r3, #65535	; 0xffff
    45a4:	429a      	cmp	r2, r3
    45a6:	d002      	beq.n	45ae <TEE_GetTAPersistentTime+0x78>
/home/qemu-sgx/devel/optee/optee_os/lib/libutee/tee_api.c:372
    45a8:	68f8      	ldr	r0, [r7, #12]
    45aa:	f7fe ed5a 	blx	3060 <TEE_Panic@plt>
/home/qemu-sgx/devel/optee/optee_os/lib/libutee/tee_api.c:374
    45ae:	68fb      	ldr	r3, [r7, #12]
/home/qemu-sgx/devel/optee/optee_os/lib/libutee/tee_api.c:375
    45b0:	4618      	mov	r0, r3
    45b2:	f107 0710 	add.w	r7, r7, #16
    45b6:	46bd      	mov	sp, r7
    45b8:	bd80      	pop	{r7, pc}

000045ba <TEE_SetTAPersistentTime>:
TEE_SetTAPersistentTime():
/home/qemu-sgx/devel/optee/optee_os/lib/libutee/tee_api.c:378
    45ba:	e96d 7e02 	strd	r7, lr, [sp, #-8]!
    45be:	b084      	sub	sp, #16
    45c0:	af00      	add	r7, sp, #0
    45c2:	6078      	str	r0, [r7, #4]
/home/qemu-sgx/devel/optee/optee_os/lib/libutee/tee_api.c:381
    45c4:	6878      	ldr	r0, [r7, #4]
    45c6:	f7fe ee3c 	blx	3240 <_utee_set_ta_time@plt>
    45ca:	60f8      	str	r0, [r7, #12]
/home/qemu-sgx/devel/optee/optee_os/lib/libutee/tee_api.c:383
    45cc:	68fb      	ldr	r3, [r7, #12]
    45ce:	2b00      	cmp	r3, #0
    45d0:	d010      	beq.n	45f4 <TEE_SetTAPersistentTime+0x3a>
/home/qemu-sgx/devel/optee/optee_os/lib/libutee/tee_api.c:383 (discriminator 1)
    45d2:	68fa      	ldr	r2, [r7, #12]
    45d4:	f04f 030c 	mov.w	r3, #12
    45d8:	f6cf 73ff 	movt	r3, #65535	; 0xffff
    45dc:	429a      	cmp	r2, r3
    45de:	d009      	beq.n	45f4 <TEE_SetTAPersistentTime+0x3a>
/home/qemu-sgx/devel/optee/optee_os/lib/libutee/tee_api.c:384
    45e0:	68fa      	ldr	r2, [r7, #12]
    45e2:	f243 0341 	movw	r3, #12353	; 0x3041
    45e6:	f6cf 73ff 	movt	r3, #65535	; 0xffff
    45ea:	429a      	cmp	r2, r3
    45ec:	d002      	beq.n	45f4 <TEE_SetTAPersistentTime+0x3a>
/home/qemu-sgx/devel/optee/optee_os/lib/libutee/tee_api.c:386
    45ee:	68f8      	ldr	r0, [r7, #12]
    45f0:	f7fe ed36 	blx	3060 <TEE_Panic@plt>
/home/qemu-sgx/devel/optee/optee_os/lib/libutee/tee_api.c:388
    45f4:	68fb      	ldr	r3, [r7, #12]
/home/qemu-sgx/devel/optee/optee_os/lib/libutee/tee_api.c:389
    45f6:	4618      	mov	r0, r3
    45f8:	f107 0710 	add.w	r7, r7, #16
    45fc:	46bd      	mov	sp, r7
    45fe:	bd80      	pop	{r7, pc}

00004600 <TEE_GetREETime>:
TEE_GetREETime():
/home/qemu-sgx/devel/optee/optee_os/lib/libutee/tee_api.c:392
    4600:	e96d 7e02 	strd	r7, lr, [sp, #-8]!
    4604:	b084      	sub	sp, #16
    4606:	af00      	add	r7, sp, #0
    4608:	6078      	str	r0, [r7, #4]
/home/qemu-sgx/devel/optee/optee_os/lib/libutee/tee_api.c:393
    460a:	6879      	ldr	r1, [r7, #4]
    460c:	f04f 0002 	mov.w	r0, #2
    4610:	f7fe eee2 	blx	33d8 <_utee_get_time@plt>
    4614:	60f8      	str	r0, [r7, #12]
/home/qemu-sgx/devel/optee/optee_os/lib/libutee/tee_api.c:395
    4616:	68fb      	ldr	r3, [r7, #12]
    4618:	2b00      	cmp	r3, #0
    461a:	d002      	beq.n	4622 <TEE_GetREETime+0x22>
/home/qemu-sgx/devel/optee/optee_os/lib/libutee/tee_api.c:396
    461c:	68f8      	ldr	r0, [r7, #12]
    461e:	f7fe ed20 	blx	3060 <TEE_Panic@plt>
/home/qemu-sgx/devel/optee/optee_os/lib/libutee/tee_api.c:397
    4622:	bf00      	nop
    4624:	f107 0710 	add.w	r7, r7, #16
    4628:	46bd      	mov	sp, r7
    462a:	bd80      	pop	{r7, pc}

0000462c <TEE_Malloc>:
TEE_Malloc():
/home/qemu-sgx/devel/optee/optee_os/lib/libutee/tee_api.c:400
    462c:	e96d 7e02 	strd	r7, lr, [sp, #-8]!
    4630:	b084      	sub	sp, #16
    4632:	af02      	add	r7, sp, #8
    4634:	6078      	str	r0, [r7, #4]
    4636:	6039      	str	r1, [r7, #0]
/home/qemu-sgx/devel/optee/optee_os/lib/libutee/tee_api.c:401
    4638:	687b      	ldr	r3, [r7, #4]
    463a:	2b00      	cmp	r3, #0
    463c:	d102      	bne.n	4644 <TEE_Malloc+0x18>
/home/qemu-sgx/devel/optee/optee_os/lib/libutee/tee_api.c:402
    463e:	f04f 0301 	mov.w	r3, #1
    4642:	e023      	b.n	468c <TEE_Malloc+0x60>
/home/qemu-sgx/devel/optee/optee_os/lib/libutee/tee_api.c:404
    4644:	683b      	ldr	r3, [r7, #0]
    4646:	2b00      	cmp	r3, #0
    4648:	d106      	bne.n	4658 <TEE_Malloc+0x2c>
/home/qemu-sgx/devel/optee/optee_os/lib/libutee/tee_api.c:405
    464a:	6879      	ldr	r1, [r7, #4]
    464c:	f04f 0001 	mov.w	r0, #1
    4650:	f7fe ed8a 	blx	3168 <calloc@plt>
    4654:	4603      	mov	r3, r0
    4656:	e019      	b.n	468c <TEE_Malloc+0x60>
/home/qemu-sgx/devel/optee/optee_os/lib/libutee/tee_api.c:406
    4658:	683b      	ldr	r3, [r7, #0]
    465a:	f1b3 4f00 	cmp.w	r3, #2147483648	; 0x80000000
    465e:	d104      	bne.n	466a <TEE_Malloc+0x3e>
/home/qemu-sgx/devel/optee/optee_os/lib/libutee/tee_api.c:407
    4660:	6878      	ldr	r0, [r7, #4]
    4662:	f7fe ed0a 	blx	3078 <malloc@plt>
    4666:	4603      	mov	r3, r0
    4668:	e010      	b.n	468c <TEE_Malloc+0x60>
/home/qemu-sgx/devel/optee/optee_os/lib/libutee/tee_api.c:409
    466a:	683b      	ldr	r3, [r7, #0]
    466c:	9301      	str	r3, [sp, #4]
    466e:	4b0a      	ldr	r3, [pc, #40]	; (4698 <TEE_Malloc+0x6c>)
    4670:	447b      	add	r3, pc
    4672:	9300      	str	r3, [sp, #0]
    4674:	f04f 0301 	mov.w	r3, #1
    4678:	f04f 0201 	mov.w	r2, #1
    467c:	f240 1199 	movw	r1, #409	; 0x199
    4680:	4806      	ldr	r0, [pc, #24]	; (469c <TEE_Malloc+0x70>)
    4682:	4478      	add	r0, pc
    4684:	f7fe ecda 	blx	303c <trace_printf@plt>
/home/qemu-sgx/devel/optee/optee_os/lib/libutee/tee_api.c:411
    4688:	f04f 0300 	mov.w	r3, #0
/home/qemu-sgx/devel/optee/optee_os/lib/libutee/tee_api.c:412
    468c:	4618      	mov	r0, r3
    468e:	f107 0708 	add.w	r7, r7, #8
    4692:	46bd      	mov	sp, r7
    4694:	bd80      	pop	{r7, pc}
    4696:	bf00      	nop
    4698:	00008c3c 	.word	0x00008c3c
    469c:	00008c3e 	.word	0x00008c3e

000046a0 <TEE_Realloc>:
TEE_Realloc():
/home/qemu-sgx/devel/optee/optee_os/lib/libutee/tee_api.c:415
    46a0:	e96d 7e02 	strd	r7, lr, [sp, #-8]!
    46a4:	b082      	sub	sp, #8
    46a6:	af00      	add	r7, sp, #0
    46a8:	6078      	str	r0, [r7, #4]
    46aa:	6039      	str	r1, [r7, #0]
/home/qemu-sgx/devel/optee/optee_os/lib/libutee/tee_api.c:416
    46ac:	683b      	ldr	r3, [r7, #0]
    46ae:	2b00      	cmp	r3, #0
    46b0:	d105      	bne.n	46be <TEE_Realloc+0x1e>
/home/qemu-sgx/devel/optee/optee_os/lib/libutee/tee_api.c:417
    46b2:	6878      	ldr	r0, [r7, #4]
    46b4:	f7fe ee84 	blx	33c0 <TEE_Free@plt>
/home/qemu-sgx/devel/optee/optee_os/lib/libutee/tee_api.c:418
    46b8:	f04f 0301 	mov.w	r3, #1
    46bc:	e00e      	b.n	46dc <TEE_Realloc+0x3c>
/home/qemu-sgx/devel/optee/optee_os/lib/libutee/tee_api.c:421
    46be:	687b      	ldr	r3, [r7, #4]
    46c0:	2b01      	cmp	r3, #1
    46c2:	d106      	bne.n	46d2 <TEE_Realloc+0x32>
/home/qemu-sgx/devel/optee/optee_os/lib/libutee/tee_api.c:422
    46c4:	6839      	ldr	r1, [r7, #0]
    46c6:	f04f 0001 	mov.w	r0, #1
    46ca:	f7fe ed4e 	blx	3168 <calloc@plt>
    46ce:	4603      	mov	r3, r0
    46d0:	e004      	b.n	46dc <TEE_Realloc+0x3c>
/home/qemu-sgx/devel/optee/optee_os/lib/libutee/tee_api.c:424
    46d2:	6839      	ldr	r1, [r7, #0]
    46d4:	6878      	ldr	r0, [r7, #4]
    46d6:	f7fe edc6 	blx	3264 <realloc@plt>
    46da:	4603      	mov	r3, r0
/home/qemu-sgx/devel/optee/optee_os/lib/libutee/tee_api.c:425
    46dc:	4618      	mov	r0, r3
    46de:	f107 0708 	add.w	r7, r7, #8
    46e2:	46bd      	mov	sp, r7
    46e4:	bd80      	pop	{r7, pc}

000046e6 <TEE_Free>:
TEE_Free():
/home/qemu-sgx/devel/optee/optee_os/lib/libutee/tee_api.c:428
    46e6:	e96d 7e02 	strd	r7, lr, [sp, #-8]!
    46ea:	b082      	sub	sp, #8
    46ec:	af00      	add	r7, sp, #0
    46ee:	6078      	str	r0, [r7, #4]
/home/qemu-sgx/devel/optee/optee_os/lib/libutee/tee_api.c:429
    46f0:	687b      	ldr	r3, [r7, #4]
    46f2:	2b01      	cmp	r3, #1
    46f4:	d002      	beq.n	46fc <TEE_Free+0x16>
/home/qemu-sgx/devel/optee/optee_os/lib/libutee/tee_api.c:430
    46f6:	6878      	ldr	r0, [r7, #4]
    46f8:	f7fe eeda 	blx	34b0 <free@plt>
/home/qemu-sgx/devel/optee/optee_os/lib/libutee/tee_api.c:431
    46fc:	bf00      	nop
    46fe:	f107 0708 	add.w	r7, r7, #8
    4702:	46bd      	mov	sp, r7
    4704:	bd80      	pop	{r7, pc}

00004706 <TEE_CacheClean>:
TEE_CacheClean():
/home/qemu-sgx/devel/optee/optee_os/lib/libutee/tee_api.c:435
    4706:	e96d 7e02 	strd	r7, lr, [sp, #-8]!
    470a:	b082      	sub	sp, #8
    470c:	af00      	add	r7, sp, #0
    470e:	6078      	str	r0, [r7, #4]
    4710:	6039      	str	r1, [r7, #0]
/home/qemu-sgx/devel/optee/optee_os/lib/libutee/tee_api.c:436
    4712:	f04f 0200 	mov.w	r2, #0
    4716:	6839      	ldr	r1, [r7, #0]
    4718:	6878      	ldr	r0, [r7, #4]
    471a:	f7fe ec96 	blx	3048 <_utee_cache_operation@plt>
    471e:	4603      	mov	r3, r0
/home/qemu-sgx/devel/optee/optee_os/lib/libutee/tee_api.c:437
    4720:	4618      	mov	r0, r3
    4722:	f107 0708 	add.w	r7, r7, #8
    4726:	46bd      	mov	sp, r7
    4728:	bd80      	pop	{r7, pc}

0000472a <TEE_CacheFlush>:
TEE_CacheFlush():
/home/qemu-sgx/devel/optee/optee_os/lib/libutee/tee_api.c:439
    472a:	e96d 7e02 	strd	r7, lr, [sp, #-8]!
    472e:	b082      	sub	sp, #8
    4730:	af00      	add	r7, sp, #0
    4732:	6078      	str	r0, [r7, #4]
    4734:	6039      	str	r1, [r7, #0]
/home/qemu-sgx/devel/optee/optee_os/lib/libutee/tee_api.c:440
    4736:	f04f 0201 	mov.w	r2, #1
    473a:	6839      	ldr	r1, [r7, #0]
    473c:	6878      	ldr	r0, [r7, #4]
    473e:	f7fe ec84 	blx	3048 <_utee_cache_operation@plt>
    4742:	4603      	mov	r3, r0
/home/qemu-sgx/devel/optee/optee_os/lib/libutee/tee_api.c:441
    4744:	4618      	mov	r0, r3
    4746:	f107 0708 	add.w	r7, r7, #8
    474a:	46bd      	mov	sp, r7
    474c:	bd80      	pop	{r7, pc}

0000474e <TEE_CacheInvalidate>:
TEE_CacheInvalidate():
/home/qemu-sgx/devel/optee/optee_os/lib/libutee/tee_api.c:444
    474e:	e96d 7e02 	strd	r7, lr, [sp, #-8]!
    4752:	b082      	sub	sp, #8
    4754:	af00      	add	r7, sp, #0
    4756:	6078      	str	r0, [r7, #4]
    4758:	6039      	str	r1, [r7, #0]
/home/qemu-sgx/devel/optee/optee_os/lib/libutee/tee_api.c:445
    475a:	f04f 0202 	mov.w	r2, #2
    475e:	6839      	ldr	r1, [r7, #0]
    4760:	6878      	ldr	r0, [r7, #4]
    4762:	f7fe ec72 	blx	3048 <_utee_cache_operation@plt>
    4766:	4603      	mov	r3, r0
/home/qemu-sgx/devel/optee/optee_os/lib/libutee/tee_api.c:446
    4768:	4618      	mov	r0, r3
    476a:	f107 0708 	add.w	r7, r7, #8
    476e:	46bd      	mov	sp, r7
    4770:	bd80      	pop	{r7, pc}
    4772:	bf00      	nop

00004774 <reg_pair_to_64>:
reg_pair_to_64():
/home/qemu-sgx/devel/optee/optee_os/lib/libutils/ext/include/util.h:159
    4774:	f84d 4d1c 	str.w	r4, [sp, #-28]!
    4778:	e9cd 5701 	strd	r5, r7, [sp, #4]
    477c:	e9cd 8903 	strd	r8, r9, [sp, #12]
    4780:	e9cd ab05 	strd	sl, fp, [sp, #20]
    4784:	b083      	sub	sp, #12
    4786:	af00      	add	r7, sp, #0
    4788:	6078      	str	r0, [r7, #4]
    478a:	6039      	str	r1, [r7, #0]
/home/qemu-sgx/devel/optee/optee_os/lib/libutils/ext/include/util.h:160
    478c:	687b      	ldr	r3, [r7, #4]
    478e:	f04f 0200 	mov.w	r2, #0
    4792:	469a      	mov	sl, r3
    4794:	4693      	mov	fp, r2
    4796:	f04f 0200 	mov.w	r2, #0
    479a:	f04f 0300 	mov.w	r3, #0
    479e:	4653      	mov	r3, sl
    47a0:	f04f 0200 	mov.w	r2, #0
    47a4:	6839      	ldr	r1, [r7, #0]
    47a6:	f04f 0000 	mov.w	r0, #0
    47aa:	460c      	mov	r4, r1
    47ac:	4605      	mov	r5, r0
    47ae:	ea42 0804 	orr.w	r8, r2, r4
    47b2:	ea43 0905 	orr.w	r9, r3, r5
    47b6:	4642      	mov	r2, r8
    47b8:	464b      	mov	r3, r9
/home/qemu-sgx/devel/optee/optee_os/lib/libutils/ext/include/util.h:161
    47ba:	4610      	mov	r0, r2
    47bc:	4619      	mov	r1, r3
    47be:	f107 070c 	add.w	r7, r7, #12
    47c2:	46bd      	mov	sp, r7
    47c4:	e9dd 4500 	ldrd	r4, r5, [sp]
    47c8:	e9dd 7802 	ldrd	r7, r8, [sp, #8]
    47cc:	e9dd 9a04 	ldrd	r9, sl, [sp, #16]
    47d0:	b006      	add	sp, #24
    47d2:	f85d bb04 	ldr.w	fp, [sp], #4
    47d6:	4770      	bx	lr

000047d8 <reg_pair_from_64>:
reg_pair_from_64():
/home/qemu-sgx/devel/optee/optee_os/lib/libutils/ext/include/util.h:165
    47d8:	f84d 7d04 	str.w	r7, [sp, #-4]!
    47dc:	b085      	sub	sp, #20
    47de:	af00      	add	r7, sp, #0
    47e0:	e9c7 0102 	strd	r0, r1, [r7, #8]
    47e4:	607a      	str	r2, [r7, #4]
    47e6:	603b      	str	r3, [r7, #0]
/home/qemu-sgx/devel/optee/optee_os/lib/libutils/ext/include/util.h:166
    47e8:	e9d7 0102 	ldrd	r0, r1, [r7, #8]
    47ec:	f04f 0200 	mov.w	r2, #0
    47f0:	f04f 0300 	mov.w	r3, #0
    47f4:	460a      	mov	r2, r1
    47f6:	f04f 0300 	mov.w	r3, #0
    47fa:	687b      	ldr	r3, [r7, #4]
    47fc:	601a      	str	r2, [r3, #0]
/home/qemu-sgx/devel/optee/optee_os/lib/libutils/ext/include/util.h:167
    47fe:	68ba      	ldr	r2, [r7, #8]
    4800:	683b      	ldr	r3, [r7, #0]
    4802:	601a      	str	r2, [r3, #0]
/home/qemu-sgx/devel/optee/optee_os/lib/libutils/ext/include/util.h:168
    4804:	bf00      	nop
    4806:	f107 0714 	add.w	r7, r7, #20
    480a:	46bd      	mov	sp, r7
    480c:	f85d 7b04 	ldr.w	r7, [sp], #4
    4810:	4770      	bx	lr

00004812 <invoke_system_pta>:
invoke_system_pta():
/home/qemu-sgx/devel/optee/optee_os/lib/libutee/tee_system_pta.c:16
    4812:	e96d 7e02 	strd	r7, lr, [sp, #-8]!
    4816:	b088      	sub	sp, #32
    4818:	af02      	add	r7, sp, #8
    481a:	60f8      	str	r0, [r7, #12]
    481c:	60b9      	str	r1, [r7, #8]
    481e:	607a      	str	r2, [r7, #4]
/home/qemu-sgx/devel/optee/optee_os/lib/libutee/tee_system_pta.c:20
    4820:	4b17      	ldr	r3, [pc, #92]	; (4880 <invoke_system_pta+0x6e>)
    4822:	447b      	add	r3, pc
    4824:	681b      	ldr	r3, [r3, #0]
    4826:	2b00      	cmp	r3, #0
    4828:	d115      	bne.n	4856 <invoke_system_pta+0x44>
/home/qemu-sgx/devel/optee/optee_os/lib/libutee/tee_system_pta.c:21
    482a:	f04f 0300 	mov.w	r3, #0
    482e:	9301      	str	r3, [sp, #4]
    4830:	4b14      	ldr	r3, [pc, #80]	; (4884 <invoke_system_pta+0x72>)
    4832:	447b      	add	r3, pc
    4834:	9300      	str	r3, [sp, #0]
    4836:	f04f 0300 	mov.w	r3, #0
    483a:	f04f 0200 	mov.w	r2, #0
    483e:	f04f 31ff 	mov.w	r1, #4294967295	; 0xffffffff
    4842:	4811      	ldr	r0, [pc, #68]	; (4888 <invoke_system_pta+0x76>)
    4844:	4478      	add	r0, pc
    4846:	f7fe ede6 	blx	3414 <TEE_OpenTASession@plt>
    484a:	6178      	str	r0, [r7, #20]
/home/qemu-sgx/devel/optee/optee_os/lib/libutee/tee_system_pta.c:24
    484c:	697b      	ldr	r3, [r7, #20]
    484e:	2b00      	cmp	r3, #0
    4850:	d001      	beq.n	4856 <invoke_system_pta+0x44>
/home/qemu-sgx/devel/optee/optee_os/lib/libutee/tee_system_pta.c:25
    4852:	697b      	ldr	r3, [r7, #20]
    4854:	e00e      	b.n	4874 <invoke_system_pta+0x62>
/home/qemu-sgx/devel/optee/optee_os/lib/libutee/tee_system_pta.c:28
    4856:	4b0d      	ldr	r3, [pc, #52]	; (488c <invoke_system_pta+0x7a>)
    4858:	447b      	add	r3, pc
    485a:	6818      	ldr	r0, [r3, #0]
    485c:	f04f 0300 	mov.w	r3, #0
    4860:	9301      	str	r3, [sp, #4]
    4862:	687b      	ldr	r3, [r7, #4]
    4864:	9300      	str	r3, [sp, #0]
    4866:	68bb      	ldr	r3, [r7, #8]
    4868:	68fa      	ldr	r2, [r7, #12]
    486a:	f04f 31ff 	mov.w	r1, #4294967295	; 0xffffffff
    486e:	f7fe ebaa 	blx	2fc4 <TEE_InvokeTACommand@plt>
    4872:	4603      	mov	r3, r0
/home/qemu-sgx/devel/optee/optee_os/lib/libutee/tee_system_pta.c:30
    4874:	4618      	mov	r0, r3
    4876:	f107 0718 	add.w	r7, r7, #24
    487a:	46bd      	mov	sp, r7
    487c:	bd80      	pop	{r7, pc}
    487e:	bf00      	nop
    4880:	0000ba46 	.word	0x0000ba46
    4884:	0000ba36 	.word	0x0000ba36
    4888:	00008ae0 	.word	0x00008ae0
    488c:	0000ba10 	.word	0x0000ba10

00004890 <tee_map_zi>:
tee_map_zi():
/home/qemu-sgx/devel/optee/optee_os/lib/libutee/tee_system_pta.c:33
    4890:	e96d 7e02 	strd	r7, lr, [sp, #-8]!
    4894:	b08c      	sub	sp, #48	; 0x30
    4896:	af00      	add	r7, sp, #0
    4898:	6078      	str	r0, [r7, #4]
    489a:	6039      	str	r1, [r7, #0]
/home/qemu-sgx/devel/optee/optee_os/lib/libutee/tee_system_pta.c:34
    489c:	f240 1331 	movw	r3, #305	; 0x131
    48a0:	62fb      	str	r3, [r7, #44]	; 0x2c
/home/qemu-sgx/devel/optee/optee_os/lib/libutee/tee_system_pta.c:38
    48a2:	f107 0308 	add.w	r3, r7, #8
    48a6:	efc0 0010 	vmov.i32	d16, #0	; 0x00000000
    48aa:	edc3 0b00 	vstr	d16, [r3]
    48ae:	edc3 0b02 	vstr	d16, [r3, #8]
    48b2:	edc3 0b04 	vstr	d16, [r3, #16]
    48b6:	edc3 0b06 	vstr	d16, [r3, #24]
/home/qemu-sgx/devel/optee/optee_os/lib/libutee/tee_system_pta.c:39
    48ba:	f04f 0300 	mov.w	r3, #0
    48be:	62bb      	str	r3, [r7, #40]	; 0x28
/home/qemu-sgx/devel/optee/optee_os/lib/libutee/tee_system_pta.c:41
    48c0:	687b      	ldr	r3, [r7, #4]
    48c2:	60bb      	str	r3, [r7, #8]
/home/qemu-sgx/devel/optee/optee_os/lib/libutee/tee_system_pta.c:42
    48c4:	68bb      	ldr	r3, [r7, #8]
    48c6:	687a      	ldr	r2, [r7, #4]
    48c8:	429a      	cmp	r2, r3
    48ca:	d002      	beq.n	48d2 <tee_map_zi+0x42>
/home/qemu-sgx/devel/optee/optee_os/lib/libutee/tee_system_pta.c:43
    48cc:	f04f 0300 	mov.w	r3, #0
    48d0:	e025      	b.n	491e <tee_map_zi+0x8e>
/home/qemu-sgx/devel/optee/optee_os/lib/libutee/tee_system_pta.c:44
    48d2:	683b      	ldr	r3, [r7, #0]
    48d4:	2b00      	cmp	r3, #0
    48d6:	d009      	beq.n	48ec <tee_map_zi+0x5c>
    48d8:	683b      	ldr	r3, [r7, #0]
    48da:	2b04      	cmp	r3, #4
    48dc:	d103      	bne.n	48e6 <tee_map_zi+0x56>
/home/qemu-sgx/devel/optee/optee_os/lib/libutee/tee_system_pta.c:48
    48de:	f04f 0301 	mov.w	r3, #1
    48e2:	60fb      	str	r3, [r7, #12]
/home/qemu-sgx/devel/optee/optee_os/lib/libutee/tee_system_pta.c:49
    48e4:	e003      	b.n	48ee <tee_map_zi+0x5e>
/home/qemu-sgx/devel/optee/optee_os/lib/libutee/tee_system_pta.c:51
    48e6:	f04f 0300 	mov.w	r3, #0
    48ea:	e018      	b.n	491e <tee_map_zi+0x8e>
/home/qemu-sgx/devel/optee/optee_os/lib/libutee/tee_system_pta.c:46
    48ec:	bf00      	nop
/home/qemu-sgx/devel/optee/optee_os/lib/libutee/tee_system_pta.c:54
    48ee:	f107 0308 	add.w	r3, r7, #8
    48f2:	461a      	mov	r2, r3
    48f4:	6af9      	ldr	r1, [r7, #44]	; 0x2c
    48f6:	f04f 0002 	mov.w	r0, #2
    48fa:	f7ff ff8a 	bl	4812 <invoke_system_pta>
    48fe:	62b8      	str	r0, [r7, #40]	; 0x28
/home/qemu-sgx/devel/optee/optee_os/lib/libutee/tee_system_pta.c:55
    4900:	6abb      	ldr	r3, [r7, #40]	; 0x28
    4902:	2b00      	cmp	r3, #0
    4904:	d002      	beq.n	490c <tee_map_zi+0x7c>
/home/qemu-sgx/devel/optee/optee_os/lib/libutee/tee_system_pta.c:56
    4906:	f04f 0300 	mov.w	r3, #0
    490a:	e008      	b.n	491e <tee_map_zi+0x8e>
/home/qemu-sgx/devel/optee/optee_os/lib/libutee/tee_system_pta.c:58
    490c:	693b      	ldr	r3, [r7, #16]
    490e:	697a      	ldr	r2, [r7, #20]
    4910:	4611      	mov	r1, r2
    4912:	4618      	mov	r0, r3
    4914:	f7ff ff2e 	bl	4774 <reg_pair_to_64>
    4918:	4602      	mov	r2, r0
    491a:	460b      	mov	r3, r1
    491c:	4613      	mov	r3, r2
/home/qemu-sgx/devel/optee/optee_os/lib/libutee/tee_system_pta.c:60 (discriminator 1)
    491e:	4618      	mov	r0, r3
    4920:	f107 0730 	add.w	r7, r7, #48	; 0x30
    4924:	46bd      	mov	sp, r7
    4926:	bd80      	pop	{r7, pc}

00004928 <tee_unmap>:
tee_unmap():
/home/qemu-sgx/devel/optee/optee_os/lib/libutee/tee_system_pta.c:63
    4928:	e96d 4504 	strd	r4, r5, [sp, #-16]!
    492c:	e9cd 7e02 	strd	r7, lr, [sp, #8]
    4930:	b090      	sub	sp, #64	; 0x40
    4932:	af04      	add	r7, sp, #16
    4934:	6078      	str	r0, [r7, #4]
    4936:	6039      	str	r1, [r7, #0]
/home/qemu-sgx/devel/optee/optee_os/lib/libutee/tee_system_pta.c:64
    4938:	f04f 0300 	mov.w	r3, #0
    493c:	62fb      	str	r3, [r7, #44]	; 0x2c
/home/qemu-sgx/devel/optee/optee_os/lib/libutee/tee_system_pta.c:65
    493e:	f04f 0311 	mov.w	r3, #17
    4942:	62bb      	str	r3, [r7, #40]	; 0x28
/home/qemu-sgx/devel/optee/optee_os/lib/libutee/tee_system_pta.c:69
    4944:	f107 0308 	add.w	r3, r7, #8
    4948:	efc0 0010 	vmov.i32	d16, #0	; 0x00000000
    494c:	edc3 0b00 	vstr	d16, [r3]
    4950:	edc3 0b02 	vstr	d16, [r3, #8]
    4954:	edc3 0b04 	vstr	d16, [r3, #16]
    4958:	edc3 0b06 	vstr	d16, [r3, #24]
/home/qemu-sgx/devel/optee/optee_os/lib/libutee/tee_system_pta.c:71
    495c:	683b      	ldr	r3, [r7, #0]
    495e:	60bb      	str	r3, [r7, #8]
/home/qemu-sgx/devel/optee/optee_os/lib/libutee/tee_system_pta.c:72
    4960:	687b      	ldr	r3, [r7, #4]
    4962:	f04f 0200 	mov.w	r2, #0
    4966:	461c      	mov	r4, r3
    4968:	4615      	mov	r5, r2
    496a:	f107 0308 	add.w	r3, r7, #8
    496e:	f103 010c 	add.w	r1, r3, #12
    4972:	f107 0308 	add.w	r3, r7, #8
    4976:	f103 0208 	add.w	r2, r3, #8
    497a:	460b      	mov	r3, r1
    497c:	4620      	mov	r0, r4
    497e:	4629      	mov	r1, r5
    4980:	f7ff ff2a 	bl	47d8 <reg_pair_from_64>
/home/qemu-sgx/devel/optee/optee_os/lib/libutee/tee_system_pta.c:74
    4984:	f107 0308 	add.w	r3, r7, #8
    4988:	461a      	mov	r2, r3
    498a:	6ab9      	ldr	r1, [r7, #40]	; 0x28
    498c:	f04f 0003 	mov.w	r0, #3
    4990:	f7ff ff3f 	bl	4812 <invoke_system_pta>
    4994:	62f8      	str	r0, [r7, #44]	; 0x2c
/home/qemu-sgx/devel/optee/optee_os/lib/libutee/tee_system_pta.c:75
    4996:	6afb      	ldr	r3, [r7, #44]	; 0x2c
    4998:	2b00      	cmp	r3, #0
    499a:	d010      	beq.n	49be <tee_unmap+0x96>
/home/qemu-sgx/devel/optee/optee_os/lib/libutee/tee_system_pta.c:76
    499c:	683b      	ldr	r3, [r7, #0]
    499e:	9302      	str	r3, [sp, #8]
    49a0:	687b      	ldr	r3, [r7, #4]
    49a2:	9301      	str	r3, [sp, #4]
    49a4:	4b0a      	ldr	r3, [pc, #40]	; (49d0 <tee_unmap+0xa8>)
    49a6:	447b      	add	r3, pc
    49a8:	9300      	str	r3, [sp, #0]
    49aa:	f04f 0301 	mov.w	r3, #1
    49ae:	f04f 0201 	mov.w	r2, #1
    49b2:	f04f 014c 	mov.w	r1, #76	; 0x4c
    49b6:	4807      	ldr	r0, [pc, #28]	; (49d4 <tee_unmap+0xac>)
    49b8:	4478      	add	r0, pc
    49ba:	f7fe eb40 	blx	303c <trace_printf@plt>
/home/qemu-sgx/devel/optee/optee_os/lib/libutee/tee_system_pta.c:78
    49be:	6afb      	ldr	r3, [r7, #44]	; 0x2c
/home/qemu-sgx/devel/optee/optee_os/lib/libutee/tee_system_pta.c:79
    49c0:	4618      	mov	r0, r3
    49c2:	f107 0730 	add.w	r7, r7, #48	; 0x30
    49c6:	46bd      	mov	sp, r7
    49c8:	e9dd 4500 	ldrd	r4, r5, [sp]
    49cc:	b002      	add	sp, #8
    49ce:	bd80      	pop	{r7, pc}
    49d0:	00008926 	.word	0x00008926
    49d4:	0000897c 	.word	0x0000897c

000049d8 <tee_invoke_supp_plugin>:
tee_invoke_supp_plugin():
/home/qemu-sgx/devel/optee/optee_os/lib/libutee/tee_system_pta.c:84
    49d8:	e96d 7e02 	strd	r7, lr, [sp, #-8]!
    49dc:	b090      	sub	sp, #64	; 0x40
    49de:	af02      	add	r7, sp, #8
    49e0:	60f8      	str	r0, [r7, #12]
    49e2:	60b9      	str	r1, [r7, #8]
    49e4:	607a      	str	r2, [r7, #4]
    49e6:	603b      	str	r3, [r7, #0]
/home/qemu-sgx/devel/optee/optee_os/lib/libutee/tee_system_pta.c:85
    49e8:	f04f 0300 	mov.w	r3, #0
    49ec:	637b      	str	r3, [r7, #52]	; 0x34
/home/qemu-sgx/devel/optee/optee_os/lib/libutee/tee_system_pta.c:86
    49ee:	f242 7315 	movw	r3, #10005	; 0x2715
    49f2:	633b      	str	r3, [r7, #48]	; 0x30
/home/qemu-sgx/devel/optee/optee_os/lib/libutee/tee_system_pta.c:90
    49f4:	f107 0310 	add.w	r3, r7, #16
    49f8:	efc0 0010 	vmov.i32	d16, #0	; 0x00000000
    49fc:	edc3 0b00 	vstr	d16, [r3]
    4a00:	edc3 0b02 	vstr	d16, [r3, #8]
    4a04:	edc3 0b04 	vstr	d16, [r3, #16]
    4a08:	edc3 0b06 	vstr	d16, [r3, #24]
/home/qemu-sgx/devel/optee/optee_os/lib/libutee/tee_system_pta.c:92
    4a0c:	68fb      	ldr	r3, [r7, #12]
    4a0e:	2b00      	cmp	r3, #0
    4a10:	d00b      	beq.n	4a2a <tee_invoke_supp_plugin+0x52>
/home/qemu-sgx/devel/optee/optee_os/lib/libutee/tee_system_pta.c:92 (discriminator 1)
    4a12:	6c3b      	ldr	r3, [r7, #64]	; 0x40
    4a14:	2b00      	cmp	r3, #0
    4a16:	d002      	beq.n	4a1e <tee_invoke_supp_plugin+0x46>
/home/qemu-sgx/devel/optee/optee_os/lib/libutee/tee_system_pta.c:92 (discriminator 2)
    4a18:	683b      	ldr	r3, [r7, #0]
    4a1a:	2b00      	cmp	r3, #0
    4a1c:	d005      	beq.n	4a2a <tee_invoke_supp_plugin+0x52>
/home/qemu-sgx/devel/optee/optee_os/lib/libutee/tee_system_pta.c:92 (discriminator 4)
    4a1e:	6c3b      	ldr	r3, [r7, #64]	; 0x40
    4a20:	2b00      	cmp	r3, #0
    4a22:	d107      	bne.n	4a34 <tee_invoke_supp_plugin+0x5c>
/home/qemu-sgx/devel/optee/optee_os/lib/libutee/tee_system_pta.c:92 (discriminator 5)
    4a24:	683b      	ldr	r3, [r7, #0]
    4a26:	2b00      	cmp	r3, #0
    4a28:	d004      	beq.n	4a34 <tee_invoke_supp_plugin+0x5c>
/home/qemu-sgx/devel/optee/optee_os/lib/libutee/tee_system_pta.c:93
    4a2a:	f04f 0306 	mov.w	r3, #6
    4a2e:	f6cf 73ff 	movt	r3, #65535	; 0xffff
    4a32:	e02e      	b.n	4a92 <tee_invoke_supp_plugin+0xba>
/home/qemu-sgx/devel/optee/optee_os/lib/libutee/tee_system_pta.c:95
    4a34:	68fb      	ldr	r3, [r7, #12]
    4a36:	613b      	str	r3, [r7, #16]
/home/qemu-sgx/devel/optee/optee_os/lib/libutee/tee_system_pta.c:96
    4a38:	f04f 0310 	mov.w	r3, #16
    4a3c:	617b      	str	r3, [r7, #20]
/home/qemu-sgx/devel/optee/optee_os/lib/libutee/tee_system_pta.c:97
    4a3e:	68bb      	ldr	r3, [r7, #8]
    4a40:	61bb      	str	r3, [r7, #24]
/home/qemu-sgx/devel/optee/optee_os/lib/libutee/tee_system_pta.c:98
    4a42:	687b      	ldr	r3, [r7, #4]
    4a44:	61fb      	str	r3, [r7, #28]
/home/qemu-sgx/devel/optee/optee_os/lib/libutee/tee_system_pta.c:99
    4a46:	683b      	ldr	r3, [r7, #0]
    4a48:	623b      	str	r3, [r7, #32]
/home/qemu-sgx/devel/optee/optee_os/lib/libutee/tee_system_pta.c:100
    4a4a:	6c3b      	ldr	r3, [r7, #64]	; 0x40
    4a4c:	627b      	str	r3, [r7, #36]	; 0x24
/home/qemu-sgx/devel/optee/optee_os/lib/libutee/tee_system_pta.c:102
    4a4e:	f107 0310 	add.w	r3, r7, #16
    4a52:	461a      	mov	r2, r3
    4a54:	6b39      	ldr	r1, [r7, #48]	; 0x30
    4a56:	f04f 000d 	mov.w	r0, #13
    4a5a:	f7ff feda 	bl	4812 <invoke_system_pta>
    4a5e:	6378      	str	r0, [r7, #52]	; 0x34
/home/qemu-sgx/devel/optee/optee_os/lib/libutee/tee_system_pta.c:104
    4a60:	6b7b      	ldr	r3, [r7, #52]	; 0x34
    4a62:	2b00      	cmp	r3, #0
    4a64:	d00e      	beq.n	4a84 <tee_invoke_supp_plugin+0xac>
/home/qemu-sgx/devel/optee/optee_os/lib/libutee/tee_system_pta.c:105
    4a66:	6b7b      	ldr	r3, [r7, #52]	; 0x34
    4a68:	9301      	str	r3, [sp, #4]
    4a6a:	4b0c      	ldr	r3, [pc, #48]	; (4a9c <tee_invoke_supp_plugin+0xc4>)
    4a6c:	447b      	add	r3, pc
    4a6e:	9300      	str	r3, [sp, #0]
    4a70:	f04f 0301 	mov.w	r3, #1
    4a74:	f04f 0201 	mov.w	r2, #1
    4a78:	f04f 0169 	mov.w	r1, #105	; 0x69
    4a7c:	4808      	ldr	r0, [pc, #32]	; (4aa0 <tee_invoke_supp_plugin+0xc8>)
    4a7e:	4478      	add	r0, pc
    4a80:	f7fe eadc 	blx	303c <trace_printf@plt>
/home/qemu-sgx/devel/optee/optee_os/lib/libutee/tee_system_pta.c:107
    4a84:	6c7b      	ldr	r3, [r7, #68]	; 0x44
    4a86:	2b00      	cmp	r3, #0
    4a88:	d002      	beq.n	4a90 <tee_invoke_supp_plugin+0xb8>
/home/qemu-sgx/devel/optee/optee_os/lib/libutee/tee_system_pta.c:108
    4a8a:	6aba      	ldr	r2, [r7, #40]	; 0x28
    4a8c:	6c7b      	ldr	r3, [r7, #68]	; 0x44
    4a8e:	601a      	str	r2, [r3, #0]
/home/qemu-sgx/devel/optee/optee_os/lib/libutee/tee_system_pta.c:110
    4a90:	6b7b      	ldr	r3, [r7, #52]	; 0x34
/home/qemu-sgx/devel/optee/optee_os/lib/libutee/tee_system_pta.c:111 (discriminator 1)
    4a92:	4618      	mov	r0, r3
    4a94:	f107 0738 	add.w	r7, r7, #56	; 0x38
    4a98:	46bd      	mov	sp, r7
    4a9a:	bd80      	pop	{r7, pc}
    4a9c:	0000888c 	.word	0x0000888c
    4aa0:	000088c2 	.word	0x000088c2

00004aa4 <tag_asan_free>:
tag_asan_free():
/home/qemu-sgx/devel/optee/optee_os/lib/libutils/isoc/bget_malloc.c:122
    4aa4:	f84d 7d04 	str.w	r7, [sp, #-4]!
    4aa8:	b083      	sub	sp, #12
    4aaa:	af00      	add	r7, sp, #0
    4aac:	6078      	str	r0, [r7, #4]
    4aae:	6039      	str	r1, [r7, #0]
/home/qemu-sgx/devel/optee/optee_os/lib/libutils/isoc/bget_malloc.c:123
    4ab0:	bf00      	nop
    4ab2:	f107 070c 	add.w	r7, r7, #12
    4ab6:	46bd      	mov	sp, r7
    4ab8:	f85d 7b04 	ldr.w	r7, [sp], #4
    4abc:	4770      	bx	lr

00004abe <tag_asan_alloced>:
tag_asan_alloced():
/home/qemu-sgx/devel/optee/optee_os/lib/libutils/isoc/bget_malloc.c:126
    4abe:	f84d 7d04 	str.w	r7, [sp, #-4]!
    4ac2:	b083      	sub	sp, #12
    4ac4:	af00      	add	r7, sp, #0
    4ac6:	6078      	str	r0, [r7, #4]
    4ac8:	6039      	str	r1, [r7, #0]
/home/qemu-sgx/devel/optee/optee_os/lib/libutils/isoc/bget_malloc.c:127
    4aca:	bf00      	nop
    4acc:	f107 070c 	add.w	r7, r7, #12
    4ad0:	46bd      	mov	sp, r7
    4ad2:	f85d 7b04 	ldr.w	r7, [sp], #4
    4ad6:	4770      	bx	lr

00004ad8 <memset_unchecked>:
memset_unchecked():
/home/qemu-sgx/devel/optee/optee_os/lib/libutils/isoc/bget_malloc.c:130
    4ad8:	e96d 7e02 	strd	r7, lr, [sp, #-8]!
    4adc:	b084      	sub	sp, #16
    4ade:	af00      	add	r7, sp, #0
    4ae0:	60f8      	str	r0, [r7, #12]
    4ae2:	60b9      	str	r1, [r7, #8]
    4ae4:	607a      	str	r2, [r7, #4]
/home/qemu-sgx/devel/optee/optee_os/lib/libutils/isoc/bget_malloc.c:131
    4ae6:	687a      	ldr	r2, [r7, #4]
    4ae8:	68b9      	ldr	r1, [r7, #8]
    4aea:	68f8      	ldr	r0, [r7, #12]
    4aec:	f7fe ebf0 	blx	32d0 <memset@plt>
    4af0:	4603      	mov	r3, r0
/home/qemu-sgx/devel/optee/optee_os/lib/libutils/isoc/bget_malloc.c:132
    4af2:	4618      	mov	r0, r3
    4af4:	f107 0710 	add.w	r7, r7, #16
    4af8:	46bd      	mov	sp, r7
    4afa:	bd80      	pop	{r7, pc}

00004afc <memcpy_unchecked>:
memcpy_unchecked():
/home/qemu-sgx/devel/optee/optee_os/lib/libutils/isoc/bget_malloc.c:136
    4afc:	e96d 7e02 	strd	r7, lr, [sp, #-8]!
    4b00:	b084      	sub	sp, #16
    4b02:	af00      	add	r7, sp, #0
    4b04:	60f8      	str	r0, [r7, #12]
    4b06:	60b9      	str	r1, [r7, #8]
    4b08:	607a      	str	r2, [r7, #4]
/home/qemu-sgx/devel/optee/optee_os/lib/libutils/isoc/bget_malloc.c:137
    4b0a:	687a      	ldr	r2, [r7, #4]
    4b0c:	68b9      	ldr	r1, [r7, #8]
    4b0e:	68f8      	ldr	r0, [r7, #12]
    4b10:	f7fe eaa0 	blx	3054 <memcpy@plt>
    4b14:	4603      	mov	r3, r0
/home/qemu-sgx/devel/optee/optee_os/lib/libutils/isoc/bget_malloc.c:138
    4b16:	4618      	mov	r0, r3
    4b18:	f107 0710 	add.w	r7, r7, #16
    4b1c:	46bd      	mov	sp, r7
    4b1e:	bd80      	pop	{r7, pc}

00004b20 <buf_get_pos>:
buf_get_pos():
/home/qemu-sgx/devel/optee/optee_os/lib/libutils/isoc/bget.c:581
    4b20:	f84d 7d04 	str.w	r7, [sp, #-4]!
    4b24:	b087      	sub	sp, #28
    4b26:	af00      	add	r7, sp, #0
    4b28:	60f8      	str	r0, [r7, #12]
    4b2a:	60b9      	str	r1, [r7, #8]
    4b2c:	607a      	str	r2, [r7, #4]
    4b2e:	603b      	str	r3, [r7, #0]
/home/qemu-sgx/devel/optee/optee_os/lib/libutils/isoc/bget.c:582
    4b30:	f04f 0300 	mov.w	r3, #0
    4b34:	617b      	str	r3, [r7, #20]
/home/qemu-sgx/devel/optee/optee_os/lib/libutils/isoc/bget.c:583
    4b36:	f04f 0300 	mov.w	r3, #0
    4b3a:	613b      	str	r3, [r7, #16]
/home/qemu-sgx/devel/optee/optee_os/lib/libutils/isoc/bget.c:585
    4b3c:	68fb      	ldr	r3, [r7, #12]
    4b3e:	685b      	ldr	r3, [r3, #4]
    4b40:	683a      	ldr	r2, [r7, #0]
    4b42:	429a      	cmp	r2, r3
    4b44:	dd02      	ble.n	4b4c <buf_get_pos+0x2c>
/home/qemu-sgx/devel/optee/optee_os/lib/libutils/isoc/bget.c:586
    4b46:	f04f 33ff 	mov.w	r3, #4294967295	; 0xffffffff
    4b4a:	e02a      	b.n	4ba2 <buf_get_pos+0x82>
/home/qemu-sgx/devel/optee/optee_os/lib/libutils/isoc/bget.c:592
    4b4c:	68fb      	ldr	r3, [r7, #12]
    4b4e:	685b      	ldr	r3, [r3, #4]
    4b50:	461a      	mov	r2, r3
    4b52:	68fb      	ldr	r3, [r7, #12]
    4b54:	441a      	add	r2, r3
    4b56:	683b      	ldr	r3, [r7, #0]
    4b58:	eba2 0203 	sub.w	r2, r2, r3
    4b5c:	687b      	ldr	r3, [r7, #4]
    4b5e:	4413      	add	r3, r2
    4b60:	f103 0308 	add.w	r3, r3, #8
    4b64:	617b      	str	r3, [r7, #20]
/home/qemu-sgx/devel/optee/optee_os/lib/libutils/isoc/bget.c:594
    4b66:	68bb      	ldr	r3, [r7, #8]
    4b68:	f1c3 0300 	rsb	r3, r3, #0
    4b6c:	461a      	mov	r2, r3
    4b6e:	697b      	ldr	r3, [r7, #20]
    4b70:	ea03 0302 	and.w	r3, r3, r2
    4b74:	617b      	str	r3, [r7, #20]
/home/qemu-sgx/devel/optee/optee_os/lib/libutils/isoc/bget.c:595
    4b76:	68fb      	ldr	r3, [r7, #12]
    4b78:	697a      	ldr	r2, [r7, #20]
    4b7a:	eba2 0203 	sub.w	r2, r2, r3
    4b7e:	687b      	ldr	r3, [r7, #4]
    4b80:	eba2 0303 	sub.w	r3, r2, r3
    4b84:	f1a3 0308 	sub.w	r3, r3, #8
    4b88:	613b      	str	r3, [r7, #16]
/home/qemu-sgx/devel/optee/optee_os/lib/libutils/isoc/bget.c:597
    4b8a:	693b      	ldr	r3, [r7, #16]
    4b8c:	2b00      	cmp	r3, #0
    4b8e:	d101      	bne.n	4b94 <buf_get_pos+0x74>
/home/qemu-sgx/devel/optee/optee_os/lib/libutils/isoc/bget.c:598
    4b90:	693b      	ldr	r3, [r7, #16]
    4b92:	e006      	b.n	4ba2 <buf_get_pos+0x82>
/home/qemu-sgx/devel/optee/optee_os/lib/libutils/isoc/bget.c:599
    4b94:	693b      	ldr	r3, [r7, #16]
    4b96:	2b0f      	cmp	r3, #15
    4b98:	d901      	bls.n	4b9e <buf_get_pos+0x7e>
/home/qemu-sgx/devel/optee/optee_os/lib/libutils/isoc/bget.c:600
    4b9a:	693b      	ldr	r3, [r7, #16]
    4b9c:	e001      	b.n	4ba2 <buf_get_pos+0x82>
/home/qemu-sgx/devel/optee/optee_os/lib/libutils/isoc/bget.c:602
    4b9e:	f04f 33ff 	mov.w	r3, #4294967295	; 0xffffffff
/home/qemu-sgx/devel/optee/optee_os/lib/libutils/isoc/bget.c:603
    4ba2:	4618      	mov	r0, r3
    4ba4:	f107 071c 	add.w	r7, r7, #28
    4ba8:	46bd      	mov	sp, r7
    4baa:	f85d 7b04 	ldr.w	r7, [sp], #4
    4bae:	4770      	bx	lr

00004bb0 <bget>:
bget():
/home/qemu-sgx/devel/optee/optee_os/lib/libutils/isoc/bget.c:612
    4bb0:	e96d 7e02 	strd	r7, lr, [sp, #-8]!
    4bb4:	b08c      	sub	sp, #48	; 0x30
    4bb6:	af00      	add	r7, sp, #0
    4bb8:	60f8      	str	r0, [r7, #12]
    4bba:	60b9      	str	r1, [r7, #8]
    4bbc:	607a      	str	r2, [r7, #4]
    4bbe:	603b      	str	r3, [r7, #0]
/home/qemu-sgx/devel/optee/optee_os/lib/libutils/isoc/bget.c:613
    4bc0:	68fb      	ldr	r3, [r7, #12]
    4bc2:	62fb      	str	r3, [r7, #44]	; 0x2c
/home/qemu-sgx/devel/optee/optee_os/lib/libutils/isoc/bget.c:614
    4bc4:	687b      	ldr	r3, [r7, #4]
    4bc6:	617b      	str	r3, [r7, #20]
/home/qemu-sgx/devel/optee/optee_os/lib/libutils/isoc/bget.c:625
    4bc8:	697b      	ldr	r3, [r7, #20]
    4bca:	2b00      	cmp	r3, #0
    4bcc:	dc0b      	bgt.n	4be6 <bget+0x36>
/home/qemu-sgx/devel/optee/optee_os/lib/libutils/isoc/bget.c:625 (discriminator 1)
    4bce:	4bc3      	ldr	r3, [pc, #780]	; (4edc <bget+0x32c>)
    4bd0:	447b      	add	r3, pc
    4bd2:	f240 2271 	movw	r2, #625	; 0x271
    4bd6:	49c2      	ldr	r1, [pc, #776]	; (4ee0 <bget+0x330>)
    4bd8:	4479      	add	r1, pc
    4bda:	48c2      	ldr	r0, [pc, #776]	; (4ee4 <bget+0x334>)
    4bdc:	4478      	add	r0, pc
    4bde:	f7fe ea82 	blx	30e4 <_assert_log@plt>
    4be2:	f7fe ebf4 	blx	33cc <_assert_break@plt>
/home/qemu-sgx/devel/optee/optee_os/lib/libutils/isoc/bget.c:626
    4be6:	bf00      	nop
/home/qemu-sgx/devel/optee/optee_os/lib/libutils/isoc/bget.c:628
    4be8:	6afb      	ldr	r3, [r7, #44]	; 0x2c
    4bea:	2b00      	cmp	r3, #0
    4bec:	db0e      	blt.n	4c0c <bget+0x5c>
/home/qemu-sgx/devel/optee/optee_os/lib/libutils/isoc/bget.c:628 (discriminator 1)
    4bee:	6afb      	ldr	r3, [r7, #44]	; 0x2c
    4bf0:	2b00      	cmp	r3, #0
    4bf2:	dd0e      	ble.n	4c12 <bget+0x62>
/home/qemu-sgx/devel/optee/optee_os/lib/libutils/isoc/bget.c:628 (discriminator 2)
    4bf4:	6afb      	ldr	r3, [r7, #44]	; 0x2c
    4bf6:	2b00      	cmp	r3, #0
    4bf8:	d008      	beq.n	4c0c <bget+0x5c>
/home/qemu-sgx/devel/optee/optee_os/lib/libutils/isoc/bget.c:628 (discriminator 3)
    4bfa:	6afb      	ldr	r3, [r7, #44]	; 0x2c
    4bfc:	f1c3 0200 	rsb	r2, r3, #0
    4c00:	6afb      	ldr	r3, [r7, #44]	; 0x2c
    4c02:	ea02 0203 	and.w	r2, r2, r3
    4c06:	6afb      	ldr	r3, [r7, #44]	; 0x2c
    4c08:	429a      	cmp	r2, r3
    4c0a:	d002      	beq.n	4c12 <bget+0x62>
/home/qemu-sgx/devel/optee/optee_os/lib/libutils/isoc/bget.c:629
    4c0c:	f04f 0300 	mov.w	r3, #0
    4c10:	e15e      	b.n	4ed0 <bget+0x320>
/home/qemu-sgx/devel/optee/optee_os/lib/libutils/isoc/bget.c:630
    4c12:	68bb      	ldr	r3, [r7, #8]
    4c14:	f003 0307 	and.w	r3, r3, #7
    4c18:	2b00      	cmp	r3, #0
    4c1a:	d002      	beq.n	4c22 <bget+0x72>
/home/qemu-sgx/devel/optee/optee_os/lib/libutils/isoc/bget.c:631
    4c1c:	f04f 0300 	mov.w	r3, #0
    4c20:	e156      	b.n	4ed0 <bget+0x320>
/home/qemu-sgx/devel/optee/optee_os/lib/libutils/isoc/bget.c:633
    4c22:	697b      	ldr	r3, [r7, #20]
    4c24:	2b07      	cmp	r3, #7
    4c26:	d802      	bhi.n	4c2e <bget+0x7e>
/home/qemu-sgx/devel/optee/optee_os/lib/libutils/isoc/bget.c:634
    4c28:	f04f 0308 	mov.w	r3, #8
    4c2c:	617b      	str	r3, [r7, #20]
/home/qemu-sgx/devel/optee/optee_os/lib/libutils/isoc/bget.c:636
    4c2e:	6afb      	ldr	r3, [r7, #44]	; 0x2c
    4c30:	2b07      	cmp	r3, #7
    4c32:	d802      	bhi.n	4c3a <bget+0x8a>
/home/qemu-sgx/devel/optee/optee_os/lib/libutils/isoc/bget.c:637
    4c34:	f04f 0308 	mov.w	r3, #8
    4c38:	62fb      	str	r3, [r7, #44]	; 0x2c
/home/qemu-sgx/devel/optee/optee_os/lib/libutils/isoc/bget.c:640
    4c3a:	697b      	ldr	r3, [r7, #20]
    4c3c:	f04f 0200 	mov.w	r2, #0
    4c40:	3307      	adds	r3, #7
    4c42:	d701      	bvc.n	4c48 <bget+0x98>
    4c44:	f04f 0201 	mov.w	r2, #1
    4c48:	617b      	str	r3, [r7, #20]
    4c4a:	4613      	mov	r3, r2
    4c4c:	f003 0301 	and.w	r3, r3, #1
    4c50:	b2db      	uxtb	r3, r3
    4c52:	2b00      	cmp	r3, #0
    4c54:	d002      	beq.n	4c5c <bget+0xac>
/home/qemu-sgx/devel/optee/optee_os/lib/libutils/isoc/bget.c:641
    4c56:	f04f 0300 	mov.w	r3, #0
    4c5a:	e139      	b.n	4ed0 <bget+0x320>
/home/qemu-sgx/devel/optee/optee_os/lib/libutils/isoc/bget.c:643
    4c5c:	697b      	ldr	r3, [r7, #20]
    4c5e:	f023 0307 	bic.w	r3, r3, #7
    4c62:	617b      	str	r3, [r7, #20]
/home/qemu-sgx/devel/optee/optee_os/lib/libutils/isoc/bget.c:648
    4c64:	697b      	ldr	r3, [r7, #20]
    4c66:	f04f 0200 	mov.w	r2, #0
    4c6a:	3308      	adds	r3, #8
    4c6c:	d701      	bvc.n	4c72 <bget+0xc2>
    4c6e:	f04f 0201 	mov.w	r2, #1
    4c72:	617b      	str	r3, [r7, #20]
    4c74:	4613      	mov	r3, r2
    4c76:	f003 0301 	and.w	r3, r3, #1
    4c7a:	b2db      	uxtb	r3, r3
    4c7c:	2b00      	cmp	r3, #0
    4c7e:	d002      	beq.n	4c86 <bget+0xd6>
/home/qemu-sgx/devel/optee/optee_os/lib/libutils/isoc/bget.c:649
    4c80:	f04f 0300 	mov.w	r3, #0
    4c84:	e124      	b.n	4ed0 <bget+0x320>
/home/qemu-sgx/devel/optee/optee_os/lib/libutils/isoc/bget.c:650
    4c86:	697a      	ldr	r2, [r7, #20]
    4c88:	f04f 0100 	mov.w	r1, #0
    4c8c:	68bb      	ldr	r3, [r7, #8]
    4c8e:	18d3      	adds	r3, r2, r3
    4c90:	d701      	bvc.n	4c96 <bget+0xe6>
    4c92:	f04f 0101 	mov.w	r1, #1
    4c96:	617b      	str	r3, [r7, #20]
    4c98:	460b      	mov	r3, r1
    4c9a:	f003 0301 	and.w	r3, r3, #1
    4c9e:	b2db      	uxtb	r3, r3
    4ca0:	2b00      	cmp	r3, #0
    4ca2:	d002      	beq.n	4caa <bget+0xfa>
/home/qemu-sgx/devel/optee/optee_os/lib/libutils/isoc/bget.c:651
    4ca4:	f04f 0300 	mov.w	r3, #0
    4ca8:	e112      	b.n	4ed0 <bget+0x320>
/home/qemu-sgx/devel/optee/optee_os/lib/libutils/isoc/bget.c:660
    4caa:	683b      	ldr	r3, [r7, #0]
    4cac:	689b      	ldr	r3, [r3, #8]
    4cae:	62bb      	str	r3, [r7, #40]	; 0x28
/home/qemu-sgx/devel/optee/optee_os/lib/libutils/isoc/bget.c:684
    4cb0:	e107      	b.n	4ec2 <bget+0x312>
/home/qemu-sgx/devel/optee/optee_os/lib/libutils/isoc/bget.c:685
    4cb2:	697b      	ldr	r3, [r7, #20]
    4cb4:	68ba      	ldr	r2, [r7, #8]
    4cb6:	6af9      	ldr	r1, [r7, #44]	; 0x2c
    4cb8:	6ab8      	ldr	r0, [r7, #40]	; 0x28
    4cba:	f7ff ff31 	bl	4b20 <buf_get_pos>
    4cbe:	6278      	str	r0, [r7, #36]	; 0x24
/home/qemu-sgx/devel/optee/optee_os/lib/libutils/isoc/bget.c:686
    4cc0:	6a7b      	ldr	r3, [r7, #36]	; 0x24
    4cc2:	2b00      	cmp	r3, #0
    4cc4:	f2c0 80fa 	blt.w	4ebc <bget+0x30c>
/home/qemu-sgx/devel/optee/optee_os/lib/libutils/isoc/bget.c:687
    4cc8:	6a7b      	ldr	r3, [r7, #36]	; 0x24
    4cca:	6aba      	ldr	r2, [r7, #40]	; 0x28
    4ccc:	4413      	add	r3, r2
    4cce:	623b      	str	r3, [r7, #32]
/home/qemu-sgx/devel/optee/optee_os/lib/libutils/isoc/bget.c:688
    4cd0:	6abb      	ldr	r3, [r7, #40]	; 0x28
    4cd2:	685b      	ldr	r3, [r3, #4]
    4cd4:	461a      	mov	r2, r3
    4cd6:	6abb      	ldr	r3, [r7, #40]	; 0x28
    4cd8:	4413      	add	r3, r2
    4cda:	61fb      	str	r3, [r7, #28]
/home/qemu-sgx/devel/optee/optee_os/lib/libutils/isoc/bget.c:690
    4cdc:	69fb      	ldr	r3, [r7, #28]
    4cde:	681a      	ldr	r2, [r3, #0]
    4ce0:	6abb      	ldr	r3, [r7, #40]	; 0x28
    4ce2:	685b      	ldr	r3, [r3, #4]
    4ce4:	429a      	cmp	r2, r3
    4ce6:	d00b      	beq.n	4d00 <bget+0x150>
/home/qemu-sgx/devel/optee/optee_os/lib/libutils/isoc/bget.c:690 (discriminator 1)
    4ce8:	4b7f      	ldr	r3, [pc, #508]	; (4ee8 <bget+0x338>)
    4cea:	447b      	add	r3, pc
    4cec:	f240 22b2 	movw	r2, #690	; 0x2b2
    4cf0:	497e      	ldr	r1, [pc, #504]	; (4eec <bget+0x33c>)
    4cf2:	4479      	add	r1, pc
    4cf4:	487e      	ldr	r0, [pc, #504]	; (4ef0 <bget+0x340>)
    4cf6:	4478      	add	r0, pc
    4cf8:	f7fe e9f4 	blx	30e4 <_assert_log@plt>
    4cfc:	f7fe eb66 	blx	33cc <_assert_break@plt>
/home/qemu-sgx/devel/optee/optee_os/lib/libutils/isoc/bget.c:696
    4d00:	69fb      	ldr	r3, [r7, #28]
    4d02:	f04f 0200 	mov.w	r2, #0
    4d06:	601a      	str	r2, [r3, #0]
/home/qemu-sgx/devel/optee/optee_os/lib/libutils/isoc/bget.c:698
    4d08:	6abb      	ldr	r3, [r7, #40]	; 0x28
    4d0a:	68db      	ldr	r3, [r3, #12]
    4d0c:	689b      	ldr	r3, [r3, #8]
    4d0e:	6aba      	ldr	r2, [r7, #40]	; 0x28
    4d10:	429a      	cmp	r2, r3
    4d12:	d00b      	beq.n	4d2c <bget+0x17c>
/home/qemu-sgx/devel/optee/optee_os/lib/libutils/isoc/bget.c:698 (discriminator 1)
    4d14:	4b77      	ldr	r3, [pc, #476]	; (4ef4 <bget+0x344>)
    4d16:	447b      	add	r3, pc
    4d18:	f240 22ba 	movw	r2, #698	; 0x2ba
    4d1c:	4976      	ldr	r1, [pc, #472]	; (4ef8 <bget+0x348>)
    4d1e:	4479      	add	r1, pc
    4d20:	4876      	ldr	r0, [pc, #472]	; (4efc <bget+0x34c>)
    4d22:	4478      	add	r0, pc
    4d24:	f7fe e9de 	blx	30e4 <_assert_log@plt>
    4d28:	f7fe eb50 	blx	33cc <_assert_break@plt>
/home/qemu-sgx/devel/optee/optee_os/lib/libutils/isoc/bget.c:699
    4d2c:	6abb      	ldr	r3, [r7, #40]	; 0x28
    4d2e:	689b      	ldr	r3, [r3, #8]
    4d30:	68db      	ldr	r3, [r3, #12]
    4d32:	6aba      	ldr	r2, [r7, #40]	; 0x28
    4d34:	429a      	cmp	r2, r3
    4d36:	d00b      	beq.n	4d50 <bget+0x1a0>
/home/qemu-sgx/devel/optee/optee_os/lib/libutils/isoc/bget.c:699 (discriminator 1)
    4d38:	4b71      	ldr	r3, [pc, #452]	; (4f00 <bget+0x350>)
    4d3a:	447b      	add	r3, pc
    4d3c:	f240 22bb 	movw	r2, #699	; 0x2bb
    4d40:	4970      	ldr	r1, [pc, #448]	; (4f04 <bget+0x354>)
    4d42:	4479      	add	r1, pc
    4d44:	4870      	ldr	r0, [pc, #448]	; (4f08 <bget+0x358>)
    4d46:	4478      	add	r0, pc
    4d48:	f7fe e9cc 	blx	30e4 <_assert_log@plt>
    4d4c:	f7fe eb3e 	blx	33cc <_assert_break@plt>
/home/qemu-sgx/devel/optee/optee_os/lib/libutils/isoc/bget.c:701
    4d50:	6a7b      	ldr	r3, [r7, #36]	; 0x24
    4d52:	2b00      	cmp	r3, #0
    4d54:	d110      	bne.n	4d78 <bget+0x1c8>
/home/qemu-sgx/devel/optee/optee_os/lib/libutils/isoc/bget.c:706
    4d56:	6abb      	ldr	r3, [r7, #40]	; 0x28
    4d58:	68db      	ldr	r3, [r3, #12]
    4d5a:	6aba      	ldr	r2, [r7, #40]	; 0x28
    4d5c:	6892      	ldr	r2, [r2, #8]
    4d5e:	609a      	str	r2, [r3, #8]
/home/qemu-sgx/devel/optee/optee_os/lib/libutils/isoc/bget.c:707
    4d60:	6abb      	ldr	r3, [r7, #40]	; 0x28
    4d62:	689b      	ldr	r3, [r3, #8]
    4d64:	6aba      	ldr	r2, [r7, #40]	; 0x28
    4d66:	68d2      	ldr	r2, [r2, #12]
    4d68:	60da      	str	r2, [r3, #12]
/home/qemu-sgx/devel/optee/optee_os/lib/libutils/isoc/bget.c:710
    4d6a:	6abb      	ldr	r3, [r7, #40]	; 0x28
    4d6c:	685b      	ldr	r3, [r3, #4]
    4d6e:	f1c3 0200 	rsb	r2, r3, #0
    4d72:	6abb      	ldr	r3, [r7, #40]	; 0x28
    4d74:	605a      	str	r2, [r3, #4]
    4d76:	e00c      	b.n	4d92 <bget+0x1e2>
/home/qemu-sgx/devel/optee/optee_os/lib/libutils/isoc/bget.c:716
    4d78:	6abb      	ldr	r3, [r7, #40]	; 0x28
    4d7a:	685b      	ldr	r3, [r3, #4]
    4d7c:	6a7a      	ldr	r2, [r7, #36]	; 0x24
    4d7e:	eba2 0203 	sub.w	r2, r2, r3
    4d82:	6a3b      	ldr	r3, [r7, #32]
    4d84:	605a      	str	r2, [r3, #4]
/home/qemu-sgx/devel/optee/optee_os/lib/libutils/isoc/bget.c:717
    4d86:	6a3b      	ldr	r3, [r7, #32]
    4d88:	6a7a      	ldr	r2, [r7, #36]	; 0x24
    4d8a:	601a      	str	r2, [r3, #0]
/home/qemu-sgx/devel/optee/optee_os/lib/libutils/isoc/bget.c:718
    4d8c:	6abb      	ldr	r3, [r7, #40]	; 0x28
    4d8e:	6a7a      	ldr	r2, [r7, #36]	; 0x24
    4d90:	605a      	str	r2, [r3, #4]
/home/qemu-sgx/devel/optee/optee_os/lib/libutils/isoc/bget.c:721
    4d92:	6a3b      	ldr	r3, [r7, #32]
    4d94:	685b      	ldr	r3, [r3, #4]
    4d96:	2b00      	cmp	r3, #0
    4d98:	db0b      	blt.n	4db2 <bget+0x202>
/home/qemu-sgx/devel/optee/optee_os/lib/libutils/isoc/bget.c:721 (discriminator 1)
    4d9a:	4b5c      	ldr	r3, [pc, #368]	; (4f0c <bget+0x35c>)
    4d9c:	447b      	add	r3, pc
    4d9e:	f240 22d1 	movw	r2, #721	; 0x2d1
    4da2:	495b      	ldr	r1, [pc, #364]	; (4f10 <bget+0x360>)
    4da4:	4479      	add	r1, pc
    4da6:	485b      	ldr	r0, [pc, #364]	; (4f14 <bget+0x364>)
    4da8:	4478      	add	r0, pc
    4daa:	f7fe e99c 	blx	30e4 <_assert_log@plt>
    4dae:	f7fe eb0e 	blx	33cc <_assert_break@plt>
/home/qemu-sgx/devel/optee/optee_os/lib/libutils/isoc/bget.c:727
    4db2:	6a3b      	ldr	r3, [r7, #32]
    4db4:	685b      	ldr	r3, [r3, #4]
    4db6:	f1c3 0200 	rsb	r2, r3, #0
    4dba:	697b      	ldr	r3, [r7, #20]
    4dbc:	eba2 0303 	sub.w	r3, r2, r3
    4dc0:	2b10      	cmp	r3, #16
    4dc2:	d962      	bls.n	4e8a <bget+0x2da>
/home/qemu-sgx/devel/optee/optee_os/lib/libutils/isoc/bget.c:733
    4dc4:	697b      	ldr	r3, [r7, #20]
    4dc6:	461a      	mov	r2, r3
    4dc8:	6a3b      	ldr	r3, [r7, #32]
    4dca:	4413      	add	r3, r2
    4dcc:	62bb      	str	r3, [r7, #40]	; 0x28
/home/qemu-sgx/devel/optee/optee_os/lib/libutils/isoc/bget.c:734
    4dce:	6a3b      	ldr	r3, [r7, #32]
    4dd0:	685b      	ldr	r3, [r3, #4]
    4dd2:	f1c3 0200 	rsb	r2, r3, #0
    4dd6:	697b      	ldr	r3, [r7, #20]
    4dd8:	eba2 0203 	sub.w	r2, r2, r3
    4ddc:	6abb      	ldr	r3, [r7, #40]	; 0x28
    4dde:	605a      	str	r2, [r3, #4]
/home/qemu-sgx/devel/optee/optee_os/lib/libutils/isoc/bget.c:735
    4de0:	6abb      	ldr	r3, [r7, #40]	; 0x28
    4de2:	f04f 0200 	mov.w	r2, #0
    4de6:	601a      	str	r2, [r3, #0]
/home/qemu-sgx/devel/optee/optee_os/lib/libutils/isoc/bget.c:736
    4de8:	6a3b      	ldr	r3, [r7, #32]
    4dea:	685a      	ldr	r2, [r3, #4]
    4dec:	6abb      	ldr	r3, [r7, #40]	; 0x28
    4dee:	685b      	ldr	r3, [r3, #4]
    4df0:	441a      	add	r2, r3
    4df2:	6a3b      	ldr	r3, [r7, #32]
    4df4:	605a      	str	r2, [r3, #4]
/home/qemu-sgx/devel/optee/optee_os/lib/libutils/isoc/bget.c:738
    4df6:	683b      	ldr	r3, [r7, #0]
    4df8:	68db      	ldr	r3, [r3, #12]
    4dfa:	689a      	ldr	r2, [r3, #8]
    4dfc:	683b      	ldr	r3, [r7, #0]
    4dfe:	429a      	cmp	r2, r3
    4e00:	d00b      	beq.n	4e1a <bget+0x26a>
/home/qemu-sgx/devel/optee/optee_os/lib/libutils/isoc/bget.c:738 (discriminator 1)
    4e02:	4b45      	ldr	r3, [pc, #276]	; (4f18 <bget+0x368>)
    4e04:	447b      	add	r3, pc
    4e06:	f240 22e2 	movw	r2, #738	; 0x2e2
    4e0a:	4944      	ldr	r1, [pc, #272]	; (4f1c <bget+0x36c>)
    4e0c:	4479      	add	r1, pc
    4e0e:	4844      	ldr	r0, [pc, #272]	; (4f20 <bget+0x370>)
    4e10:	4478      	add	r0, pc
    4e12:	f7fe e968 	blx	30e4 <_assert_log@plt>
    4e16:	f7fe eada 	blx	33cc <_assert_break@plt>
/home/qemu-sgx/devel/optee/optee_os/lib/libutils/isoc/bget.c:740
    4e1a:	683b      	ldr	r3, [r7, #0]
    4e1c:	689b      	ldr	r3, [r3, #8]
    4e1e:	68da      	ldr	r2, [r3, #12]
    4e20:	683b      	ldr	r3, [r7, #0]
    4e22:	429a      	cmp	r2, r3
    4e24:	d00b      	beq.n	4e3e <bget+0x28e>
/home/qemu-sgx/devel/optee/optee_os/lib/libutils/isoc/bget.c:740 (discriminator 1)
    4e26:	4b3f      	ldr	r3, [pc, #252]	; (4f24 <bget+0x374>)
    4e28:	447b      	add	r3, pc
    4e2a:	f44f 7239 	mov.w	r2, #740	; 0x2e4
    4e2e:	493e      	ldr	r1, [pc, #248]	; (4f28 <bget+0x378>)
    4e30:	4479      	add	r1, pc
    4e32:	483e      	ldr	r0, [pc, #248]	; (4f2c <bget+0x37c>)
    4e34:	4478      	add	r0, pc
    4e36:	f7fe e956 	blx	30e4 <_assert_log@plt>
    4e3a:	f7fe eac8 	blx	33cc <_assert_break@plt>
/home/qemu-sgx/devel/optee/optee_os/lib/libutils/isoc/bget.c:742
    4e3e:	683a      	ldr	r2, [r7, #0]
    4e40:	6abb      	ldr	r3, [r7, #40]	; 0x28
    4e42:	609a      	str	r2, [r3, #8]
/home/qemu-sgx/devel/optee/optee_os/lib/libutils/isoc/bget.c:743
    4e44:	683b      	ldr	r3, [r7, #0]
    4e46:	68da      	ldr	r2, [r3, #12]
    4e48:	6abb      	ldr	r3, [r7, #40]	; 0x28
    4e4a:	60da      	str	r2, [r3, #12]
/home/qemu-sgx/devel/optee/optee_os/lib/libutils/isoc/bget.c:744
    4e4c:	683b      	ldr	r3, [r7, #0]
    4e4e:	6aba      	ldr	r2, [r7, #40]	; 0x28
    4e50:	60da      	str	r2, [r3, #12]
/home/qemu-sgx/devel/optee/optee_os/lib/libutils/isoc/bget.c:745
    4e52:	6abb      	ldr	r3, [r7, #40]	; 0x28
    4e54:	68db      	ldr	r3, [r3, #12]
    4e56:	6aba      	ldr	r2, [r7, #40]	; 0x28
    4e58:	609a      	str	r2, [r3, #8]
/home/qemu-sgx/devel/optee/optee_os/lib/libutils/isoc/bget.c:747
    4e5a:	6abb      	ldr	r3, [r7, #40]	; 0x28
    4e5c:	685b      	ldr	r3, [r3, #4]
    4e5e:	461a      	mov	r2, r3
    4e60:	6abb      	ldr	r3, [r7, #40]	; 0x28
    4e62:	4413      	add	r3, r2
    4e64:	69fa      	ldr	r2, [r7, #28]
    4e66:	429a      	cmp	r2, r3
    4e68:	d00b      	beq.n	4e82 <bget+0x2d2>
/home/qemu-sgx/devel/optee/optee_os/lib/libutils/isoc/bget.c:747 (discriminator 1)
    4e6a:	4b31      	ldr	r3, [pc, #196]	; (4f30 <bget+0x380>)
    4e6c:	447b      	add	r3, pc
    4e6e:	f240 22eb 	movw	r2, #747	; 0x2eb
    4e72:	4930      	ldr	r1, [pc, #192]	; (4f34 <bget+0x384>)
    4e74:	4479      	add	r1, pc
    4e76:	4830      	ldr	r0, [pc, #192]	; (4f38 <bget+0x388>)
    4e78:	4478      	add	r0, pc
    4e7a:	f7fe e934 	blx	30e4 <_assert_log@plt>
    4e7e:	f7fe eaa6 	blx	33cc <_assert_break@plt>
/home/qemu-sgx/devel/optee/optee_os/lib/libutils/isoc/bget.c:748
    4e82:	6abb      	ldr	r3, [r7, #40]	; 0x28
    4e84:	685a      	ldr	r2, [r3, #4]
    4e86:	69fb      	ldr	r3, [r7, #28]
    4e88:	601a      	str	r2, [r3, #0]
/home/qemu-sgx/devel/optee/optee_os/lib/libutils/isoc/bget.c:752
    4e8a:	683b      	ldr	r3, [r7, #0]
    4e8c:	691a      	ldr	r2, [r3, #16]
    4e8e:	6a3b      	ldr	r3, [r7, #32]
    4e90:	685b      	ldr	r3, [r3, #4]
    4e92:	eba2 0203 	sub.w	r2, r2, r3
    4e96:	683b      	ldr	r3, [r7, #0]
    4e98:	611a      	str	r2, [r3, #16]
/home/qemu-sgx/devel/optee/optee_os/lib/libutils/isoc/bget.c:753
    4e9a:	683b      	ldr	r3, [r7, #0]
    4e9c:	695b      	ldr	r3, [r3, #20]
    4e9e:	f103 0201 	add.w	r2, r3, #1
    4ea2:	683b      	ldr	r3, [r7, #0]
    4ea4:	615a      	str	r2, [r3, #20]
/home/qemu-sgx/devel/optee/optee_os/lib/libutils/isoc/bget.c:755
    4ea6:	6a3b      	ldr	r3, [r7, #32]
    4ea8:	f103 0308 	add.w	r3, r3, #8
    4eac:	61bb      	str	r3, [r7, #24]
/home/qemu-sgx/devel/optee/optee_os/lib/libutils/isoc/bget.c:756
    4eae:	697b      	ldr	r3, [r7, #20]
    4eb0:	4619      	mov	r1, r3
    4eb2:	69b8      	ldr	r0, [r7, #24]
    4eb4:	f7ff fe03 	bl	4abe <tag_asan_alloced>
/home/qemu-sgx/devel/optee/optee_os/lib/libutils/isoc/bget.c:757
    4eb8:	69bb      	ldr	r3, [r7, #24]
    4eba:	e009      	b.n	4ed0 <bget+0x320>
/home/qemu-sgx/devel/optee/optee_os/lib/libutils/isoc/bget.c:759
    4ebc:	6abb      	ldr	r3, [r7, #40]	; 0x28
    4ebe:	689b      	ldr	r3, [r3, #8]
    4ec0:	62bb      	str	r3, [r7, #40]	; 0x28
/home/qemu-sgx/devel/optee/optee_os/lib/libutils/isoc/bget.c:684
    4ec2:	683b      	ldr	r3, [r7, #0]
    4ec4:	6aba      	ldr	r2, [r7, #40]	; 0x28
    4ec6:	429a      	cmp	r2, r3
    4ec8:	f47f aef3 	bne.w	4cb2 <bget+0x102>
/home/qemu-sgx/devel/optee/optee_os/lib/libutils/isoc/bget.c:838
    4ecc:	f04f 0300 	mov.w	r3, #0
/home/qemu-sgx/devel/optee/optee_os/lib/libutils/isoc/bget.c:839 (discriminator 1)
    4ed0:	4618      	mov	r0, r3
    4ed2:	f107 0730 	add.w	r7, r7, #48	; 0x30
    4ed6:	46bd      	mov	sp, r7
    4ed8:	bd80      	pop	{r7, pc}
    4eda:	bf00      	nop
    4edc:	00008b88 	.word	0x00008b88
    4ee0:	00008780 	.word	0x00008780
    4ee4:	00008798 	.word	0x00008798
    4ee8:	00008a6e 	.word	0x00008a6e
    4eec:	00008666 	.word	0x00008666
    4ef0:	0000868a 	.word	0x0000868a
    4ef4:	00008a42 	.word	0x00008a42
    4ef8:	0000863a 	.word	0x0000863a
    4efc:	0000867e 	.word	0x0000867e
    4f00:	00008a1e 	.word	0x00008a1e
    4f04:	00008616 	.word	0x00008616
    4f08:	00008676 	.word	0x00008676
    4f0c:	000089bc 	.word	0x000089bc
    4f10:	000085b4 	.word	0x000085b4
    4f14:	00008630 	.word	0x00008630
    4f18:	00008954 	.word	0x00008954
    4f1c:	0000854c 	.word	0x0000854c
    4f20:	000085dc 	.word	0x000085dc
    4f24:	00008930 	.word	0x00008930
    4f28:	00008528 	.word	0x00008528
    4f2c:	000085f4 	.word	0x000085f4
    4f30:	000088ec 	.word	0x000088ec
    4f34:	000084e4 	.word	0x000084e4
    4f38:	000085ec 	.word	0x000085ec

00004f3c <bgetz>:
bgetz():
/home/qemu-sgx/devel/optee/optee_os/lib/libutils/isoc/bget.c:850
    4f3c:	e96d 7e02 	strd	r7, lr, [sp, #-8]!
    4f40:	b088      	sub	sp, #32
    4f42:	af00      	add	r7, sp, #0
    4f44:	60f8      	str	r0, [r7, #12]
    4f46:	60b9      	str	r1, [r7, #8]
    4f48:	607a      	str	r2, [r7, #4]
    4f4a:	603b      	str	r3, [r7, #0]
/home/qemu-sgx/devel/optee/optee_os/lib/libutils/isoc/bget.c:851
    4f4c:	683b      	ldr	r3, [r7, #0]
    4f4e:	687a      	ldr	r2, [r7, #4]
    4f50:	68b9      	ldr	r1, [r7, #8]
    4f52:	68f8      	ldr	r0, [r7, #12]
    4f54:	f7fe ea22 	blx	339c <bget@plt>
    4f58:	61b8      	str	r0, [r7, #24]
/home/qemu-sgx/devel/optee/optee_os/lib/libutils/isoc/bget.c:853
    4f5a:	69bb      	ldr	r3, [r7, #24]
    4f5c:	2b00      	cmp	r3, #0
    4f5e:	d035      	beq.n	4fcc <bgetz+0x90>
/home/qemu-sgx/devel/optee/optee_os/lib/libutils/isoc/bget.c:857
    4f60:	69bb      	ldr	r3, [r7, #24]
    4f62:	f1a3 0308 	sub.w	r3, r3, #8
    4f66:	617b      	str	r3, [r7, #20]
/home/qemu-sgx/devel/optee/optee_os/lib/libutils/isoc/bget.c:858
    4f68:	697b      	ldr	r3, [r7, #20]
    4f6a:	685b      	ldr	r3, [r3, #4]
    4f6c:	f1c3 0300 	rsb	r3, r3, #0
    4f70:	61fb      	str	r3, [r7, #28]
/home/qemu-sgx/devel/optee/optee_os/lib/libutils/isoc/bget.c:859
    4f72:	69fb      	ldr	r3, [r7, #28]
    4f74:	2b00      	cmp	r3, #0
    4f76:	d10e      	bne.n	4f96 <bgetz+0x5a>
/home/qemu-sgx/devel/optee/optee_os/lib/libutils/isoc/bget.c:862
    4f78:	69bb      	ldr	r3, [r7, #24]
    4f7a:	f1a3 0310 	sub.w	r3, r3, #16
    4f7e:	613b      	str	r3, [r7, #16]
/home/qemu-sgx/devel/optee/optee_os/lib/libutils/isoc/bget.c:863
    4f80:	693b      	ldr	r3, [r7, #16]
    4f82:	681b      	ldr	r3, [r3, #0]
    4f84:	461a      	mov	r2, r3
    4f86:	693b      	ldr	r3, [r7, #16]
    4f88:	685b      	ldr	r3, [r3, #4]
    4f8a:	eba2 0303 	sub.w	r3, r2, r3
    4f8e:	f1a3 0310 	sub.w	r3, r3, #16
    4f92:	61fb      	str	r3, [r7, #28]
    4f94:	e003      	b.n	4f9e <bgetz+0x62>
/home/qemu-sgx/devel/optee/optee_os/lib/libutils/isoc/bget.c:865
    4f96:	69fb      	ldr	r3, [r7, #28]
    4f98:	f1a3 0308 	sub.w	r3, r3, #8
    4f9c:	61fb      	str	r3, [r7, #28]
/home/qemu-sgx/devel/optee/optee_os/lib/libutils/isoc/bget.c:867
    4f9e:	69fa      	ldr	r2, [r7, #28]
    4fa0:	687b      	ldr	r3, [r7, #4]
    4fa2:	429a      	cmp	r2, r3
    4fa4:	da0b      	bge.n	4fbe <bgetz+0x82>
/home/qemu-sgx/devel/optee/optee_os/lib/libutils/isoc/bget.c:867 (discriminator 1)
    4fa6:	4b0c      	ldr	r3, [pc, #48]	; (4fd8 <bgetz+0x9c>)
    4fa8:	447b      	add	r3, pc
    4faa:	f240 3263 	movw	r2, #867	; 0x363
    4fae:	490b      	ldr	r1, [pc, #44]	; (4fdc <bgetz+0xa0>)
    4fb0:	4479      	add	r1, pc
    4fb2:	480b      	ldr	r0, [pc, #44]	; (4fe0 <bgetz+0xa4>)
    4fb4:	4478      	add	r0, pc
    4fb6:	f7fe e896 	blx	30e4 <_assert_log@plt>
    4fba:	f7fe ea08 	blx	33cc <_assert_break@plt>
/home/qemu-sgx/devel/optee/optee_os/lib/libutils/isoc/bget.c:868
    4fbe:	69fb      	ldr	r3, [r7, #28]
    4fc0:	461a      	mov	r2, r3
    4fc2:	f04f 0100 	mov.w	r1, #0
    4fc6:	69b8      	ldr	r0, [r7, #24]
    4fc8:	f7ff fd86 	bl	4ad8 <memset_unchecked>
/home/qemu-sgx/devel/optee/optee_os/lib/libutils/isoc/bget.c:870
    4fcc:	69bb      	ldr	r3, [r7, #24]
/home/qemu-sgx/devel/optee/optee_os/lib/libutils/isoc/bget.c:871
    4fce:	4618      	mov	r0, r3
    4fd0:	f107 0720 	add.w	r7, r7, #32
    4fd4:	46bd      	mov	sp, r7
    4fd6:	bd80      	pop	{r7, pc}
    4fd8:	000087b8 	.word	0x000087b8
    4fdc:	000083a8 	.word	0x000083a8
    4fe0:	000084d8 	.word	0x000084d8

00004fe4 <bgetr>:
bgetr():
/home/qemu-sgx/devel/optee/optee_os/lib/libutils/isoc/bget.c:884
    4fe4:	e96d 7e02 	strd	r7, lr, [sp, #-8]!
    4fe8:	b088      	sub	sp, #32
    4fea:	af00      	add	r7, sp, #0
    4fec:	60f8      	str	r0, [r7, #12]
    4fee:	60b9      	str	r1, [r7, #8]
    4ff0:	607a      	str	r2, [r7, #4]
    4ff2:	603b      	str	r3, [r7, #0]
/home/qemu-sgx/devel/optee/optee_os/lib/libutils/isoc/bget.c:889
    4ff4:	6abb      	ldr	r3, [r7, #40]	; 0x28
    4ff6:	683a      	ldr	r2, [r7, #0]
    4ff8:	6879      	ldr	r1, [r7, #4]
    4ffa:	68b8      	ldr	r0, [r7, #8]
    4ffc:	f7fe e9ce 	blx	339c <bget@plt>
    5000:	61f8      	str	r0, [r7, #28]
    5002:	69fb      	ldr	r3, [r7, #28]
    5004:	2b00      	cmp	r3, #0
    5006:	d102      	bne.n	500e <bgetr+0x2a>
/home/qemu-sgx/devel/optee/optee_os/lib/libutils/isoc/bget.c:890
    5008:	f04f 0300 	mov.w	r3, #0
    500c:	e042      	b.n	5094 <bgetr+0xb0>
/home/qemu-sgx/devel/optee/optee_os/lib/libutils/isoc/bget.c:892
    500e:	68fb      	ldr	r3, [r7, #12]
    5010:	2b00      	cmp	r3, #0
    5012:	d101      	bne.n	5018 <bgetr+0x34>
/home/qemu-sgx/devel/optee/optee_os/lib/libutils/isoc/bget.c:893
    5014:	69fb      	ldr	r3, [r7, #28]
    5016:	e03d      	b.n	5094 <bgetr+0xb0>
/home/qemu-sgx/devel/optee/optee_os/lib/libutils/isoc/bget.c:895
    5018:	68fb      	ldr	r3, [r7, #12]
    501a:	f1a3 0308 	sub.w	r3, r3, #8
    501e:	61bb      	str	r3, [r7, #24]
/home/qemu-sgx/devel/optee/optee_os/lib/libutils/isoc/bget.c:896
    5020:	69bb      	ldr	r3, [r7, #24]
    5022:	685b      	ldr	r3, [r3, #4]
    5024:	f1c3 0300 	rsb	r3, r3, #0
    5028:	617b      	str	r3, [r7, #20]
/home/qemu-sgx/devel/optee/optee_os/lib/libutils/isoc/bget.c:906
    502a:	697b      	ldr	r3, [r7, #20]
    502c:	f1a3 0308 	sub.w	r3, r3, #8
    5030:	617b      	str	r3, [r7, #20]
/home/qemu-sgx/devel/optee/optee_os/lib/libutils/isoc/bget.c:907
    5032:	697b      	ldr	r3, [r7, #20]
    5034:	2b00      	cmp	r3, #0
    5036:	dc0b      	bgt.n	5050 <bgetr+0x6c>
/home/qemu-sgx/devel/optee/optee_os/lib/libutils/isoc/bget.c:907 (discriminator 1)
    5038:	4b19      	ldr	r3, [pc, #100]	; (50a0 <bgetr+0xbc>)
    503a:	447b      	add	r3, pc
    503c:	f240 328b 	movw	r2, #907	; 0x38b
    5040:	4918      	ldr	r1, [pc, #96]	; (50a4 <bgetr+0xc0>)
    5042:	4479      	add	r1, pc
    5044:	4818      	ldr	r0, [pc, #96]	; (50a8 <bgetr+0xc4>)
    5046:	4478      	add	r0, pc
    5048:	f7fe e84c 	blx	30e4 <_assert_log@plt>
    504c:	f7fe e9be 	blx	33cc <_assert_break@plt>
/home/qemu-sgx/devel/optee/optee_os/lib/libutils/isoc/bget.c:909
    5050:	697a      	ldr	r2, [r7, #20]
    5052:	683b      	ldr	r3, [r7, #0]
    5054:	4293      	cmp	r3, r2
    5056:	bfa8      	it	ge
    5058:	4613      	movge	r3, r2
/home/qemu-sgx/devel/optee/optee_os/lib/libutils/isoc/bget.c:908
    505a:	461a      	mov	r2, r3
    505c:	68f9      	ldr	r1, [r7, #12]
    505e:	69f8      	ldr	r0, [r7, #28]
    5060:	f7fd eff8 	blx	3054 <memcpy@plt>
/home/qemu-sgx/devel/optee/optee_os/lib/libutils/isoc/bget.c:912
    5064:	683a      	ldr	r2, [r7, #0]
    5066:	697b      	ldr	r3, [r7, #20]
    5068:	429a      	cmp	r2, r3
    506a:	dd0c      	ble.n	5086 <bgetr+0xa2>
/home/qemu-sgx/devel/optee/optee_os/lib/libutils/isoc/bget.c:913
    506c:	697b      	ldr	r3, [r7, #20]
    506e:	69fa      	ldr	r2, [r7, #28]
    5070:	eb02 0003 	add.w	r0, r2, r3
    5074:	683a      	ldr	r2, [r7, #0]
    5076:	697b      	ldr	r3, [r7, #20]
    5078:	eba2 0303 	sub.w	r3, r2, r3
    507c:	461a      	mov	r2, r3
    507e:	f04f 0100 	mov.w	r1, #0
    5082:	f7fe e926 	blx	32d0 <memset@plt>
/home/qemu-sgx/devel/optee/optee_os/lib/libutils/isoc/bget.c:915
    5086:	f04f 0200 	mov.w	r2, #0
    508a:	6ab9      	ldr	r1, [r7, #40]	; 0x28
    508c:	68f8      	ldr	r0, [r7, #12]
    508e:	f7fe e9fe 	blx	348c <brel@plt>
/home/qemu-sgx/devel/optee/optee_os/lib/libutils/isoc/bget.c:916
    5092:	69fb      	ldr	r3, [r7, #28]
/home/qemu-sgx/devel/optee/optee_os/lib/libutils/isoc/bget.c:917
    5094:	4618      	mov	r0, r3
    5096:	f107 0720 	add.w	r7, r7, #32
    509a:	46bd      	mov	sp, r7
    509c:	bd80      	pop	{r7, pc}
    509e:	bf00      	nop
    50a0:	0000872e 	.word	0x0000872e
    50a4:	00008316 	.word	0x00008316
    50a8:	00008456 	.word	0x00008456

000050ac <brel>:
brel():
/home/qemu-sgx/devel/optee/optee_os/lib/libutils/isoc/bget.c:925
    50ac:	f84d 4d0c 	str.w	r4, [sp, #-12]!
    50b0:	e9cd 7e01 	strd	r7, lr, [sp, #4]
    50b4:	b089      	sub	sp, #36	; 0x24
    50b6:	af00      	add	r7, sp, #0
    50b8:	60f8      	str	r0, [r7, #12]
    50ba:	60b9      	str	r1, [r7, #8]
    50bc:	607a      	str	r2, [r7, #4]
/home/qemu-sgx/devel/optee/optee_os/lib/libutils/isoc/bget.c:929
    50be:	68fb      	ldr	r3, [r7, #12]
    50c0:	f1a3 0308 	sub.w	r3, r3, #8
    50c4:	61fb      	str	r3, [r7, #28]
/home/qemu-sgx/devel/optee/optee_os/lib/libutils/isoc/bget.c:931
    50c6:	68bb      	ldr	r3, [r7, #8]
    50c8:	699b      	ldr	r3, [r3, #24]
    50ca:	f103 0201 	add.w	r2, r3, #1
    50ce:	68bb      	ldr	r3, [r7, #8]
    50d0:	619a      	str	r2, [r3, #24]
/home/qemu-sgx/devel/optee/optee_os/lib/libutils/isoc/bget.c:933
    50d2:	68fb      	ldr	r3, [r7, #12]
    50d4:	2b00      	cmp	r3, #0
    50d6:	d10b      	bne.n	50f0 <brel+0x44>
/home/qemu-sgx/devel/optee/optee_os/lib/libutils/isoc/bget.c:933 (discriminator 1)
    50d8:	4ba1      	ldr	r3, [pc, #644]	; (5360 <brel+0x2b4>)
    50da:	447b      	add	r3, pc
    50dc:	f240 32a5 	movw	r2, #933	; 0x3a5
    50e0:	49a0      	ldr	r1, [pc, #640]	; (5364 <brel+0x2b8>)
    50e2:	4479      	add	r1, pc
    50e4:	48a0      	ldr	r0, [pc, #640]	; (5368 <brel+0x2bc>)
    50e6:	4478      	add	r0, pc
    50e8:	f7fd effc 	blx	30e4 <_assert_log@plt>
    50ec:	f7fe e96e 	blx	33cc <_assert_break@plt>
/home/qemu-sgx/devel/optee/optee_os/lib/libutils/isoc/bget.c:965
    50f0:	69fb      	ldr	r3, [r7, #28]
    50f2:	685b      	ldr	r3, [r3, #4]
    50f4:	2b00      	cmp	r3, #0
    50f6:	db02      	blt.n	50fe <brel+0x52>
/home/qemu-sgx/devel/optee/optee_os/lib/libutils/isoc/bget.c:966
    50f8:	f04f 0300 	mov.w	r3, #0
    50fc:	61bb      	str	r3, [r7, #24]
/home/qemu-sgx/devel/optee/optee_os/lib/libutils/isoc/bget.c:968
    50fe:	69fb      	ldr	r3, [r7, #28]
    5100:	685b      	ldr	r3, [r3, #4]
    5102:	2b00      	cmp	r3, #0
    5104:	db0b      	blt.n	511e <brel+0x72>
/home/qemu-sgx/devel/optee/optee_os/lib/libutils/isoc/bget.c:968 (discriminator 1)
    5106:	4b99      	ldr	r3, [pc, #612]	; (536c <brel+0x2c0>)
    5108:	447b      	add	r3, pc
    510a:	f44f 7272 	mov.w	r2, #968	; 0x3c8
    510e:	4998      	ldr	r1, [pc, #608]	; (5370 <brel+0x2c4>)
    5110:	4479      	add	r1, pc
    5112:	4898      	ldr	r0, [pc, #608]	; (5374 <brel+0x2c8>)
    5114:	4478      	add	r0, pc
    5116:	f7fd efe6 	blx	30e4 <_assert_log@plt>
    511a:	f7fe e958 	blx	33cc <_assert_break@plt>
/home/qemu-sgx/devel/optee/optee_os/lib/libutils/isoc/bget.c:969
    511e:	69fb      	ldr	r3, [r7, #28]
    5120:	685b      	ldr	r3, [r3, #4]
    5122:	f1c3 0300 	rsb	r3, r3, #0
    5126:	617b      	str	r3, [r7, #20]
/home/qemu-sgx/devel/optee/optee_os/lib/libutils/isoc/bget.c:974
    5128:	69fb      	ldr	r3, [r7, #28]
    512a:	685b      	ldr	r3, [r3, #4]
    512c:	f1c3 0300 	rsb	r3, r3, #0
    5130:	69fa      	ldr	r2, [r7, #28]
    5132:	4413      	add	r3, r2
    5134:	681b      	ldr	r3, [r3, #0]
    5136:	2b00      	cmp	r3, #0
    5138:	d00b      	beq.n	5152 <brel+0xa6>
/home/qemu-sgx/devel/optee/optee_os/lib/libutils/isoc/bget.c:974 (discriminator 1)
    513a:	4b8f      	ldr	r3, [pc, #572]	; (5378 <brel+0x2cc>)
    513c:	447b      	add	r3, pc
    513e:	f240 32ce 	movw	r2, #974	; 0x3ce
    5142:	498e      	ldr	r1, [pc, #568]	; (537c <brel+0x2d0>)
    5144:	4479      	add	r1, pc
    5146:	488e      	ldr	r0, [pc, #568]	; (5380 <brel+0x2d4>)
    5148:	4478      	add	r0, pc
    514a:	f7fd efcc 	blx	30e4 <_assert_log@plt>
    514e:	f7fe e93e 	blx	33cc <_assert_break@plt>
/home/qemu-sgx/devel/optee/optee_os/lib/libutils/isoc/bget.c:977
    5152:	68bb      	ldr	r3, [r7, #8]
    5154:	691a      	ldr	r2, [r3, #16]
    5156:	69fb      	ldr	r3, [r7, #28]
    5158:	685b      	ldr	r3, [r3, #4]
    515a:	441a      	add	r2, r3
    515c:	68bb      	ldr	r3, [r7, #8]
    515e:	611a      	str	r2, [r3, #16]
/home/qemu-sgx/devel/optee/optee_os/lib/libutils/isoc/bget.c:978
    5160:	68bb      	ldr	r3, [r7, #8]
    5162:	691b      	ldr	r3, [r3, #16]
    5164:	2b00      	cmp	r3, #0
    5166:	da0b      	bge.n	5180 <brel+0xd4>
/home/qemu-sgx/devel/optee/optee_os/lib/libutils/isoc/bget.c:978 (discriminator 1)
    5168:	4b86      	ldr	r3, [pc, #536]	; (5384 <brel+0x2d8>)
    516a:	447b      	add	r3, pc
    516c:	f240 32d2 	movw	r2, #978	; 0x3d2
    5170:	4985      	ldr	r1, [pc, #532]	; (5388 <brel+0x2dc>)
    5172:	4479      	add	r1, pc
    5174:	4885      	ldr	r0, [pc, #532]	; (538c <brel+0x2e0>)
    5176:	4478      	add	r0, pc
    5178:	f7fd efb4 	blx	30e4 <_assert_log@plt>
    517c:	f7fe e926 	blx	33cc <_assert_break@plt>
/home/qemu-sgx/devel/optee/optee_os/lib/libutils/isoc/bget.c:983
    5180:	69fb      	ldr	r3, [r7, #28]
    5182:	681b      	ldr	r3, [r3, #0]
    5184:	2b00      	cmp	r3, #0
    5186:	d026      	beq.n	51d6 <brel+0x12a>
/home/qemu-sgx/devel/optee/optee_os/lib/libutils/isoc/bget.c:991
    5188:	69fb      	ldr	r3, [r7, #28]
    518a:	685c      	ldr	r4, [r3, #4]
/home/qemu-sgx/devel/optee/optee_os/lib/libutils/isoc/bget.c:994
    518c:	69fb      	ldr	r3, [r7, #28]
    518e:	681b      	ldr	r3, [r3, #0]
    5190:	f1c3 0300 	rsb	r3, r3, #0
    5194:	69fa      	ldr	r2, [r7, #28]
    5196:	4413      	add	r3, r2
    5198:	685a      	ldr	r2, [r3, #4]
    519a:	69fb      	ldr	r3, [r7, #28]
    519c:	681b      	ldr	r3, [r3, #0]
    519e:	429a      	cmp	r2, r3
    51a0:	d00b      	beq.n	51ba <brel+0x10e>
/home/qemu-sgx/devel/optee/optee_os/lib/libutils/isoc/bget.c:994 (discriminator 1)
    51a2:	4b7b      	ldr	r3, [pc, #492]	; (5390 <brel+0x2e4>)
    51a4:	447b      	add	r3, pc
    51a6:	f240 32e2 	movw	r2, #994	; 0x3e2
    51aa:	497a      	ldr	r1, [pc, #488]	; (5394 <brel+0x2e8>)
    51ac:	4479      	add	r1, pc
    51ae:	487a      	ldr	r0, [pc, #488]	; (5398 <brel+0x2ec>)
    51b0:	4478      	add	r0, pc
    51b2:	f7fd ef98 	blx	30e4 <_assert_log@plt>
    51b6:	f7fe e90a 	blx	33cc <_assert_break@plt>
/home/qemu-sgx/devel/optee/optee_os/lib/libutils/isoc/bget.c:995
    51ba:	69fb      	ldr	r3, [r7, #28]
    51bc:	681b      	ldr	r3, [r3, #0]
    51be:	f1c3 0300 	rsb	r3, r3, #0
    51c2:	69fa      	ldr	r2, [r7, #28]
    51c4:	4413      	add	r3, r2
    51c6:	61fb      	str	r3, [r7, #28]
/home/qemu-sgx/devel/optee/optee_os/lib/libutils/isoc/bget.c:996
    51c8:	69fb      	ldr	r3, [r7, #28]
    51ca:	685b      	ldr	r3, [r3, #4]
    51cc:	eba3 0204 	sub.w	r2, r3, r4
    51d0:	69fb      	ldr	r3, [r7, #28]
    51d2:	605a      	str	r2, [r3, #4]
    51d4:	e037      	b.n	5246 <brel+0x19a>
/home/qemu-sgx/devel/optee/optee_os/lib/libutils/isoc/bget.c:1002
    51d6:	68bb      	ldr	r3, [r7, #8]
    51d8:	68db      	ldr	r3, [r3, #12]
    51da:	689a      	ldr	r2, [r3, #8]
    51dc:	68bb      	ldr	r3, [r7, #8]
    51de:	429a      	cmp	r2, r3
    51e0:	d00b      	beq.n	51fa <brel+0x14e>
/home/qemu-sgx/devel/optee/optee_os/lib/libutils/isoc/bget.c:1002 (discriminator 1)
    51e2:	4b6e      	ldr	r3, [pc, #440]	; (539c <brel+0x2f0>)
    51e4:	447b      	add	r3, pc
    51e6:	f240 32ea 	movw	r2, #1002	; 0x3ea
    51ea:	496d      	ldr	r1, [pc, #436]	; (53a0 <brel+0x2f4>)
    51ec:	4479      	add	r1, pc
    51ee:	486d      	ldr	r0, [pc, #436]	; (53a4 <brel+0x2f8>)
    51f0:	4478      	add	r0, pc
    51f2:	f7fd ef78 	blx	30e4 <_assert_log@plt>
    51f6:	f7fe e8ea 	blx	33cc <_assert_break@plt>
/home/qemu-sgx/devel/optee/optee_os/lib/libutils/isoc/bget.c:1003
    51fa:	68bb      	ldr	r3, [r7, #8]
    51fc:	689b      	ldr	r3, [r3, #8]
    51fe:	68da      	ldr	r2, [r3, #12]
    5200:	68bb      	ldr	r3, [r7, #8]
    5202:	429a      	cmp	r2, r3
    5204:	d00b      	beq.n	521e <brel+0x172>
/home/qemu-sgx/devel/optee/optee_os/lib/libutils/isoc/bget.c:1003 (discriminator 1)
    5206:	4b68      	ldr	r3, [pc, #416]	; (53a8 <brel+0x2fc>)
    5208:	447b      	add	r3, pc
    520a:	f240 32eb 	movw	r2, #1003	; 0x3eb
    520e:	4967      	ldr	r1, [pc, #412]	; (53ac <brel+0x300>)
    5210:	4479      	add	r1, pc
    5212:	4867      	ldr	r0, [pc, #412]	; (53b0 <brel+0x304>)
    5214:	4478      	add	r0, pc
    5216:	f7fd ef66 	blx	30e4 <_assert_log@plt>
    521a:	f7fe e8d8 	blx	33cc <_assert_break@plt>
/home/qemu-sgx/devel/optee/optee_os/lib/libutils/isoc/bget.c:1004
    521e:	68ba      	ldr	r2, [r7, #8]
    5220:	69fb      	ldr	r3, [r7, #28]
    5222:	609a      	str	r2, [r3, #8]
/home/qemu-sgx/devel/optee/optee_os/lib/libutils/isoc/bget.c:1005
    5224:	68bb      	ldr	r3, [r7, #8]
    5226:	68da      	ldr	r2, [r3, #12]
    5228:	69fb      	ldr	r3, [r7, #28]
    522a:	60da      	str	r2, [r3, #12]
/home/qemu-sgx/devel/optee/optee_os/lib/libutils/isoc/bget.c:1006
    522c:	68bb      	ldr	r3, [r7, #8]
    522e:	69fa      	ldr	r2, [r7, #28]
    5230:	60da      	str	r2, [r3, #12]
/home/qemu-sgx/devel/optee/optee_os/lib/libutils/isoc/bget.c:1007
    5232:	69fb      	ldr	r3, [r7, #28]
    5234:	68db      	ldr	r3, [r3, #12]
    5236:	69fa      	ldr	r2, [r7, #28]
    5238:	609a      	str	r2, [r3, #8]
/home/qemu-sgx/devel/optee/optee_os/lib/libutils/isoc/bget.c:1008
    523a:	69fb      	ldr	r3, [r7, #28]
    523c:	685b      	ldr	r3, [r3, #4]
    523e:	f1c3 0200 	rsb	r2, r3, #0
    5242:	69fb      	ldr	r3, [r7, #28]
    5244:	605a      	str	r2, [r3, #4]
/home/qemu-sgx/devel/optee/optee_os/lib/libutils/isoc/bget.c:1016
    5246:	69fb      	ldr	r3, [r7, #28]
    5248:	685b      	ldr	r3, [r3, #4]
    524a:	461a      	mov	r2, r3
    524c:	69fb      	ldr	r3, [r7, #28]
    524e:	4413      	add	r3, r2
    5250:	61bb      	str	r3, [r7, #24]
/home/qemu-sgx/devel/optee/optee_os/lib/libutils/isoc/bget.c:1017
    5252:	69bb      	ldr	r3, [r7, #24]
    5254:	685b      	ldr	r3, [r3, #4]
    5256:	2b00      	cmp	r3, #0
    5258:	dd50      	ble.n	52fc <brel+0x250>
/home/qemu-sgx/devel/optee/optee_os/lib/libutils/isoc/bget.c:1022
    525a:	69bb      	ldr	r3, [r7, #24]
    525c:	685b      	ldr	r3, [r3, #4]
    525e:	461a      	mov	r2, r3
    5260:	69bb      	ldr	r3, [r7, #24]
    5262:	4413      	add	r3, r2
    5264:	681a      	ldr	r2, [r3, #0]
    5266:	69bb      	ldr	r3, [r7, #24]
    5268:	685b      	ldr	r3, [r3, #4]
    526a:	429a      	cmp	r2, r3
    526c:	d00b      	beq.n	5286 <brel+0x1da>
/home/qemu-sgx/devel/optee/optee_os/lib/libutils/isoc/bget.c:1022 (discriminator 1)
    526e:	4b51      	ldr	r3, [pc, #324]	; (53b4 <brel+0x308>)
    5270:	447b      	add	r3, pc
    5272:	f240 32fe 	movw	r2, #1022	; 0x3fe
    5276:	4950      	ldr	r1, [pc, #320]	; (53b8 <brel+0x30c>)
    5278:	4479      	add	r1, pc
    527a:	4850      	ldr	r0, [pc, #320]	; (53bc <brel+0x310>)
    527c:	4478      	add	r0, pc
    527e:	f7fd ef32 	blx	30e4 <_assert_log@plt>
    5282:	f7fe e8a4 	blx	33cc <_assert_break@plt>
/home/qemu-sgx/devel/optee/optee_os/lib/libutils/isoc/bget.c:1023
    5286:	69bb      	ldr	r3, [r7, #24]
    5288:	68db      	ldr	r3, [r3, #12]
    528a:	689b      	ldr	r3, [r3, #8]
    528c:	69ba      	ldr	r2, [r7, #24]
    528e:	429a      	cmp	r2, r3
    5290:	d00b      	beq.n	52aa <brel+0x1fe>
/home/qemu-sgx/devel/optee/optee_os/lib/libutils/isoc/bget.c:1023 (discriminator 1)
    5292:	4b4b      	ldr	r3, [pc, #300]	; (53c0 <brel+0x314>)
    5294:	447b      	add	r3, pc
    5296:	f240 32ff 	movw	r2, #1023	; 0x3ff
    529a:	494a      	ldr	r1, [pc, #296]	; (53c4 <brel+0x318>)
    529c:	4479      	add	r1, pc
    529e:	484a      	ldr	r0, [pc, #296]	; (53c8 <brel+0x31c>)
    52a0:	4478      	add	r0, pc
    52a2:	f7fd ef20 	blx	30e4 <_assert_log@plt>
    52a6:	f7fe e892 	blx	33cc <_assert_break@plt>
/home/qemu-sgx/devel/optee/optee_os/lib/libutils/isoc/bget.c:1024
    52aa:	69bb      	ldr	r3, [r7, #24]
    52ac:	689b      	ldr	r3, [r3, #8]
    52ae:	68db      	ldr	r3, [r3, #12]
    52b0:	69ba      	ldr	r2, [r7, #24]
    52b2:	429a      	cmp	r2, r3
    52b4:	d00b      	beq.n	52ce <brel+0x222>
/home/qemu-sgx/devel/optee/optee_os/lib/libutils/isoc/bget.c:1024 (discriminator 1)
    52b6:	4b45      	ldr	r3, [pc, #276]	; (53cc <brel+0x320>)
    52b8:	447b      	add	r3, pc
    52ba:	f44f 6280 	mov.w	r2, #1024	; 0x400
    52be:	4944      	ldr	r1, [pc, #272]	; (53d0 <brel+0x324>)
    52c0:	4479      	add	r1, pc
    52c2:	4844      	ldr	r0, [pc, #272]	; (53d4 <brel+0x328>)
    52c4:	4478      	add	r0, pc
    52c6:	f7fd ef0e 	blx	30e4 <_assert_log@plt>
    52ca:	f7fe e880 	blx	33cc <_assert_break@plt>
/home/qemu-sgx/devel/optee/optee_os/lib/libutils/isoc/bget.c:1025
    52ce:	69bb      	ldr	r3, [r7, #24]
    52d0:	68db      	ldr	r3, [r3, #12]
    52d2:	69ba      	ldr	r2, [r7, #24]
    52d4:	6892      	ldr	r2, [r2, #8]
    52d6:	609a      	str	r2, [r3, #8]
/home/qemu-sgx/devel/optee/optee_os/lib/libutils/isoc/bget.c:1026
    52d8:	69bb      	ldr	r3, [r7, #24]
    52da:	689b      	ldr	r3, [r3, #8]
    52dc:	69ba      	ldr	r2, [r7, #24]
    52de:	68d2      	ldr	r2, [r2, #12]
    52e0:	60da      	str	r2, [r3, #12]
/home/qemu-sgx/devel/optee/optee_os/lib/libutils/isoc/bget.c:1027
    52e2:	69fb      	ldr	r3, [r7, #28]
    52e4:	685a      	ldr	r2, [r3, #4]
    52e6:	69bb      	ldr	r3, [r7, #24]
    52e8:	685b      	ldr	r3, [r3, #4]
    52ea:	441a      	add	r2, r3
    52ec:	69fb      	ldr	r3, [r7, #28]
    52ee:	605a      	str	r2, [r3, #4]
/home/qemu-sgx/devel/optee/optee_os/lib/libutils/isoc/bget.c:1036
    52f0:	69fb      	ldr	r3, [r7, #28]
    52f2:	685b      	ldr	r3, [r3, #4]
    52f4:	461a      	mov	r2, r3
    52f6:	69fb      	ldr	r3, [r7, #28]
    52f8:	4413      	add	r3, r2
    52fa:	61bb      	str	r3, [r7, #24]
/home/qemu-sgx/devel/optee/optee_os/lib/libutils/isoc/bget.c:1038
    52fc:	687b      	ldr	r3, [r7, #4]
    52fe:	2b00      	cmp	r3, #0
    5300:	d00b      	beq.n	531a <brel+0x26e>
/home/qemu-sgx/devel/optee/optee_os/lib/libutils/isoc/bget.c:1039
    5302:	69fb      	ldr	r3, [r7, #28]
    5304:	f103 0010 	add.w	r0, r3, #16
/home/qemu-sgx/devel/optee/optee_os/lib/libutils/isoc/bget.c:1040
    5308:	69fb      	ldr	r3, [r7, #28]
    530a:	685b      	ldr	r3, [r3, #4]
    530c:	f1a3 0310 	sub.w	r3, r3, #16
/home/qemu-sgx/devel/optee/optee_os/lib/libutils/isoc/bget.c:1039
    5310:	461a      	mov	r2, r3
    5312:	f04f 0155 	mov.w	r1, #85	; 0x55
    5316:	f7ff fbdf 	bl	4ad8 <memset_unchecked>
/home/qemu-sgx/devel/optee/optee_os/lib/libutils/isoc/bget.c:1042
    531a:	69bb      	ldr	r3, [r7, #24]
    531c:	685b      	ldr	r3, [r3, #4]
    531e:	2b00      	cmp	r3, #0
    5320:	db0b      	blt.n	533a <brel+0x28e>
/home/qemu-sgx/devel/optee/optee_os/lib/libutils/isoc/bget.c:1042 (discriminator 1)
    5322:	4b2d      	ldr	r3, [pc, #180]	; (53d8 <brel+0x32c>)
    5324:	447b      	add	r3, pc
    5326:	f240 4212 	movw	r2, #1042	; 0x412
    532a:	492c      	ldr	r1, [pc, #176]	; (53dc <brel+0x330>)
    532c:	4479      	add	r1, pc
    532e:	482c      	ldr	r0, [pc, #176]	; (53e0 <brel+0x334>)
    5330:	4478      	add	r0, pc
    5332:	f7fd eed8 	blx	30e4 <_assert_log@plt>
    5336:	f7fe e84a 	blx	33cc <_assert_break@plt>
/home/qemu-sgx/devel/optee/optee_os/lib/libutils/isoc/bget.c:1047
    533a:	69fb      	ldr	r3, [r7, #28]
    533c:	685a      	ldr	r2, [r3, #4]
    533e:	69bb      	ldr	r3, [r7, #24]
    5340:	601a      	str	r2, [r3, #0]
/home/qemu-sgx/devel/optee/optee_os/lib/libutils/isoc/bget.c:1074
    5342:	697b      	ldr	r3, [r7, #20]
    5344:	4619      	mov	r1, r3
    5346:	68f8      	ldr	r0, [r7, #12]
    5348:	f7ff fbac 	bl	4aa4 <tag_asan_free>
/home/qemu-sgx/devel/optee/optee_os/lib/libutils/isoc/bget.c:1075
    534c:	bf00      	nop
    534e:	f107 0724 	add.w	r7, r7, #36	; 0x24
    5352:	46bd      	mov	sp, r7
    5354:	e9dd 4700 	ldrd	r4, r7, [sp]
    5358:	b002      	add	sp, #8
    535a:	f85d fb04 	ldr.w	pc, [sp], #4
    535e:	bf00      	nop
    5360:	00008696 	.word	0x00008696
    5364:	00008276 	.word	0x00008276
    5368:	000083c2 	.word	0x000083c2
    536c:	00008668 	.word	0x00008668
    5370:	00008248 	.word	0x00008248
    5374:	000083a0 	.word	0x000083a0
    5378:	00008634 	.word	0x00008634
    537c:	00008214 	.word	0x00008214
    5380:	0000837c 	.word	0x0000837c
    5384:	00008606 	.word	0x00008606
    5388:	000081e6 	.word	0x000081e6
    538c:	0000837a 	.word	0x0000837a
    5390:	000085cc 	.word	0x000085cc
    5394:	000081ac 	.word	0x000081ac
    5398:	00008358 	.word	0x00008358
    539c:	0000858c 	.word	0x0000858c
    53a0:	0000816c 	.word	0x0000816c
    53a4:	000081fc 	.word	0x000081fc
    53a8:	00008568 	.word	0x00008568
    53ac:	00008148 	.word	0x00008148
    53b0:	00008214 	.word	0x00008214
    53b4:	00008500 	.word	0x00008500
    53b8:	000080e0 	.word	0x000080e0
    53bc:	000082c8 	.word	0x000082c8
    53c0:	000084dc 	.word	0x000084dc
    53c4:	000080bc 	.word	0x000080bc
    53c8:	000082e0 	.word	0x000082e0
    53cc:	000084b8 	.word	0x000084b8
    53d0:	00008098 	.word	0x00008098
    53d4:	000082dc 	.word	0x000082dc
    53d8:	0000844c 	.word	0x0000844c
    53dc:	0000802c 	.word	0x0000802c
    53e0:	00008290 	.word	0x00008290

000053e4 <bpool>:
bpool():
/home/qemu-sgx/devel/optee/optee_os/lib/libutils/isoc/bget.c:1101
    53e4:	e96d 7e02 	strd	r7, lr, [sp, #-8]!
    53e8:	b086      	sub	sp, #24
    53ea:	af00      	add	r7, sp, #0
    53ec:	60f8      	str	r0, [r7, #12]
    53ee:	60b9      	str	r1, [r7, #8]
    53f0:	607a      	str	r2, [r7, #4]
/home/qemu-sgx/devel/optee/optee_os/lib/libutils/isoc/bget.c:1102
    53f2:	68fb      	ldr	r3, [r7, #12]
    53f4:	617b      	str	r3, [r7, #20]
/home/qemu-sgx/devel/optee/optee_os/lib/libutils/isoc/bget.c:1106
    53f6:	68bb      	ldr	r3, [r7, #8]
    53f8:	f023 0307 	bic.w	r3, r3, #7
    53fc:	60bb      	str	r3, [r7, #8]
/home/qemu-sgx/devel/optee/optee_os/lib/libutils/isoc/bget.c:1125
    53fe:	68bb      	ldr	r3, [r7, #8]
    5400:	f1a3 0308 	sub.w	r3, r3, #8
    5404:	2b00      	cmp	r3, #0
    5406:	da0b      	bge.n	5420 <bpool+0x3c>
/home/qemu-sgx/devel/optee/optee_os/lib/libutils/isoc/bget.c:1125 (discriminator 1)
    5408:	4b2c      	ldr	r3, [pc, #176]	; (54bc <bpool+0xd8>)
    540a:	447b      	add	r3, pc
    540c:	f240 4265 	movw	r2, #1125	; 0x465
    5410:	492b      	ldr	r1, [pc, #172]	; (54c0 <bpool+0xdc>)
    5412:	4479      	add	r1, pc
    5414:	482b      	ldr	r0, [pc, #172]	; (54c4 <bpool+0xe0>)
    5416:	4478      	add	r0, pc
    5418:	f7fd ee64 	blx	30e4 <_assert_log@plt>
    541c:	f7fd efd6 	blx	33cc <_assert_break@plt>
/home/qemu-sgx/devel/optee/optee_os/lib/libutils/isoc/bget.c:1131
    5420:	697b      	ldr	r3, [r7, #20]
    5422:	f04f 0200 	mov.w	r2, #0
    5426:	601a      	str	r2, [r3, #0]
/home/qemu-sgx/devel/optee/optee_os/lib/libutils/isoc/bget.c:1135
    5428:	687b      	ldr	r3, [r7, #4]
    542a:	68db      	ldr	r3, [r3, #12]
    542c:	689a      	ldr	r2, [r3, #8]
    542e:	687b      	ldr	r3, [r7, #4]
    5430:	429a      	cmp	r2, r3
    5432:	d00b      	beq.n	544c <bpool+0x68>
/home/qemu-sgx/devel/optee/optee_os/lib/libutils/isoc/bget.c:1135 (discriminator 1)
    5434:	4b24      	ldr	r3, [pc, #144]	; (54c8 <bpool+0xe4>)
    5436:	447b      	add	r3, pc
    5438:	f240 426f 	movw	r2, #1135	; 0x46f
    543c:	4923      	ldr	r1, [pc, #140]	; (54cc <bpool+0xe8>)
    543e:	4479      	add	r1, pc
    5440:	4823      	ldr	r0, [pc, #140]	; (54d0 <bpool+0xec>)
    5442:	4478      	add	r0, pc
    5444:	f7fd ee4e 	blx	30e4 <_assert_log@plt>
    5448:	f7fd efc0 	blx	33cc <_assert_break@plt>
/home/qemu-sgx/devel/optee/optee_os/lib/libutils/isoc/bget.c:1136
    544c:	687b      	ldr	r3, [r7, #4]
    544e:	689b      	ldr	r3, [r3, #8]
    5450:	68da      	ldr	r2, [r3, #12]
    5452:	687b      	ldr	r3, [r7, #4]
    5454:	429a      	cmp	r2, r3
    5456:	d00b      	beq.n	5470 <bpool+0x8c>
/home/qemu-sgx/devel/optee/optee_os/lib/libutils/isoc/bget.c:1136 (discriminator 1)
    5458:	4b1e      	ldr	r3, [pc, #120]	; (54d4 <bpool+0xf0>)
    545a:	447b      	add	r3, pc
    545c:	f44f 628e 	mov.w	r2, #1136	; 0x470
    5460:	491d      	ldr	r1, [pc, #116]	; (54d8 <bpool+0xf4>)
    5462:	4479      	add	r1, pc
    5464:	481d      	ldr	r0, [pc, #116]	; (54dc <bpool+0xf8>)
    5466:	4478      	add	r0, pc
    5468:	f7fd ee3c 	blx	30e4 <_assert_log@plt>
    546c:	f7fd efae 	blx	33cc <_assert_break@plt>
/home/qemu-sgx/devel/optee/optee_os/lib/libutils/isoc/bget.c:1137
    5470:	687a      	ldr	r2, [r7, #4]
    5472:	697b      	ldr	r3, [r7, #20]
    5474:	609a      	str	r2, [r3, #8]
/home/qemu-sgx/devel/optee/optee_os/lib/libutils/isoc/bget.c:1138
    5476:	687b      	ldr	r3, [r7, #4]
    5478:	68da      	ldr	r2, [r3, #12]
    547a:	697b      	ldr	r3, [r7, #20]
    547c:	60da      	str	r2, [r3, #12]
/home/qemu-sgx/devel/optee/optee_os/lib/libutils/isoc/bget.c:1139
    547e:	687b      	ldr	r3, [r7, #4]
    5480:	697a      	ldr	r2, [r7, #20]
    5482:	60da      	str	r2, [r3, #12]
/home/qemu-sgx/devel/optee/optee_os/lib/libutils/isoc/bget.c:1140
    5484:	697b      	ldr	r3, [r7, #20]
    5486:	68db      	ldr	r3, [r3, #12]
    5488:	697a      	ldr	r2, [r7, #20]
    548a:	609a      	str	r2, [r3, #8]
/home/qemu-sgx/devel/optee/optee_os/lib/libutils/isoc/bget.c:1150
    548c:	68bb      	ldr	r3, [r7, #8]
    548e:	f1a3 0308 	sub.w	r3, r3, #8
    5492:	60bb      	str	r3, [r7, #8]
/home/qemu-sgx/devel/optee/optee_os/lib/libutils/isoc/bget.c:1151
    5494:	697b      	ldr	r3, [r7, #20]
    5496:	68ba      	ldr	r2, [r7, #8]
    5498:	605a      	str	r2, [r3, #4]
/home/qemu-sgx/devel/optee/optee_os/lib/libutils/isoc/bget.c:1156
    549a:	68bb      	ldr	r3, [r7, #8]
    549c:	697a      	ldr	r2, [r7, #20]
    549e:	4413      	add	r3, r2
    54a0:	613b      	str	r3, [r7, #16]
/home/qemu-sgx/devel/optee/optee_os/lib/libutils/isoc/bget.c:1157
    54a2:	693b      	ldr	r3, [r7, #16]
    54a4:	68ba      	ldr	r2, [r7, #8]
    54a6:	601a      	str	r2, [r3, #0]
/home/qemu-sgx/devel/optee/optee_os/lib/libutils/isoc/bget.c:1160
    54a8:	693b      	ldr	r3, [r7, #16]
    54aa:	f04f 4200 	mov.w	r2, #2147483648	; 0x80000000
    54ae:	605a      	str	r2, [r3, #4]
/home/qemu-sgx/devel/optee/optee_os/lib/libutils/isoc/bget.c:1161
    54b0:	bf00      	nop
    54b2:	f107 0718 	add.w	r7, r7, #24
    54b6:	46bd      	mov	sp, r7
    54b8:	bd80      	pop	{r7, pc}
    54ba:	bf00      	nop
    54bc:	0000836e 	.word	0x0000836e
    54c0:	00007f46 	.word	0x00007f46
    54c4:	000081be 	.word	0x000081be
    54c8:	00008342 	.word	0x00008342
    54cc:	00007f1a 	.word	0x00007f1a
    54d0:	00007faa 	.word	0x00007faa
    54d4:	0000831e 	.word	0x0000831e
    54d8:	00007ef6 	.word	0x00007ef6
    54dc:	00007fc2 	.word	0x00007fc2

000054e0 <bstats>:
bstats():
/home/qemu-sgx/devel/optee/optee_os/lib/libutils/isoc/bget.c:1171
    54e0:	e96d 7e02 	strd	r7, lr, [sp, #-8]!
    54e4:	b086      	sub	sp, #24
    54e6:	af00      	add	r7, sp, #0
    54e8:	60f8      	str	r0, [r7, #12]
    54ea:	60b9      	str	r1, [r7, #8]
    54ec:	607a      	str	r2, [r7, #4]
    54ee:	603b      	str	r3, [r7, #0]
/home/qemu-sgx/devel/optee/optee_os/lib/libutils/isoc/bget.c:1172
    54f0:	6a7b      	ldr	r3, [r7, #36]	; 0x24
    54f2:	689b      	ldr	r3, [r3, #8]
    54f4:	617b      	str	r3, [r7, #20]
/home/qemu-sgx/devel/optee/optee_os/lib/libutils/isoc/bget.c:1174
    54f6:	6a7b      	ldr	r3, [r7, #36]	; 0x24
    54f8:	695a      	ldr	r2, [r3, #20]
    54fa:	683b      	ldr	r3, [r7, #0]
    54fc:	601a      	str	r2, [r3, #0]
/home/qemu-sgx/devel/optee/optee_os/lib/libutils/isoc/bget.c:1175
    54fe:	6a7b      	ldr	r3, [r7, #36]	; 0x24
    5500:	699a      	ldr	r2, [r3, #24]
    5502:	6a3b      	ldr	r3, [r7, #32]
    5504:	601a      	str	r2, [r3, #0]
/home/qemu-sgx/devel/optee/optee_os/lib/libutils/isoc/bget.c:1176
    5506:	6a7b      	ldr	r3, [r7, #36]	; 0x24
    5508:	691a      	ldr	r2, [r3, #16]
    550a:	68fb      	ldr	r3, [r7, #12]
    550c:	601a      	str	r2, [r3, #0]
/home/qemu-sgx/devel/optee/optee_os/lib/libutils/isoc/bget.c:1177
    550e:	68bb      	ldr	r3, [r7, #8]
    5510:	f04f 0200 	mov.w	r2, #0
    5514:	601a      	str	r2, [r3, #0]
/home/qemu-sgx/devel/optee/optee_os/lib/libutils/isoc/bget.c:1178
    5516:	687b      	ldr	r3, [r7, #4]
    5518:	f04f 32ff 	mov.w	r2, #4294967295	; 0xffffffff
    551c:	601a      	str	r2, [r3, #0]
/home/qemu-sgx/devel/optee/optee_os/lib/libutils/isoc/bget.c:1179
    551e:	e023      	b.n	5568 <bstats+0x88>
/home/qemu-sgx/devel/optee/optee_os/lib/libutils/isoc/bget.c:1180
    5520:	697b      	ldr	r3, [r7, #20]
    5522:	685b      	ldr	r3, [r3, #4]
    5524:	2b00      	cmp	r3, #0
    5526:	dc0b      	bgt.n	5540 <bstats+0x60>
/home/qemu-sgx/devel/optee/optee_os/lib/libutils/isoc/bget.c:1180 (discriminator 1)
    5528:	4b14      	ldr	r3, [pc, #80]	; (557c <bstats+0x9c>)
    552a:	447b      	add	r3, pc
    552c:	f240 429c 	movw	r2, #1180	; 0x49c
    5530:	4913      	ldr	r1, [pc, #76]	; (5580 <bstats+0xa0>)
    5532:	4479      	add	r1, pc
    5534:	4813      	ldr	r0, [pc, #76]	; (5584 <bstats+0xa4>)
    5536:	4478      	add	r0, pc
    5538:	f7fd edd4 	blx	30e4 <_assert_log@plt>
    553c:	f7fd ef46 	blx	33cc <_assert_break@plt>
/home/qemu-sgx/devel/optee/optee_os/lib/libutils/isoc/bget.c:1181
    5540:	68bb      	ldr	r3, [r7, #8]
    5542:	681a      	ldr	r2, [r3, #0]
    5544:	697b      	ldr	r3, [r7, #20]
    5546:	685b      	ldr	r3, [r3, #4]
    5548:	441a      	add	r2, r3
    554a:	68bb      	ldr	r3, [r7, #8]
    554c:	601a      	str	r2, [r3, #0]
/home/qemu-sgx/devel/optee/optee_os/lib/libutils/isoc/bget.c:1182
    554e:	697b      	ldr	r3, [r7, #20]
    5550:	685a      	ldr	r2, [r3, #4]
    5552:	687b      	ldr	r3, [r7, #4]
    5554:	681b      	ldr	r3, [r3, #0]
    5556:	429a      	cmp	r2, r3
    5558:	dd03      	ble.n	5562 <bstats+0x82>
/home/qemu-sgx/devel/optee/optee_os/lib/libutils/isoc/bget.c:1183
    555a:	697b      	ldr	r3, [r7, #20]
    555c:	685a      	ldr	r2, [r3, #4]
    555e:	687b      	ldr	r3, [r7, #4]
    5560:	601a      	str	r2, [r3, #0]
/home/qemu-sgx/devel/optee/optee_os/lib/libutils/isoc/bget.c:1185
    5562:	697b      	ldr	r3, [r7, #20]
    5564:	689b      	ldr	r3, [r3, #8]
    5566:	617b      	str	r3, [r7, #20]
/home/qemu-sgx/devel/optee/optee_os/lib/libutils/isoc/bget.c:1179
    5568:	6a7b      	ldr	r3, [r7, #36]	; 0x24
    556a:	697a      	ldr	r2, [r7, #20]
    556c:	429a      	cmp	r2, r3
    556e:	d1d7      	bne.n	5520 <bstats+0x40>
/home/qemu-sgx/devel/optee/optee_os/lib/libutils/isoc/bget.c:1187
    5570:	bf00      	nop
    5572:	bf00      	nop
    5574:	f107 0718 	add.w	r7, r7, #24
    5578:	46bd      	mov	sp, r7
    557a:	bd80      	pop	{r7, pc}
    557c:	00008256 	.word	0x00008256
    5580:	00007e26 	.word	0x00007e26
    5584:	000080d6 	.word	0x000080d6

00005588 <myrand>:
myrand():
/home/qemu-sgx/devel/optee/optee_os/lib/libutils/isoc/bget.c:1411
    5588:	f84d 7d04 	str.w	r7, [sp, #-4]!
    558c:	af00      	add	r7, sp, #0
/home/qemu-sgx/devel/optee/optee_os/lib/libutils/isoc/bget.c:1412
    558e:	4b0e      	ldr	r3, [pc, #56]	; (55c8 <myrand+0x40>)
    5590:	447b      	add	r3, pc
    5592:	681a      	ldr	r2, [r3, #0]
    5594:	f644 636d 	movw	r3, #20077	; 0x4e6d
    5598:	f2c4 13c6 	movt	r3, #16838	; 0x41c6
    559c:	fb02 f303 	mul.w	r3, r2, r3
    55a0:	f503 5340 	add.w	r3, r3, #12288	; 0x3000
    55a4:	f103 0339 	add.w	r3, r3, #57	; 0x39
    55a8:	4a08      	ldr	r2, [pc, #32]	; (55cc <myrand+0x44>)
    55aa:	447a      	add	r2, pc
    55ac:	6013      	str	r3, [r2, #0]
/home/qemu-sgx/devel/optee/optee_os/lib/libutils/isoc/bget.c:1413
    55ae:	4b08      	ldr	r3, [pc, #32]	; (55d0 <myrand+0x48>)
    55b0:	447b      	add	r3, pc
    55b2:	681b      	ldr	r3, [r3, #0]
    55b4:	ea4f 4313 	mov.w	r3, r3, lsr #16
    55b8:	f3c3 030e 	ubfx	r3, r3, #0, #15
/home/qemu-sgx/devel/optee/optee_os/lib/libutils/isoc/bget.c:1414
    55bc:	4618      	mov	r0, r3
    55be:	46bd      	mov	sp, r7
    55c0:	f85d 7b04 	ldr.w	r7, [sp], #4
    55c4:	4770      	bx	lr
    55c6:	bf00      	nop
    55c8:	0000ac54 	.word	0x0000ac54
    55cc:	0000ac3a 	.word	0x0000ac3a
    55d0:	0000ac34 	.word	0x0000ac34

000055d4 <mysrand>:
mysrand():
/home/qemu-sgx/devel/optee/optee_os/lib/libutils/isoc/bget.c:1419
    55d4:	f84d 7d04 	str.w	r7, [sp, #-4]!
    55d8:	b083      	sub	sp, #12
    55da:	af00      	add	r7, sp, #0
    55dc:	6078      	str	r0, [r7, #4]
/home/qemu-sgx/devel/optee/optee_os/lib/libutils/isoc/bget.c:1420
    55de:	4b05      	ldr	r3, [pc, #20]	; (55f4 <mysrand+0x20>)
    55e0:	447b      	add	r3, pc
    55e2:	687a      	ldr	r2, [r7, #4]
    55e4:	601a      	str	r2, [r3, #0]
/home/qemu-sgx/devel/optee/optee_os/lib/libutils/isoc/bget.c:1421
    55e6:	bf00      	nop
    55e8:	f107 070c 	add.w	r7, r7, #12
    55ec:	46bd      	mov	sp, r7
    55ee:	f85d 7b04 	ldr.w	r7, [sp], #4
    55f2:	4770      	bx	lr
    55f4:	0000ac04 	.word	0x0000ac04

000055f8 <stats>:
stats():
/home/qemu-sgx/devel/optee/optee_os/lib/libutils/isoc/bget.c:1427
    55f8:	f84d 4d0c 	str.w	r4, [sp, #-12]!
    55fc:	e9cd 7e01 	strd	r7, lr, [sp, #4]
    5600:	b08d      	sub	sp, #52	; 0x34
    5602:	af04      	add	r7, sp, #16
    5604:	6078      	str	r0, [r7, #4]
    5606:	6039      	str	r1, [r7, #0]
/home/qemu-sgx/devel/optee/optee_os/lib/libutils/isoc/bget.c:1438
    5608:	f107 0410 	add.w	r4, r7, #16
    560c:	f107 0214 	add.w	r2, r7, #20
    5610:	f107 0118 	add.w	r1, r7, #24
    5614:	f107 001c 	add.w	r0, r7, #28
    5618:	683b      	ldr	r3, [r7, #0]
    561a:	9301      	str	r3, [sp, #4]
    561c:	f107 030c 	add.w	r3, r7, #12
    5620:	9300      	str	r3, [sp, #0]
    5622:	4623      	mov	r3, r4
    5624:	f7fd ef4a 	blx	34bc <bstats@plt>
/home/qemu-sgx/devel/optee/optee_os/lib/libutils/isoc/bget.c:1439
    5628:	6938      	ldr	r0, [r7, #16]
    562a:	68fc      	ldr	r4, [r7, #12]
    562c:	69fb      	ldr	r3, [r7, #28]
    562e:	69ba      	ldr	r2, [r7, #24]
    5630:	6979      	ldr	r1, [r7, #20]
    5632:	9102      	str	r1, [sp, #8]
    5634:	9201      	str	r2, [sp, #4]
    5636:	9300      	str	r3, [sp, #0]
    5638:	4623      	mov	r3, r4
    563a:	4602      	mov	r2, r0
    563c:	6879      	ldr	r1, [r7, #4]
    563e:	4806      	ldr	r0, [pc, #24]	; (5658 <stats+0x60>)
    5640:	4478      	add	r0, pc
    5642:	f7fd ecb4 	blx	2fac <printf@plt>
/home/qemu-sgx/devel/optee/optee_os/lib/libutils/isoc/bget.c:1450
    5646:	bf00      	nop
    5648:	f107 0724 	add.w	r7, r7, #36	; 0x24
    564c:	46bd      	mov	sp, r7
    564e:	e9dd 4700 	ldrd	r4, r7, [sp]
    5652:	b002      	add	sp, #8
    5654:	f85d fb04 	ldr.w	pc, [sp], #4
    5658:	00007fdc 	.word	0x00007fdc

0000565c <blimit>:
blimit():
/home/qemu-sgx/devel/optee/optee_os/lib/libutils/isoc/bget.c:1548
    565c:	f84d 7d04 	str.w	r7, [sp, #-4]!
    5660:	b083      	sub	sp, #12
    5662:	af00      	add	r7, sp, #0
    5664:	6078      	str	r0, [r7, #4]
/home/qemu-sgx/devel/optee/optee_os/lib/libutils/isoc/bget.c:1549
    5666:	687b      	ldr	r3, [r7, #4]
    5668:	2b03      	cmp	r3, #3
    566a:	d802      	bhi.n	5672 <blimit+0x16>
/home/qemu-sgx/devel/optee/optee_os/lib/libutils/isoc/bget.c:1550
    566c:	f04f 0304 	mov.w	r3, #4
    5670:	607b      	str	r3, [r7, #4]
/home/qemu-sgx/devel/optee/optee_os/lib/libutils/isoc/bget.c:1562
    5672:	687a      	ldr	r2, [r7, #4]
    5674:	f44f 6354 	mov.w	r3, #3392	; 0xd40
    5678:	f2c0 0303 	movt	r3, #3
    567c:	429a      	cmp	r2, r3
    567e:	dd04      	ble.n	568a <blimit+0x2e>
/home/qemu-sgx/devel/optee/optee_os/lib/libutils/isoc/bget.c:1563
    5680:	f44f 6354 	mov.w	r3, #3392	; 0xd40
    5684:	f2c0 0303 	movt	r3, #3
    5688:	607b      	str	r3, [r7, #4]
/home/qemu-sgx/devel/optee/optee_os/lib/libutils/isoc/bget.c:1566
    568a:	687b      	ldr	r3, [r7, #4]
/home/qemu-sgx/devel/optee/optee_os/lib/libutils/isoc/bget.c:1567
    568c:	4618      	mov	r0, r3
    568e:	f107 070c 	add.w	r7, r7, #12
    5692:	46bd      	mov	sp, r7
    5694:	f85d 7b04 	ldr.w	r7, [sp], #4
    5698:	4770      	bx	lr

0000569a <bget_main_test>:
bget_main_test():
/home/qemu-sgx/devel/optee/optee_os/lib/libutils/isoc/bget.c:1570
    569a:	f84d 4d0c 	str.w	r4, [sp, #-12]!
    569e:	e9cd 7e01 	strd	r7, lr, [sp, #4]
    56a2:	b095      	sub	sp, #84	; 0x54
    56a4:	af02      	add	r7, sp, #8
    56a6:	6078      	str	r0, [r7, #4]
    56a8:	6039      	str	r1, [r7, #0]
/home/qemu-sgx/devel/optee/optee_os/lib/libutils/isoc/bget.c:1576
    56aa:	4bda      	ldr	r3, [pc, #872]	; (5a14 <bget_main_test+0x37a>)
    56ac:	447b      	add	r3, pc
    56ae:	687a      	ldr	r2, [r7, #4]
    56b0:	601a      	str	r2, [r3, #0]
/home/qemu-sgx/devel/optee/optee_os/lib/libutils/isoc/bget.c:1577
    56b2:	4bd9      	ldr	r3, [pc, #868]	; (5a18 <bget_main_test+0x37e>)
    56b4:	447b      	add	r3, pc
    56b6:	683a      	ldr	r2, [r7, #0]
    56b8:	601a      	str	r2, [r3, #0]
/home/qemu-sgx/devel/optee/optee_os/lib/libutils/isoc/bget.c:1583
    56ba:	f240 40d2 	movw	r0, #1234	; 0x4d2
    56be:	f7ff ff89 	bl	55d4 <mysrand>
/home/qemu-sgx/devel/optee/optee_os/lib/libutils/isoc/bget.c:1601
    56c2:	4bd6      	ldr	r3, [pc, #856]	; (5a1c <bget_main_test+0x382>)
    56c4:	447b      	add	r3, pc
    56c6:	681b      	ldr	r3, [r3, #0]
    56c8:	f24c 3050 	movw	r0, #50000	; 0xc350
    56cc:	4798      	blx	r3
    56ce:	4602      	mov	r2, r0
    56d0:	4bd3      	ldr	r3, [pc, #844]	; (5a20 <bget_main_test+0x386>)
    56d2:	447b      	add	r3, pc
    56d4:	601a      	str	r2, [r3, #0]
/home/qemu-sgx/devel/optee/optee_os/lib/libutils/isoc/bget.c:1602
    56d6:	4bd3      	ldr	r3, [pc, #844]	; (5a24 <bget_main_test+0x38a>)
    56d8:	447b      	add	r3, pc
    56da:	681b      	ldr	r3, [r3, #0]
    56dc:	2b00      	cmp	r3, #0
    56de:	d10b      	bne.n	56f8 <bget_main_test+0x5e>
/home/qemu-sgx/devel/optee/optee_os/lib/libutils/isoc/bget.c:1602 (discriminator 1)
    56e0:	4bd1      	ldr	r3, [pc, #836]	; (5a28 <bget_main_test+0x38e>)
    56e2:	447b      	add	r3, pc
    56e4:	f240 6242 	movw	r2, #1602	; 0x642
    56e8:	49d0      	ldr	r1, [pc, #832]	; (5a2c <bget_main_test+0x392>)
    56ea:	4479      	add	r1, pc
    56ec:	48d0      	ldr	r0, [pc, #832]	; (5a30 <bget_main_test+0x396>)
    56ee:	4478      	add	r0, pc
    56f0:	f7fd ecf8 	blx	30e4 <_assert_log@plt>
    56f4:	f7fd ee6a 	blx	33cc <_assert_break@plt>
/home/qemu-sgx/devel/optee/optee_os/lib/libutils/isoc/bget.c:1603
    56f8:	4bce      	ldr	r3, [pc, #824]	; (5a34 <bget_main_test+0x39a>)
    56fa:	447b      	add	r3, pc
    56fc:	681b      	ldr	r3, [r3, #0]
    56fe:	4ace      	ldr	r2, [pc, #824]	; (5a38 <bget_main_test+0x39e>)
    5700:	447a      	add	r2, pc
    5702:	f24c 3150 	movw	r1, #50000	; 0xc350
    5706:	4618      	mov	r0, r3
    5708:	f7fd edd6 	blx	32b8 <bpool@plt>
/home/qemu-sgx/devel/optee/optee_os/lib/libutils/isoc/bget.c:1606
    570c:	4bcb      	ldr	r3, [pc, #812]	; (5a3c <bget_main_test+0x3a2>)
    570e:	447b      	add	r3, pc
    5710:	4619      	mov	r1, r3
    5712:	4bcb      	ldr	r3, [pc, #812]	; (5a40 <bget_main_test+0x3a6>)
    5714:	447b      	add	r3, pc
    5716:	4618      	mov	r0, r3
    5718:	f7ff ff6e 	bl	55f8 <stats>
/home/qemu-sgx/devel/optee/optee_os/lib/libutils/isoc/bget.c:1614
    571c:	f04f 0300 	mov.w	r3, #0
    5720:	647b      	str	r3, [r7, #68]	; 0x44
    5722:	e13e      	b.n	59a2 <bget_main_test+0x308>
/home/qemu-sgx/devel/optee/optee_os/lib/libutils/isoc/bget.c:1619
    5724:	f7ff ff30 	bl	5588 <myrand>
    5728:	4603      	mov	r3, r0
    572a:	f3c3 0410 	ubfx	r4, r3, #0, #17
    572e:	f7ff ff2b 	bl	5588 <myrand>
    5732:	4603      	mov	r3, r0
    5734:	f003 0307 	and.w	r3, r3, #7
    5738:	fa44 f303 	asr.w	r3, r4, r3
    573c:	627b      	str	r3, [r7, #36]	; 0x24
/home/qemu-sgx/devel/optee/optee_os/lib/libutils/isoc/bget.c:1621
    573e:	f04f 0300 	mov.w	r3, #0
    5742:	63fb      	str	r3, [r7, #60]	; 0x3c
/home/qemu-sgx/devel/optee/optee_os/lib/libutils/isoc/bget.c:1622
    5744:	f04f 0300 	mov.w	r3, #0
    5748:	623b      	str	r3, [r7, #32]
/home/qemu-sgx/devel/optee/optee_os/lib/libutils/isoc/bget.c:1624
    574a:	f7fd ed62 	blx	3210 <rand@plt>
    574e:	4603      	mov	r3, r0
    5750:	f003 0303 	and.w	r3, r3, #3
    5754:	2b03      	cmp	r3, #3
    5756:	d00e      	beq.n	5776 <bget_main_test+0xdc>
    5758:	2b03      	cmp	r3, #3
    575a:	dc10      	bgt.n	577e <bget_main_test+0xe4>
    575c:	2b01      	cmp	r3, #1
    575e:	d002      	beq.n	5766 <bget_main_test+0xcc>
    5760:	2b02      	cmp	r3, #2
    5762:	d004      	beq.n	576e <bget_main_test+0xd4>
/home/qemu-sgx/devel/optee/optee_os/lib/libutils/isoc/bget.c:1635
    5764:	e00b      	b.n	577e <bget_main_test+0xe4>
/home/qemu-sgx/devel/optee/optee_os/lib/libutils/isoc/bget.c:1626
    5766:	f04f 0320 	mov.w	r3, #32
    576a:	63fb      	str	r3, [r7, #60]	; 0x3c
/home/qemu-sgx/devel/optee/optee_os/lib/libutils/isoc/bget.c:1627
    576c:	e008      	b.n	5780 <bget_main_test+0xe6>
/home/qemu-sgx/devel/optee/optee_os/lib/libutils/isoc/bget.c:1629
    576e:	f04f 0340 	mov.w	r3, #64	; 0x40
    5772:	63fb      	str	r3, [r7, #60]	; 0x3c
/home/qemu-sgx/devel/optee/optee_os/lib/libutils/isoc/bget.c:1630
    5774:	e004      	b.n	5780 <bget_main_test+0xe6>
/home/qemu-sgx/devel/optee/optee_os/lib/libutils/isoc/bget.c:1632
    5776:	f04f 0380 	mov.w	r3, #128	; 0x80
    577a:	63fb      	str	r3, [r7, #60]	; 0x3c
/home/qemu-sgx/devel/optee/optee_os/lib/libutils/isoc/bget.c:1633
    577c:	e000      	b.n	5780 <bget_main_test+0xe6>
/home/qemu-sgx/devel/optee/optee_os/lib/libutils/isoc/bget.c:1635
    577e:	bf00      	nop
/home/qemu-sgx/devel/optee/optee_os/lib/libutils/isoc/bget.c:1638
    5780:	f7fd ed46 	blx	3210 <rand@plt>
    5784:	4603      	mov	r3, r0
    5786:	f003 0303 	and.w	r3, r3, #3
    578a:	ea4f 03c3 	mov.w	r3, r3, lsl #3
    578e:	623b      	str	r3, [r7, #32]
/home/qemu-sgx/devel/optee/optee_os/lib/libutils/isoc/bget.c:1640
    5790:	6a7b      	ldr	r3, [r7, #36]	; 0x24
    5792:	f5b3 3f00 	cmp.w	r3, #131072	; 0x20000
    5796:	dd0b      	ble.n	57b0 <bget_main_test+0x116>
/home/qemu-sgx/devel/optee/optee_os/lib/libutils/isoc/bget.c:1640 (discriminator 1)
    5798:	4baa      	ldr	r3, [pc, #680]	; (5a44 <bget_main_test+0x3aa>)
    579a:	447b      	add	r3, pc
    579c:	f44f 62cd 	mov.w	r2, #1640	; 0x668
    57a0:	49a9      	ldr	r1, [pc, #676]	; (5a48 <bget_main_test+0x3ae>)
    57a2:	4479      	add	r1, pc
    57a4:	48a9      	ldr	r0, [pc, #676]	; (5a4c <bget_main_test+0x3b2>)
    57a6:	4478      	add	r0, pc
    57a8:	f7fd ec9c 	blx	30e4 <_assert_log@plt>
    57ac:	f7fd ee0e 	blx	33cc <_assert_break@plt>
/home/qemu-sgx/devel/optee/optee_os/lib/libutils/isoc/bget.c:1641
    57b0:	6a78      	ldr	r0, [r7, #36]	; 0x24
    57b2:	f7ff ff53 	bl	565c <blimit>
    57b6:	6278      	str	r0, [r7, #36]	; 0x24
/home/qemu-sgx/devel/optee/optee_os/lib/libutils/isoc/bget.c:1642
    57b8:	f7ff fee6 	bl	5588 <myrand>
    57bc:	4603      	mov	r3, r0
    57be:	f403 6380 	and.w	r3, r3, #1024	; 0x400
    57c2:	2b00      	cmp	r3, #0
    57c4:	d008      	beq.n	57d8 <bget_main_test+0x13e>
/home/qemu-sgx/devel/optee/optee_os/lib/libutils/isoc/bget.c:1643
    57c6:	4ba2      	ldr	r3, [pc, #648]	; (5a50 <bget_main_test+0x3b6>)
    57c8:	447b      	add	r3, pc
    57ca:	6a7a      	ldr	r2, [r7, #36]	; 0x24
    57cc:	6a39      	ldr	r1, [r7, #32]
    57ce:	6bf8      	ldr	r0, [r7, #60]	; 0x3c
    57d0:	f7fd ec76 	blx	30c0 <bgetz@plt>
    57d4:	6438      	str	r0, [r7, #64]	; 0x40
    57d6:	e007      	b.n	57e8 <bget_main_test+0x14e>
/home/qemu-sgx/devel/optee/optee_os/lib/libutils/isoc/bget.c:1645
    57d8:	4b9e      	ldr	r3, [pc, #632]	; (5a54 <bget_main_test+0x3ba>)
    57da:	447b      	add	r3, pc
    57dc:	6a7a      	ldr	r2, [r7, #36]	; 0x24
    57de:	6a39      	ldr	r1, [r7, #32]
    57e0:	6bf8      	ldr	r0, [r7, #60]	; 0x3c
    57e2:	f7fd eddc 	blx	339c <bget@plt>
    57e6:	6438      	str	r0, [r7, #64]	; 0x40
/home/qemu-sgx/devel/optee/optee_os/lib/libutils/isoc/bget.c:1647
    57e8:	6c3b      	ldr	r3, [r7, #64]	; 0x40
    57ea:	2b00      	cmp	r3, #0
    57ec:	d11b      	bne.n	5826 <bget_main_test+0x18c>
/home/qemu-sgx/devel/optee/optee_os/lib/libutils/isoc/bget.c:1651
    57ee:	4b9a      	ldr	r3, [pc, #616]	; (5a58 <bget_main_test+0x3be>)
    57f0:	447b      	add	r3, pc
    57f2:	681b      	ldr	r3, [r3, #0]
    57f4:	613b      	str	r3, [r7, #16]
/home/qemu-sgx/devel/optee/optee_os/lib/libutils/isoc/bget.c:1653
    57f6:	693b      	ldr	r3, [r7, #16]
    57f8:	2b00      	cmp	r3, #0
    57fa:	f000 80cd 	beq.w	5998 <bget_main_test+0x2fe>
/home/qemu-sgx/devel/optee/optee_os/lib/libutils/isoc/bget.c:1656
    57fe:	693b      	ldr	r3, [r7, #16]
    5800:	681b      	ldr	r3, [r3, #0]
    5802:	60fb      	str	r3, [r7, #12]
/home/qemu-sgx/devel/optee/optee_os/lib/libutils/isoc/bget.c:1657
    5804:	68fb      	ldr	r3, [r7, #12]
    5806:	2b00      	cmp	r3, #0
    5808:	f000 80c6 	beq.w	5998 <bget_main_test+0x2fe>
/home/qemu-sgx/devel/optee/optee_os/lib/libutils/isoc/bget.c:1658
    580c:	68fb      	ldr	r3, [r7, #12]
    580e:	681a      	ldr	r2, [r3, #0]
    5810:	693b      	ldr	r3, [r7, #16]
    5812:	601a      	str	r2, [r3, #0]
/home/qemu-sgx/devel/optee/optee_os/lib/libutils/isoc/bget.c:1659
    5814:	f04f 0201 	mov.w	r2, #1
    5818:	4b90      	ldr	r3, [pc, #576]	; (5a5c <bget_main_test+0x3c2>)
    581a:	447b      	add	r3, pc
    581c:	4619      	mov	r1, r3
    581e:	68f8      	ldr	r0, [r7, #12]
    5820:	f7fd ee34 	blx	348c <brel@plt>
/home/qemu-sgx/devel/optee/optee_os/lib/libutils/isoc/bget.c:1662
    5824:	e0b8      	b.n	5998 <bget_main_test+0x2fe>
/home/qemu-sgx/devel/optee/optee_os/lib/libutils/isoc/bget.c:1665
    5826:	6bfb      	ldr	r3, [r7, #60]	; 0x3c
    5828:	2b00      	cmp	r3, #0
    582a:	d015      	beq.n	5858 <bget_main_test+0x1be>
/home/qemu-sgx/devel/optee/optee_os/lib/libutils/isoc/bget.c:1665 (discriminator 1)
    582c:	6c3a      	ldr	r2, [r7, #64]	; 0x40
    582e:	6a3b      	ldr	r3, [r7, #32]
    5830:	4413      	add	r3, r2
    5832:	6bfa      	ldr	r2, [r7, #60]	; 0x3c
    5834:	f102 32ff 	add.w	r2, r2, #4294967295	; 0xffffffff
    5838:	ea03 0302 	and.w	r3, r3, r2
    583c:	2b00      	cmp	r3, #0
    583e:	d00b      	beq.n	5858 <bget_main_test+0x1be>
/home/qemu-sgx/devel/optee/optee_os/lib/libutils/isoc/bget.c:1665 (discriminator 2)
    5840:	4b87      	ldr	r3, [pc, #540]	; (5a60 <bget_main_test+0x3c6>)
    5842:	447b      	add	r3, pc
    5844:	f240 6281 	movw	r2, #1665	; 0x681
    5848:	4986      	ldr	r1, [pc, #536]	; (5a64 <bget_main_test+0x3ca>)
    584a:	4479      	add	r1, pc
    584c:	4886      	ldr	r0, [pc, #536]	; (5a68 <bget_main_test+0x3ce>)
    584e:	4478      	add	r0, pc
    5850:	f7fd ec48 	blx	30e4 <_assert_log@plt>
    5854:	f7fd edba 	blx	33cc <_assert_break@plt>
/home/qemu-sgx/devel/optee/optee_os/lib/libutils/isoc/bget.c:1666
    5858:	4b84      	ldr	r3, [pc, #528]	; (5a6c <bget_main_test+0x3d2>)
    585a:	447b      	add	r3, pc
    585c:	681a      	ldr	r2, [r3, #0]
    585e:	6c3b      	ldr	r3, [r7, #64]	; 0x40
    5860:	601a      	str	r2, [r3, #0]
/home/qemu-sgx/devel/optee/optee_os/lib/libutils/isoc/bget.c:1667
    5862:	4b83      	ldr	r3, [pc, #524]	; (5a70 <bget_main_test+0x3d6>)
    5864:	447b      	add	r3, pc
    5866:	6c3a      	ldr	r2, [r7, #64]	; 0x40
    5868:	601a      	str	r2, [r3, #0]
/home/qemu-sgx/devel/optee/optee_os/lib/libutils/isoc/bget.c:1672
    586a:	f7ff fe8d 	bl	5588 <myrand>
    586e:	4603      	mov	r3, r0
    5870:	f003 0310 	and.w	r3, r3, #16
    5874:	2b00      	cmp	r3, #0
    5876:	d12c      	bne.n	58d2 <bget_main_test+0x238>
/home/qemu-sgx/devel/optee/optee_os/lib/libutils/isoc/bget.c:1673
    5878:	4b7e      	ldr	r3, [pc, #504]	; (5a74 <bget_main_test+0x3da>)
    587a:	447b      	add	r3, pc
    587c:	681b      	ldr	r3, [r3, #0]
    587e:	63bb      	str	r3, [r7, #56]	; 0x38
/home/qemu-sgx/devel/optee/optee_os/lib/libutils/isoc/bget.c:1674
    5880:	f7ff fe82 	bl	5588 <myrand>
    5884:	4603      	mov	r3, r0
    5886:	f003 0303 	and.w	r3, r3, #3
    588a:	637b      	str	r3, [r7, #52]	; 0x34
/home/qemu-sgx/devel/optee/optee_os/lib/libutils/isoc/bget.c:1676
    588c:	e006      	b.n	589c <bget_main_test+0x202>
/home/qemu-sgx/devel/optee/optee_os/lib/libutils/isoc/bget.c:1677
    588e:	6bbb      	ldr	r3, [r7, #56]	; 0x38
    5890:	681b      	ldr	r3, [r3, #0]
    5892:	63bb      	str	r3, [r7, #56]	; 0x38
/home/qemu-sgx/devel/optee/optee_os/lib/libutils/isoc/bget.c:1678
    5894:	6b7b      	ldr	r3, [r7, #52]	; 0x34
    5896:	f103 33ff 	add.w	r3, r3, #4294967295	; 0xffffffff
    589a:	637b      	str	r3, [r7, #52]	; 0x34
/home/qemu-sgx/devel/optee/optee_os/lib/libutils/isoc/bget.c:1676
    589c:	6b7b      	ldr	r3, [r7, #52]	; 0x34
    589e:	2b00      	cmp	r3, #0
    58a0:	dd02      	ble.n	58a8 <bget_main_test+0x20e>
/home/qemu-sgx/devel/optee/optee_os/lib/libutils/isoc/bget.c:1676 (discriminator 1)
    58a2:	6bbb      	ldr	r3, [r7, #56]	; 0x38
    58a4:	2b00      	cmp	r3, #0
    58a6:	d1f2      	bne.n	588e <bget_main_test+0x1f4>
/home/qemu-sgx/devel/optee/optee_os/lib/libutils/isoc/bget.c:1680
    58a8:	6bbb      	ldr	r3, [r7, #56]	; 0x38
    58aa:	2b00      	cmp	r3, #0
    58ac:	d011      	beq.n	58d2 <bget_main_test+0x238>
/home/qemu-sgx/devel/optee/optee_os/lib/libutils/isoc/bget.c:1683
    58ae:	6bbb      	ldr	r3, [r7, #56]	; 0x38
    58b0:	681b      	ldr	r3, [r3, #0]
    58b2:	61fb      	str	r3, [r7, #28]
/home/qemu-sgx/devel/optee/optee_os/lib/libutils/isoc/bget.c:1684
    58b4:	69fb      	ldr	r3, [r7, #28]
    58b6:	2b00      	cmp	r3, #0
    58b8:	d00b      	beq.n	58d2 <bget_main_test+0x238>
/home/qemu-sgx/devel/optee/optee_os/lib/libutils/isoc/bget.c:1685
    58ba:	69fb      	ldr	r3, [r7, #28]
    58bc:	681a      	ldr	r2, [r3, #0]
    58be:	6bbb      	ldr	r3, [r7, #56]	; 0x38
    58c0:	601a      	str	r2, [r3, #0]
/home/qemu-sgx/devel/optee/optee_os/lib/libutils/isoc/bget.c:1686
    58c2:	f04f 0201 	mov.w	r2, #1
    58c6:	4b6c      	ldr	r3, [pc, #432]	; (5a78 <bget_main_test+0x3de>)
    58c8:	447b      	add	r3, pc
    58ca:	4619      	mov	r1, r3
    58cc:	69f8      	ldr	r0, [r7, #28]
    58ce:	f7fd edde 	blx	348c <brel@plt>
/home/qemu-sgx/devel/optee/optee_os/lib/libutils/isoc/bget.c:1694
    58d2:	f7ff fe59 	bl	5588 <myrand>
    58d6:	4603      	mov	r3, r0
    58d8:	f003 0320 	and.w	r3, r3, #32
    58dc:	2b00      	cmp	r3, #0
    58de:	d15c      	bne.n	599a <bget_main_test+0x300>
/home/qemu-sgx/devel/optee/optee_os/lib/libutils/isoc/bget.c:1695
    58e0:	4b66      	ldr	r3, [pc, #408]	; (5a7c <bget_main_test+0x3e2>)
    58e2:	447b      	add	r3, pc
    58e4:	681b      	ldr	r3, [r3, #0]
    58e6:	633b      	str	r3, [r7, #48]	; 0x30
/home/qemu-sgx/devel/optee/optee_os/lib/libutils/isoc/bget.c:1696
    58e8:	f7ff fe4e 	bl	5588 <myrand>
    58ec:	4603      	mov	r3, r0
    58ee:	f003 0303 	and.w	r3, r3, #3
    58f2:	62fb      	str	r3, [r7, #44]	; 0x2c
/home/qemu-sgx/devel/optee/optee_os/lib/libutils/isoc/bget.c:1698
    58f4:	e006      	b.n	5904 <bget_main_test+0x26a>
/home/qemu-sgx/devel/optee/optee_os/lib/libutils/isoc/bget.c:1699
    58f6:	6b3b      	ldr	r3, [r7, #48]	; 0x30
    58f8:	681b      	ldr	r3, [r3, #0]
    58fa:	633b      	str	r3, [r7, #48]	; 0x30
/home/qemu-sgx/devel/optee/optee_os/lib/libutils/isoc/bget.c:1700
    58fc:	6afb      	ldr	r3, [r7, #44]	; 0x2c
    58fe:	f103 33ff 	add.w	r3, r3, #4294967295	; 0xffffffff
    5902:	62fb      	str	r3, [r7, #44]	; 0x2c
/home/qemu-sgx/devel/optee/optee_os/lib/libutils/isoc/bget.c:1698
    5904:	6afb      	ldr	r3, [r7, #44]	; 0x2c
    5906:	2b00      	cmp	r3, #0
    5908:	dd02      	ble.n	5910 <bget_main_test+0x276>
/home/qemu-sgx/devel/optee/optee_os/lib/libutils/isoc/bget.c:1698 (discriminator 1)
    590a:	6b3b      	ldr	r3, [r7, #48]	; 0x30
    590c:	2b00      	cmp	r3, #0
    590e:	d1f2      	bne.n	58f6 <bget_main_test+0x25c>
/home/qemu-sgx/devel/optee/optee_os/lib/libutils/isoc/bget.c:1702
    5910:	6b3b      	ldr	r3, [r7, #48]	; 0x30
    5912:	2b00      	cmp	r3, #0
    5914:	d041      	beq.n	599a <bget_main_test+0x300>
/home/qemu-sgx/devel/optee/optee_os/lib/libutils/isoc/bget.c:1705
    5916:	6b3b      	ldr	r3, [r7, #48]	; 0x30
    5918:	681b      	ldr	r3, [r3, #0]
    591a:	61bb      	str	r3, [r7, #24]
/home/qemu-sgx/devel/optee/optee_os/lib/libutils/isoc/bget.c:1706
    591c:	69bb      	ldr	r3, [r7, #24]
    591e:	2b00      	cmp	r3, #0
    5920:	d03b      	beq.n	599a <bget_main_test+0x300>
/home/qemu-sgx/devel/optee/optee_os/lib/libutils/isoc/bget.c:1712
    5922:	f7fd ec76 	blx	3210 <rand@plt>
    5926:	4603      	mov	r3, r0
    5928:	f3c3 0410 	ubfx	r4, r3, #0, #17
    592c:	f7fd ec70 	blx	3210 <rand@plt>
    5930:	4603      	mov	r3, r0
    5932:	f003 0307 	and.w	r3, r3, #7
    5936:	fa44 f303 	asr.w	r3, r4, r3
    593a:	627b      	str	r3, [r7, #36]	; 0x24
/home/qemu-sgx/devel/optee/optee_os/lib/libutils/isoc/bget.c:1714
    593c:	6a78      	ldr	r0, [r7, #36]	; 0x24
    593e:	f7ff fe8d 	bl	565c <blimit>
    5942:	6278      	str	r0, [r7, #36]	; 0x24
/home/qemu-sgx/devel/optee/optee_os/lib/libutils/isoc/bget.c:1718
    5944:	4b4e      	ldr	r3, [pc, #312]	; (5a80 <bget_main_test+0x3e6>)
    5946:	447b      	add	r3, pc
    5948:	9300      	str	r3, [sp, #0]
    594a:	6a7b      	ldr	r3, [r7, #36]	; 0x24
    594c:	6a3a      	ldr	r2, [r7, #32]
    594e:	6bf9      	ldr	r1, [r7, #60]	; 0x3c
    5950:	69b8      	ldr	r0, [r7, #24]
    5952:	f7fd eb9e 	blx	3090 <bgetr@plt>
    5956:	6178      	str	r0, [r7, #20]
/home/qemu-sgx/devel/optee/optee_os/lib/libutils/isoc/bget.c:1722
    5958:	697b      	ldr	r3, [r7, #20]
    595a:	2b00      	cmp	r3, #0
    595c:	d01d      	beq.n	599a <bget_main_test+0x300>
/home/qemu-sgx/devel/optee/optee_os/lib/libutils/isoc/bget.c:1723
    595e:	6bfb      	ldr	r3, [r7, #60]	; 0x3c
    5960:	2b00      	cmp	r3, #0
    5962:	d015      	beq.n	5990 <bget_main_test+0x2f6>
/home/qemu-sgx/devel/optee/optee_os/lib/libutils/isoc/bget.c:1723 (discriminator 1)
    5964:	697a      	ldr	r2, [r7, #20]
    5966:	6a3b      	ldr	r3, [r7, #32]
    5968:	4413      	add	r3, r2
    596a:	6bfa      	ldr	r2, [r7, #60]	; 0x3c
    596c:	f102 32ff 	add.w	r2, r2, #4294967295	; 0xffffffff
    5970:	ea03 0302 	and.w	r3, r3, r2
    5974:	2b00      	cmp	r3, #0
    5976:	d00b      	beq.n	5990 <bget_main_test+0x2f6>
/home/qemu-sgx/devel/optee/optee_os/lib/libutils/isoc/bget.c:1723 (discriminator 2)
    5978:	4b42      	ldr	r3, [pc, #264]	; (5a84 <bget_main_test+0x3ea>)
    597a:	447b      	add	r3, pc
    597c:	f240 62bb 	movw	r2, #1723	; 0x6bb
    5980:	4941      	ldr	r1, [pc, #260]	; (5a88 <bget_main_test+0x3ee>)
    5982:	4479      	add	r1, pc
    5984:	4841      	ldr	r0, [pc, #260]	; (5a8c <bget_main_test+0x3f2>)
    5986:	4478      	add	r0, pc
    5988:	f7fd ebac 	blx	30e4 <_assert_log@plt>
    598c:	f7fd ed1e 	blx	33cc <_assert_break@plt>
/home/qemu-sgx/devel/optee/optee_os/lib/libutils/isoc/bget.c:1725
    5990:	6b3b      	ldr	r3, [r7, #48]	; 0x30
    5992:	697a      	ldr	r2, [r7, #20]
    5994:	601a      	str	r2, [r3, #0]
    5996:	e000      	b.n	599a <bget_main_test+0x300>
/home/qemu-sgx/devel/optee/optee_os/lib/libutils/isoc/bget.c:1662
    5998:	bf00      	nop
/home/qemu-sgx/devel/optee/optee_os/lib/libutils/isoc/bget.c:1614 (discriminator 2)
    599a:	6c7b      	ldr	r3, [r7, #68]	; 0x44
    599c:	f103 0301 	add.w	r3, r3, #1
    59a0:	647b      	str	r3, [r7, #68]	; 0x44
/home/qemu-sgx/devel/optee/optee_os/lib/libutils/isoc/bget.c:1614 (discriminator 1)
    59a2:	6c7b      	ldr	r3, [r7, #68]	; 0x44
    59a4:	f644 621f 	movw	r2, #19999	; 0x4e1f
    59a8:	4293      	cmp	r3, r2
    59aa:	f77f aebb 	ble.w	5724 <bget_main_test+0x8a>
/home/qemu-sgx/devel/optee/optee_os/lib/libutils/isoc/bget.c:1731
    59ae:	4b38      	ldr	r3, [pc, #224]	; (5a90 <bget_main_test+0x3f6>)
    59b0:	447b      	add	r3, pc
    59b2:	4619      	mov	r1, r3
    59b4:	4b37      	ldr	r3, [pc, #220]	; (5a94 <bget_main_test+0x3fa>)
    59b6:	447b      	add	r3, pc
    59b8:	4618      	mov	r0, r3
    59ba:	f7ff fe1d 	bl	55f8 <stats>
/home/qemu-sgx/devel/optee/optee_os/lib/libutils/isoc/bget.c:1741
    59be:	e010      	b.n	59e2 <bget_main_test+0x348>
/home/qemu-sgx/devel/optee/optee_os/lib/libutils/isoc/bget.c:1742
    59c0:	4b35      	ldr	r3, [pc, #212]	; (5a98 <bget_main_test+0x3fe>)
    59c2:	447b      	add	r3, pc
    59c4:	681b      	ldr	r3, [r3, #0]
    59c6:	62bb      	str	r3, [r7, #40]	; 0x28
/home/qemu-sgx/devel/optee/optee_os/lib/libutils/isoc/bget.c:1744
    59c8:	6abb      	ldr	r3, [r7, #40]	; 0x28
    59ca:	681a      	ldr	r2, [r3, #0]
    59cc:	4b33      	ldr	r3, [pc, #204]	; (5a9c <bget_main_test+0x402>)
    59ce:	447b      	add	r3, pc
    59d0:	601a      	str	r2, [r3, #0]
/home/qemu-sgx/devel/optee/optee_os/lib/libutils/isoc/bget.c:1745
    59d2:	f04f 0201 	mov.w	r2, #1
    59d6:	4b32      	ldr	r3, [pc, #200]	; (5aa0 <bget_main_test+0x406>)
    59d8:	447b      	add	r3, pc
    59da:	4619      	mov	r1, r3
    59dc:	6ab8      	ldr	r0, [r7, #40]	; 0x28
    59de:	f7fd ed56 	blx	348c <brel@plt>
/home/qemu-sgx/devel/optee/optee_os/lib/libutils/isoc/bget.c:1741
    59e2:	4b30      	ldr	r3, [pc, #192]	; (5aa4 <bget_main_test+0x40a>)
    59e4:	447b      	add	r3, pc
    59e6:	681b      	ldr	r3, [r3, #0]
    59e8:	2b00      	cmp	r3, #0
    59ea:	d1e9      	bne.n	59c0 <bget_main_test+0x326>
/home/qemu-sgx/devel/optee/optee_os/lib/libutils/isoc/bget.c:1747
    59ec:	4b2e      	ldr	r3, [pc, #184]	; (5aa8 <bget_main_test+0x40e>)
    59ee:	447b      	add	r3, pc
    59f0:	4619      	mov	r1, r3
    59f2:	4b2e      	ldr	r3, [pc, #184]	; (5aac <bget_main_test+0x412>)
    59f4:	447b      	add	r3, pc
    59f6:	4618      	mov	r0, r3
    59f8:	f7ff fdfe 	bl	55f8 <stats>
/home/qemu-sgx/devel/optee/optee_os/lib/libutils/isoc/bget.c:1759
    59fc:	f04f 0300 	mov.w	r3, #0
/home/qemu-sgx/devel/optee/optee_os/lib/libutils/isoc/bget.c:1760
    5a00:	4618      	mov	r0, r3
    5a02:	f107 074c 	add.w	r7, r7, #76	; 0x4c
    5a06:	46bd      	mov	sp, r7
    5a08:	e9dd 4700 	ldrd	r4, r7, [sp]
    5a0c:	b002      	add	sp, #8
    5a0e:	f85d fb04 	ldr.w	pc, [sp], #4
    5a12:	bf00      	nop
    5a14:	0000abc8 	.word	0x0000abc8
    5a18:	0000abc4 	.word	0x0000abc4
    5a1c:	0000abb0 	.word	0x0000abb0
    5a20:	0000ab9e 	.word	0x0000ab9e
    5a24:	0000ab98 	.word	0x0000ab98
    5a28:	000080a6 	.word	0x000080a6
    5a2c:	00007c6e 	.word	0x00007c6e
    5a30:	00007f72 	.word	0x00007f72
    5a34:	0000ab76 	.word	0x0000ab76
    5a38:	0000aae8 	.word	0x0000aae8
    5a3c:	0000aada 	.word	0x0000aada
    5a40:	00007f58 	.word	0x00007f58
    5a44:	00007fee 	.word	0x00007fee
    5a48:	00007bb6 	.word	0x00007bb6
    5a4c:	00007ed2 	.word	0x00007ed2
    5a50:	0000aa20 	.word	0x0000aa20
    5a54:	0000aa0e 	.word	0x0000aa0e
    5a58:	0000aa7c 	.word	0x0000aa7c
    5a5c:	0000a9ce 	.word	0x0000a9ce
    5a60:	00007f46 	.word	0x00007f46
    5a64:	00007b0e 	.word	0x00007b0e
    5a68:	00007e4a 	.word	0x00007e4a
    5a6c:	0000aa12 	.word	0x0000aa12
    5a70:	0000aa08 	.word	0x0000aa08
    5a74:	0000a9f2 	.word	0x0000a9f2
    5a78:	0000a920 	.word	0x0000a920
    5a7c:	0000a98a 	.word	0x0000a98a
    5a80:	0000a8a2 	.word	0x0000a8a2
    5a84:	00007e0e 	.word	0x00007e0e
    5a88:	000079d6 	.word	0x000079d6
    5a8c:	00007d4e 	.word	0x00007d4e
    5a90:	0000a838 	.word	0x0000a838
    5a94:	00007d5a 	.word	0x00007d5a
    5a98:	0000a8aa 	.word	0x0000a8aa
    5a9c:	0000a89e 	.word	0x0000a89e
    5aa0:	0000a810 	.word	0x0000a810
    5aa4:	0000a888 	.word	0x0000a888
    5aa8:	0000a7fa 	.word	0x0000a7fa
    5aac:	00007d30 	.word	0x00007d30

00005ab0 <malloc_lock>:
malloc_lock():
/home/qemu-sgx/devel/optee/optee_os/lib/libutils/isoc/bget_malloc.c:176
    5ab0:	f84d 7d04 	str.w	r7, [sp, #-4]!
    5ab4:	b083      	sub	sp, #12
    5ab6:	af00      	add	r7, sp, #0
    5ab8:	6078      	str	r0, [r7, #4]
/home/qemu-sgx/devel/optee/optee_os/lib/libutils/isoc/bget_malloc.c:177
    5aba:	f04f 0300 	mov.w	r3, #0
/home/qemu-sgx/devel/optee/optee_os/lib/libutils/isoc/bget_malloc.c:178
    5abe:	4618      	mov	r0, r3
    5ac0:	f107 070c 	add.w	r7, r7, #12
    5ac4:	46bd      	mov	sp, r7
    5ac6:	f85d 7b04 	ldr.w	r7, [sp], #4
    5aca:	4770      	bx	lr

00005acc <malloc_unlock>:
malloc_unlock():
/home/qemu-sgx/devel/optee/optee_os/lib/libutils/isoc/bget_malloc.c:182
    5acc:	f84d 7d04 	str.w	r7, [sp, #-4]!
    5ad0:	b083      	sub	sp, #12
    5ad2:	af00      	add	r7, sp, #0
    5ad4:	6078      	str	r0, [r7, #4]
    5ad6:	6039      	str	r1, [r7, #0]
/home/qemu-sgx/devel/optee/optee_os/lib/libutils/isoc/bget_malloc.c:183
    5ad8:	bf00      	nop
    5ada:	f107 070c 	add.w	r7, r7, #12
    5ade:	46bd      	mov	sp, r7
    5ae0:	f85d 7b04 	ldr.w	r7, [sp], #4
    5ae4:	4770      	bx	lr

00005ae6 <print_oom>:
print_oom():
/home/qemu-sgx/devel/optee/optee_os/lib/libutils/isoc/bget_malloc.c:199
    5ae6:	f84d 7d04 	str.w	r7, [sp, #-4]!
    5aea:	b083      	sub	sp, #12
    5aec:	af00      	add	r7, sp, #0
    5aee:	6078      	str	r0, [r7, #4]
    5af0:	6039      	str	r1, [r7, #0]
/home/qemu-sgx/devel/optee/optee_os/lib/libutils/isoc/bget_malloc.c:204
    5af2:	bf00      	nop
    5af4:	f107 070c 	add.w	r7, r7, #12
    5af8:	46bd      	mov	sp, r7
    5afa:	f85d 7b04 	ldr.w	r7, [sp], #4
    5afe:	4770      	bx	lr

00005b00 <raw_malloc_return_hook>:
raw_malloc_return_hook():
/home/qemu-sgx/devel/optee/optee_os/lib/libutils/isoc/bget_malloc.c:210
    5b00:	e96d 7e02 	strd	r7, lr, [sp, #-8]!
    5b04:	b084      	sub	sp, #16
    5b06:	af00      	add	r7, sp, #0
    5b08:	60f8      	str	r0, [r7, #12]
    5b0a:	60b9      	str	r1, [r7, #8]
    5b0c:	607a      	str	r2, [r7, #4]
/home/qemu-sgx/devel/optee/optee_os/lib/libutils/isoc/bget_malloc.c:211
    5b0e:	687b      	ldr	r3, [r7, #4]
    5b10:	691b      	ldr	r3, [r3, #16]
    5b12:	461a      	mov	r2, r3
    5b14:	687b      	ldr	r3, [r7, #4]
    5b16:	6c9b      	ldr	r3, [r3, #72]	; 0x48
    5b18:	429a      	cmp	r2, r3
    5b1a:	d904      	bls.n	5b26 <raw_malloc_return_hook+0x26>
/home/qemu-sgx/devel/optee/optee_os/lib/libutils/isoc/bget_malloc.c:212
    5b1c:	687b      	ldr	r3, [r7, #4]
    5b1e:	691b      	ldr	r3, [r3, #16]
    5b20:	461a      	mov	r2, r3
    5b22:	687b      	ldr	r3, [r7, #4]
    5b24:	649a      	str	r2, [r3, #72]	; 0x48
/home/qemu-sgx/devel/optee/optee_os/lib/libutils/isoc/bget_malloc.c:214
    5b26:	68fb      	ldr	r3, [r7, #12]
    5b28:	2b00      	cmp	r3, #0
    5b2a:	d116      	bne.n	5b5a <raw_malloc_return_hook+0x5a>
/home/qemu-sgx/devel/optee/optee_os/lib/libutils/isoc/bget_malloc.c:215
    5b2c:	687b      	ldr	r3, [r7, #4]
    5b2e:	6d1b      	ldr	r3, [r3, #80]	; 0x50
    5b30:	f103 0201 	add.w	r2, r3, #1
    5b34:	687b      	ldr	r3, [r7, #4]
    5b36:	651a      	str	r2, [r3, #80]	; 0x50
/home/qemu-sgx/devel/optee/optee_os/lib/libutils/isoc/bget_malloc.c:216
    5b38:	6879      	ldr	r1, [r7, #4]
    5b3a:	68b8      	ldr	r0, [r7, #8]
    5b3c:	f7ff ffd3 	bl	5ae6 <print_oom>
/home/qemu-sgx/devel/optee/optee_os/lib/libutils/isoc/bget_malloc.c:217
    5b40:	687b      	ldr	r3, [r7, #4]
    5b42:	6d5b      	ldr	r3, [r3, #84]	; 0x54
    5b44:	68ba      	ldr	r2, [r7, #8]
    5b46:	429a      	cmp	r2, r3
    5b48:	d907      	bls.n	5b5a <raw_malloc_return_hook+0x5a>
/home/qemu-sgx/devel/optee/optee_os/lib/libutils/isoc/bget_malloc.c:218
    5b4a:	687b      	ldr	r3, [r7, #4]
    5b4c:	68ba      	ldr	r2, [r7, #8]
    5b4e:	655a      	str	r2, [r3, #84]	; 0x54
/home/qemu-sgx/devel/optee/optee_os/lib/libutils/isoc/bget_malloc.c:220
    5b50:	687b      	ldr	r3, [r7, #4]
    5b52:	691b      	ldr	r3, [r3, #16]
    5b54:	461a      	mov	r2, r3
/home/qemu-sgx/devel/optee/optee_os/lib/libutils/isoc/bget_malloc.c:219
    5b56:	687b      	ldr	r3, [r7, #4]
    5b58:	659a      	str	r2, [r3, #88]	; 0x58
/home/qemu-sgx/devel/optee/optee_os/lib/libutils/isoc/bget_malloc.c:223
    5b5a:	bf00      	nop
    5b5c:	f107 0710 	add.w	r7, r7, #16
    5b60:	46bd      	mov	sp, r7
    5b62:	bd80      	pop	{r7, pc}

00005b64 <gen_malloc_reset_stats>:
gen_malloc_reset_stats():
/home/qemu-sgx/devel/optee/optee_os/lib/libutils/isoc/bget_malloc.c:226
    5b64:	e96d 7e02 	strd	r7, lr, [sp, #-8]!
    5b68:	b084      	sub	sp, #16
    5b6a:	af00      	add	r7, sp, #0
    5b6c:	6078      	str	r0, [r7, #4]
/home/qemu-sgx/devel/optee/optee_os/lib/libutils/isoc/bget_malloc.c:227
    5b6e:	6878      	ldr	r0, [r7, #4]
    5b70:	f7ff ff9e 	bl	5ab0 <malloc_lock>
    5b74:	60f8      	str	r0, [r7, #12]
/home/qemu-sgx/devel/optee/optee_os/lib/libutils/isoc/bget_malloc.c:229
    5b76:	687b      	ldr	r3, [r7, #4]
    5b78:	f04f 0200 	mov.w	r2, #0
    5b7c:	649a      	str	r2, [r3, #72]	; 0x48
/home/qemu-sgx/devel/optee/optee_os/lib/libutils/isoc/bget_malloc.c:230
    5b7e:	687b      	ldr	r3, [r7, #4]
    5b80:	f04f 0200 	mov.w	r2, #0
    5b84:	651a      	str	r2, [r3, #80]	; 0x50
/home/qemu-sgx/devel/optee/optee_os/lib/libutils/isoc/bget_malloc.c:231
    5b86:	687b      	ldr	r3, [r7, #4]
    5b88:	f04f 0200 	mov.w	r2, #0
    5b8c:	655a      	str	r2, [r3, #84]	; 0x54
/home/qemu-sgx/devel/optee/optee_os/lib/libutils/isoc/bget_malloc.c:232
    5b8e:	687b      	ldr	r3, [r7, #4]
    5b90:	f04f 0200 	mov.w	r2, #0
    5b94:	659a      	str	r2, [r3, #88]	; 0x58
/home/qemu-sgx/devel/optee/optee_os/lib/libutils/isoc/bget_malloc.c:233
    5b96:	68f9      	ldr	r1, [r7, #12]
    5b98:	6878      	ldr	r0, [r7, #4]
    5b9a:	f7ff ff97 	bl	5acc <malloc_unlock>
/home/qemu-sgx/devel/optee/optee_os/lib/libutils/isoc/bget_malloc.c:234
    5b9e:	bf00      	nop
    5ba0:	f107 0710 	add.w	r7, r7, #16
