
out/libos_test_dl.so:     file format elf32-littlearm
out/libos_test_dl.so
architecture: armv7, flags 0x00000150:
HAS_SYMS, DYNAMIC, D_PAGED
start address 0x000034e0

Program Header:
0x70000001 off    0x0000e0cc vaddr 0x0000e0cc paddr 0x0000e0cc align 2**2
         filesz 0x00000628 memsz 0x00000628 flags r--
    LOAD off    0x00000000 vaddr 0x00000000 paddr 0x00000000 align 2**12
         filesz 0x0000e6f4 memsz 0x0000e6f4 flags r-x
    LOAD off    0x0000ef48 vaddr 0x0000ff48 paddr 0x0000ff48 align 2**12
         filesz 0x0000031c memsz 0x00000338 flags rw-
 DYNAMIC off    0x0000ef50 vaddr 0x0000ff50 paddr 0x0000ff50 align 2**2
         filesz 0x000000b0 memsz 0x000000b0 flags rw-
   STACK off    0x00000000 vaddr 0x00000000 paddr 0x00000000 align 2**4
         filesz 0x00000000 memsz 0x00000000 flags rwx
   RELRO off    0x0000ef48 vaddr 0x0000ff48 paddr 0x0000ff48 align 2**0
         filesz 0x000000b8 memsz 0x000000b8 flags r--

Dynamic Section:
  SONAME               b3091a65-9751-4784-abf7-0298a7cc35ba
  INIT_ARRAY           0x0000ff48
  INIT_ARRAYSZ         0x00000008
  HASH                 0x000000f4
  GNU_HASH             0x0000075c
  STRTAB               0x00001be4
  SYMTAB               0x00000eb4
  STRSZ                0x00000fa8
  SYMENT               0x00000010
  PLTGOT               0x00010000
  PLTRELSZ             0x00000390
  PLTREL               0x00000011
  JMPREL               0x00002be4
  REL                  0x00002b8c
  RELSZ                0x00000058
  RELENT               0x00000008
  RELCOUNT             0x00000006
private flags = 5000400: [Version5 EABI] [hard-float ABI]

Sections:
Idx Name          Size      VMA       LMA       File off  Algn
  0 .hash         00000668  000000f4  000000f4  000000f4  2**2
                  CONTENTS, ALLOC, LOAD, READONLY, DATA
  1 .gnu.hash     00000758  0000075c  0000075c  0000075c  2**2
                  CONTENTS, ALLOC, LOAD, READONLY, DATA
  2 .dynsym       00000d30  00000eb4  00000eb4  00000eb4  2**2
                  CONTENTS, ALLOC, LOAD, READONLY, DATA
  3 .dynstr       00000fa8  00001be4  00001be4  00001be4  2**0
                  CONTENTS, ALLOC, LOAD, READONLY, DATA
  4 .rel.dyn      00000058  00002b8c  00002b8c  00002b8c  2**2
                  CONTENTS, ALLOC, LOAD, READONLY, DATA
  5 .rel.plt      00000390  00002be4  00002be4  00002be4  2**2
                  CONTENTS, ALLOC, LOAD, READONLY, DATA
  6 .plt          0000056c  00002f74  00002f74  00002f74  2**2
                  CONTENTS, ALLOC, LOAD, READONLY, CODE
  7 .text         00009d66  000034e0  000034e0  000034e0  2**2
                  CONTENTS, ALLOC, LOAD, READONLY, CODE
  8 .rodata       00000662  0000d248  0000d248  0000d248  2**2
                  CONTENTS, ALLOC, LOAD, READONLY, DATA
  9 .ARM.extab    00000820  0000d8ac  0000d8ac  0000d8ac  2**2
                  CONTENTS, ALLOC, LOAD, READONLY, DATA
 10 .ARM.exidx    00000628  0000e0cc  0000e0cc  0000e0cc  2**2
                  CONTENTS, ALLOC, LOAD, READONLY, DATA
 11 .init_array   00000008  0000ff48  0000ff48  0000ef48  2**2
                  CONTENTS, ALLOC, LOAD, DATA
 12 .dynamic      000000b0  0000ff50  0000ff50  0000ef50  2**2
                  CONTENTS, ALLOC, LOAD, DATA
 13 .got          000001e8  00010000  00010000  0000f000  2**2
                  CONTENTS, ALLOC, LOAD, DATA
 14 .data         0000007c  000101e8  000101e8  0000f1e8  2**2
                  CONTENTS, ALLOC, LOAD, DATA
 15 .bss          0000001c  00010264  00010264  0000f264  2**2
                  ALLOC
 16 .comment      0000005d  00000000  00000000  0000f264  2**0
                  CONTENTS, READONLY
 17 .ARM.attributes 00000035  00000000  00000000  0000f2c1  2**0
                  CONTENTS, READONLY
 18 .debug_aranges 000004b0  00000000  00000000  0000f2f8  2**3
                  CONTENTS, READONLY, DEBUGGING, OCTETS
 19 .debug_info   00006a93  00000000  00000000  0000f7a8  2**0
                  CONTENTS, READONLY, DEBUGGING, OCTETS
 20 .debug_abbrev 00001a6b  00000000  00000000  0001623b  2**0
                  CONTENTS, READONLY, DEBUGGING, OCTETS
 21 .debug_line   00005bc0  00000000  00000000  00017ca6  2**0
                  CONTENTS, READONLY, DEBUGGING, OCTETS
 22 .debug_frame  00002050  00000000  00000000  0001d868  2**2
                  CONTENTS, READONLY, DEBUGGING, OCTETS
 23 .debug_str    0000e908  00000000  00000000  0001f8b8  2**0
                  CONTENTS, READONLY, DEBUGGING, OCTETS
 24 .debug_ranges 00000240  00000000  00000000  0002e1c0  2**3
                  CONTENTS, READONLY, DEBUGGING, OCTETS
 25 .debug_macro  0001105e  00000000  00000000  0002e400  2**0
                  CONTENTS, READONLY, DEBUGGING, OCTETS
SYMBOL TABLE:
000000f4 l    d  .hash	00000000 .hash
0000075c l    d  .gnu.hash	00000000 .gnu.hash
00000eb4 l    d  .dynsym	00000000 .dynsym
00001be4 l    d  .dynstr	00000000 .dynstr
00002b8c l    d  .rel.dyn	00000000 .rel.dyn
00002be4 l    d  .rel.plt	00000000 .rel.plt
00002f74 l    d  .plt	00000000 .plt
000034e0 l    d  .text	00000000 .text
0000d248 l    d  .rodata	00000000 .rodata
0000d8ac l    d  .ARM.extab	00000000 .ARM.extab
0000e0cc l    d  .ARM.exidx	00000000 .ARM.exidx
0000ff48 l    d  .init_array	00000000 .init_array
0000ff50 l    d  .dynamic	00000000 .dynamic
00010000 l    d  .got	00000000 .got
000101e8 l    d  .data	00000000 .data
00010264 l    d  .bss	00000000 .bss
00000000 l    d  .comment	00000000 .comment
00000000 l    d  .ARM.attributes	00000000 .ARM.attributes
00000000 l    d  .debug_aranges	00000000 .debug_aranges
00000000 l    d  .debug_info	00000000 .debug_info
00000000 l    d  .debug_abbrev	00000000 .debug_abbrev
00000000 l    d  .debug_line	00000000 .debug_line
00000000 l    d  .debug_frame	00000000 .debug_frame
00000000 l    d  .debug_str	00000000 .debug_str
00000000 l    d  .debug_ranges	00000000 .debug_ranges
00000000 l    d  .debug_macro	00000000 .debug_macro
00000000 l    df *ABS*	00000000 os_test_lib_dl.c
000034e0 l     F .text	00000048 os_test_shlib_dl_init
00000000 l    df *ABS*	00000000 os_test_lib_dl_cxx.cpp
00010264 l     O .bss	00000004 _ZL24os_test_lib_dl_ctor_test
00003588 l     F .text	00000034 _Z41__static_initialization_and_destruction_0ii
000035bc l     F .text	00000016 _GLOBAL__sub_I_os_test_lib_dl_cxx.cpp
00000000 l    df *ABS*	00000000 aeabi_unwind.c
00000000 l    df *ABS*	00000000 tee_api_panic.c
00003642 l     F .text	00000024 check_res
00003666 l     F .text	00000040 check_access
00000000 l    df *ABS*	00000000 utee_syscalls_a32.o
00000000 l    df *ABS*	00000000 tee_api.c
00010268 l     O .bss	00000004 tee_api_instance_data
00003cf4 l     F .text	000002fe copy_param
00003ff2 l     F .text	00000110 update_out_param
0000d2c4 l     O .rodata	0000000b __func__.0
00000000 l    df *ABS*	00000000 tee_system_pta.c
00004774 l     F .text	00000064 reg_pair_to_64
000047d8 l     F .text	0000003a reg_pair_from_64
00004812 l     F .text	0000007e invoke_system_pta
0001026c l     O .bss	00000004 sess.3
0000d328 l     O .rodata	00000010 uuid.2
0000d338 l     O .rodata	0000000a __func__.1
0000d344 l     O .rodata	00000017 __func__.0
00000000 l    df *ABS*	00000000 bget_malloc.c
00004aa4 l     F .text	0000001a tag_asan_free
00004abe l     F .text	0000001a tag_asan_alloced
00004ad8 l     F .text	00000024 memset_unchecked
00004afc l     F .text	00000024 memcpy_unchecked
00004b20 l     F .text	00000090 buf_get_pos
0000d75c l     O .rodata	00000005 __func__.9
0000d764 l     O .rodata	00000006 __func__.8
0000d76c l     O .rodata	00000006 __func__.7
0000d774 l     O .rodata	00000005 __func__.6
0000d77c l     O .rodata	00000006 __func__.5
0000d784 l     O .rodata	00000007 __func__.4
00010270 l     O .bss	00000004 bchain
00010274 l     O .bss	00000004 bp
000101e8 l     O .data	00000004 next
00010278 l     O .bss	00000004 mymalloc
0001027c l     O .bss	00000004 myfree
000101ec l     O .data	0000001c mypoolset
00005588 l     F .text	0000004c myrand
000055d4 l     F .text	00000024 mysrand
000055f8 l     F .text	00000064 stats
0000565c l     F .text	0000003e blimit
0000d78c l     O .rodata	0000000f __func__.3
00005ab0 l     F .text	0000001c malloc_lock
00005acc l     F .text	0000001a malloc_unlock
00010208 l     O .data	0000005c malloc_ctx
00005ae6 l     F .text	0000001a print_oom
00005b00 l     F .text	00000064 raw_malloc_return_hook
00005b64 l     F .text	00000044 gen_malloc_reset_stats
00005bc4 l     F .text	00000042 gen_malloc_get_stats
00005c2c l     F .text	00000018 raw_malloc_validate_pools
00005c44 l     F .text	0000002c bpool_foreach_iterator_init
00005c70 l     F .text	000000d8 bpool_foreach_pool
0000d79c l     O .rodata	00000013 __func__.2
00005d48 l     F .text	00000076 bpool_foreach
00005dbe l     F .text	0000009c raw_memalign
00005e5a l     F .text	0000002e raw_malloc
00005e88 l     F .text	00000032 raw_free
00005eba l     F .text	000000ca raw_calloc
00005f84 l     F .text	000000ac raw_realloc
00006030 l     F .text	0000005c bget_buf_size
0000d7b0 l     O .rodata	0000000e __func__.1
000060dc l     F .text	0000004c free_helper
0000617c l     F .text	0000002e realloc_unlocked
0000624c l     F .text	00000026 get_payload_start_size
000062ae l     F .text	0000013e gen_malloc_add_pool
0000d7c0 l     O .rodata	00000014 __func__.0
000063ec l     F .text	000000a8 gen_malloc_buffer_is_within_alloced
00006494 l     F .text	000000ba gen_malloc_buffer_overlaps_heap
00000000 l    df *ABS*	00000000 memcpy.c
00000000 l    df *ABS*	00000000 memmove.c
00000000 l    df *ABS*	00000000 memset.c
00000000 l    df *ABS*	00000000 strlen.c
00000000 l    df *ABS*	00000000 trace.c
00006a14 l     F .text	00000054 trace_level_to_string
0000d7f8 l     O .rodata	00000005 lvl_strs.0
00006a68 l     F .text	00000060 print_thread_id
00006ac8 l     F .text	0000001e print_core_id
00000000 l    df *ABS*	00000000 consttime_memcmp.c
00000000 l    df *ABS*	00000000 snprintk.c
0000d800 l     O .rodata	00000011 hexdigits
0000d814 l     O .rodata	00000011 HEXDIGITS
000070a4 l     F .text	00000fe0 kprintf
00007006 l     F .text	0000009e uuid2str
00000000 l    df *ABS*	00000000 memchr.c
00000000 l    df *ABS*	00000000 arm32_aeabi_ldivmod_a32.o
00000000 l    df *ABS*	00000000 arm32_aeabi_ldivmod.c
000081c8 l     F .text	0000012a division_lqr
000082f2 l     F .text	0000007c ul_div_qr
00000000 l    df *ABS*	00000000 assert.c
00000000 l    df *ABS*	00000000 trace_ext.c
00000000 l    df *ABS*	00000000 tee_api_operations.c
00008628 l     F .text	0000006e __tee_alg_get_class
00008696 l     F .text	00000046 __tee_alg_get_main_alg
000086dc l     F .text	00000036 __tee_alg_get_key_type
00008712 l     F .text	0000022e __tee_alg_get_digest_size
00009f00 l     F .text	00000048 init_hash_operation
0000a0fa l     F .text	00000330 tee_buffer_update
00000000 l    df *ABS*	00000000 tee_api_objects.c
00000000 l    df *ABS*	00000000 snprintf.c
00000000 l    df *ABS*	00000000 
0000ff50 l     O *ABS*	00000000 _DYNAMIC
00010000 l     O *ABS*	00000000 _GLOBAL_OFFSET_TABLE_
000085f0 g     F .text	00000038 putchar
0000c6f6 g     F .text	00000164 TEE_PopulateTransientObject
000049d8 g     F .text	000000cc tee_invoke_supp_plugin
000083d0 g     F .text	000000e0 __l_divmod
00009f48 g     F .text	0000005c TEE_DigestUpdate
000046a0 g     F .text	00000046 TEE_Realloc
00009b8a g     F .text	00000232 TEE_SetOperationKey2
00003810 g     F .text	00000034 __utee_check_inout_annotation
00008544 g     F .text	00000074 printf
0000c85a g     F .text	00000048 TEE_InitRefAttribute
0000386c g     F .text	00000014 _utee_log
00004220 g     F .text	00000126 TEE_InvokeTACommand
000036a6 g     F .text	0000005a __utee_check_outbuf_annotation
00003b08 g     F .text	00000014 _utee_cryp_random_number_generate
0000ae80 g     F .text	00000224 TEE_AEEncryptFinal
00006f32 g     F .text	0000002e vsnprintk
000066c2 g     F .text	0000013e memmove
0000d1dc g     F .text	0000003c snprintf
0000c8a2 g     F .text	00000048 TEE_InitValueAttribute
000035f6 g     F .text	00000010 __aeabi_unwind_cpp_pr0
00003a68 g     F .text	00000014 _utee_cryp_obj_restrict_usage
0000c696 g     F .text	00000060 TEE_ResetTransientObject
00003b90 g     F .text	00000018 _utee_asymm_operate
0000a062 g     F .text	00000098 TEE_CipherInit
00003c2c g     F .text	00000014 _utee_storage_free_enum
0000ce50 g     F .text	0000005a TEE_StartPersistentObjectEnumerator
000065a4 g     F .text	0000002c malloc_buffer_overlaps_heap
000039d0 g     F .text	00000014 _utee_hash_init
0000ab72 g     F .text	000000ee TEE_AEInit
00006ae6 g     F .text	00000036 trace_printf
00003ce0 g     F .text	00000014 _utee_cache_operation
000065d0 g     F .text	000000f2 memcpy
00003628 g     F .text	0000001a TEE_Panic
000081b0 g     F .text	00000018 __aeabi_uldivmod
00009dbc g     F .text	00000144 TEE_CopyOperation
000085b8 g     F .text	00000038 puts
00005c06 g     F .text	00000026 malloc_get_stats
00004600 g     F .text	0000002c TEE_GetREETime
0000cd92 g     F .text	0000005a TEE_AllocatePersistentObjectEnumerator
0000b284 g     F .text	000001c2 TEE_AsymmetricEncrypt
00003700 g     F .text	00000040 __utee_check_instring_annotation
0000608c g     F .text	00000050 malloc
0000c9ee g     F .text	00000126 TEE_GenerateKey
0000d218 g     F .text	0000002e vsnprintf
00000000         *UND*	00000000 trace_level
00004fe4 g     F .text	000000c8 bgetr
00003bc0 g     F .text	00000018 _utee_storage_obj_open
0000a42a g     F .text	000001b6 TEE_CipherUpdate
000039e4 g     F .text	00000014 _utee_hash_update
000097f4 g     F .text	000001cc TEE_GetOperationInfoMultiple
00000000         *UND*	00000000 trace_ext_prefix
00003c68 g     F .text	00000014 _utee_storage_next_enum
00004f3c g     F .text	000000a8 bgetz
00004448 g     F .text	0000001c TEE_GetInstanceData
000044fe g     F .text	00000038 TEE_Wait
00003616 g     F .text	00000010 __aeabi_unwind_cpp_pr2
0000472a g     F .text	00000024 TEE_CacheFlush
00006b1c g     F .text	0000030c trace_vprintf
00003bf0 g     F .text	00000014 _utee_storage_obj_del
000084b0 g     F .text	00000048 _assert_log
000039a8 g     F .text	00000014 _utee_cryp_state_copy
00004928 g     F .text	000000b0 tee_unmap
0000aa80 g     F .text	000000f2 TEE_MACCompareFinal
0000cd22 g     F .text	00000070 TEE_RenamePersistentObject
00009fa4 g     F .text	000000be TEE_DigestDoFinal
00003798 g     F .text	00000034 __utee_check_out_annotation
000038d8 g     F .text	00000014 _utee_close_ta_session
0000b446 g     F .text	000001c2 TEE_AsymmetricDecrypt
0000cb14 g     F .text	000000be TEE_OpenPersistentObject
00006e48 g     F .text	000000b4 consttime_memcmp
00003858 g     F .text	00000014 _utee_return
00003880 g     F .text	00000014 __utee_panic
00006290 g     F .text	0000001e free_wipe
00003844 g     F .text	00000014 _utee_panic
00003ccc g     F .text	00000014 _utee_cryp_obj_generate_key
0000c8ea g     F .text	0000004c TEE_CopyObjectAttributes
00003ca4 g     F .text	00000014 _utee_storage_obj_trunc
0000392c g     F .text	00000014 _utee_unmask_cancellation
00006128 g     F .text	00000054 calloc
0000462c g     F .text	00000074 TEE_Malloc
000043e2 g     F .text	00000042 TEE_CheckMemoryAccessRights
0000836e g     F .text	00000062 __ul_divmod
00003894 g     F .text	00000018 _utee_get_property
0000cf6c g     F .text	00000092 TEE_ReadObjectData
0000c3dc g     F .text	000000cc TEE_GetObjectBufferAttribute
0000973c g     F .text	0000004a TEE_FreeOperation
0000c10c g     F .text	0000017e __utee_from_attr
0000ccdc g     F .text	00000046 TEE_CloseAndDeletePersistentObject1
0000b0a4 g     F .text	000001e0 TEE_AEDecryptFinal
00003740 g     F .text	00000058 __utee_check_outstring_annotation
00004464 g     F .text	00000024 TEE_MemMove
00003b78 g     F .text	00000018 _utee_authenc_dec_final
00003c7c g     F .text	00000014 _utee_storage_obj_read
0000a898 g     F .text	00000072 TEE_MACInit
0000b608 g     F .text	000001b4 TEE_AsymmetricSignDigest
00008084 g     F .text	00000114 memchr
0000437a g     F .text	00000034 TEE_UnmaskCancellation
0000c28a g     F .text	0000006e TEE_GetObjectInfo
00003cb8 g     F .text	00000014 _utee_storage_obj_seek
0000acda g     F .text	000001a6 TEE_AEUpdate
0000c636 g     F .text	00000060 TEE_FreeTransientObject
00003918 g     F .text	00000014 _utee_check_access_rights
00003c40 g     F .text	00000014 _utee_storage_reset_enum
0000569a g     F .text	00000416 bget_main_test
0000bb38 g     F .text	00000026 rand
000037cc g     F .text	00000044 __utee_check_attr_in_annotation
00003b48 g     F .text	00000018 _utee_authenc_update_payload
00009786 g     F .text	0000006e TEE_GetOperationInfo
00003a90 g     F .text	00000014 _utee_cryp_obj_alloc
0000bb5e g     F .text	000005ae TEE_IsAlgorithmSupported
00005ba8 g     F .text	0000001c malloc_reset_stats
00006fd2 g     F .text	00000034 __vsprintf
0000397c g     F .text	00000014 _utee_set_ta_time
000038ec g     F .text	00000018 _utee_invoke_ta_command
0000c390 g     F .text	0000004c TEE_RestrictObjectUsage1
000061aa g     F .text	0000004e realloc
000099c0 g     F .text	00000080 TEE_ResetOperation
000044ac g     F .text	00000026 TEE_MemFill
000035d4  w    F .text	00000022 _ZN19OsTestLibDlCtorTestC1Ev
0000654e g     F .text	0000002a malloc_add_pool
0000a90a g     F .text	00000082 TEE_MACUpdate
000035d4  w    F .text	00000022 _ZN19OsTestLibDlCtorTestC2Ev
000069f0 g     F .text	00000024 trace_get_level
0000c344 g     F .text	0000004c TEE_RestrictObjectUsage
0000c59a g     F .text	00000032 TEE_CloseObject
00003a10 g     F .text	00000014 _utee_cipher_init
00003a54 g     F .text	00000014 _utee_cryp_obj_get_info
000053e4 g     F .text	000000fc bpool
00003990 g     F .text	00000018 _utee_cryp_state_alloc
00004346 g     F .text	00000034 TEE_GetCancellationFlag
000045ba g     F .text	00000046 TEE_SetTAPersistentTime
00006800 g     F .text	0000011c memset
00004536 g     F .text	00000084 TEE_GetTAPersistentTime
00006e28 g     F .text	0000001e dhex_dump
0000cbd2 g     F .text	000000d8 TEE_CreatePersistentObject
000043ae g     F .text	00000034 TEE_MaskCancellation
0000ac60 g     F .text	0000007a TEE_AEUpdateAAD
0000d07c g     F .text	0000006c TEE_TruncateObjectData
00003a7c g     F .text	00000014 _utee_cryp_obj_get_attr
00003528 g     F .text	00000020 os_test_shlib_dl_add
0000c2f8 g     F .text	0000004c TEE_GetObjectInfo1
000069a8 g     F .text	00000048 trace_set_level
00003a3c g     F .text	00000018 _utee_cipher_final
0000c4a8 g     F .text	000000f2 TEE_GetObjectValueAttribute
00009a40 g     F .text	0000014a TEE_SetOperationKey
000039bc g     F .text	00000014 _utee_cryp_state_free
000038c0 g     F .text	00000018 _utee_open_ta_session
00003c54 g     F .text	00000014 _utee_storage_start_enum
0000d0e8 g     F .text	000000f4 TEE_SeekObjectData
00004890 g     F .text	00000098 tee_map_zi
000061f8 g     F .text	00000054 memalign
0000a5e0 g     F .text	000002b8 TEE_CipherDoFinal
00003b60 g     F .text	00000018 _utee_authenc_enc_final
00006578 g     F .text	0000002c malloc_buffer_is_within_alloced
00003aa4 g     F .text	00000014 _utee_cryp_obj_close
00000000         *UND*	00000000 os_test_global
00003940 g     F .text	00000014 _utee_mask_cancellation
00003c04 g     F .text	00000014 _utee_storage_obj_rename
0000cffe g     F .text	0000007e TEE_WriteObjectData
0000ce1e g     F .text	00000032 TEE_ResetPersistentObjectEnumerator
00003c90 g     F .text	00000014 _utee_storage_obj_write
00003b34 g     F .text	00000014 _utee_authenc_update_aad
00006efc g     F .text	00000036 snprintk
00003ae0 g     F .text	00000014 _utee_cryp_obj_copy
0000b946 g     F .text	000001c6 TEE_DeriveKey
00004bb0 g     F .text	0000038c bget
0000c5cc g     F .text	0000006a TEE_AllocateTransientObject
00003954 g     F .text	00000014 _utee_wait
000046e6 g     F .text	00000020 TEE_Free
0000474e g     F .text	00000024 TEE_CacheInvalidate
000084f8 g     F .text	00000014 _assert_break
00003968 g     F .text	00000014 _utee_get_time
00008940 g     F .text	00000dfc TEE_AllocateOperation
00003acc g     F .text	00000014 _utee_cryp_obj_populate
0000bb0c g     F .text	0000002c TEE_GenerateRandom
00004488 g     F .text	00000024 TEE_MemCompare
00003a24 g     F .text	00000018 _utee_cipher_update
00006f60 g     F .text	00000072 __vsnprintf
0000cdec g     F .text	00000032 TEE_FreePersistentObjectEnumerator
00004102 g     F .text	000000ee TEE_OpenTASession
0000850c g     F .text	00000024 trace_ext_puts
00008530 g     F .text	00000014 trace_ext_get_thread_id
0000ccaa g     F .text	00000032 TEE_CloseAndDeletePersistentObject
00003af4 g     F .text	00000014 _utee_cryp_derive_key
00003ab8 g     F .text	00000014 _utee_cryp_obj_reset
00004706 g     F .text	00000024 TEE_CacheClean
00003548 g     F .text	00000014 os_test_shlib_dl_panic
000038ac g     F .text	00000014 _utee_get_property_name_to_index
00003b1c g     F .text	00000018 _utee_authenc_init
0000c936 g     F .text	000000b8 TEE_CopyObjectAttributes1
0000691c g     F .text	0000008a strlen
00003606 g     F .text	00000010 __aeabi_unwind_cpp_pr1
00003c18 g     F .text	00000014 _utee_storage_alloc_enum
0000355c g     F .text	0000002c os_test_shlib_dl_cxx_ctor
000044d2 g     F .text	0000002c TEE_GetSystemTime
00003ba8 g     F .text	00000018 _utee_asymm_verify
000050ac g     F .text	00000338 brel
00004424 g     F .text	00000024 TEE_SetInstanceData
00003904 g     F .text	00000014 _utee_get_cancellation_flag
00008198 g     F .text	00000018 __aeabi_ldivmod
0000ceaa g     F .text	000000c2 TEE_GetNextPersistentObject
000041f0 g     F .text	00000030 TEE_CloseTASession
0000b7bc g     F .text	0000018a TEE_AsymmetricVerifyDigest
00003bd8 g     F .text	00000018 _utee_storage_obj_create
00006272 g     F .text	0000001e free
000054e0 g     F .text	000000a8 bstats
0000a98c g     F .text	000000f4 TEE_MACComputeFinal
000039f8 g     F .text	00000018 _utee_hash_final



Disassembly of section .plt:

00002f74 <.plt>:
    2f74:	e52de004 	push	{lr}		; (str lr, [sp, #-4]!)
    2f78:	e59fe004 	ldr	lr, [pc, #4]	; 2f84 <.plt+0x10>
    2f7c:	e08fe00e 	add	lr, pc, lr
    2f80:	e5bef008 	ldr	pc, [lr, #8]!
    2f84:	0000d07c 	.word	0x0000d07c

00002f88 <__l_divmod@plt>:
    2f88:	e28fc600 	add	ip, pc, #0, 12
    2f8c:	e28cca0d 	add	ip, ip, #53248	; 0xd000
    2f90:	e5bcf07c 	ldr	pc, [ip, #124]!	; 0x7c

00002f94 <TEE_SetOperationKey2@plt>:
    2f94:	e28fc600 	add	ip, pc, #0, 12
    2f98:	e28cca0d 	add	ip, ip, #53248	; 0xd000
    2f9c:	e5bcf074 	ldr	pc, [ip, #116]!	; 0x74

00002fa0 <__utee_check_inout_annotation@plt>:
    2fa0:	e28fc600 	add	ip, pc, #0, 12
    2fa4:	e28cca0d 	add	ip, ip, #53248	; 0xd000
    2fa8:	e5bcf06c 	ldr	pc, [ip, #108]!	; 0x6c

00002fac <printf@plt>:
    2fac:	e28fc600 	add	ip, pc, #0, 12
    2fb0:	e28cca0d 	add	ip, ip, #53248	; 0xd000
    2fb4:	e5bcf064 	ldr	pc, [ip, #100]!	; 0x64

00002fb8 <_utee_log@plt>:
    2fb8:	e28fc600 	add	ip, pc, #0, 12
    2fbc:	e28cca0d 	add	ip, ip, #53248	; 0xd000
    2fc0:	e5bcf05c 	ldr	pc, [ip, #92]!	; 0x5c

00002fc4 <TEE_InvokeTACommand@plt>:
    2fc4:	e28fc600 	add	ip, pc, #0, 12
    2fc8:	e28cca0d 	add	ip, ip, #53248	; 0xd000
    2fcc:	e5bcf054 	ldr	pc, [ip, #84]!	; 0x54

00002fd0 <__utee_check_outbuf_annotation@plt>:
    2fd0:	e28fc600 	add	ip, pc, #0, 12
    2fd4:	e28cca0d 	add	ip, ip, #53248	; 0xd000
    2fd8:	e5bcf04c 	ldr	pc, [ip, #76]!	; 0x4c

00002fdc <_utee_cryp_random_number_generate@plt>:
    2fdc:	e28fc600 	add	ip, pc, #0, 12
    2fe0:	e28cca0d 	add	ip, ip, #53248	; 0xd000
    2fe4:	e5bcf044 	ldr	pc, [ip, #68]!	; 0x44

00002fe8 <vsnprintk@plt>:
    2fe8:	e28fc600 	add	ip, pc, #0, 12
    2fec:	e28cca0d 	add	ip, ip, #53248	; 0xd000
    2ff0:	e5bcf03c 	ldr	pc, [ip, #60]!	; 0x3c

00002ff4 <memmove@plt>:
    2ff4:	e28fc600 	add	ip, pc, #0, 12
    2ff8:	e28cca0d 	add	ip, ip, #53248	; 0xd000
    2ffc:	e5bcf034 	ldr	pc, [ip, #52]!	; 0x34

00003000 <_utee_cryp_obj_restrict_usage@plt>:
    3000:	e28fc600 	add	ip, pc, #0, 12
    3004:	e28cca0d 	add	ip, ip, #53248	; 0xd000
    3008:	e5bcf02c 	ldr	pc, [ip, #44]!	; 0x2c

0000300c <TEE_ResetTransientObject@plt>:
    300c:	e28fc600 	add	ip, pc, #0, 12
    3010:	e28cca0d 	add	ip, ip, #53248	; 0xd000
    3014:	e5bcf024 	ldr	pc, [ip, #36]!	; 0x24

00003018 <_utee_asymm_operate@plt>:
    3018:	e28fc600 	add	ip, pc, #0, 12
    301c:	e28cca0d 	add	ip, ip, #53248	; 0xd000
    3020:	e5bcf01c 	ldr	pc, [ip, #28]!

00003024 <_utee_storage_free_enum@plt>:
    3024:	e28fc600 	add	ip, pc, #0, 12
    3028:	e28cca0d 	add	ip, ip, #53248	; 0xd000
    302c:	e5bcf014 	ldr	pc, [ip, #20]!

00003030 <_utee_hash_init@plt>:
    3030:	e28fc600 	add	ip, pc, #0, 12
    3034:	e28cca0d 	add	ip, ip, #53248	; 0xd000
    3038:	e5bcf00c 	ldr	pc, [ip, #12]!

0000303c <trace_printf@plt>:
    303c:	e28fc600 	add	ip, pc, #0, 12
    3040:	e28cca0d 	add	ip, ip, #53248	; 0xd000
    3044:	e5bcf004 	ldr	pc, [ip, #4]!

00003048 <_utee_cache_operation@plt>:
    3048:	e28fc600 	add	ip, pc, #0, 12
    304c:	e28cca0c 	add	ip, ip, #12, 20	; 0xc000
    3050:	e5bcfffc 	ldr	pc, [ip, #4092]!	; 0xffc

00003054 <memcpy@plt>:
    3054:	e28fc600 	add	ip, pc, #0, 12
    3058:	e28cca0c 	add	ip, ip, #12, 20	; 0xc000
    305c:	e5bcfff4 	ldr	pc, [ip, #4084]!	; 0xff4

00003060 <TEE_Panic@plt>:
    3060:	e28fc600 	add	ip, pc, #0, 12
    3064:	e28cca0c 	add	ip, ip, #12, 20	; 0xc000
    3068:	e5bcffec 	ldr	pc, [ip, #4076]!	; 0xfec

0000306c <__aeabi_uldivmod@plt>:
    306c:	e28fc600 	add	ip, pc, #0, 12
    3070:	e28cca0c 	add	ip, ip, #12, 20	; 0xc000
    3074:	e5bcffe4 	ldr	pc, [ip, #4068]!	; 0xfe4

00003078 <malloc@plt>:
    3078:	e28fc600 	add	ip, pc, #0, 12
    307c:	e28cca0c 	add	ip, ip, #12, 20	; 0xc000
    3080:	e5bcffdc 	ldr	pc, [ip, #4060]!	; 0xfdc

00003084 <vsnprintf@plt>:
    3084:	e28fc600 	add	ip, pc, #0, 12
    3088:	e28cca0c 	add	ip, ip, #12, 20	; 0xc000
    308c:	e5bcffd4 	ldr	pc, [ip, #4052]!	; 0xfd4

00003090 <bgetr@plt>:
    3090:	e28fc600 	add	ip, pc, #0, 12
    3094:	e28cca0c 	add	ip, ip, #12, 20	; 0xc000
    3098:	e5bcffcc 	ldr	pc, [ip, #4044]!	; 0xfcc

0000309c <_utee_storage_obj_open@plt>:
    309c:	e28fc600 	add	ip, pc, #0, 12
    30a0:	e28cca0c 	add	ip, ip, #12, 20	; 0xc000
    30a4:	e5bcffc4 	ldr	pc, [ip, #4036]!	; 0xfc4

000030a8 <_utee_hash_update@plt>:
    30a8:	e28fc600 	add	ip, pc, #0, 12
    30ac:	e28cca0c 	add	ip, ip, #12, 20	; 0xc000
    30b0:	e5bcffbc 	ldr	pc, [ip, #4028]!	; 0xfbc

000030b4 <_utee_storage_next_enum@plt>:
    30b4:	e28fc600 	add	ip, pc, #0, 12
    30b8:	e28cca0c 	add	ip, ip, #12, 20	; 0xc000
    30bc:	e5bcffb4 	ldr	pc, [ip, #4020]!	; 0xfb4

000030c0 <bgetz@plt>:
    30c0:	e28fc600 	add	ip, pc, #0, 12
    30c4:	e28cca0c 	add	ip, ip, #12, 20	; 0xc000
    30c8:	e5bcffac 	ldr	pc, [ip, #4012]!	; 0xfac

000030cc <trace_vprintf@plt>:
    30cc:	e28fc600 	add	ip, pc, #0, 12
    30d0:	e28cca0c 	add	ip, ip, #12, 20	; 0xc000
    30d4:	e5bcffa4 	ldr	pc, [ip, #4004]!	; 0xfa4

000030d8 <_utee_storage_obj_del@plt>:
    30d8:	e28fc600 	add	ip, pc, #0, 12
    30dc:	e28cca0c 	add	ip, ip, #12, 20	; 0xc000
    30e0:	e5bcff9c 	ldr	pc, [ip, #3996]!	; 0xf9c

000030e4 <_assert_log@plt>:
    30e4:	e28fc600 	add	ip, pc, #0, 12
    30e8:	e28cca0c 	add	ip, ip, #12, 20	; 0xc000
    30ec:	e5bcff94 	ldr	pc, [ip, #3988]!	; 0xf94

000030f0 <_utee_cryp_state_copy@plt>:
    30f0:	e28fc600 	add	ip, pc, #0, 12
    30f4:	e28cca0c 	add	ip, ip, #12, 20	; 0xc000
    30f8:	e5bcff8c 	ldr	pc, [ip, #3980]!	; 0xf8c

000030fc <tee_unmap@plt>:
    30fc:	e28fc600 	add	ip, pc, #0, 12
    3100:	e28cca0c 	add	ip, ip, #12, 20	; 0xc000
    3104:	e5bcff84 	ldr	pc, [ip, #3972]!	; 0xf84

00003108 <__utee_check_out_annotation@plt>:
    3108:	e28fc600 	add	ip, pc, #0, 12
    310c:	e28cca0c 	add	ip, ip, #12, 20	; 0xc000
    3110:	e5bcff7c 	ldr	pc, [ip, #3964]!	; 0xf7c

00003114 <_utee_close_ta_session@plt>:
    3114:	e28fc600 	add	ip, pc, #0, 12
    3118:	e28cca0c 	add	ip, ip, #12, 20	; 0xc000
    311c:	e5bcff74 	ldr	pc, [ip, #3956]!	; 0xf74

00003120 <consttime_memcmp@plt>:
    3120:	e28fc600 	add	ip, pc, #0, 12
    3124:	e28cca0c 	add	ip, ip, #12, 20	; 0xc000
    3128:	e5bcff6c 	ldr	pc, [ip, #3948]!	; 0xf6c

0000312c <__utee_panic@plt>:
    312c:	e28fc600 	add	ip, pc, #0, 12
    3130:	e28cca0c 	add	ip, ip, #12, 20	; 0xc000
    3134:	e5bcff64 	ldr	pc, [ip, #3940]!	; 0xf64

00003138 <_utee_panic@plt>:
    3138:	e28fc600 	add	ip, pc, #0, 12
    313c:	e28cca0c 	add	ip, ip, #12, 20	; 0xc000
    3140:	e5bcff5c 	ldr	pc, [ip, #3932]!	; 0xf5c

00003144 <_utee_cryp_obj_generate_key@plt>:
    3144:	e28fc600 	add	ip, pc, #0, 12
    3148:	e28cca0c 	add	ip, ip, #12, 20	; 0xc000
    314c:	e5bcff54 	ldr	pc, [ip, #3924]!	; 0xf54

00003150 <_utee_storage_obj_trunc@plt>:
    3150:	e28fc600 	add	ip, pc, #0, 12
    3154:	e28cca0c 	add	ip, ip, #12, 20	; 0xc000
    3158:	e5bcff4c 	ldr	pc, [ip, #3916]!	; 0xf4c

0000315c <_utee_unmask_cancellation@plt>:
    315c:	e28fc600 	add	ip, pc, #0, 12
    3160:	e28cca0c 	add	ip, ip, #12, 20	; 0xc000
    3164:	e5bcff44 	ldr	pc, [ip, #3908]!	; 0xf44

00003168 <calloc@plt>:
    3168:	e28fc600 	add	ip, pc, #0, 12
    316c:	e28cca0c 	add	ip, ip, #12, 20	; 0xc000
    3170:	e5bcff3c 	ldr	pc, [ip, #3900]!	; 0xf3c

00003174 <TEE_Malloc@plt>:
    3174:	e28fc600 	add	ip, pc, #0, 12
    3178:	e28cca0c 	add	ip, ip, #12, 20	; 0xc000
    317c:	e5bcff34 	ldr	pc, [ip, #3892]!	; 0xf34

00003180 <TEE_CheckMemoryAccessRights@plt>:
    3180:	e28fc600 	add	ip, pc, #0, 12
    3184:	e28cca0c 	add	ip, ip, #12, 20	; 0xc000
    3188:	e5bcff2c 	ldr	pc, [ip, #3884]!	; 0xf2c

0000318c <__ul_divmod@plt>:
    318c:	e28fc600 	add	ip, pc, #0, 12
    3190:	e28cca0c 	add	ip, ip, #12, 20	; 0xc000
    3194:	e5bcff24 	ldr	pc, [ip, #3876]!	; 0xf24

00003198 <TEE_FreeOperation@plt>:
    3198:	e28fc600 	add	ip, pc, #0, 12
    319c:	e28cca0c 	add	ip, ip, #12, 20	; 0xc000
    31a0:	e5bcff1c 	ldr	pc, [ip, #3868]!	; 0xf1c

000031a4 <__utee_from_attr@plt>:
    31a4:	e28fc600 	add	ip, pc, #0, 12
    31a8:	e28cca0c 	add	ip, ip, #12, 20	; 0xc000
    31ac:	e5bcff14 	ldr	pc, [ip, #3860]!	; 0xf14

000031b0 <TEE_CloseAndDeletePersistentObject1@plt>:
    31b0:	e28fc600 	add	ip, pc, #0, 12
    31b4:	e28cca0c 	add	ip, ip, #12, 20	; 0xc000
    31b8:	e5bcff0c 	ldr	pc, [ip, #3852]!	; 0xf0c

000031bc <_utee_authenc_dec_final@plt>:
    31bc:	e28fc600 	add	ip, pc, #0, 12
    31c0:	e28cca0c 	add	ip, ip, #12, 20	; 0xc000
    31c4:	e5bcff04 	ldr	pc, [ip, #3844]!	; 0xf04

000031c8 <_utee_storage_obj_read@plt>:
    31c8:	e28fc600 	add	ip, pc, #0, 12
    31cc:	e28cca0c 	add	ip, ip, #12, 20	; 0xc000
    31d0:	e5bcfefc 	ldr	pc, [ip, #3836]!	; 0xefc

000031d4 <memchr@plt>:
    31d4:	e28fc600 	add	ip, pc, #0, 12
    31d8:	e28cca0c 	add	ip, ip, #12, 20	; 0xc000
    31dc:	e5bcfef4 	ldr	pc, [ip, #3828]!	; 0xef4

000031e0 <_utee_storage_obj_seek@plt>:
    31e0:	e28fc600 	add	ip, pc, #0, 12
    31e4:	e28cca0c 	add	ip, ip, #12, 20	; 0xc000
    31e8:	e5bcfeec 	ldr	pc, [ip, #3820]!	; 0xeec

000031ec <TEE_FreeTransientObject@plt>:
    31ec:	e28fc600 	add	ip, pc, #0, 12
    31f0:	e28cca0c 	add	ip, ip, #12, 20	; 0xc000
    31f4:	e5bcfee4 	ldr	pc, [ip, #3812]!	; 0xee4

000031f8 <_utee_check_access_rights@plt>:
    31f8:	e28fc600 	add	ip, pc, #0, 12
    31fc:	e28cca0c 	add	ip, ip, #12, 20	; 0xc000
    3200:	e5bcfedc 	ldr	pc, [ip, #3804]!	; 0xedc

00003204 <_utee_storage_reset_enum@plt>:
    3204:	e28fc600 	add	ip, pc, #0, 12
    3208:	e28cca0c 	add	ip, ip, #12, 20	; 0xc000
    320c:	e5bcfed4 	ldr	pc, [ip, #3796]!	; 0xed4

00003210 <rand@plt>:
    3210:	e28fc600 	add	ip, pc, #0, 12
    3214:	e28cca0c 	add	ip, ip, #12, 20	; 0xc000
    3218:	e5bcfecc 	ldr	pc, [ip, #3788]!	; 0xecc

0000321c <__utee_check_attr_in_annotation@plt>:
    321c:	e28fc600 	add	ip, pc, #0, 12
    3220:	e28cca0c 	add	ip, ip, #12, 20	; 0xc000
    3224:	e5bcfec4 	ldr	pc, [ip, #3780]!	; 0xec4

00003228 <_utee_authenc_update_payload@plt>:
    3228:	e28fc600 	add	ip, pc, #0, 12
    322c:	e28cca0c 	add	ip, ip, #12, 20	; 0xc000
    3230:	e5bcfebc 	ldr	pc, [ip, #3772]!	; 0xebc

00003234 <_utee_cryp_obj_alloc@plt>:
    3234:	e28fc600 	add	ip, pc, #0, 12
    3238:	e28cca0c 	add	ip, ip, #12, 20	; 0xc000
    323c:	e5bcfeb4 	ldr	pc, [ip, #3764]!	; 0xeb4

00003240 <_utee_set_ta_time@plt>:
    3240:	e28fc600 	add	ip, pc, #0, 12
    3244:	e28cca0c 	add	ip, ip, #12, 20	; 0xc000
    3248:	e5bcfeac 	ldr	pc, [ip, #3756]!	; 0xeac

0000324c <_utee_invoke_ta_command@plt>:
    324c:	e28fc600 	add	ip, pc, #0, 12
    3250:	e28cca0c 	add	ip, ip, #12, 20	; 0xc000
    3254:	e5bcfea4 	ldr	pc, [ip, #3748]!	; 0xea4

00003258 <TEE_RestrictObjectUsage1@plt>:
    3258:	e28fc600 	add	ip, pc, #0, 12
    325c:	e28cca0c 	add	ip, ip, #12, 20	; 0xc000
    3260:	e5bcfe9c 	ldr	pc, [ip, #3740]!	; 0xe9c

00003264 <realloc@plt>:
    3264:	e28fc600 	add	ip, pc, #0, 12
    3268:	e28cca0c 	add	ip, ip, #12, 20	; 0xc000
    326c:	e5bcfe94 	ldr	pc, [ip, #3732]!	; 0xe94

00003270 <TEE_ResetOperation@plt>:
    3270:	e28fc600 	add	ip, pc, #0, 12
    3274:	e28cca0c 	add	ip, ip, #12, 20	; 0xc000
    3278:	e5bcfe8c 	ldr	pc, [ip, #3724]!	; 0xe8c

0000327c <TEE_MemFill@plt>:
    327c:	e28fc600 	add	ip, pc, #0, 12
    3280:	e28cca0c 	add	ip, ip, #12, 20	; 0xc000
    3284:	e5bcfe84 	ldr	pc, [ip, #3716]!	; 0xe84

00003288 <_ZN19OsTestLibDlCtorTestC1Ev@plt>:
    3288:	e28fc600 	add	ip, pc, #0, 12
    328c:	e28cca0c 	add	ip, ip, #12, 20	; 0xc000
    3290:	e5bcfe7c 	ldr	pc, [ip, #3708]!	; 0xe7c

00003294 <trace_get_level@plt>:
    3294:	e28fc600 	add	ip, pc, #0, 12
    3298:	e28cca0c 	add	ip, ip, #12, 20	; 0xc000
    329c:	e5bcfe74 	ldr	pc, [ip, #3700]!	; 0xe74

000032a0 <_utee_cipher_init@plt>:
    32a0:	e28fc600 	add	ip, pc, #0, 12
    32a4:	e28cca0c 	add	ip, ip, #12, 20	; 0xc000
    32a8:	e5bcfe6c 	ldr	pc, [ip, #3692]!	; 0xe6c

000032ac <_utee_cryp_obj_get_info@plt>:
    32ac:	e28fc600 	add	ip, pc, #0, 12
    32b0:	e28cca0c 	add	ip, ip, #12, 20	; 0xc000
    32b4:	e5bcfe64 	ldr	pc, [ip, #3684]!	; 0xe64

000032b8 <bpool@plt>:
    32b8:	e28fc600 	add	ip, pc, #0, 12
    32bc:	e28cca0c 	add	ip, ip, #12, 20	; 0xc000
    32c0:	e5bcfe5c 	ldr	pc, [ip, #3676]!	; 0xe5c

000032c4 <_utee_cryp_state_alloc@plt>:
    32c4:	e28fc600 	add	ip, pc, #0, 12
    32c8:	e28cca0c 	add	ip, ip, #12, 20	; 0xc000
    32cc:	e5bcfe54 	ldr	pc, [ip, #3668]!	; 0xe54

000032d0 <memset@plt>:
    32d0:	e28fc600 	add	ip, pc, #0, 12
    32d4:	e28cca0c 	add	ip, ip, #12, 20	; 0xc000
    32d8:	e5bcfe4c 	ldr	pc, [ip, #3660]!	; 0xe4c

000032dc <_utee_cryp_obj_get_attr@plt>:
    32dc:	e28fc600 	add	ip, pc, #0, 12
    32e0:	e28cca0c 	add	ip, ip, #12, 20	; 0xc000
    32e4:	e5bcfe44 	ldr	pc, [ip, #3652]!	; 0xe44

000032e8 <TEE_GetObjectInfo1@plt>:
    32e8:	e28fc600 	add	ip, pc, #0, 12
    32ec:	e28cca0c 	add	ip, ip, #12, 20	; 0xc000
    32f0:	e5bcfe3c 	ldr	pc, [ip, #3644]!	; 0xe3c

000032f4 <_utee_cipher_final@plt>:
    32f4:	e28fc600 	add	ip, pc, #0, 12
    32f8:	e28cca0c 	add	ip, ip, #12, 20	; 0xc000
    32fc:	e5bcfe34 	ldr	pc, [ip, #3636]!	; 0xe34

00003300 <TEE_SetOperationKey@plt>:
    3300:	e28fc600 	add	ip, pc, #0, 12
    3304:	e28cca0c 	add	ip, ip, #12, 20	; 0xc000
    3308:	e5bcfe2c 	ldr	pc, [ip, #3628]!	; 0xe2c

0000330c <_utee_cryp_state_free@plt>:
    330c:	e28fc600 	add	ip, pc, #0, 12
    3310:	e28cca0c 	add	ip, ip, #12, 20	; 0xc000
    3314:	e5bcfe24 	ldr	pc, [ip, #3620]!	; 0xe24

00003318 <_utee_open_ta_session@plt>:
    3318:	e28fc600 	add	ip, pc, #0, 12
    331c:	e28cca0c 	add	ip, ip, #12, 20	; 0xc000
    3320:	e5bcfe1c 	ldr	pc, [ip, #3612]!	; 0xe1c

00003324 <_utee_storage_start_enum@plt>:
    3324:	e28fc600 	add	ip, pc, #0, 12
    3328:	e28cca0c 	add	ip, ip, #12, 20	; 0xc000
    332c:	e5bcfe14 	ldr	pc, [ip, #3604]!	; 0xe14

00003330 <tee_map_zi@plt>:
    3330:	e28fc600 	add	ip, pc, #0, 12
    3334:	e28cca0c 	add	ip, ip, #12, 20	; 0xc000
    3338:	e5bcfe0c 	ldr	pc, [ip, #3596]!	; 0xe0c

0000333c <_utee_authenc_enc_final@plt>:
    333c:	e28fc600 	add	ip, pc, #0, 12
    3340:	e28cca0c 	add	ip, ip, #12, 20	; 0xc000
    3344:	e5bcfe04 	ldr	pc, [ip, #3588]!	; 0xe04

00003348 <_utee_cryp_obj_close@plt>:
    3348:	e28fc600 	add	ip, pc, #0, 12
    334c:	e28cca0c 	add	ip, ip, #12, 20	; 0xc000
    3350:	e5bcfdfc 	ldr	pc, [ip, #3580]!	; 0xdfc

00003354 <_utee_mask_cancellation@plt>:
    3354:	e28fc600 	add	ip, pc, #0, 12
    3358:	e28cca0c 	add	ip, ip, #12, 20	; 0xc000
    335c:	e5bcfdf4 	ldr	pc, [ip, #3572]!	; 0xdf4

00003360 <_utee_storage_obj_rename@plt>:
    3360:	e28fc600 	add	ip, pc, #0, 12
    3364:	e28cca0c 	add	ip, ip, #12, 20	; 0xc000
    3368:	e5bcfdec 	ldr	pc, [ip, #3564]!	; 0xdec

0000336c <_utee_storage_obj_write@plt>:
    336c:	e28fc600 	add	ip, pc, #0, 12
    3370:	e28cca0c 	add	ip, ip, #12, 20	; 0xc000
    3374:	e5bcfde4 	ldr	pc, [ip, #3556]!	; 0xde4

00003378 <_utee_authenc_update_aad@plt>:
    3378:	e28fc600 	add	ip, pc, #0, 12
    337c:	e28cca0c 	add	ip, ip, #12, 20	; 0xc000
    3380:	e5bcfddc 	ldr	pc, [ip, #3548]!	; 0xddc

00003384 <snprintk@plt>:
    3384:	e28fc600 	add	ip, pc, #0, 12
    3388:	e28cca0c 	add	ip, ip, #12, 20	; 0xc000
    338c:	e5bcfdd4 	ldr	pc, [ip, #3540]!	; 0xdd4

00003390 <_utee_cryp_obj_copy@plt>:
    3390:	e28fc600 	add	ip, pc, #0, 12
    3394:	e28cca0c 	add	ip, ip, #12, 20	; 0xc000
    3398:	e5bcfdcc 	ldr	pc, [ip, #3532]!	; 0xdcc

0000339c <bget@plt>:
    339c:	e28fc600 	add	ip, pc, #0, 12
    33a0:	e28cca0c 	add	ip, ip, #12, 20	; 0xc000
    33a4:	e5bcfdc4 	ldr	pc, [ip, #3524]!	; 0xdc4

000033a8 <TEE_AllocateTransientObject@plt>:
    33a8:	e28fc600 	add	ip, pc, #0, 12
    33ac:	e28cca0c 	add	ip, ip, #12, 20	; 0xc000
    33b0:	e5bcfdbc 	ldr	pc, [ip, #3516]!	; 0xdbc

000033b4 <_utee_wait@plt>:
    33b4:	e28fc600 	add	ip, pc, #0, 12
    33b8:	e28cca0c 	add	ip, ip, #12, 20	; 0xc000
    33bc:	e5bcfdb4 	ldr	pc, [ip, #3508]!	; 0xdb4

000033c0 <TEE_Free@plt>:
    33c0:	e28fc600 	add	ip, pc, #0, 12
    33c4:	e28cca0c 	add	ip, ip, #12, 20	; 0xc000
    33c8:	e5bcfdac 	ldr	pc, [ip, #3500]!	; 0xdac

000033cc <_assert_break@plt>:
    33cc:	e28fc600 	add	ip, pc, #0, 12
    33d0:	e28cca0c 	add	ip, ip, #12, 20	; 0xc000
    33d4:	e5bcfda4 	ldr	pc, [ip, #3492]!	; 0xda4

000033d8 <_utee_get_time@plt>:
    33d8:	e28fc600 	add	ip, pc, #0, 12
    33dc:	e28cca0c 	add	ip, ip, #12, 20	; 0xc000
    33e0:	e5bcfd9c 	ldr	pc, [ip, #3484]!	; 0xd9c

000033e4 <_utee_cryp_obj_populate@plt>:
    33e4:	e28fc600 	add	ip, pc, #0, 12
    33e8:	e28cca0c 	add	ip, ip, #12, 20	; 0xc000
    33ec:	e5bcfd94 	ldr	pc, [ip, #3476]!	; 0xd94

000033f0 <TEE_GenerateRandom@plt>:
    33f0:	e28fc600 	add	ip, pc, #0, 12
    33f4:	e28cca0c 	add	ip, ip, #12, 20	; 0xc000
    33f8:	e5bcfd8c 	ldr	pc, [ip, #3468]!	; 0xd8c

000033fc <_utee_cipher_update@plt>:
    33fc:	e28fc600 	add	ip, pc, #0, 12
    3400:	e28cca0c 	add	ip, ip, #12, 20	; 0xc000
    3404:	e5bcfd84 	ldr	pc, [ip, #3460]!	; 0xd84

00003408 <__vsnprintf@plt>:
    3408:	e28fc600 	add	ip, pc, #0, 12
    340c:	e28cca0c 	add	ip, ip, #12, 20	; 0xc000
    3410:	e5bcfd7c 	ldr	pc, [ip, #3452]!	; 0xd7c

00003414 <TEE_OpenTASession@plt>:
    3414:	e28fc600 	add	ip, pc, #0, 12
    3418:	e28cca0c 	add	ip, ip, #12, 20	; 0xc000
    341c:	e5bcfd74 	ldr	pc, [ip, #3444]!	; 0xd74

00003420 <trace_ext_puts@plt>:
    3420:	e28fc600 	add	ip, pc, #0, 12
    3424:	e28cca0c 	add	ip, ip, #12, 20	; 0xc000
    3428:	e5bcfd6c 	ldr	pc, [ip, #3436]!	; 0xd6c

0000342c <trace_ext_get_thread_id@plt>:
    342c:	e28fc600 	add	ip, pc, #0, 12
    3430:	e28cca0c 	add	ip, ip, #12, 20	; 0xc000
    3434:	e5bcfd64 	ldr	pc, [ip, #3428]!	; 0xd64

00003438 <_utee_cryp_derive_key@plt>:
    3438:	e28fc600 	add	ip, pc, #0, 12
    343c:	e28cca0c 	add	ip, ip, #12, 20	; 0xc000
    3440:	e5bcfd5c 	ldr	pc, [ip, #3420]!	; 0xd5c

00003444 <_utee_cryp_obj_reset@plt>:
    3444:	e28fc600 	add	ip, pc, #0, 12
    3448:	e28cca0c 	add	ip, ip, #12, 20	; 0xc000
    344c:	e5bcfd54 	ldr	pc, [ip, #3412]!	; 0xd54

00003450 <_utee_authenc_init@plt>:
    3450:	e28fc600 	add	ip, pc, #0, 12
    3454:	e28cca0c 	add	ip, ip, #12, 20	; 0xc000
    3458:	e5bcfd4c 	ldr	pc, [ip, #3404]!	; 0xd4c

0000345c <TEE_CopyObjectAttributes1@plt>:
    345c:	e28fc600 	add	ip, pc, #0, 12
    3460:	e28cca0c 	add	ip, ip, #12, 20	; 0xc000
    3464:	e5bcfd44 	ldr	pc, [ip, #3396]!	; 0xd44

00003468 <strlen@plt>:
    3468:	e28fc600 	add	ip, pc, #0, 12
    346c:	e28cca0c 	add	ip, ip, #12, 20	; 0xc000
    3470:	e5bcfd3c 	ldr	pc, [ip, #3388]!	; 0xd3c

00003474 <_utee_storage_alloc_enum@plt>:
    3474:	e28fc600 	add	ip, pc, #0, 12
    3478:	e28cca0c 	add	ip, ip, #12, 20	; 0xc000
    347c:	e5bcfd34 	ldr	pc, [ip, #3380]!	; 0xd34

00003480 <_utee_asymm_verify@plt>:
    3480:	e28fc600 	add	ip, pc, #0, 12
    3484:	e28cca0c 	add	ip, ip, #12, 20	; 0xc000
    3488:	e5bcfd2c 	ldr	pc, [ip, #3372]!	; 0xd2c

0000348c <brel@plt>:
    348c:	e28fc600 	add	ip, pc, #0, 12
    3490:	e28cca0c 	add	ip, ip, #12, 20	; 0xc000
    3494:	e5bcfd24 	ldr	pc, [ip, #3364]!	; 0xd24

00003498 <_utee_get_cancellation_flag@plt>:
    3498:	e28fc600 	add	ip, pc, #0, 12
    349c:	e28cca0c 	add	ip, ip, #12, 20	; 0xc000
    34a0:	e5bcfd1c 	ldr	pc, [ip, #3356]!	; 0xd1c

000034a4 <_utee_storage_obj_create@plt>:
    34a4:	e28fc600 	add	ip, pc, #0, 12
    34a8:	e28cca0c 	add	ip, ip, #12, 20	; 0xc000
    34ac:	e5bcfd14 	ldr	pc, [ip, #3348]!	; 0xd14

000034b0 <free@plt>:
    34b0:	e28fc600 	add	ip, pc, #0, 12
    34b4:	e28cca0c 	add	ip, ip, #12, 20	; 0xc000
    34b8:	e5bcfd0c 	ldr	pc, [ip, #3340]!	; 0xd0c

000034bc <bstats@plt>:
    34bc:	e28fc600 	add	ip, pc, #0, 12
    34c0:	e28cca0c 	add	ip, ip, #12, 20	; 0xc000
    34c4:	e5bcfd04 	ldr	pc, [ip, #3332]!	; 0xd04

000034c8 <TEE_MACComputeFinal@plt>:
    34c8:	e28fc600 	add	ip, pc, #0, 12
    34cc:	e28cca0c 	add	ip, ip, #12, 20	; 0xc000
    34d0:	e5bcfcfc 	ldr	pc, [ip, #3324]!	; 0xcfc

000034d4 <_utee_hash_final@plt>:
    34d4:	e28fc600 	add	ip, pc, #0, 12
    34d8:	e28cca0c 	add	ip, ip, #12, 20	; 0xc000
    34dc:	e5bcfcf4 	ldr	pc, [ip, #3316]!	; 0xcf4

Disassembly of section .text:

000034e0 <os_test_shlib_dl_init>:
os_test_shlib_dl_init():
/home/qemu-sgx/devel/optee/out-br/build/optee_test_ext-1.0/ta/os_test_lib_dl/os_test_lib_dl.c:13
    34e0:	f84d 7d04 	str.w	r7, [sp, #-4]!
    34e4:	af00      	add	r7, sp, #0
    34e6:	4a0e      	ldr	r2, [pc, #56]	; (3520 <os_test_shlib_dl_init+0x40>)
    34e8:	447a      	add	r2, pc
/home/qemu-sgx/devel/optee/out-br/build/optee_test_ext-1.0/ta/os_test_lib_dl/os_test_lib_dl.c:14
    34ea:	4b0e      	ldr	r3, [pc, #56]	; (3524 <os_test_shlib_dl_init+0x44>)
    34ec:	58d3      	ldr	r3, [r2, r3]
    34ee:	6819      	ldr	r1, [r3, #0]
    34f0:	460b      	mov	r3, r1
    34f2:	ea4f 0383 	mov.w	r3, r3, lsl #2
    34f6:	440b      	add	r3, r1
    34f8:	ea4f 0343 	mov.w	r3, r3, lsl #1
    34fc:	4619      	mov	r1, r3
    34fe:	4b09      	ldr	r3, [pc, #36]	; (3524 <os_test_shlib_dl_init+0x44>)
    3500:	58d3      	ldr	r3, [r2, r3]
    3502:	6019      	str	r1, [r3, #0]
/home/qemu-sgx/devel/optee/out-br/build/optee_test_ext-1.0/ta/os_test_lib_dl/os_test_lib_dl.c:15
    3504:	4b07      	ldr	r3, [pc, #28]	; (3524 <os_test_shlib_dl_init+0x44>)
    3506:	58d3      	ldr	r3, [r2, r3]
    3508:	681b      	ldr	r3, [r3, #0]
    350a:	f103 0103 	add.w	r1, r3, #3
    350e:	4b05      	ldr	r3, [pc, #20]	; (3524 <os_test_shlib_dl_init+0x44>)
    3510:	58d3      	ldr	r3, [r2, r3]
    3512:	6019      	str	r1, [r3, #0]
/home/qemu-sgx/devel/optee/out-br/build/optee_test_ext-1.0/ta/os_test_lib_dl/os_test_lib_dl.c:17
    3514:	bf00      	nop
    3516:	46bd      	mov	sp, r7
    3518:	f85d 7b04 	ldr.w	r7, [sp], #4
    351c:	4770      	bx	lr
    351e:	bf00      	nop
    3520:	0000cb14 	.word	0x0000cb14
    3524:	000001e0 	.word	0x000001e0

00003528 <os_test_shlib_dl_add>:
os_test_shlib_dl_add():
/home/qemu-sgx/devel/optee/out-br/build/optee_test_ext-1.0/ta/os_test_lib_dl/os_test_lib_dl.c:20
    3528:	f84d 7d04 	str.w	r7, [sp, #-4]!
    352c:	b083      	sub	sp, #12
    352e:	af00      	add	r7, sp, #0
    3530:	6078      	str	r0, [r7, #4]
    3532:	6039      	str	r1, [r7, #0]
/home/qemu-sgx/devel/optee/out-br/build/optee_test_ext-1.0/ta/os_test_lib_dl/os_test_lib_dl.c:21
    3534:	687a      	ldr	r2, [r7, #4]
    3536:	683b      	ldr	r3, [r7, #0]
    3538:	4413      	add	r3, r2
/home/qemu-sgx/devel/optee/out-br/build/optee_test_ext-1.0/ta/os_test_lib_dl/os_test_lib_dl.c:22
    353a:	4618      	mov	r0, r3
    353c:	f107 070c 	add.w	r7, r7, #12
    3540:	46bd      	mov	sp, r7
    3542:	f85d 7b04 	ldr.w	r7, [sp], #4
    3546:	4770      	bx	lr

00003548 <os_test_shlib_dl_panic>:
os_test_shlib_dl_panic():
/home/qemu-sgx/devel/optee/out-br/build/optee_test_ext-1.0/ta/os_test_lib_dl/os_test_lib_dl.c:25
    3548:	e96d 7e02 	strd	r7, lr, [sp, #-8]!
    354c:	af00      	add	r7, sp, #0
/home/qemu-sgx/devel/optee/out-br/build/optee_test_ext-1.0/ta/os_test_lib_dl/os_test_lib_dl.c:26
    354e:	f04f 0000 	mov.w	r0, #0
    3552:	f7ff ed86 	blx	3060 <TEE_Panic@plt>
/home/qemu-sgx/devel/optee/out-br/build/optee_test_ext-1.0/ta/os_test_lib_dl/os_test_lib_dl.c:27
    3556:	bf00      	nop
    3558:	46bd      	mov	sp, r7
    355a:	bd80      	pop	{r7, pc}

0000355c <os_test_shlib_dl_cxx_ctor>:
os_test_shlib_dl_cxx_ctor():
/home/qemu-sgx/devel/optee/out-br/build/optee_test_ext-1.0/ta/os_test_lib_dl/os_test_lib_dl_cxx.cpp:21
    355c:	f84d 7d04 	str.w	r7, [sp, #-4]!
    3560:	af00      	add	r7, sp, #0
/home/qemu-sgx/devel/optee/out-br/build/optee_test_ext-1.0/ta/os_test_lib_dl/os_test_lib_dl_cxx.cpp:22
    3562:	4b08      	ldr	r3, [pc, #32]	; (3584 <os_test_shlib_dl_cxx_ctor+0x28>)
    3564:	447b      	add	r3, pc
    3566:	681b      	ldr	r3, [r3, #0]
    3568:	2b02      	cmp	r3, #2
    356a:	d004      	beq.n	3576 <os_test_shlib_dl_cxx_ctor+0x1a>
/home/qemu-sgx/devel/optee/out-br/build/optee_test_ext-1.0/ta/os_test_lib_dl/os_test_lib_dl_cxx.cpp:23
    356c:	f04f 0300 	mov.w	r3, #0
    3570:	f6cf 73ff 	movt	r3, #65535	; 0xffff
    3574:	e001      	b.n	357a <os_test_shlib_dl_cxx_ctor+0x1e>
/home/qemu-sgx/devel/optee/out-br/build/optee_test_ext-1.0/ta/os_test_lib_dl/os_test_lib_dl_cxx.cpp:25
    3576:	f04f 0300 	mov.w	r3, #0
/home/qemu-sgx/devel/optee/out-br/build/optee_test_ext-1.0/ta/os_test_lib_dl/os_test_lib_dl_cxx.cpp:26
    357a:	4618      	mov	r0, r3
    357c:	46bd      	mov	sp, r7
    357e:	f85d 7b04 	ldr.w	r7, [sp], #4
    3582:	4770      	bx	lr
    3584:	0000ccfc 	.word	0x0000ccfc

00003588 <_Z41__static_initialization_and_destruction_0ii>:
_Z41__static_initialization_and_destruction_0ii():
/home/qemu-sgx/devel/optee/out-br/build/optee_test_ext-1.0/ta/os_test_lib_dl/os_test_lib_dl_cxx.cpp:26
    3588:	e96d 7e02 	strd	r7, lr, [sp, #-8]!
    358c:	b082      	sub	sp, #8
    358e:	af00      	add	r7, sp, #0
    3590:	6078      	str	r0, [r7, #4]
    3592:	6039      	str	r1, [r7, #0]
    3594:	687b      	ldr	r3, [r7, #4]
    3596:	2b01      	cmp	r3, #1
    3598:	d109      	bne.n	35ae <_Z41__static_initialization_and_destruction_0ii+0x26>
/home/qemu-sgx/devel/optee/out-br/build/optee_test_ext-1.0/ta/os_test_lib_dl/os_test_lib_dl_cxx.cpp:26 (discriminator 1)
    359a:	683b      	ldr	r3, [r7, #0]
    359c:	f64f 72ff 	movw	r2, #65535	; 0xffff
    35a0:	4293      	cmp	r3, r2
    35a2:	d104      	bne.n	35ae <_Z41__static_initialization_and_destruction_0ii+0x26>
/home/qemu-sgx/devel/optee/out-br/build/optee_test_ext-1.0/ta/os_test_lib_dl/os_test_lib_dl_cxx.cpp:18
    35a4:	4b04      	ldr	r3, [pc, #16]	; (35b8 <_Z41__static_initialization_and_destruction_0ii+0x30>)
    35a6:	447b      	add	r3, pc
    35a8:	4618      	mov	r0, r3
    35aa:	f7ff ee6e 	blx	3288 <_ZN19OsTestLibDlCtorTestC1Ev@plt>
/home/qemu-sgx/devel/optee/out-br/build/optee_test_ext-1.0/ta/os_test_lib_dl/os_test_lib_dl_cxx.cpp:26
    35ae:	bf00      	nop
    35b0:	f107 0708 	add.w	r7, r7, #8
    35b4:	46bd      	mov	sp, r7
    35b6:	bd80      	pop	{r7, pc}
    35b8:	0000ccba 	.word	0x0000ccba

000035bc <_GLOBAL__sub_I_os_test_lib_dl_cxx.cpp>:
_GLOBAL__sub_I_os_test_lib_dl_cxx.cpp():
/home/qemu-sgx/devel/optee/out-br/build/optee_test_ext-1.0/ta/os_test_lib_dl/os_test_lib_dl_cxx.cpp:26
    35bc:	e96d 7e02 	strd	r7, lr, [sp, #-8]!
    35c0:	af00      	add	r7, sp, #0
    35c2:	f64f 71ff 	movw	r1, #65535	; 0xffff
    35c6:	f04f 0001 	mov.w	r0, #1
    35ca:	f7ff ffdd 	bl	3588 <_Z41__static_initialization_and_destruction_0ii>
    35ce:	46bd      	mov	sp, r7
    35d0:	bd80      	pop	{r7, pc}
    35d2:	bf00      	nop

000035d4 <_ZN19OsTestLibDlCtorTestC1Ev>:
_ZN19OsTestLibDlCtorTestC2Ev():
/home/qemu-sgx/devel/optee/out-br/build/optee_test_ext-1.0/ta/os_test_lib_dl/os_test_lib_dl_cxx.cpp:13
    35d4:	f84d 7d04 	str.w	r7, [sp, #-4]!
    35d8:	b083      	sub	sp, #12
    35da:	af00      	add	r7, sp, #0
    35dc:	6078      	str	r0, [r7, #4]
    35de:	687b      	ldr	r3, [r7, #4]
    35e0:	f04f 0202 	mov.w	r2, #2
    35e4:	601a      	str	r2, [r3, #0]
    35e6:	687b      	ldr	r3, [r7, #4]
    35e8:	4618      	mov	r0, r3
    35ea:	f107 070c 	add.w	r7, r7, #12
    35ee:	46bd      	mov	sp, r7
    35f0:	f85d 7b04 	ldr.w	r7, [sp], #4
    35f4:	4770      	bx	lr

000035f6 <__aeabi_unwind_cpp_pr0>:
__aeabi_unwind_cpp_pr0():
/home/qemu-sgx/devel/optee/optee_os/lib/libutils/ext/arch/arm/aeabi_unwind.c:8
    35f6:	f84d 7d04 	str.w	r7, [sp, #-4]!
    35fa:	af00      	add	r7, sp, #0
/home/qemu-sgx/devel/optee/optee_os/lib/libutils/ext/arch/arm/aeabi_unwind.c:9
    35fc:	bf00      	nop
    35fe:	46bd      	mov	sp, r7
    3600:	f85d 7b04 	ldr.w	r7, [sp], #4
    3604:	4770      	bx	lr

00003606 <__aeabi_unwind_cpp_pr1>:
__aeabi_unwind_cpp_pr1():
/home/qemu-sgx/devel/optee/optee_os/lib/libutils/ext/arch/arm/aeabi_unwind.c:13
    3606:	f84d 7d04 	str.w	r7, [sp, #-4]!
    360a:	af00      	add	r7, sp, #0
/home/qemu-sgx/devel/optee/optee_os/lib/libutils/ext/arch/arm/aeabi_unwind.c:14
    360c:	bf00      	nop
    360e:	46bd      	mov	sp, r7
    3610:	f85d 7b04 	ldr.w	r7, [sp], #4
    3614:	4770      	bx	lr

00003616 <__aeabi_unwind_cpp_pr2>:
__aeabi_unwind_cpp_pr2():
/home/qemu-sgx/devel/optee/optee_os/lib/libutils/ext/arch/arm/aeabi_unwind.c:18
    3616:	f84d 7d04 	str.w	r7, [sp, #-4]!
    361a:	af00      	add	r7, sp, #0
/home/qemu-sgx/devel/optee/optee_os/lib/libutils/ext/arch/arm/aeabi_unwind.c:19
    361c:	bf00      	nop
    361e:	46bd      	mov	sp, r7
    3620:	f85d 7b04 	ldr.w	r7, [sp], #4
    3624:	4770      	bx	lr
	...

00003628 <TEE_Panic>:
TEE_Panic():
/home/qemu-sgx/devel/optee/optee_os/lib/libutee/tee_api_panic.c:23
    3628:	e96d 7e02 	strd	r7, lr, [sp, #-8]!
    362c:	b082      	sub	sp, #8
    362e:	af00      	add	r7, sp, #0
    3630:	6078      	str	r0, [r7, #4]
/home/qemu-sgx/devel/optee/optee_os/lib/libutee/tee_api_panic.c:24
    3632:	6878      	ldr	r0, [r7, #4]
    3634:	f7ff ed80 	blx	3138 <_utee_panic@plt>
/home/qemu-sgx/devel/optee/optee_os/lib/libutee/tee_api_panic.c:28
    3638:	bf00      	nop
    363a:	f107 0708 	add.w	r7, r7, #8
    363e:	46bd      	mov	sp, r7
    3640:	bd80      	pop	{r7, pc}

00003642 <check_res>:
check_res():
/home/qemu-sgx/devel/optee/optee_os/lib/libutee/tee_api_panic.c:31
    3642:	e96d 7e02 	strd	r7, lr, [sp, #-8]!
    3646:	b082      	sub	sp, #8
    3648:	af00      	add	r7, sp, #0
    364a:	6078      	str	r0, [r7, #4]
    364c:	6039      	str	r1, [r7, #0]
/home/qemu-sgx/devel/optee/optee_os/lib/libutee/tee_api_panic.c:32
    364e:	683b      	ldr	r3, [r7, #0]
    3650:	2b00      	cmp	r3, #0
    3652:	d003      	beq.n	365c <check_res+0x1a>
/home/qemu-sgx/devel/optee/optee_os/lib/libutee/tee_api_panic.c:34
    3654:	f04f 0000 	mov.w	r0, #0
    3658:	f7ff ed02 	blx	3060 <TEE_Panic@plt>
/home/qemu-sgx/devel/optee/optee_os/lib/libutee/tee_api_panic.c:36
    365c:	bf00      	nop
    365e:	f107 0708 	add.w	r7, r7, #8
    3662:	46bd      	mov	sp, r7
    3664:	bd80      	pop	{r7, pc}

00003666 <check_access>:
check_access():
/home/qemu-sgx/devel/optee/optee_os/lib/libutee/tee_api_panic.c:39
    3666:	e96d 7e02 	strd	r7, lr, [sp, #-8]!
    366a:	b084      	sub	sp, #16
    366c:	af00      	add	r7, sp, #0
    366e:	60f8      	str	r0, [r7, #12]
    3670:	60b9      	str	r1, [r7, #8]
    3672:	607a      	str	r2, [r7, #4]
/home/qemu-sgx/devel/optee/optee_os/lib/libutee/tee_api_panic.c:40
    3674:	687b      	ldr	r3, [r7, #4]
    3676:	2b00      	cmp	r3, #0
    3678:	d102      	bne.n	3680 <check_access+0x1a>
/home/qemu-sgx/devel/optee/optee_os/lib/libutee/tee_api_panic.c:41
    367a:	f04f 0300 	mov.w	r3, #0
    367e:	e00d      	b.n	369c <check_access+0x36>
/home/qemu-sgx/devel/optee/optee_os/lib/libutee/tee_api_panic.c:43
    3680:	68bb      	ldr	r3, [r7, #8]
    3682:	2b00      	cmp	r3, #0
    3684:	d104      	bne.n	3690 <check_access+0x2a>
/home/qemu-sgx/devel/optee/optee_os/lib/libutee/tee_api_panic.c:44
    3686:	f04f 030f 	mov.w	r3, #15
    368a:	f6cf 73ff 	movt	r3, #65535	; 0xffff
    368e:	e005      	b.n	369c <check_access+0x36>
/home/qemu-sgx/devel/optee/optee_os/lib/libutee/tee_api_panic.c:47
    3690:	687a      	ldr	r2, [r7, #4]
    3692:	68b9      	ldr	r1, [r7, #8]
    3694:	68f8      	ldr	r0, [r7, #12]
    3696:	f7ff ed74 	blx	3180 <TEE_CheckMemoryAccessRights@plt>
    369a:	4603      	mov	r3, r0
/home/qemu-sgx/devel/optee/optee_os/lib/libutee/tee_api_panic.c:50
    369c:	4618      	mov	r0, r3
    369e:	f107 0710 	add.w	r7, r7, #16
    36a2:	46bd      	mov	sp, r7
    36a4:	bd80      	pop	{r7, pc}

000036a6 <__utee_check_outbuf_annotation>:
__utee_check_outbuf_annotation():
/home/qemu-sgx/devel/optee/optee_os/lib/libutee/tee_api_panic.c:53
    36a6:	e96d 7e02 	strd	r7, lr, [sp, #-8]!
    36aa:	b082      	sub	sp, #8
    36ac:	af00      	add	r7, sp, #0
    36ae:	6078      	str	r0, [r7, #4]
    36b0:	6039      	str	r1, [r7, #0]
/home/qemu-sgx/devel/optee/optee_os/lib/libutee/tee_api_panic.c:54
    36b2:	f04f 0204 	mov.w	r2, #4
    36b6:	6839      	ldr	r1, [r7, #0]
    36b8:	f04f 0003 	mov.w	r0, #3
    36bc:	f7ff ffd3 	bl	3666 <check_access>
    36c0:	4603      	mov	r3, r0
    36c2:	4619      	mov	r1, r3
    36c4:	4b0c      	ldr	r3, [pc, #48]	; (36f8 <__utee_check_outbuf_annotation+0x52>)
    36c6:	447b      	add	r3, pc
    36c8:	4618      	mov	r0, r3
    36ca:	f7ff ffba 	bl	3642 <check_res>
/home/qemu-sgx/devel/optee/optee_os/lib/libutee/tee_api_panic.c:56
    36ce:	683b      	ldr	r3, [r7, #0]
    36d0:	681b      	ldr	r3, [r3, #0]
    36d2:	461a      	mov	r2, r3
    36d4:	6879      	ldr	r1, [r7, #4]
    36d6:	f04f 0006 	mov.w	r0, #6
    36da:	f7ff ffc4 	bl	3666 <check_access>
    36de:	4603      	mov	r3, r0
    36e0:	4619      	mov	r1, r3
    36e2:	4b06      	ldr	r3, [pc, #24]	; (36fc <__utee_check_outbuf_annotation+0x56>)
    36e4:	447b      	add	r3, pc
    36e6:	4618      	mov	r0, r3
    36e8:	f7ff ffab 	bl	3642 <check_res>
/home/qemu-sgx/devel/optee/optee_os/lib/libutee/tee_api_panic.c:58
    36ec:	bf00      	nop
    36ee:	f107 0708 	add.w	r7, r7, #8
    36f2:	46bd      	mov	sp, r7
    36f4:	bd80      	pop	{r7, pc}
    36f6:	bf00      	nop
    36f8:	00009b7e 	.word	0x00009b7e
    36fc:	00009b70 	.word	0x00009b70

00003700 <__utee_check_instring_annotation>:
__utee_check_instring_annotation():
/home/qemu-sgx/devel/optee/optee_os/lib/libutee/tee_api_panic.c:61
    3700:	e96d 7e02 	strd	r7, lr, [sp, #-8]!
    3704:	b082      	sub	sp, #8
    3706:	af00      	add	r7, sp, #0
    3708:	6078      	str	r0, [r7, #4]
/home/qemu-sgx/devel/optee/optee_os/lib/libutee/tee_api_panic.c:63
    370a:	6878      	ldr	r0, [r7, #4]
    370c:	f7ff eeac 	blx	3468 <strlen@plt>
    3710:	4603      	mov	r3, r0
/home/qemu-sgx/devel/optee/optee_os/lib/libutee/tee_api_panic.c:62
    3712:	f103 0301 	add.w	r3, r3, #1
    3716:	461a      	mov	r2, r3
    3718:	6879      	ldr	r1, [r7, #4]
    371a:	f04f 0001 	mov.w	r0, #1
    371e:	f7ff ffa2 	bl	3666 <check_access>
    3722:	4603      	mov	r3, r0
    3724:	4619      	mov	r1, r3
    3726:	4b05      	ldr	r3, [pc, #20]	; (373c <__utee_check_instring_annotation+0x3c>)
    3728:	447b      	add	r3, pc
    372a:	4618      	mov	r0, r3
    372c:	f7ff ff89 	bl	3642 <check_res>
/home/qemu-sgx/devel/optee/optee_os/lib/libutee/tee_api_panic.c:64
    3730:	bf00      	nop
    3732:	f107 0708 	add.w	r7, r7, #8
    3736:	46bd      	mov	sp, r7
    3738:	bd80      	pop	{r7, pc}
    373a:	bf00      	nop
    373c:	00009b3c 	.word	0x00009b3c

00003740 <__utee_check_outstring_annotation>:
__utee_check_outstring_annotation():
/home/qemu-sgx/devel/optee/optee_os/lib/libutee/tee_api_panic.c:67
    3740:	e96d 7e02 	strd	r7, lr, [sp, #-8]!
    3744:	b082      	sub	sp, #8
    3746:	af00      	add	r7, sp, #0
    3748:	6078      	str	r0, [r7, #4]
    374a:	6039      	str	r1, [r7, #0]
/home/qemu-sgx/devel/optee/optee_os/lib/libutee/tee_api_panic.c:68
    374c:	f04f 0204 	mov.w	r2, #4
    3750:	6839      	ldr	r1, [r7, #0]
    3752:	f04f 0003 	mov.w	r0, #3
    3756:	f7ff ff86 	bl	3666 <check_access>
    375a:	4603      	mov	r3, r0
    375c:	4619      	mov	r1, r3
    375e:	4b0c      	ldr	r3, [pc, #48]	; (3790 <__utee_check_outstring_annotation+0x50>)
    3760:	447b      	add	r3, pc
    3762:	4618      	mov	r0, r3
    3764:	f7ff ff6d 	bl	3642 <check_res>
/home/qemu-sgx/devel/optee/optee_os/lib/libutee/tee_api_panic.c:70
    3768:	683b      	ldr	r3, [r7, #0]
    376a:	681b      	ldr	r3, [r3, #0]
    376c:	461a      	mov	r2, r3
    376e:	6879      	ldr	r1, [r7, #4]
    3770:	f04f 0006 	mov.w	r0, #6
    3774:	f7ff ff77 	bl	3666 <check_access>
    3778:	4603      	mov	r3, r0
    377a:	4619      	mov	r1, r3
    377c:	4b05      	ldr	r3, [pc, #20]	; (3794 <__utee_check_outstring_annotation+0x54>)
    377e:	447b      	add	r3, pc
    3780:	4618      	mov	r0, r3
    3782:	f7ff ff5e 	bl	3642 <check_res>
/home/qemu-sgx/devel/optee/optee_os/lib/libutee/tee_api_panic.c:72
    3786:	bf00      	nop
    3788:	f107 0708 	add.w	r7, r7, #8
    378c:	46bd      	mov	sp, r7
    378e:	bd80      	pop	{r7, pc}
    3790:	00009b10 	.word	0x00009b10
    3794:	00009b02 	.word	0x00009b02

00003798 <__utee_check_out_annotation>:
__utee_check_out_annotation():
/home/qemu-sgx/devel/optee/optee_os/lib/libutee/tee_api_panic.c:75
    3798:	e96d 7e02 	strd	r7, lr, [sp, #-8]!
    379c:	b082      	sub	sp, #8
    379e:	af00      	add	r7, sp, #0
    37a0:	6078      	str	r0, [r7, #4]
    37a2:	6039      	str	r1, [r7, #0]
/home/qemu-sgx/devel/optee/optee_os/lib/libutee/tee_api_panic.c:76
    37a4:	683a      	ldr	r2, [r7, #0]
    37a6:	6879      	ldr	r1, [r7, #4]
    37a8:	f04f 0002 	mov.w	r0, #2
    37ac:	f7ff ff5b 	bl	3666 <check_access>
    37b0:	4603      	mov	r3, r0
    37b2:	4619      	mov	r1, r3
    37b4:	4b04      	ldr	r3, [pc, #16]	; (37c8 <__utee_check_out_annotation+0x30>)
    37b6:	447b      	add	r3, pc
    37b8:	4618      	mov	r0, r3
    37ba:	f7ff ff42 	bl	3642 <check_res>
/home/qemu-sgx/devel/optee/optee_os/lib/libutee/tee_api_panic.c:78
    37be:	bf00      	nop
    37c0:	f107 0708 	add.w	r7, r7, #8
    37c4:	46bd      	mov	sp, r7
    37c6:	bd80      	pop	{r7, pc}
    37c8:	00009ada 	.word	0x00009ada

000037cc <__utee_check_attr_in_annotation>:
__utee_check_attr_in_annotation():
/home/qemu-sgx/devel/optee/optee_os/lib/libutee/tee_api_panic.c:81
    37cc:	e96d 7e02 	strd	r7, lr, [sp, #-8]!
    37d0:	b082      	sub	sp, #8
    37d2:	af00      	add	r7, sp, #0
    37d4:	6078      	str	r0, [r7, #4]
    37d6:	6039      	str	r1, [r7, #0]
/home/qemu-sgx/devel/optee/optee_os/lib/libutee/tee_api_panic.c:82
    37d8:	683a      	ldr	r2, [r7, #0]
    37da:	4613      	mov	r3, r2
    37dc:	ea4f 0343 	mov.w	r3, r3, lsl #1
    37e0:	4413      	add	r3, r2
    37e2:	ea4f 0383 	mov.w	r3, r3, lsl #2
    37e6:	461a      	mov	r2, r3
    37e8:	6879      	ldr	r1, [r7, #4]
    37ea:	f04f 0001 	mov.w	r0, #1
    37ee:	f7ff ff3a 	bl	3666 <check_access>
    37f2:	4603      	mov	r3, r0
    37f4:	4619      	mov	r1, r3
    37f6:	4b05      	ldr	r3, [pc, #20]	; (380c <__utee_check_attr_in_annotation+0x40>)
    37f8:	447b      	add	r3, pc
    37fa:	4618      	mov	r0, r3
    37fc:	f7ff ff21 	bl	3642 <check_res>
/home/qemu-sgx/devel/optee/optee_os/lib/libutee/tee_api_panic.c:84
    3800:	bf00      	nop
    3802:	f107 0708 	add.w	r7, r7, #8
    3806:	46bd      	mov	sp, r7
    3808:	bd80      	pop	{r7, pc}
    380a:	bf00      	nop
    380c:	00009aa0 	.word	0x00009aa0

00003810 <__utee_check_inout_annotation>:
__utee_check_inout_annotation():
/home/qemu-sgx/devel/optee/optee_os/lib/libutee/tee_api_panic.c:87
    3810:	e96d 7e02 	strd	r7, lr, [sp, #-8]!
    3814:	b082      	sub	sp, #8
    3816:	af00      	add	r7, sp, #0
    3818:	6078      	str	r0, [r7, #4]
    381a:	6039      	str	r1, [r7, #0]
/home/qemu-sgx/devel/optee/optee_os/lib/libutee/tee_api_panic.c:88
    381c:	683a      	ldr	r2, [r7, #0]
    381e:	6879      	ldr	r1, [r7, #4]
    3820:	f04f 0003 	mov.w	r0, #3
    3824:	f7ff ff1f 	bl	3666 <check_access>
    3828:	4603      	mov	r3, r0
    382a:	4619      	mov	r1, r3
    382c:	4b04      	ldr	r3, [pc, #16]	; (3840 <__utee_check_inout_annotation+0x30>)
    382e:	447b      	add	r3, pc
    3830:	4618      	mov	r0, r3
    3832:	f7ff ff06 	bl	3642 <check_res>
/home/qemu-sgx/devel/optee/optee_os/lib/libutee/tee_api_panic.c:90
    3836:	bf00      	nop
    3838:	f107 0708 	add.w	r7, r7, #8
    383c:	46bd      	mov	sp, r7
    383e:	bd80      	pop	{r7, pc}
    3840:	00009a76 	.word	0x00009a76

00003844 <_utee_panic>:
_utee_panic():
/home/qemu-sgx/devel/optee/optee_os/lib/libutee/arch/arm/utee_syscalls_a32.S:48
    3844:	e92d4fff 	push	{r0, r1, r2, r3, r4, r5, r6, r7, r8, r9, sl, fp, lr}
/home/qemu-sgx/devel/optee/optee_os/lib/libutee/arch/arm/utee_syscalls_a32.S:50
    3848:	e1a0e00f 	mov	lr, pc
/home/qemu-sgx/devel/optee/optee_os/lib/libutee/arch/arm/utee_syscalls_a32.S:51
    384c:	e52de004 	push	{lr}		; (str lr, [sp, #-4]!)
/home/qemu-sgx/devel/optee/optee_os/lib/libutee/arch/arm/utee_syscalls_a32.S:53
    3850:	e1a0100d 	mov	r1, sp
/home/qemu-sgx/devel/optee/optee_os/lib/libutee/arch/arm/utee_syscalls_a32.S:54
    3854:	ebfffe34 	bl	312c <__utee_panic@plt>

00003858 <_utee_return>:
_utee_return():
/home/qemu-sgx/devel/optee/optee_os/lib/libutee/arch/arm/utee_syscalls_asm.S:8
    3858:	e92d40e0 	push	{r5, r6, r7, lr}
    385c:	e3a07000 	mov	r7, #0
    3860:	e3a06000 	mov	r6, #0
    3864:	ef000000 	svc	0x00000000
    3868:	e8bd80e0 	pop	{r5, r6, r7, pc}

0000386c <_utee_log>:
_utee_log():
/home/qemu-sgx/devel/optee/optee_os/lib/libutee/arch/arm/utee_syscalls_asm.S:10
    386c:	e92d40e0 	push	{r5, r6, r7, lr}
    3870:	e3a07001 	mov	r7, #1
    3874:	e3a06000 	mov	r6, #0
    3878:	ef000000 	svc	0x00000000
    387c:	e8bd80e0 	pop	{r5, r6, r7, pc}

00003880 <__utee_panic>:
__utee_panic():
/home/qemu-sgx/devel/optee/optee_os/lib/libutee/arch/arm/utee_syscalls_asm.S:12
    3880:	e92d40e0 	push	{r5, r6, r7, lr}
    3884:	e3a07002 	mov	r7, #2
    3888:	e3a06000 	mov	r6, #0
    388c:	ef000000 	svc	0x00000000
    3890:	e8bd80e0 	pop	{r5, r6, r7, pc}

00003894 <_utee_get_property>:
_utee_get_property():
/home/qemu-sgx/devel/optee/optee_os/lib/libutee/arch/arm/utee_syscalls_asm.S:14
    3894:	e92d40e0 	push	{r5, r6, r7, lr}
    3898:	e3a07003 	mov	r7, #3
    389c:	e3a06003 	mov	r6, #3
    38a0:	e28d5010 	add	r5, sp, #16
    38a4:	ef000000 	svc	0x00000000
    38a8:	e8bd80e0 	pop	{r5, r6, r7, pc}

000038ac <_utee_get_property_name_to_index>:
_utee_get_property_name_to_index():
/home/qemu-sgx/devel/optee/optee_os/lib/libutee/arch/arm/utee_syscalls_asm.S:16
    38ac:	e92d40e0 	push	{r5, r6, r7, lr}
    38b0:	e3a07004 	mov	r7, #4
    38b4:	e3a06000 	mov	r6, #0
    38b8:	ef000000 	svc	0x00000000
    38bc:	e8bd80e0 	pop	{r5, r6, r7, pc}

000038c0 <_utee_open_ta_session>:
_utee_open_ta_session():
/home/qemu-sgx/devel/optee/optee_os/lib/libutee/arch/arm/utee_syscalls_asm.S:19
    38c0:	e92d40e0 	push	{r5, r6, r7, lr}
    38c4:	e3a07005 	mov	r7, #5
    38c8:	e3a06001 	mov	r6, #1
    38cc:	e28d5010 	add	r5, sp, #16
    38d0:	ef000000 	svc	0x00000000
    38d4:	e8bd80e0 	pop	{r5, r6, r7, pc}

000038d8 <_utee_close_ta_session>:
_utee_close_ta_session():
/home/qemu-sgx/devel/optee/optee_os/lib/libutee/arch/arm/utee_syscalls_asm.S:21
    38d8:	e92d40e0 	push	{r5, r6, r7, lr}
    38dc:	e3a07006 	mov	r7, #6
    38e0:	e3a06000 	mov	r6, #0
    38e4:	ef000000 	svc	0x00000000
    38e8:	e8bd80e0 	pop	{r5, r6, r7, pc}

000038ec <_utee_invoke_ta_command>:
_utee_invoke_ta_command():
/home/qemu-sgx/devel/optee/optee_os/lib/libutee/arch/arm/utee_syscalls_asm.S:23
    38ec:	e92d40e0 	push	{r5, r6, r7, lr}
    38f0:	e3a07007 	mov	r7, #7
    38f4:	e3a06001 	mov	r6, #1
    38f8:	e28d5010 	add	r5, sp, #16
    38fc:	ef000000 	svc	0x00000000
    3900:	e8bd80e0 	pop	{r5, r6, r7, pc}

00003904 <_utee_get_cancellation_flag>:
_utee_get_cancellation_flag():
/home/qemu-sgx/devel/optee/optee_os/lib/libutee/arch/arm/utee_syscalls_asm.S:25
    3904:	e92d40e0 	push	{r5, r6, r7, lr}
    3908:	e3a07009 	mov	r7, #9
    390c:	e3a06000 	mov	r6, #0
    3910:	ef000000 	svc	0x00000000
    3914:	e8bd80e0 	pop	{r5, r6, r7, pc}

00003918 <_utee_check_access_rights>:
_utee_check_access_rights():
/home/qemu-sgx/devel/optee/optee_os/lib/libutee/arch/arm/utee_syscalls_asm.S:28
    3918:	e92d40e0 	push	{r5, r6, r7, lr}
    391c:	e3a07008 	mov	r7, #8
    3920:	e3a06000 	mov	r6, #0
    3924:	ef000000 	svc	0x00000000
    3928:	e8bd80e0 	pop	{r5, r6, r7, pc}

0000392c <_utee_unmask_cancellation>:
_utee_unmask_cancellation():
/home/qemu-sgx/devel/optee/optee_os/lib/libutee/arch/arm/utee_syscalls_asm.S:30
    392c:	e92d40e0 	push	{r5, r6, r7, lr}
    3930:	e3a0700a 	mov	r7, #10
    3934:	e3a06000 	mov	r6, #0
    3938:	ef000000 	svc	0x00000000
    393c:	e8bd80e0 	pop	{r5, r6, r7, pc}

00003940 <_utee_mask_cancellation>:
_utee_mask_cancellation():
/home/qemu-sgx/devel/optee/optee_os/lib/libutee/arch/arm/utee_syscalls_asm.S:32
    3940:	e92d40e0 	push	{r5, r6, r7, lr}
    3944:	e3a0700b 	mov	r7, #11
    3948:	e3a06000 	mov	r6, #0
    394c:	ef000000 	svc	0x00000000
    3950:	e8bd80e0 	pop	{r5, r6, r7, pc}

00003954 <_utee_wait>:
_utee_wait():
/home/qemu-sgx/devel/optee/optee_os/lib/libutee/arch/arm/utee_syscalls_asm.S:34
    3954:	e92d40e0 	push	{r5, r6, r7, lr}
    3958:	e3a0700c 	mov	r7, #12
    395c:	e3a06000 	mov	r6, #0
    3960:	ef000000 	svc	0x00000000
    3964:	e8bd80e0 	pop	{r5, r6, r7, pc}

00003968 <_utee_get_time>:
_utee_get_time():
/home/qemu-sgx/devel/optee/optee_os/lib/libutee/arch/arm/utee_syscalls_asm.S:36
    3968:	e92d40e0 	push	{r5, r6, r7, lr}
    396c:	e3a0700d 	mov	r7, #13
    3970:	e3a06000 	mov	r6, #0
    3974:	ef000000 	svc	0x00000000
    3978:	e8bd80e0 	pop	{r5, r6, r7, pc}

0000397c <_utee_set_ta_time>:
_utee_set_ta_time():
/home/qemu-sgx/devel/optee/optee_os/lib/libutee/arch/arm/utee_syscalls_asm.S:38
    397c:	e92d40e0 	push	{r5, r6, r7, lr}
    3980:	e3a0700e 	mov	r7, #14
    3984:	e3a06000 	mov	r6, #0
    3988:	ef000000 	svc	0x00000000
    398c:	e8bd80e0 	pop	{r5, r6, r7, pc}

00003990 <_utee_cryp_state_alloc>:
_utee_cryp_state_alloc():
/home/qemu-sgx/devel/optee/optee_os/lib/libutee/arch/arm/utee_syscalls_asm.S:40
    3990:	e92d40e0 	push	{r5, r6, r7, lr}
    3994:	e3a0700f 	mov	r7, #15
    3998:	e3a06001 	mov	r6, #1
    399c:	e28d5010 	add	r5, sp, #16
    39a0:	ef000000 	svc	0x00000000
    39a4:	e8bd80e0 	pop	{r5, r6, r7, pc}

000039a8 <_utee_cryp_state_copy>:
_utee_cryp_state_copy():
/home/qemu-sgx/devel/optee/optee_os/lib/libutee/arch/arm/utee_syscalls_asm.S:42
    39a8:	e92d40e0 	push	{r5, r6, r7, lr}
    39ac:	e3a07010 	mov	r7, #16
    39b0:	e3a06000 	mov	r6, #0
    39b4:	ef000000 	svc	0x00000000
    39b8:	e8bd80e0 	pop	{r5, r6, r7, pc}

000039bc <_utee_cryp_state_free>:
_utee_cryp_state_free():
/home/qemu-sgx/devel/optee/optee_os/lib/libutee/arch/arm/utee_syscalls_asm.S:44
    39bc:	e92d40e0 	push	{r5, r6, r7, lr}
    39c0:	e3a07011 	mov	r7, #17
    39c4:	e3a06000 	mov	r6, #0
    39c8:	ef000000 	svc	0x00000000
    39cc:	e8bd80e0 	pop	{r5, r6, r7, pc}

000039d0 <_utee_hash_init>:
_utee_hash_init():
/home/qemu-sgx/devel/optee/optee_os/lib/libutee/arch/arm/utee_syscalls_asm.S:46
    39d0:	e92d40e0 	push	{r5, r6, r7, lr}
    39d4:	e3a07012 	mov	r7, #18
    39d8:	e3a06000 	mov	r6, #0
    39dc:	ef000000 	svc	0x00000000
    39e0:	e8bd80e0 	pop	{r5, r6, r7, pc}

000039e4 <_utee_hash_update>:
_utee_hash_update():
/home/qemu-sgx/devel/optee/optee_os/lib/libutee/arch/arm/utee_syscalls_asm.S:48
    39e4:	e92d40e0 	push	{r5, r6, r7, lr}
    39e8:	e3a07013 	mov	r7, #19
    39ec:	e3a06000 	mov	r6, #0
    39f0:	ef000000 	svc	0x00000000
    39f4:	e8bd80e0 	pop	{r5, r6, r7, pc}

000039f8 <_utee_hash_final>:
_utee_hash_final():
/home/qemu-sgx/devel/optee/optee_os/lib/libutee/arch/arm/utee_syscalls_asm.S:50
    39f8:	e92d40e0 	push	{r5, r6, r7, lr}
    39fc:	e3a07014 	mov	r7, #20
    3a00:	e3a06001 	mov	r6, #1
    3a04:	e28d5010 	add	r5, sp, #16
    3a08:	ef000000 	svc	0x00000000
    3a0c:	e8bd80e0 	pop	{r5, r6, r7, pc}

00003a10 <_utee_cipher_init>:
_utee_cipher_init():
/home/qemu-sgx/devel/optee/optee_os/lib/libutee/arch/arm/utee_syscalls_asm.S:52
    3a10:	e92d40e0 	push	{r5, r6, r7, lr}
    3a14:	e3a07015 	mov	r7, #21
    3a18:	e3a06000 	mov	r6, #0
    3a1c:	ef000000 	svc	0x00000000
    3a20:	e8bd80e0 	pop	{r5, r6, r7, pc}

00003a24 <_utee_cipher_update>:
_utee_cipher_update():
/home/qemu-sgx/devel/optee/optee_os/lib/libutee/arch/arm/utee_syscalls_asm.S:54
    3a24:	e92d40e0 	push	{r5, r6, r7, lr}
    3a28:	e3a07016 	mov	r7, #22
    3a2c:	e3a06001 	mov	r6, #1
    3a30:	e28d5010 	add	r5, sp, #16
    3a34:	ef000000 	svc	0x00000000
    3a38:	e8bd80e0 	pop	{r5, r6, r7, pc}

00003a3c <_utee_cipher_final>:
_utee_cipher_final():
/home/qemu-sgx/devel/optee/optee_os/lib/libutee/arch/arm/utee_syscalls_asm.S:56
    3a3c:	e92d40e0 	push	{r5, r6, r7, lr}
    3a40:	e3a07017 	mov	r7, #23
    3a44:	e3a06001 	mov	r6, #1
    3a48:	e28d5010 	add	r5, sp, #16
    3a4c:	ef000000 	svc	0x00000000
    3a50:	e8bd80e0 	pop	{r5, r6, r7, pc}

00003a54 <_utee_cryp_obj_get_info>:
_utee_cryp_obj_get_info():
/home/qemu-sgx/devel/optee/optee_os/lib/libutee/arch/arm/utee_syscalls_asm.S:58
    3a54:	e92d40e0 	push	{r5, r6, r7, lr}
    3a58:	e3a07018 	mov	r7, #24
    3a5c:	e3a06000 	mov	r6, #0
    3a60:	ef000000 	svc	0x00000000
    3a64:	e8bd80e0 	pop	{r5, r6, r7, pc}

00003a68 <_utee_cryp_obj_restrict_usage>:
_utee_cryp_obj_restrict_usage():
/home/qemu-sgx/devel/optee/optee_os/lib/libutee/arch/arm/utee_syscalls_asm.S:60
    3a68:	e92d40e0 	push	{r5, r6, r7, lr}
    3a6c:	e3a07019 	mov	r7, #25
    3a70:	e3a06000 	mov	r6, #0
    3a74:	ef000000 	svc	0x00000000
    3a78:	e8bd80e0 	pop	{r5, r6, r7, pc}

00003a7c <_utee_cryp_obj_get_attr>:
_utee_cryp_obj_get_attr():
/home/qemu-sgx/devel/optee/optee_os/lib/libutee/arch/arm/utee_syscalls_asm.S:63
    3a7c:	e92d40e0 	push	{r5, r6, r7, lr}
    3a80:	e3a0701a 	mov	r7, #26
    3a84:	e3a06000 	mov	r6, #0
    3a88:	ef000000 	svc	0x00000000
    3a8c:	e8bd80e0 	pop	{r5, r6, r7, pc}

00003a90 <_utee_cryp_obj_alloc>:
_utee_cryp_obj_alloc():
/home/qemu-sgx/devel/optee/optee_os/lib/libutee/arch/arm/utee_syscalls_asm.S:65
    3a90:	e92d40e0 	push	{r5, r6, r7, lr}
    3a94:	e3a0701b 	mov	r7, #27
    3a98:	e3a06000 	mov	r6, #0
    3a9c:	ef000000 	svc	0x00000000
    3aa0:	e8bd80e0 	pop	{r5, r6, r7, pc}

00003aa4 <_utee_cryp_obj_close>:
_utee_cryp_obj_close():
/home/qemu-sgx/devel/optee/optee_os/lib/libutee/arch/arm/utee_syscalls_asm.S:67
    3aa4:	e92d40e0 	push	{r5, r6, r7, lr}
    3aa8:	e3a0701c 	mov	r7, #28
    3aac:	e3a06000 	mov	r6, #0
    3ab0:	ef000000 	svc	0x00000000
    3ab4:	e8bd80e0 	pop	{r5, r6, r7, pc}

00003ab8 <_utee_cryp_obj_reset>:
_utee_cryp_obj_reset():
/home/qemu-sgx/devel/optee/optee_os/lib/libutee/arch/arm/utee_syscalls_asm.S:69
    3ab8:	e92d40e0 	push	{r5, r6, r7, lr}
    3abc:	e3a0701d 	mov	r7, #29
    3ac0:	e3a06000 	mov	r6, #0
    3ac4:	ef000000 	svc	0x00000000
    3ac8:	e8bd80e0 	pop	{r5, r6, r7, pc}

00003acc <_utee_cryp_obj_populate>:
_utee_cryp_obj_populate():
/home/qemu-sgx/devel/optee/optee_os/lib/libutee/arch/arm/utee_syscalls_asm.S:71
    3acc:	e92d40e0 	push	{r5, r6, r7, lr}
    3ad0:	e3a0701e 	mov	r7, #30
    3ad4:	e3a06000 	mov	r6, #0
    3ad8:	ef000000 	svc	0x00000000
    3adc:	e8bd80e0 	pop	{r5, r6, r7, pc}

00003ae0 <_utee_cryp_obj_copy>:
_utee_cryp_obj_copy():
/home/qemu-sgx/devel/optee/optee_os/lib/libutee/arch/arm/utee_syscalls_asm.S:73
    3ae0:	e92d40e0 	push	{r5, r6, r7, lr}
    3ae4:	e3a0701f 	mov	r7, #31
    3ae8:	e3a06000 	mov	r6, #0
    3aec:	ef000000 	svc	0x00000000
    3af0:	e8bd80e0 	pop	{r5, r6, r7, pc}

00003af4 <_utee_cryp_derive_key>:
_utee_cryp_derive_key():
/home/qemu-sgx/devel/optee/optee_os/lib/libutee/arch/arm/utee_syscalls_asm.S:75
    3af4:	e92d40e0 	push	{r5, r6, r7, lr}
    3af8:	e3a07020 	mov	r7, #32
    3afc:	e3a06000 	mov	r6, #0
    3b00:	ef000000 	svc	0x00000000
    3b04:	e8bd80e0 	pop	{r5, r6, r7, pc}

00003b08 <_utee_cryp_random_number_generate>:
_utee_cryp_random_number_generate():
/home/qemu-sgx/devel/optee/optee_os/lib/libutee/arch/arm/utee_syscalls_asm.S:77
    3b08:	e92d40e0 	push	{r5, r6, r7, lr}
    3b0c:	e3a07021 	mov	r7, #33	; 0x21
    3b10:	e3a06000 	mov	r6, #0
    3b14:	ef000000 	svc	0x00000000
    3b18:	e8bd80e0 	pop	{r5, r6, r7, pc}

00003b1c <_utee_authenc_init>:
_utee_authenc_init():
/home/qemu-sgx/devel/optee/optee_os/lib/libutee/arch/arm/utee_syscalls_asm.S:80
    3b1c:	e92d40e0 	push	{r5, r6, r7, lr}
    3b20:	e3a07022 	mov	r7, #34	; 0x22
    3b24:	e3a06002 	mov	r6, #2
    3b28:	e28d5010 	add	r5, sp, #16
    3b2c:	ef000000 	svc	0x00000000
    3b30:	e8bd80e0 	pop	{r5, r6, r7, pc}

00003b34 <_utee_authenc_update_aad>:
_utee_authenc_update_aad():
/home/qemu-sgx/devel/optee/optee_os/lib/libutee/arch/arm/utee_syscalls_asm.S:82
    3b34:	e92d40e0 	push	{r5, r6, r7, lr}
    3b38:	e3a07023 	mov	r7, #35	; 0x23
    3b3c:	e3a06000 	mov	r6, #0
    3b40:	ef000000 	svc	0x00000000
    3b44:	e8bd80e0 	pop	{r5, r6, r7, pc}

00003b48 <_utee_authenc_update_payload>:
_utee_authenc_update_payload():
/home/qemu-sgx/devel/optee/optee_os/lib/libutee/arch/arm/utee_syscalls_asm.S:84
    3b48:	e92d40e0 	push	{r5, r6, r7, lr}
    3b4c:	e3a07024 	mov	r7, #36	; 0x24
    3b50:	e3a06001 	mov	r6, #1
    3b54:	e28d5010 	add	r5, sp, #16
    3b58:	ef000000 	svc	0x00000000
    3b5c:	e8bd80e0 	pop	{r5, r6, r7, pc}

00003b60 <_utee_authenc_enc_final>:
_utee_authenc_enc_final():
/home/qemu-sgx/devel/optee/optee_os/lib/libutee/arch/arm/utee_syscalls_asm.S:87
    3b60:	e92d40e0 	push	{r5, r6, r7, lr}
    3b64:	e3a07025 	mov	r7, #37	; 0x25
    3b68:	e3a06003 	mov	r6, #3
    3b6c:	e28d5010 	add	r5, sp, #16
    3b70:	ef000000 	svc	0x00000000
    3b74:	e8bd80e0 	pop	{r5, r6, r7, pc}

00003b78 <_utee_authenc_dec_final>:
_utee_authenc_dec_final():
/home/qemu-sgx/devel/optee/optee_os/lib/libutee/arch/arm/utee_syscalls_asm.S:89
    3b78:	e92d40e0 	push	{r5, r6, r7, lr}
    3b7c:	e3a07026 	mov	r7, #38	; 0x26
    3b80:	e3a06003 	mov	r6, #3
    3b84:	e28d5010 	add	r5, sp, #16
    3b88:	ef000000 	svc	0x00000000
    3b8c:	e8bd80e0 	pop	{r5, r6, r7, pc}

00003b90 <_utee_asymm_operate>:
_utee_asymm_operate():
/home/qemu-sgx/devel/optee/optee_os/lib/libutee/arch/arm/utee_syscalls_asm.S:91
    3b90:	e92d40e0 	push	{r5, r6, r7, lr}
    3b94:	e3a07027 	mov	r7, #39	; 0x27
    3b98:	e3a06003 	mov	r6, #3
    3b9c:	e28d5010 	add	r5, sp, #16
    3ba0:	ef000000 	svc	0x00000000
    3ba4:	e8bd80e0 	pop	{r5, r6, r7, pc}

00003ba8 <_utee_asymm_verify>:
_utee_asymm_verify():
/home/qemu-sgx/devel/optee/optee_os/lib/libutee/arch/arm/utee_syscalls_asm.S:93
    3ba8:	e92d40e0 	push	{r5, r6, r7, lr}
    3bac:	e3a07028 	mov	r7, #40	; 0x28
    3bb0:	e3a06003 	mov	r6, #3
    3bb4:	e28d5010 	add	r5, sp, #16
    3bb8:	ef000000 	svc	0x00000000
    3bbc:	e8bd80e0 	pop	{r5, r6, r7, pc}

00003bc0 <_utee_storage_obj_open>:
_utee_storage_obj_open():
/home/qemu-sgx/devel/optee/optee_os/lib/libutee/arch/arm/utee_syscalls_asm.S:95
    3bc0:	e92d40e0 	push	{r5, r6, r7, lr}
    3bc4:	e3a07029 	mov	r7, #41	; 0x29
    3bc8:	e3a06001 	mov	r6, #1
    3bcc:	e28d5010 	add	r5, sp, #16
    3bd0:	ef000000 	svc	0x00000000
    3bd4:	e8bd80e0 	pop	{r5, r6, r7, pc}

00003bd8 <_utee_storage_obj_create>:
_utee_storage_obj_create():
/home/qemu-sgx/devel/optee/optee_os/lib/libutee/arch/arm/utee_syscalls_asm.S:97
    3bd8:	e92d40e0 	push	{r5, r6, r7, lr}
    3bdc:	e3a0702a 	mov	r7, #42	; 0x2a
    3be0:	e3a06004 	mov	r6, #4
    3be4:	e28d5010 	add	r5, sp, #16
    3be8:	ef000000 	svc	0x00000000
    3bec:	e8bd80e0 	pop	{r5, r6, r7, pc}

00003bf0 <_utee_storage_obj_del>:
_utee_storage_obj_del():
/home/qemu-sgx/devel/optee/optee_os/lib/libutee/arch/arm/utee_syscalls_asm.S:99
    3bf0:	e92d40e0 	push	{r5, r6, r7, lr}
    3bf4:	e3a0702b 	mov	r7, #43	; 0x2b
    3bf8:	e3a06000 	mov	r6, #0
    3bfc:	ef000000 	svc	0x00000000
    3c00:	e8bd80e0 	pop	{r5, r6, r7, pc}

00003c04 <_utee_storage_obj_rename>:
_utee_storage_obj_rename():
/home/qemu-sgx/devel/optee/optee_os/lib/libutee/arch/arm/utee_syscalls_asm.S:101
    3c04:	e92d40e0 	push	{r5, r6, r7, lr}
    3c08:	e3a0702c 	mov	r7, #44	; 0x2c
    3c0c:	e3a06000 	mov	r6, #0
    3c10:	ef000000 	svc	0x00000000
    3c14:	e8bd80e0 	pop	{r5, r6, r7, pc}

00003c18 <_utee_storage_alloc_enum>:
_utee_storage_alloc_enum():
/home/qemu-sgx/devel/optee/optee_os/lib/libutee/arch/arm/utee_syscalls_asm.S:103
    3c18:	e92d40e0 	push	{r5, r6, r7, lr}
    3c1c:	e3a0702d 	mov	r7, #45	; 0x2d
    3c20:	e3a06000 	mov	r6, #0
    3c24:	ef000000 	svc	0x00000000
    3c28:	e8bd80e0 	pop	{r5, r6, r7, pc}

00003c2c <_utee_storage_free_enum>:
_utee_storage_free_enum():
/home/qemu-sgx/devel/optee/optee_os/lib/libutee/arch/arm/utee_syscalls_asm.S:105
    3c2c:	e92d40e0 	push	{r5, r6, r7, lr}
    3c30:	e3a0702e 	mov	r7, #46	; 0x2e
    3c34:	e3a06000 	mov	r6, #0
    3c38:	ef000000 	svc	0x00000000
    3c3c:	e8bd80e0 	pop	{r5, r6, r7, pc}

00003c40 <_utee_storage_reset_enum>:
_utee_storage_reset_enum():
/home/qemu-sgx/devel/optee/optee_os/lib/libutee/arch/arm/utee_syscalls_asm.S:107
    3c40:	e92d40e0 	push	{r5, r6, r7, lr}
    3c44:	e3a0702f 	mov	r7, #47	; 0x2f
    3c48:	e3a06000 	mov	r6, #0
    3c4c:	ef000000 	svc	0x00000000
    3c50:	e8bd80e0 	pop	{r5, r6, r7, pc}

00003c54 <_utee_storage_start_enum>:
_utee_storage_start_enum():
/home/qemu-sgx/devel/optee/optee_os/lib/libutee/arch/arm/utee_syscalls_asm.S:109
    3c54:	e92d40e0 	push	{r5, r6, r7, lr}
    3c58:	e3a07030 	mov	r7, #48	; 0x30
    3c5c:	e3a06000 	mov	r6, #0
    3c60:	ef000000 	svc	0x00000000
    3c64:	e8bd80e0 	pop	{r5, r6, r7, pc}

00003c68 <_utee_storage_next_enum>:
_utee_storage_next_enum():
/home/qemu-sgx/devel/optee/optee_os/lib/libutee/arch/arm/utee_syscalls_asm.S:111
    3c68:	e92d40e0 	push	{r5, r6, r7, lr}
    3c6c:	e3a07031 	mov	r7, #49	; 0x31
    3c70:	e3a06000 	mov	r6, #0
    3c74:	ef000000 	svc	0x00000000
    3c78:	e8bd80e0 	pop	{r5, r6, r7, pc}

00003c7c <_utee_storage_obj_read>:
_utee_storage_obj_read():
/home/qemu-sgx/devel/optee/optee_os/lib/libutee/arch/arm/utee_syscalls_asm.S:113
    3c7c:	e92d40e0 	push	{r5, r6, r7, lr}
    3c80:	e3a07032 	mov	r7, #50	; 0x32
    3c84:	e3a06000 	mov	r6, #0
    3c88:	ef000000 	svc	0x00000000
    3c8c:	e8bd80e0 	pop	{r5, r6, r7, pc}

00003c90 <_utee_storage_obj_write>:
_utee_storage_obj_write():
/home/qemu-sgx/devel/optee/optee_os/lib/libutee/arch/arm/utee_syscalls_asm.S:115
    3c90:	e92d40e0 	push	{r5, r6, r7, lr}
    3c94:	e3a07033 	mov	r7, #51	; 0x33
    3c98:	e3a06000 	mov	r6, #0
    3c9c:	ef000000 	svc	0x00000000
    3ca0:	e8bd80e0 	pop	{r5, r6, r7, pc}

00003ca4 <_utee_storage_obj_trunc>:
_utee_storage_obj_trunc():
/home/qemu-sgx/devel/optee/optee_os/lib/libutee/arch/arm/utee_syscalls_asm.S:117
    3ca4:	e92d40e0 	push	{r5, r6, r7, lr}
    3ca8:	e3a07034 	mov	r7, #52	; 0x34
    3cac:	e3a06000 	mov	r6, #0
    3cb0:	ef000000 	svc	0x00000000
    3cb4:	e8bd80e0 	pop	{r5, r6, r7, pc}

00003cb8 <_utee_storage_obj_seek>:
_utee_storage_obj_seek():
/home/qemu-sgx/devel/optee/optee_os/lib/libutee/arch/arm/utee_syscalls_asm.S:119
    3cb8:	e92d40e0 	push	{r5, r6, r7, lr}
    3cbc:	e3a07035 	mov	r7, #53	; 0x35
    3cc0:	e3a06000 	mov	r6, #0
    3cc4:	ef000000 	svc	0x00000000
    3cc8:	e8bd80e0 	pop	{r5, r6, r7, pc}

00003ccc <_utee_cryp_obj_generate_key>:
_utee_cryp_obj_generate_key():
/home/qemu-sgx/devel/optee/optee_os/lib/libutee/arch/arm/utee_syscalls_asm.S:121
    3ccc:	e92d40e0 	push	{r5, r6, r7, lr}
    3cd0:	e3a07036 	mov	r7, #54	; 0x36
    3cd4:	e3a06000 	mov	r6, #0
    3cd8:	ef000000 	svc	0x00000000
    3cdc:	e8bd80e0 	pop	{r5, r6, r7, pc}

00003ce0 <_utee_cache_operation>:
_utee_cache_operation():
/home/qemu-sgx/devel/optee/optee_os/lib/libutee/arch/arm/utee_syscalls_asm.S:124
    3ce0:	e92d40e0 	push	{r5, r6, r7, lr}
    3ce4:	e3a07046 	mov	r7, #70	; 0x46
    3ce8:	e3a06000 	mov	r6, #0
    3cec:	ef000000 	svc	0x00000000
    3cf0:	e8bd80e0 	pop	{r5, r6, r7, pc}

00003cf4 <copy_param>:
copy_param():
/home/qemu-sgx/devel/optee/optee_os/lib/libutee/tee_api.c:29
    3cf4:	e96d 4508 	strd	r4, r5, [sp, #-32]!
    3cf8:	e9cd 7802 	strd	r7, r8, [sp, #8]
    3cfc:	e9cd 9a04 	strd	r9, sl, [sp, #16]
    3d00:	e9cd be06 	strd	fp, lr, [sp, #24]
    3d04:	b090      	sub	sp, #64	; 0x40
    3d06:	af00      	add	r7, sp, #0
    3d08:	61f8      	str	r0, [r7, #28]
    3d0a:	61b9      	str	r1, [r7, #24]
    3d0c:	617a      	str	r2, [r7, #20]
    3d0e:	613b      	str	r3, [r7, #16]
/home/qemu-sgx/devel/optee/optee_os/lib/libutee/tee_api.c:30
    3d10:	f04f 0300 	mov.w	r3, #0
    3d14:	63fb      	str	r3, [r7, #60]	; 0x3c
/home/qemu-sgx/devel/optee/optee_os/lib/libutee/tee_api.c:31
    3d16:	f04f 0300 	mov.w	r3, #0
    3d1a:	63bb      	str	r3, [r7, #56]	; 0x38
/home/qemu-sgx/devel/optee/optee_os/lib/libutee/tee_api.c:32
    3d1c:	f04f 0300 	mov.w	r3, #0
    3d20:	637b      	str	r3, [r7, #52]	; 0x34
/home/qemu-sgx/devel/optee/optee_os/lib/libutee/tee_api.c:33
    3d22:	f04f 0308 	mov.w	r3, #8
    3d26:	62fb      	str	r3, [r7, #44]	; 0x2c
/home/qemu-sgx/devel/optee/optee_os/lib/libutee/tee_api.c:34
    3d28:	f04f 0300 	mov.w	r3, #0
    3d2c:	623b      	str	r3, [r7, #32]
/home/qemu-sgx/devel/optee/optee_os/lib/libutee/tee_api.c:35
    3d2e:	f04f 0300 	mov.w	r3, #0
    3d32:	633b      	str	r3, [r7, #48]	; 0x30
/home/qemu-sgx/devel/optee/optee_os/lib/libutee/tee_api.c:36
    3d34:	f04f 0300 	mov.w	r3, #0
    3d38:	62bb      	str	r3, [r7, #40]	; 0x28
/home/qemu-sgx/devel/optee/optee_os/lib/libutee/tee_api.c:37
    3d3a:	f04f 0301 	mov.w	r3, #1
    3d3e:	627b      	str	r3, [r7, #36]	; 0x24
/home/qemu-sgx/devel/optee/optee_os/lib/libutee/tee_api.c:45
    3d40:	693b      	ldr	r3, [r7, #16]
    3d42:	f04f 0200 	mov.w	r2, #0
    3d46:	601a      	str	r2, [r3, #0]
/home/qemu-sgx/devel/optee/optee_os/lib/libutee/tee_api.c:46
    3d48:	6e3b      	ldr	r3, [r7, #96]	; 0x60
    3d4a:	f04f 0200 	mov.w	r2, #0
    3d4e:	601a      	str	r2, [r3, #0]
/home/qemu-sgx/devel/optee/optee_os/lib/libutee/tee_api.c:47
    3d50:	f04f 0300 	mov.w	r3, #0
    3d54:	63fb      	str	r3, [r7, #60]	; 0x3c
    3d56:	e04b      	b.n	3df0 <copy_param+0xfc>
/home/qemu-sgx/devel/optee/optee_os/lib/libutee/tee_api.c:48
    3d58:	6bfb      	ldr	r3, [r7, #60]	; 0x3c
    3d5a:	ea4f 0383 	mov.w	r3, r3, lsl #2
    3d5e:	6e7a      	ldr	r2, [r7, #100]	; 0x64
    3d60:	4413      	add	r3, r2
    3d62:	f04f 0200 	mov.w	r2, #0
    3d66:	601a      	str	r2, [r3, #0]
/home/qemu-sgx/devel/optee/optee_os/lib/libutee/tee_api.c:49
    3d68:	6bfb      	ldr	r3, [r7, #60]	; 0x3c
    3d6a:	ea4f 0383 	mov.w	r3, r3, lsl #2
    3d6e:	69ba      	ldr	r2, [r7, #24]
    3d70:	fa22 f303 	lsr.w	r3, r2, r3
    3d74:	f003 030f 	and.w	r3, r3, #15
    3d78:	f1a3 0305 	sub.w	r3, r3, #5
    3d7c:	2b02      	cmp	r3, #2
    3d7e:	d830      	bhi.n	3de2 <copy_param+0xee>
/home/qemu-sgx/devel/optee/optee_os/lib/libutee/tee_api.c:53
    3d80:	6bfb      	ldr	r3, [r7, #60]	; 0x3c
    3d82:	ea4f 03c3 	mov.w	r3, r3, lsl #3
    3d86:	697a      	ldr	r2, [r7, #20]
    3d88:	4413      	add	r3, r2
    3d8a:	681b      	ldr	r3, [r3, #0]
    3d8c:	633b      	str	r3, [r7, #48]	; 0x30
/home/qemu-sgx/devel/optee/optee_os/lib/libutee/tee_api.c:54
    3d8e:	6bfb      	ldr	r3, [r7, #60]	; 0x3c
    3d90:	ea4f 03c3 	mov.w	r3, r3, lsl #3
    3d94:	697a      	ldr	r2, [r7, #20]
    3d96:	4413      	add	r3, r2
    3d98:	685b      	ldr	r3, [r3, #4]
    3d9a:	62bb      	str	r3, [r7, #40]	; 0x28
/home/qemu-sgx/devel/optee/optee_os/lib/libutee/tee_api.c:64
    3d9c:	6b3b      	ldr	r3, [r7, #48]	; 0x30
    3d9e:	2b00      	cmp	r3, #0
    3da0:	d021      	beq.n	3de6 <copy_param+0xf2>
/home/qemu-sgx/devel/optee/optee_os/lib/libutee/tee_api.c:64 (discriminator 1)
    3da2:	6abb      	ldr	r3, [r7, #40]	; 0x28
    3da4:	2b00      	cmp	r3, #0
    3da6:	d01e      	beq.n	3de6 <copy_param+0xf2>
/home/qemu-sgx/devel/optee/optee_os/lib/libutee/tee_api.c:65 (discriminator 2)
    3da8:	6aba      	ldr	r2, [r7, #40]	; 0x28
    3daa:	6b39      	ldr	r1, [r7, #48]	; 0x30
    3dac:	6a78      	ldr	r0, [r7, #36]	; 0x24
    3dae:	f7ff e9e8 	blx	3180 <TEE_CheckMemoryAccessRights@plt>
    3db2:	4603      	mov	r3, r0
/home/qemu-sgx/devel/optee/optee_os/lib/libutee/tee_api.c:64 (discriminator 2)
    3db4:	2b00      	cmp	r3, #0
    3db6:	d116      	bne.n	3de6 <copy_param+0xf2>
/home/qemu-sgx/devel/optee/optee_os/lib/libutee/tee_api.c:66
    3db8:	f107 0220 	add.w	r2, r7, #32
    3dbc:	6bfb      	ldr	r3, [r7, #60]	; 0x3c
    3dbe:	4413      	add	r3, r2
    3dc0:	f04f 0201 	mov.w	r2, #1
    3dc4:	701a      	strb	r2, [r3, #0]
/home/qemu-sgx/devel/optee/optee_os/lib/libutee/tee_api.c:67
    3dc6:	6afa      	ldr	r2, [r7, #44]	; 0x2c
    3dc8:	6abb      	ldr	r3, [r7, #40]	; 0x28
    3dca:	4413      	add	r3, r2
    3dcc:	f103 32ff 	add.w	r2, r3, #4294967295	; 0xffffffff
    3dd0:	6afb      	ldr	r3, [r7, #44]	; 0x2c
    3dd2:	f1c3 0300 	rsb	r3, r3, #0
    3dd6:	ea03 0302 	and.w	r3, r3, r2
    3dda:	6b7a      	ldr	r2, [r7, #52]	; 0x34
    3ddc:	4413      	add	r3, r2
    3dde:	637b      	str	r3, [r7, #52]	; 0x34
/home/qemu-sgx/devel/optee/optee_os/lib/libutee/tee_api.c:69
    3de0:	e001      	b.n	3de6 <copy_param+0xf2>
/home/qemu-sgx/devel/optee/optee_os/lib/libutee/tee_api.c:71
    3de2:	bf00      	nop
    3de4:	e000      	b.n	3de8 <copy_param+0xf4>
/home/qemu-sgx/devel/optee/optee_os/lib/libutee/tee_api.c:69
    3de6:	bf00      	nop
/home/qemu-sgx/devel/optee/optee_os/lib/libutee/tee_api.c:47 (discriminator 2)
    3de8:	6bfb      	ldr	r3, [r7, #60]	; 0x3c
    3dea:	f103 0301 	add.w	r3, r3, #1
    3dee:	63fb      	str	r3, [r7, #60]	; 0x3c
/home/qemu-sgx/devel/optee/optee_os/lib/libutee/tee_api.c:47 (discriminator 1)
    3df0:	6bfb      	ldr	r3, [r7, #60]	; 0x3c
    3df2:	2b03      	cmp	r3, #3
    3df4:	d9b0      	bls.n	3d58 <copy_param+0x64>
/home/qemu-sgx/devel/optee/optee_os/lib/libutee/tee_api.c:75
    3df6:	6b7b      	ldr	r3, [r7, #52]	; 0x34
    3df8:	2b00      	cmp	r3, #0
    3dfa:	d013      	beq.n	3e24 <copy_param+0x130>
/home/qemu-sgx/devel/optee/optee_os/lib/libutee/tee_api.c:76
    3dfc:	f04f 0104 	mov.w	r1, #4
    3e00:	6b78      	ldr	r0, [r7, #52]	; 0x34
    3e02:	f7ff ea96 	blx	3330 <tee_map_zi@plt>
    3e06:	63b8      	str	r0, [r7, #56]	; 0x38
/home/qemu-sgx/devel/optee/optee_os/lib/libutee/tee_api.c:77
    3e08:	6bbb      	ldr	r3, [r7, #56]	; 0x38
    3e0a:	2b00      	cmp	r3, #0
    3e0c:	d104      	bne.n	3e18 <copy_param+0x124>
/home/qemu-sgx/devel/optee/optee_os/lib/libutee/tee_api.c:78
    3e0e:	f04f 030c 	mov.w	r3, #12
    3e12:	f6cf 73ff 	movt	r3, #65535	; 0xffff
    3e16:	e0df      	b.n	3fd8 <copy_param+0x2e4>
/home/qemu-sgx/devel/optee/optee_os/lib/libutee/tee_api.c:79
    3e18:	693b      	ldr	r3, [r7, #16]
    3e1a:	6bba      	ldr	r2, [r7, #56]	; 0x38
    3e1c:	601a      	str	r2, [r3, #0]
/home/qemu-sgx/devel/optee/optee_os/lib/libutee/tee_api.c:80
    3e1e:	6e3b      	ldr	r3, [r7, #96]	; 0x60
    3e20:	6b7a      	ldr	r2, [r7, #52]	; 0x34
    3e22:	601a      	str	r2, [r3, #0]
/home/qemu-sgx/devel/optee/optee_os/lib/libutee/tee_api.c:83
    3e24:	69bb      	ldr	r3, [r7, #24]
    3e26:	f04f 0200 	mov.w	r2, #0
    3e2a:	60bb      	str	r3, [r7, #8]
    3e2c:	60fa      	str	r2, [r7, #12]
    3e2e:	69fb      	ldr	r3, [r7, #28]
    3e30:	e9d7 1202 	ldrd	r1, r2, [r7, #8]
    3e34:	e9c3 1200 	strd	r1, r2, [r3]
/home/qemu-sgx/devel/optee/optee_os/lib/libutee/tee_api.c:84
    3e38:	f04f 0300 	mov.w	r3, #0
    3e3c:	63fb      	str	r3, [r7, #60]	; 0x3c
    3e3e:	e0c5      	b.n	3fcc <copy_param+0x2d8>
/home/qemu-sgx/devel/optee/optee_os/lib/libutee/tee_api.c:85
    3e40:	6bfb      	ldr	r3, [r7, #60]	; 0x3c
    3e42:	ea4f 0383 	mov.w	r3, r3, lsl #2
    3e46:	69ba      	ldr	r2, [r7, #24]
    3e48:	fa22 f303 	lsr.w	r3, r2, r3
    3e4c:	f003 030f 	and.w	r3, r3, #15
    3e50:	2b07      	cmp	r3, #7
    3e52:	f200 809a 	bhi.w	3f8a <copy_param+0x296>
    3e56:	2b05      	cmp	r3, #5
    3e58:	d231      	bcs.n	3ebe <copy_param+0x1ca>
    3e5a:	2b01      	cmp	r3, #1
    3e5c:	d002      	beq.n	3e64 <copy_param+0x170>
    3e5e:	2b03      	cmp	r3, #3
    3e60:	f040 8093 	bne.w	3f8a <copy_param+0x296>
/home/qemu-sgx/devel/optee/optee_os/lib/libutee/tee_api.c:88
    3e64:	6bfb      	ldr	r3, [r7, #60]	; 0x3c
    3e66:	ea4f 03c3 	mov.w	r3, r3, lsl #3
    3e6a:	697a      	ldr	r2, [r7, #20]
    3e6c:	4413      	add	r3, r2
    3e6e:	681a      	ldr	r2, [r3, #0]
    3e70:	6bfb      	ldr	r3, [r7, #60]	; 0x3c
    3e72:	ea4f 0343 	mov.w	r3, r3, lsl #1
    3e76:	f04f 0100 	mov.w	r1, #0
    3e7a:	4614      	mov	r4, r2
    3e7c:	460d      	mov	r5, r1
    3e7e:	69fa      	ldr	r2, [r7, #28]
    3e80:	f103 0301 	add.w	r3, r3, #1
    3e84:	ea4f 03c3 	mov.w	r3, r3, lsl #3
    3e88:	4413      	add	r3, r2
    3e8a:	e9c3 4500 	strd	r4, r5, [r3]
/home/qemu-sgx/devel/optee/optee_os/lib/libutee/tee_api.c:89
    3e8e:	6bfb      	ldr	r3, [r7, #60]	; 0x3c
    3e90:	ea4f 03c3 	mov.w	r3, r3, lsl #3
    3e94:	697a      	ldr	r2, [r7, #20]
    3e96:	4413      	add	r3, r2
    3e98:	685a      	ldr	r2, [r3, #4]
    3e9a:	6bfb      	ldr	r3, [r7, #60]	; 0x3c
    3e9c:	ea4f 0343 	mov.w	r3, r3, lsl #1
    3ea0:	f103 0301 	add.w	r3, r3, #1
    3ea4:	f04f 0100 	mov.w	r1, #0
    3ea8:	4690      	mov	r8, r2
    3eaa:	4689      	mov	r9, r1
    3eac:	69fa      	ldr	r2, [r7, #28]
    3eae:	f103 0301 	add.w	r3, r3, #1
    3eb2:	ea4f 03c3 	mov.w	r3, r3, lsl #3
    3eb6:	4413      	add	r3, r2
    3eb8:	e9c3 8900 	strd	r8, r9, [r3]
/home/qemu-sgx/devel/optee/optee_os/lib/libutee/tee_api.c:90
    3ebc:	e082      	b.n	3fc4 <copy_param+0x2d0>
/home/qemu-sgx/devel/optee/optee_os/lib/libutee/tee_api.c:94
    3ebe:	6bfb      	ldr	r3, [r7, #60]	; 0x3c
    3ec0:	ea4f 03c3 	mov.w	r3, r3, lsl #3
    3ec4:	697a      	ldr	r2, [r7, #20]
    3ec6:	4413      	add	r3, r2
    3ec8:	685b      	ldr	r3, [r3, #4]
    3eca:	62bb      	str	r3, [r7, #40]	; 0x28
/home/qemu-sgx/devel/optee/optee_os/lib/libutee/tee_api.c:95
    3ecc:	f107 0220 	add.w	r2, r7, #32
    3ed0:	6bfb      	ldr	r3, [r7, #60]	; 0x3c
    3ed2:	4413      	add	r3, r2
    3ed4:	781b      	ldrb	r3, [r3, #0]
    3ed6:	2b00      	cmp	r3, #0
    3ed8:	d02b      	beq.n	3f32 <copy_param+0x23e>
/home/qemu-sgx/devel/optee/optee_os/lib/libutee/tee_api.c:96
    3eda:	6bbb      	ldr	r3, [r7, #56]	; 0x38
    3edc:	633b      	str	r3, [r7, #48]	; 0x30
/home/qemu-sgx/devel/optee/optee_os/lib/libutee/tee_api.c:97
    3ede:	6bfb      	ldr	r3, [r7, #60]	; 0x3c
    3ee0:	ea4f 0383 	mov.w	r3, r3, lsl #2
    3ee4:	6e7a      	ldr	r2, [r7, #100]	; 0x64
    3ee6:	4413      	add	r3, r2
    3ee8:	6bba      	ldr	r2, [r7, #56]	; 0x38
    3eea:	601a      	str	r2, [r3, #0]
/home/qemu-sgx/devel/optee/optee_os/lib/libutee/tee_api.c:98
    3eec:	6afa      	ldr	r2, [r7, #44]	; 0x2c
    3eee:	6abb      	ldr	r3, [r7, #40]	; 0x28
    3ef0:	4413      	add	r3, r2
    3ef2:	f103 32ff 	add.w	r2, r3, #4294967295	; 0xffffffff
    3ef6:	6afb      	ldr	r3, [r7, #44]	; 0x2c
    3ef8:	f1c3 0300 	rsb	r3, r3, #0
    3efc:	ea03 0302 	and.w	r3, r3, r2
    3f00:	6bba      	ldr	r2, [r7, #56]	; 0x38
    3f02:	4413      	add	r3, r2
    3f04:	63bb      	str	r3, [r7, #56]	; 0x38
/home/qemu-sgx/devel/optee/optee_os/lib/libutee/tee_api.c:99
    3f06:	6bfb      	ldr	r3, [r7, #60]	; 0x3c
    3f08:	ea4f 0383 	mov.w	r3, r3, lsl #2
    3f0c:	69ba      	ldr	r2, [r7, #24]
    3f0e:	fa22 f303 	lsr.w	r3, r2, r3
    3f12:	f003 030f 	and.w	r3, r3, #15
    3f16:	2b06      	cmp	r3, #6
    3f18:	d012      	beq.n	3f40 <copy_param+0x24c>
/home/qemu-sgx/devel/optee/optee_os/lib/libutee/tee_api.c:101
    3f1a:	6bfb      	ldr	r3, [r7, #60]	; 0x3c
    3f1c:	ea4f 03c3 	mov.w	r3, r3, lsl #3
    3f20:	697a      	ldr	r2, [r7, #20]
    3f22:	4413      	add	r3, r2
    3f24:	681b      	ldr	r3, [r3, #0]
    3f26:	6aba      	ldr	r2, [r7, #40]	; 0x28
    3f28:	4619      	mov	r1, r3
    3f2a:	6b38      	ldr	r0, [r7, #48]	; 0x30
    3f2c:	f7ff e892 	blx	3054 <memcpy@plt>
    3f30:	e006      	b.n	3f40 <copy_param+0x24c>
/home/qemu-sgx/devel/optee/optee_os/lib/libutee/tee_api.c:103
    3f32:	6bfb      	ldr	r3, [r7, #60]	; 0x3c
    3f34:	ea4f 03c3 	mov.w	r3, r3, lsl #3
    3f38:	697a      	ldr	r2, [r7, #20]
    3f3a:	4413      	add	r3, r2
    3f3c:	681b      	ldr	r3, [r3, #0]
    3f3e:	633b      	str	r3, [r7, #48]	; 0x30
/home/qemu-sgx/devel/optee/optee_os/lib/libutee/tee_api.c:105
    3f40:	6b3a      	ldr	r2, [r7, #48]	; 0x30
    3f42:	6bfb      	ldr	r3, [r7, #60]	; 0x3c
    3f44:	ea4f 0343 	mov.w	r3, r3, lsl #1
    3f48:	f04f 0100 	mov.w	r1, #0
    3f4c:	4692      	mov	sl, r2
    3f4e:	468b      	mov	fp, r1
    3f50:	69fa      	ldr	r2, [r7, #28]
    3f52:	f103 0301 	add.w	r3, r3, #1
    3f56:	ea4f 03c3 	mov.w	r3, r3, lsl #3
    3f5a:	4413      	add	r3, r2
    3f5c:	e9c3 ab00 	strd	sl, fp, [r3]
/home/qemu-sgx/devel/optee/optee_os/lib/libutee/tee_api.c:106
    3f60:	6bfb      	ldr	r3, [r7, #60]	; 0x3c
    3f62:	ea4f 0343 	mov.w	r3, r3, lsl #1
    3f66:	f103 0301 	add.w	r3, r3, #1
    3f6a:	6aba      	ldr	r2, [r7, #40]	; 0x28
    3f6c:	f04f 0100 	mov.w	r1, #0
    3f70:	603a      	str	r2, [r7, #0]
    3f72:	6079      	str	r1, [r7, #4]
    3f74:	69fa      	ldr	r2, [r7, #28]
    3f76:	f103 0301 	add.w	r3, r3, #1
    3f7a:	ea4f 03c3 	mov.w	r3, r3, lsl #3
    3f7e:	4413      	add	r3, r2
    3f80:	e9d7 1200 	ldrd	r1, r2, [r7]
    3f84:	e9c3 1200 	strd	r1, r2, [r3]
/home/qemu-sgx/devel/optee/optee_os/lib/libutee/tee_api.c:107
    3f88:	e01c      	b.n	3fc4 <copy_param+0x2d0>
/home/qemu-sgx/devel/optee/optee_os/lib/libutee/tee_api.c:109
    3f8a:	6bfb      	ldr	r3, [r7, #60]	; 0x3c
    3f8c:	ea4f 0343 	mov.w	r3, r3, lsl #1
    3f90:	69fa      	ldr	r2, [r7, #28]
    3f92:	f103 0301 	add.w	r3, r3, #1
    3f96:	ea4f 03c3 	mov.w	r3, r3, lsl #3
    3f9a:	4413      	add	r3, r2
    3f9c:	efc0 0010 	vmov.i32	d16, #0	; 0x00000000
    3fa0:	edc3 0b00 	vstr	d16, [r3]
/home/qemu-sgx/devel/optee/optee_os/lib/libutee/tee_api.c:110
    3fa4:	6bfb      	ldr	r3, [r7, #60]	; 0x3c
    3fa6:	ea4f 0343 	mov.w	r3, r3, lsl #1
    3faa:	f103 0301 	add.w	r3, r3, #1
    3fae:	69fa      	ldr	r2, [r7, #28]
    3fb0:	f103 0301 	add.w	r3, r3, #1
    3fb4:	ea4f 03c3 	mov.w	r3, r3, lsl #3
    3fb8:	4413      	add	r3, r2
    3fba:	efc0 0010 	vmov.i32	d16, #0	; 0x00000000
    3fbe:	edc3 0b00 	vstr	d16, [r3]
/home/qemu-sgx/devel/optee/optee_os/lib/libutee/tee_api.c:111
    3fc2:	bf00      	nop
/home/qemu-sgx/devel/optee/optee_os/lib/libutee/tee_api.c:84 (discriminator 2)
    3fc4:	6bfb      	ldr	r3, [r7, #60]	; 0x3c
    3fc6:	f103 0301 	add.w	r3, r3, #1
    3fca:	63fb      	str	r3, [r7, #60]	; 0x3c
/home/qemu-sgx/devel/optee/optee_os/lib/libutee/tee_api.c:84 (discriminator 1)
    3fcc:	6bfb      	ldr	r3, [r7, #60]	; 0x3c
    3fce:	2b03      	cmp	r3, #3
    3fd0:	f67f af36 	bls.w	3e40 <copy_param+0x14c>
/home/qemu-sgx/devel/optee/optee_os/lib/libutee/tee_api.c:115
    3fd4:	f04f 0300 	mov.w	r3, #0
/home/qemu-sgx/devel/optee/optee_os/lib/libutee/tee_api.c:116 (discriminator 1)
    3fd8:	4618      	mov	r0, r3
    3fda:	f107 0740 	add.w	r7, r7, #64	; 0x40
    3fde:	46bd      	mov	sp, r7
    3fe0:	e9dd 4500 	ldrd	r4, r5, [sp]
    3fe4:	e9dd 7802 	ldrd	r7, r8, [sp, #8]
    3fe8:	e9dd 9a04 	ldrd	r9, sl, [sp, #16]
    3fec:	b006      	add	sp, #24
    3fee:	e8bd 8800 	ldmia.w	sp!, {fp, pc}

00003ff2 <update_out_param>:
update_out_param():
/home/qemu-sgx/devel/optee/optee_os/lib/libutee/tee_api.c:121
    3ff2:	e96d 7e02 	strd	r7, lr, [sp, #-8]!
    3ff6:	b08a      	sub	sp, #40	; 0x28
    3ff8:	af00      	add	r7, sp, #0
    3ffa:	60f8      	str	r0, [r7, #12]
    3ffc:	60b9      	str	r1, [r7, #8]
    3ffe:	607a      	str	r2, [r7, #4]
/home/qemu-sgx/devel/optee/optee_os/lib/libutee/tee_api.c:123
    4000:	687b      	ldr	r3, [r7, #4]
    4002:	e9d3 2300 	ldrd	r2, r3, [r3]
    4006:	4613      	mov	r3, r2
    4008:	623b      	str	r3, [r7, #32]
/home/qemu-sgx/devel/optee/optee_os/lib/libutee/tee_api.c:125
    400a:	f04f 0300 	mov.w	r3, #0
    400e:	627b      	str	r3, [r7, #36]	; 0x24
    4010:	e06e      	b.n	40f0 <update_out_param+0xfe>
/home/qemu-sgx/devel/optee/optee_os/lib/libutee/tee_api.c:126
    4012:	6a7b      	ldr	r3, [r7, #36]	; 0x24
    4014:	ea4f 0343 	mov.w	r3, r3, lsl #1
    4018:	687a      	ldr	r2, [r7, #4]
    401a:	f103 0301 	add.w	r3, r3, #1
    401e:	ea4f 03c3 	mov.w	r3, r3, lsl #3
    4022:	4413      	add	r3, r2
    4024:	e9d3 2300 	ldrd	r2, r3, [r3]
    4028:	4613      	mov	r3, r2
    402a:	61fb      	str	r3, [r7, #28]
/home/qemu-sgx/devel/optee/optee_os/lib/libutee/tee_api.c:127
    402c:	6a7b      	ldr	r3, [r7, #36]	; 0x24
    402e:	ea4f 0343 	mov.w	r3, r3, lsl #1
    4032:	f103 0301 	add.w	r3, r3, #1
    4036:	687a      	ldr	r2, [r7, #4]
    4038:	f103 0301 	add.w	r3, r3, #1
    403c:	ea4f 03c3 	mov.w	r3, r3, lsl #3
    4040:	4413      	add	r3, r2
    4042:	e9d3 2300 	ldrd	r2, r3, [r3]
    4046:	4613      	mov	r3, r2
    4048:	61bb      	str	r3, [r7, #24]
/home/qemu-sgx/devel/optee/optee_os/lib/libutee/tee_api.c:129
    404a:	6a7b      	ldr	r3, [r7, #36]	; 0x24
    404c:	ea4f 0383 	mov.w	r3, r3, lsl #2
    4050:	6a3a      	ldr	r2, [r7, #32]
    4052:	fa22 f303 	lsr.w	r3, r2, r3
    4056:	f003 030f 	and.w	r3, r3, #15
    405a:	2b03      	cmp	r3, #3
    405c:	d802      	bhi.n	4064 <update_out_param+0x72>
    405e:	2b02      	cmp	r3, #2
    4060:	d205      	bcs.n	406e <update_out_param+0x7c>
/home/qemu-sgx/devel/optee/optee_os/lib/libutee/tee_api.c:143
    4062:	e040      	b.n	40e6 <update_out_param+0xf4>
    4064:	f1a3 0306 	sub.w	r3, r3, #6
/home/qemu-sgx/devel/optee/optee_os/lib/libutee/tee_api.c:129
    4068:	2b01      	cmp	r3, #1
    406a:	d83c      	bhi.n	40e6 <update_out_param+0xf4>
    406c:	e00e      	b.n	408c <update_out_param+0x9a>
/home/qemu-sgx/devel/optee/optee_os/lib/libutee/tee_api.c:132
    406e:	6a7b      	ldr	r3, [r7, #36]	; 0x24
    4070:	ea4f 03c3 	mov.w	r3, r3, lsl #3
    4074:	68fa      	ldr	r2, [r7, #12]
    4076:	4413      	add	r3, r2
    4078:	69fa      	ldr	r2, [r7, #28]
    407a:	601a      	str	r2, [r3, #0]
/home/qemu-sgx/devel/optee/optee_os/lib/libutee/tee_api.c:133
    407c:	6a7b      	ldr	r3, [r7, #36]	; 0x24
    407e:	ea4f 03c3 	mov.w	r3, r3, lsl #3
    4082:	68fa      	ldr	r2, [r7, #12]
    4084:	4413      	add	r3, r2
    4086:	69ba      	ldr	r2, [r7, #24]
    4088:	605a      	str	r2, [r3, #4]
/home/qemu-sgx/devel/optee/optee_os/lib/libutee/tee_api.c:134
    408a:	e02d      	b.n	40e8 <update_out_param+0xf6>
/home/qemu-sgx/devel/optee/optee_os/lib/libutee/tee_api.c:137
    408c:	6a7b      	ldr	r3, [r7, #36]	; 0x24
    408e:	ea4f 0383 	mov.w	r3, r3, lsl #2
    4092:	68ba      	ldr	r2, [r7, #8]
    4094:	4413      	add	r3, r2
    4096:	681b      	ldr	r3, [r3, #0]
    4098:	2b00      	cmp	r3, #0
    409a:	d01c      	beq.n	40d6 <update_out_param+0xe4>
/home/qemu-sgx/devel/optee/optee_os/lib/libutee/tee_api.c:138
    409c:	6a7b      	ldr	r3, [r7, #36]	; 0x24
    409e:	ea4f 03c3 	mov.w	r3, r3, lsl #3
    40a2:	68fa      	ldr	r2, [r7, #12]
    40a4:	4413      	add	r3, r2
    40a6:	6818      	ldr	r0, [r3, #0]
    40a8:	6a7b      	ldr	r3, [r7, #36]	; 0x24
    40aa:	ea4f 0383 	mov.w	r3, r3, lsl #2
    40ae:	68ba      	ldr	r2, [r7, #8]
    40b0:	4413      	add	r3, r2
    40b2:	6819      	ldr	r1, [r3, #0]
/home/qemu-sgx/devel/optee/optee_os/lib/libutee/tee_api.c:139
    40b4:	69bb      	ldr	r3, [r7, #24]
    40b6:	617b      	str	r3, [r7, #20]
    40b8:	6a7b      	ldr	r3, [r7, #36]	; 0x24
    40ba:	ea4f 03c3 	mov.w	r3, r3, lsl #3
    40be:	68fa      	ldr	r2, [r7, #12]
    40c0:	4413      	add	r3, r2
    40c2:	685b      	ldr	r3, [r3, #4]
    40c4:	613b      	str	r3, [r7, #16]
    40c6:	693a      	ldr	r2, [r7, #16]
    40c8:	697b      	ldr	r3, [r7, #20]
    40ca:	4293      	cmp	r3, r2
    40cc:	bf28      	it	cs
    40ce:	4613      	movcs	r3, r2
/home/qemu-sgx/devel/optee/optee_os/lib/libutee/tee_api.c:138
    40d0:	461a      	mov	r2, r3
    40d2:	f7fe efc0 	blx	3054 <memcpy@plt>
/home/qemu-sgx/devel/optee/optee_os/lib/libutee/tee_api.c:140
    40d6:	6a7b      	ldr	r3, [r7, #36]	; 0x24
    40d8:	ea4f 03c3 	mov.w	r3, r3, lsl #3
    40dc:	68fa      	ldr	r2, [r7, #12]
    40de:	4413      	add	r3, r2
    40e0:	69ba      	ldr	r2, [r7, #24]
    40e2:	605a      	str	r2, [r3, #4]
/home/qemu-sgx/devel/optee/optee_os/lib/libutee/tee_api.c:141
    40e4:	e000      	b.n	40e8 <update_out_param+0xf6>
/home/qemu-sgx/devel/optee/optee_os/lib/libutee/tee_api.c:143
    40e6:	bf00      	nop
/home/qemu-sgx/devel/optee/optee_os/lib/libutee/tee_api.c:125 (discriminator 2)
    40e8:	6a7b      	ldr	r3, [r7, #36]	; 0x24
    40ea:	f103 0301 	add.w	r3, r3, #1
    40ee:	627b      	str	r3, [r7, #36]	; 0x24
/home/qemu-sgx/devel/optee/optee_os/lib/libutee/tee_api.c:125 (discriminator 1)
    40f0:	6a7b      	ldr	r3, [r7, #36]	; 0x24
    40f2:	2b03      	cmp	r3, #3
    40f4:	d98d      	bls.n	4012 <update_out_param+0x20>
/home/qemu-sgx/devel/optee/optee_os/lib/libutee/tee_api.c:146
    40f6:	bf00      	nop
    40f8:	bf00      	nop
    40fa:	f107 0728 	add.w	r7, r7, #40	; 0x28
    40fe:	46bd      	mov	sp, r7
    4100:	bd80      	pop	{r7, pc}

00004102 <TEE_OpenTASession>:
TEE_OpenTASession():
/home/qemu-sgx/devel/optee/optee_os/lib/libutee/tee_api.c:154
    4102:	e96d 7e02 	strd	r7, lr, [sp, #-8]!
    4106:	b0a2      	sub	sp, #136	; 0x88
    4108:	af02      	add	r7, sp, #8
    410a:	60f8      	str	r0, [r7, #12]
    410c:	60b9      	str	r1, [r7, #8]
    410e:	607a      	str	r2, [r7, #4]
    4110:	603b      	str	r3, [r7, #0]
/home/qemu-sgx/devel/optee/optee_os/lib/libutee/tee_api.c:155
    4112:	f04f 0300 	mov.w	r3, #0
    4116:	67fb      	str	r3, [r7, #124]	; 0x7c
/home/qemu-sgx/devel/optee/optee_os/lib/libutee/tee_api.c:157
    4118:	f04f 0300 	mov.w	r3, #0
    411c:	62fb      	str	r3, [r7, #44]	; 0x2c
/home/qemu-sgx/devel/optee/optee_os/lib/libutee/tee_api.c:158
    411e:	f04f 0300 	mov.w	r3, #0
    4122:	62bb      	str	r3, [r7, #40]	; 0x28
/home/qemu-sgx/devel/optee/optee_os/lib/libutee/tee_api.c:159
    4124:	f04f 0300 	mov.w	r3, #0
    4128:	627b      	str	r3, [r7, #36]	; 0x24
/home/qemu-sgx/devel/optee/optee_os/lib/libutee/tee_api.c:160
    412a:	f107 0314 	add.w	r3, r7, #20
    412e:	efc0 0010 	vmov.i32	d16, #0	; 0x00000000
    4132:	edc3 0b00 	vstr	d16, [r3]
    4136:	edc3 0b02 	vstr	d16, [r3, #8]
/home/qemu-sgx/devel/optee/optee_os/lib/libutee/tee_api.c:162
    413a:	687b      	ldr	r3, [r7, #4]
    413c:	2b00      	cmp	r3, #0
    413e:	d004      	beq.n	414a <TEE_OpenTASession+0x48>
/home/qemu-sgx/devel/optee/optee_os/lib/libutee/tee_api.c:163
    4140:	f04f 0120 	mov.w	r1, #32
    4144:	6838      	ldr	r0, [r7, #0]
    4146:	f7fe ef2c 	blx	2fa0 <__utee_check_inout_annotation@plt>
/home/qemu-sgx/devel/optee/optee_os/lib/libutee/tee_api.c:166
    414a:	f04f 0104 	mov.w	r1, #4
    414e:	f8d7 0088 	ldr.w	r0, [r7, #136]	; 0x88
    4152:	f7fe efda 	blx	3108 <__utee_check_out_annotation@plt>
/home/qemu-sgx/devel/optee/optee_os/lib/libutee/tee_api.c:168
    4156:	f107 0228 	add.w	r2, r7, #40	; 0x28
    415a:	f107 0030 	add.w	r0, r7, #48	; 0x30
    415e:	f107 0314 	add.w	r3, r7, #20
    4162:	9301      	str	r3, [sp, #4]
    4164:	f107 0324 	add.w	r3, r7, #36	; 0x24
    4168:	9300      	str	r3, [sp, #0]
    416a:	4613      	mov	r3, r2
    416c:	683a      	ldr	r2, [r7, #0]
    416e:	6879      	ldr	r1, [r7, #4]
    4170:	f7ff fdc0 	bl	3cf4 <copy_param>
    4174:	67f8      	str	r0, [r7, #124]	; 0x7c
/home/qemu-sgx/devel/optee/optee_os/lib/libutee/tee_api.c:169
    4176:	6ffb      	ldr	r3, [r7, #124]	; 0x7c
    4178:	2b00      	cmp	r3, #0
    417a:	d125      	bne.n	41c8 <TEE_OpenTASession+0xc6>
/home/qemu-sgx/devel/optee/optee_os/lib/libutee/tee_api.c:171
    417c:	f107 012c 	add.w	r1, r7, #44	; 0x2c
    4180:	f107 0230 	add.w	r2, r7, #48	; 0x30
    4184:	f8d7 308c 	ldr.w	r3, [r7, #140]	; 0x8c
    4188:	9300      	str	r3, [sp, #0]
    418a:	460b      	mov	r3, r1
    418c:	68b9      	ldr	r1, [r7, #8]
    418e:	68f8      	ldr	r0, [r7, #12]
    4190:	f7ff e8c2 	blx	3318 <_utee_open_ta_session@plt>
    4194:	67f8      	str	r0, [r7, #124]	; 0x7c
/home/qemu-sgx/devel/optee/optee_os/lib/libutee/tee_api.c:173
    4196:	f107 0230 	add.w	r2, r7, #48	; 0x30
    419a:	f107 0314 	add.w	r3, r7, #20
    419e:	4619      	mov	r1, r3
    41a0:	6838      	ldr	r0, [r7, #0]
    41a2:	f7ff ff26 	bl	3ff2 <update_out_param>
/home/qemu-sgx/devel/optee/optee_os/lib/libutee/tee_api.c:174
    41a6:	6abb      	ldr	r3, [r7, #40]	; 0x28
    41a8:	2b00      	cmp	r3, #0
    41aa:	d00f      	beq.n	41cc <TEE_OpenTASession+0xca>
/home/qemu-sgx/devel/optee/optee_os/lib/libutee/tee_api.c:175
    41ac:	6abb      	ldr	r3, [r7, #40]	; 0x28
    41ae:	6a7a      	ldr	r2, [r7, #36]	; 0x24
    41b0:	4611      	mov	r1, r2
    41b2:	4618      	mov	r0, r3
    41b4:	f7fe efa2 	blx	30fc <tee_unmap@plt>
    41b8:	67b8      	str	r0, [r7, #120]	; 0x78
/home/qemu-sgx/devel/optee/optee_os/lib/libutee/tee_api.c:177
    41ba:	6fbb      	ldr	r3, [r7, #120]	; 0x78
    41bc:	2b00      	cmp	r3, #0
    41be:	d005      	beq.n	41cc <TEE_OpenTASession+0xca>
/home/qemu-sgx/devel/optee/optee_os/lib/libutee/tee_api.c:178
    41c0:	6fb8      	ldr	r0, [r7, #120]	; 0x78
    41c2:	f7fe ef4e 	blx	3060 <TEE_Panic@plt>
    41c6:	e002      	b.n	41ce <TEE_OpenTASession+0xcc>
/home/qemu-sgx/devel/optee/optee_os/lib/libutee/tee_api.c:170
    41c8:	bf00      	nop
    41ca:	e000      	b.n	41ce <TEE_OpenTASession+0xcc>
/home/qemu-sgx/devel/optee/optee_os/lib/libutee/tee_api.c:181
    41cc:	bf00      	nop
/home/qemu-sgx/devel/optee/optee_os/lib/libutee/tee_api.c:187
    41ce:	6ffb      	ldr	r3, [r7, #124]	; 0x7c
    41d0:	2b00      	cmp	r3, #0
    41d2:	d002      	beq.n	41da <TEE_OpenTASession+0xd8>
/home/qemu-sgx/devel/optee/optee_os/lib/libutee/tee_api.c:188
    41d4:	f04f 0300 	mov.w	r3, #0
    41d8:	62fb      	str	r3, [r7, #44]	; 0x2c
/home/qemu-sgx/devel/optee/optee_os/lib/libutee/tee_api.c:190
    41da:	6afb      	ldr	r3, [r7, #44]	; 0x2c
    41dc:	461a      	mov	r2, r3
    41de:	f8d7 3088 	ldr.w	r3, [r7, #136]	; 0x88
    41e2:	601a      	str	r2, [r3, #0]
/home/qemu-sgx/devel/optee/optee_os/lib/libutee/tee_api.c:191
    41e4:	6ffb      	ldr	r3, [r7, #124]	; 0x7c
/home/qemu-sgx/devel/optee/optee_os/lib/libutee/tee_api.c:192
    41e6:	4618      	mov	r0, r3
    41e8:	f107 0780 	add.w	r7, r7, #128	; 0x80
    41ec:	46bd      	mov	sp, r7
    41ee:	bd80      	pop	{r7, pc}

000041f0 <TEE_CloseTASession>:
TEE_CloseTASession():
/home/qemu-sgx/devel/optee/optee_os/lib/libutee/tee_api.c:195
    41f0:	e96d 7e02 	strd	r7, lr, [sp, #-8]!
    41f4:	b084      	sub	sp, #16
    41f6:	af00      	add	r7, sp, #0
    41f8:	6078      	str	r0, [r7, #4]
/home/qemu-sgx/devel/optee/optee_os/lib/libutee/tee_api.c:196
    41fa:	687b      	ldr	r3, [r7, #4]
    41fc:	2b00      	cmp	r3, #0
    41fe:	d00a      	beq.n	4216 <TEE_CloseTASession+0x26>
/home/qemu-sgx/devel/optee/optee_os/lib/libutee/tee_api.c:197
    4200:	687b      	ldr	r3, [r7, #4]
    4202:	4618      	mov	r0, r3
    4204:	f7fe ef86 	blx	3114 <_utee_close_ta_session@plt>
    4208:	60f8      	str	r0, [r7, #12]
/home/qemu-sgx/devel/optee/optee_os/lib/libutee/tee_api.c:199
    420a:	68fb      	ldr	r3, [r7, #12]
    420c:	2b00      	cmp	r3, #0
    420e:	d002      	beq.n	4216 <TEE_CloseTASession+0x26>
/home/qemu-sgx/devel/optee/optee_os/lib/libutee/tee_api.c:200
    4210:	68f8      	ldr	r0, [r7, #12]
    4212:	f7fe ef26 	blx	3060 <TEE_Panic@plt>
/home/qemu-sgx/devel/optee/optee_os/lib/libutee/tee_api.c:202
    4216:	bf00      	nop
    4218:	f107 0710 	add.w	r7, r7, #16
    421c:	46bd      	mov	sp, r7
    421e:	bd80      	pop	{r7, pc}

00004220 <TEE_InvokeTACommand>:
TEE_InvokeTACommand():
/home/qemu-sgx/devel/optee/optee_os/lib/libutee/tee_api.c:209
    4220:	e96d 7e02 	strd	r7, lr, [sp, #-8]!
    4224:	b0a2      	sub	sp, #136	; 0x88
    4226:	af02      	add	r7, sp, #8
    4228:	60f8      	str	r0, [r7, #12]
    422a:	60b9      	str	r1, [r7, #8]
    422c:	607a      	str	r2, [r7, #4]
    422e:	603b      	str	r3, [r7, #0]
/home/qemu-sgx/devel/optee/optee_os/lib/libutee/tee_api.c:210
    4230:	f04f 0300 	mov.w	r3, #0
    4234:	67fb      	str	r3, [r7, #124]	; 0x7c
/home/qemu-sgx/devel/optee/optee_os/lib/libutee/tee_api.c:211
    4236:	f04f 0303 	mov.w	r3, #3
    423a:	677b      	str	r3, [r7, #116]	; 0x74
/home/qemu-sgx/devel/optee/optee_os/lib/libutee/tee_api.c:213
    423c:	f04f 0300 	mov.w	r3, #0
    4240:	627b      	str	r3, [r7, #36]	; 0x24
/home/qemu-sgx/devel/optee/optee_os/lib/libutee/tee_api.c:214
    4242:	f04f 0300 	mov.w	r3, #0
    4246:	623b      	str	r3, [r7, #32]
/home/qemu-sgx/devel/optee/optee_os/lib/libutee/tee_api.c:215
    4248:	f107 0310 	add.w	r3, r7, #16
    424c:	efc0 0010 	vmov.i32	d16, #0	; 0x00000000
    4250:	edc3 0b00 	vstr	d16, [r3]
    4254:	edc3 0b02 	vstr	d16, [r3, #8]
/home/qemu-sgx/devel/optee/optee_os/lib/libutee/tee_api.c:217
    4258:	683b      	ldr	r3, [r7, #0]
    425a:	2b00      	cmp	r3, #0
    425c:	d005      	beq.n	426a <TEE_InvokeTACommand+0x4a>
/home/qemu-sgx/devel/optee/optee_os/lib/libutee/tee_api.c:218
    425e:	f04f 0120 	mov.w	r1, #32
    4262:	f8d7 0088 	ldr.w	r0, [r7, #136]	; 0x88
    4266:	f7fe ee9c 	blx	2fa0 <__utee_check_inout_annotation@plt>
/home/qemu-sgx/devel/optee/optee_os/lib/libutee/tee_api.c:221
    426a:	f8d7 308c 	ldr.w	r3, [r7, #140]	; 0x8c
    426e:	2b00      	cmp	r3, #0
    4270:	d005      	beq.n	427e <TEE_InvokeTACommand+0x5e>
/home/qemu-sgx/devel/optee/optee_os/lib/libutee/tee_api.c:222
    4272:	f04f 0104 	mov.w	r1, #4
    4276:	f8d7 008c 	ldr.w	r0, [r7, #140]	; 0x8c
    427a:	f7fe ef46 	blx	3108 <__utee_check_out_annotation@plt>
/home/qemu-sgx/devel/optee/optee_os/lib/libutee/tee_api.c:225
    427e:	f107 0224 	add.w	r2, r7, #36	; 0x24
    4282:	f107 0028 	add.w	r0, r7, #40	; 0x28
    4286:	f107 0310 	add.w	r3, r7, #16
    428a:	9301      	str	r3, [sp, #4]
    428c:	f107 0320 	add.w	r3, r7, #32
    4290:	9300      	str	r3, [sp, #0]
    4292:	4613      	mov	r3, r2
    4294:	f8d7 2088 	ldr.w	r2, [r7, #136]	; 0x88
    4298:	6839      	ldr	r1, [r7, #0]
    429a:	f7ff fd2b 	bl	3cf4 <copy_param>
    429e:	67f8      	str	r0, [r7, #124]	; 0x7c
/home/qemu-sgx/devel/optee/optee_os/lib/libutee/tee_api.c:226
    42a0:	6ffb      	ldr	r3, [r7, #124]	; 0x7c
    42a2:	2b00      	cmp	r3, #0
    42a4:	d125      	bne.n	42f2 <TEE_InvokeTACommand+0xd2>
/home/qemu-sgx/devel/optee/optee_os/lib/libutee/tee_api.c:228
    42a6:	68f8      	ldr	r0, [r7, #12]
    42a8:	f107 0228 	add.w	r2, r7, #40	; 0x28
    42ac:	f107 0374 	add.w	r3, r7, #116	; 0x74
    42b0:	9300      	str	r3, [sp, #0]
    42b2:	4613      	mov	r3, r2
    42b4:	687a      	ldr	r2, [r7, #4]
    42b6:	68b9      	ldr	r1, [r7, #8]
    42b8:	f7fe efc8 	blx	324c <_utee_invoke_ta_command@plt>
    42bc:	67f8      	str	r0, [r7, #124]	; 0x7c
/home/qemu-sgx/devel/optee/optee_os/lib/libutee/tee_api.c:231
    42be:	f107 0228 	add.w	r2, r7, #40	; 0x28
    42c2:	f107 0310 	add.w	r3, r7, #16
    42c6:	4619      	mov	r1, r3
    42c8:	f8d7 0088 	ldr.w	r0, [r7, #136]	; 0x88
    42cc:	f7ff fe91 	bl	3ff2 <update_out_param>
/home/qemu-sgx/devel/optee/optee_os/lib/libutee/tee_api.c:232
    42d0:	6a7b      	ldr	r3, [r7, #36]	; 0x24
    42d2:	2b00      	cmp	r3, #0
    42d4:	d00f      	beq.n	42f6 <TEE_InvokeTACommand+0xd6>
/home/qemu-sgx/devel/optee/optee_os/lib/libutee/tee_api.c:233
    42d6:	6a7b      	ldr	r3, [r7, #36]	; 0x24
    42d8:	6a3a      	ldr	r2, [r7, #32]
    42da:	4611      	mov	r1, r2
    42dc:	4618      	mov	r0, r3
    42de:	f7fe ef0e 	blx	30fc <tee_unmap@plt>
    42e2:	67b8      	str	r0, [r7, #120]	; 0x78
/home/qemu-sgx/devel/optee/optee_os/lib/libutee/tee_api.c:235
    42e4:	6fbb      	ldr	r3, [r7, #120]	; 0x78
    42e6:	2b00      	cmp	r3, #0
    42e8:	d005      	beq.n	42f6 <TEE_InvokeTACommand+0xd6>
/home/qemu-sgx/devel/optee/optee_os/lib/libutee/tee_api.c:236
    42ea:	6fb8      	ldr	r0, [r7, #120]	; 0x78
    42ec:	f7fe eeb8 	blx	3060 <TEE_Panic@plt>
    42f0:	e002      	b.n	42f8 <TEE_InvokeTACommand+0xd8>
/home/qemu-sgx/devel/optee/optee_os/lib/libutee/tee_api.c:227
    42f2:	bf00      	nop
    42f4:	e000      	b.n	42f8 <TEE_InvokeTACommand+0xd8>
/home/qemu-sgx/devel/optee/optee_os/lib/libutee/tee_api.c:239
    42f6:	bf00      	nop
/home/qemu-sgx/devel/optee/optee_os/lib/libutee/tee_api.c:240
    42f8:	f8d7 308c 	ldr.w	r3, [r7, #140]	; 0x8c
    42fc:	2b00      	cmp	r3, #0
    42fe:	d003      	beq.n	4308 <TEE_InvokeTACommand+0xe8>
/home/qemu-sgx/devel/optee/optee_os/lib/libutee/tee_api.c:241
    4300:	6f7a      	ldr	r2, [r7, #116]	; 0x74
    4302:	f8d7 308c 	ldr.w	r3, [r7, #140]	; 0x8c
    4306:	601a      	str	r2, [r3, #0]
/home/qemu-sgx/devel/optee/optee_os/lib/libutee/tee_api.c:243
    4308:	6f7b      	ldr	r3, [r7, #116]	; 0x74
    430a:	2b04      	cmp	r3, #4
    430c:	d101      	bne.n	4312 <TEE_InvokeTACommand+0xf2>
/home/qemu-sgx/devel/optee/optee_os/lib/libutee/tee_api.c:244
    430e:	6ffb      	ldr	r3, [r7, #124]	; 0x7c
    4310:	e014      	b.n	433c <TEE_InvokeTACommand+0x11c>
/home/qemu-sgx/devel/optee/optee_os/lib/libutee/tee_api.c:246
    4312:	6ffb      	ldr	r3, [r7, #124]	; 0x7c
    4314:	2b00      	cmp	r3, #0
    4316:	d010      	beq.n	433a <TEE_InvokeTACommand+0x11a>
/home/qemu-sgx/devel/optee/optee_os/lib/libutee/tee_api.c:246 (discriminator 1)
    4318:	6ffa      	ldr	r2, [r7, #124]	; 0x7c
    431a:	f04f 030c 	mov.w	r3, #12
    431e:	f6cf 73ff 	movt	r3, #65535	; 0xffff
    4322:	429a      	cmp	r2, r3
    4324:	d009      	beq.n	433a <TEE_InvokeTACommand+0x11a>
/home/qemu-sgx/devel/optee/optee_os/lib/libutee/tee_api.c:247
    4326:	6ffa      	ldr	r2, [r7, #124]	; 0x7c
    4328:	f243 0324 	movw	r3, #12324	; 0x3024
    432c:	f6cf 73ff 	movt	r3, #65535	; 0xffff
    4330:	429a      	cmp	r2, r3
    4332:	d002      	beq.n	433a <TEE_InvokeTACommand+0x11a>
/home/qemu-sgx/devel/optee/optee_os/lib/libutee/tee_api.c:249
    4334:	6ff8      	ldr	r0, [r7, #124]	; 0x7c
    4336:	f7fe ee94 	blx	3060 <TEE_Panic@plt>
/home/qemu-sgx/devel/optee/optee_os/lib/libutee/tee_api.c:251
    433a:	6ffb      	ldr	r3, [r7, #124]	; 0x7c
/home/qemu-sgx/devel/optee/optee_os/lib/libutee/tee_api.c:252 (discriminator 1)
    433c:	4618      	mov	r0, r3
    433e:	f107 0780 	add.w	r7, r7, #128	; 0x80
    4342:	46bd      	mov	sp, r7
    4344:	bd80      	pop	{r7, pc}

00004346 <TEE_GetCancellationFlag>:
TEE_GetCancellationFlag():
/home/qemu-sgx/devel/optee/optee_os/lib/libutee/tee_api.c:257
    4346:	e96d 7e02 	strd	r7, lr, [sp, #-8]!
    434a:	b082      	sub	sp, #8
    434c:	af00      	add	r7, sp, #0
/home/qemu-sgx/devel/optee/optee_os/lib/libutee/tee_api.c:259
    434e:	463b      	mov	r3, r7
    4350:	4618      	mov	r0, r3
    4352:	f7ff e8a2 	blx	3498 <_utee_get_cancellation_flag@plt>
    4356:	6078      	str	r0, [r7, #4]
/home/qemu-sgx/devel/optee/optee_os/lib/libutee/tee_api.c:261
    4358:	687b      	ldr	r3, [r7, #4]
    435a:	2b00      	cmp	r3, #0
    435c:	d002      	beq.n	4364 <TEE_GetCancellationFlag+0x1e>
/home/qemu-sgx/devel/optee/optee_os/lib/libutee/tee_api.c:262
    435e:	f04f 0300 	mov.w	r3, #0
    4362:	603b      	str	r3, [r7, #0]
/home/qemu-sgx/devel/optee/optee_os/lib/libutee/tee_api.c:263
    4364:	683b      	ldr	r3, [r7, #0]
    4366:	2b00      	cmp	r3, #0
    4368:	bf14      	ite	ne
    436a:	2301      	movne	r3, #1
    436c:	2300      	moveq	r3, #0
    436e:	b2db      	uxtb	r3, r3
/home/qemu-sgx/devel/optee/optee_os/lib/libutee/tee_api.c:264
    4370:	4618      	mov	r0, r3
    4372:	f107 0708 	add.w	r7, r7, #8
    4376:	46bd      	mov	sp, r7
    4378:	bd80      	pop	{r7, pc}

0000437a <TEE_UnmaskCancellation>:
TEE_UnmaskCancellation():
/home/qemu-sgx/devel/optee/optee_os/lib/libutee/tee_api.c:267
    437a:	e96d 7e02 	strd	r7, lr, [sp, #-8]!
    437e:	b082      	sub	sp, #8
    4380:	af00      	add	r7, sp, #0
/home/qemu-sgx/devel/optee/optee_os/lib/libutee/tee_api.c:269
    4382:	463b      	mov	r3, r7
    4384:	4618      	mov	r0, r3
    4386:	f7fe eeea 	blx	315c <_utee_unmask_cancellation@plt>
    438a:	6078      	str	r0, [r7, #4]
/home/qemu-sgx/devel/optee/optee_os/lib/libutee/tee_api.c:271
    438c:	687b      	ldr	r3, [r7, #4]
    438e:	2b00      	cmp	r3, #0
    4390:	d002      	beq.n	4398 <TEE_UnmaskCancellation+0x1e>
/home/qemu-sgx/devel/optee/optee_os/lib/libutee/tee_api.c:272
    4392:	6878      	ldr	r0, [r7, #4]
    4394:	f7fe ee64 	blx	3060 <TEE_Panic@plt>
/home/qemu-sgx/devel/optee/optee_os/lib/libutee/tee_api.c:273
    4398:	683b      	ldr	r3, [r7, #0]
    439a:	2b00      	cmp	r3, #0
    439c:	bf14      	ite	ne
    439e:	2301      	movne	r3, #1
    43a0:	2300      	moveq	r3, #0
    43a2:	b2db      	uxtb	r3, r3
/home/qemu-sgx/devel/optee/optee_os/lib/libutee/tee_api.c:274
    43a4:	4618      	mov	r0, r3
    43a6:	f107 0708 	add.w	r7, r7, #8
    43aa:	46bd      	mov	sp, r7
    43ac:	bd80      	pop	{r7, pc}

000043ae <TEE_MaskCancellation>:
TEE_MaskCancellation():
/home/qemu-sgx/devel/optee/optee_os/lib/libutee/tee_api.c:277
    43ae:	e96d 7e02 	strd	r7, lr, [sp, #-8]!
    43b2:	b082      	sub	sp, #8
    43b4:	af00      	add	r7, sp, #0
/home/qemu-sgx/devel/optee/optee_os/lib/libutee/tee_api.c:279
    43b6:	463b      	mov	r3, r7
    43b8:	4618      	mov	r0, r3
    43ba:	f7fe efcc 	blx	3354 <_utee_mask_cancellation@plt>
    43be:	6078      	str	r0, [r7, #4]
/home/qemu-sgx/devel/optee/optee_os/lib/libutee/tee_api.c:281
    43c0:	687b      	ldr	r3, [r7, #4]
    43c2:	2b00      	cmp	r3, #0
    43c4:	d002      	beq.n	43cc <TEE_MaskCancellation+0x1e>
/home/qemu-sgx/devel/optee/optee_os/lib/libutee/tee_api.c:282
    43c6:	6878      	ldr	r0, [r7, #4]
    43c8:	f7fe ee4a 	blx	3060 <TEE_Panic@plt>
/home/qemu-sgx/devel/optee/optee_os/lib/libutee/tee_api.c:283
    43cc:	683b      	ldr	r3, [r7, #0]
    43ce:	2b00      	cmp	r3, #0
    43d0:	bf14      	ite	ne
    43d2:	2301      	movne	r3, #1
    43d4:	2300      	moveq	r3, #0
    43d6:	b2db      	uxtb	r3, r3
/home/qemu-sgx/devel/optee/optee_os/lib/libutee/tee_api.c:284
    43d8:	4618      	mov	r0, r3
    43da:	f107 0708 	add.w	r7, r7, #8
    43de:	46bd      	mov	sp, r7
    43e0:	bd80      	pop	{r7, pc}

000043e2 <TEE_CheckMemoryAccessRights>:
TEE_CheckMemoryAccessRights():
/home/qemu-sgx/devel/optee/optee_os/lib/libutee/tee_api.c:290
    43e2:	e96d 7e02 	strd	r7, lr, [sp, #-8]!
    43e6:	b086      	sub	sp, #24
    43e8:	af00      	add	r7, sp, #0
    43ea:	60f8      	str	r0, [r7, #12]
    43ec:	60b9      	str	r1, [r7, #8]
    43ee:	607a      	str	r2, [r7, #4]
/home/qemu-sgx/devel/optee/optee_os/lib/libutee/tee_api.c:293
    43f0:	687b      	ldr	r3, [r7, #4]
    43f2:	2b00      	cmp	r3, #0
    43f4:	d102      	bne.n	43fc <TEE_CheckMemoryAccessRights+0x1a>
/home/qemu-sgx/devel/optee/optee_os/lib/libutee/tee_api.c:294
    43f6:	f04f 0300 	mov.w	r3, #0
    43fa:	e00e      	b.n	441a <TEE_CheckMemoryAccessRights+0x38>
/home/qemu-sgx/devel/optee/optee_os/lib/libutee/tee_api.c:297
    43fc:	687a      	ldr	r2, [r7, #4]
    43fe:	68b9      	ldr	r1, [r7, #8]
    4400:	68f8      	ldr	r0, [r7, #12]
    4402:	f7fe eefa 	blx	31f8 <_utee_check_access_rights@plt>
    4406:	6178      	str	r0, [r7, #20]
/home/qemu-sgx/devel/optee/optee_os/lib/libutee/tee_api.c:298
    4408:	697b      	ldr	r3, [r7, #20]
    440a:	2b00      	cmp	r3, #0
    440c:	d103      	bne.n	4416 <TEE_CheckMemoryAccessRights+0x34>
/home/qemu-sgx/devel/optee/optee_os/lib/libutee/tee_api.c:306
    440e:	f04f 0300 	mov.w	r3, #0
    4412:	617b      	str	r3, [r7, #20]
    4414:	e000      	b.n	4418 <TEE_CheckMemoryAccessRights+0x36>
/home/qemu-sgx/devel/optee/optee_os/lib/libutee/tee_api.c:299
    4416:	bf00      	nop
/home/qemu-sgx/devel/optee/optee_os/lib/libutee/tee_api.c:308
    4418:	697b      	ldr	r3, [r7, #20]
/home/qemu-sgx/devel/optee/optee_os/lib/libutee/tee_api.c:309
    441a:	4618      	mov	r0, r3
    441c:	f107 0718 	add.w	r7, r7, #24
    4420:	46bd      	mov	sp, r7
    4422:	bd80      	pop	{r7, pc}

00004424 <TEE_SetInstanceData>:
TEE_SetInstanceData():
/home/qemu-sgx/devel/optee/optee_os/lib/libutee/tee_api.c:312
    4424:	f84d 7d04 	str.w	r7, [sp, #-4]!
    4428:	b083      	sub	sp, #12
    442a:	af00      	add	r7, sp, #0
    442c:	6078      	str	r0, [r7, #4]
/home/qemu-sgx/devel/optee/optee_os/lib/libutee/tee_api.c:313
    442e:	4b05      	ldr	r3, [pc, #20]	; (4444 <TEE_SetInstanceData+0x20>)
    4430:	447b      	add	r3, pc
    4432:	687a      	ldr	r2, [r7, #4]
    4434:	601a      	str	r2, [r3, #0]
/home/qemu-sgx/devel/optee/optee_os/lib/libutee/tee_api.c:314
    4436:	bf00      	nop
    4438:	f107 070c 	add.w	r7, r7, #12
    443c:	46bd      	mov	sp, r7
    443e:	f85d 7b04 	ldr.w	r7, [sp], #4
    4442:	4770      	bx	lr
    4444:	0000be34 	.word	0x0000be34

00004448 <TEE_GetInstanceData>:
TEE_GetInstanceData():
/home/qemu-sgx/devel/optee/optee_os/lib/libutee/tee_api.c:317
    4448:	f84d 7d04 	str.w	r7, [sp, #-4]!
    444c:	af00      	add	r7, sp, #0
/home/qemu-sgx/devel/optee/optee_os/lib/libutee/tee_api.c:318
    444e:	4b04      	ldr	r3, [pc, #16]	; (4460 <TEE_GetInstanceData+0x18>)
    4450:	447b      	add	r3, pc
    4452:	681b      	ldr	r3, [r3, #0]
/home/qemu-sgx/devel/optee/optee_os/lib/libutee/tee_api.c:319
    4454:	4618      	mov	r0, r3
    4456:	46bd      	mov	sp, r7
    4458:	f85d 7b04 	ldr.w	r7, [sp], #4
    445c:	4770      	bx	lr
    445e:	bf00      	nop
    4460:	0000be14 	.word	0x0000be14

00004464 <TEE_MemMove>:
TEE_MemMove():
/home/qemu-sgx/devel/optee/optee_os/lib/libutee/tee_api.c:322
    4464:	e96d 7e02 	strd	r7, lr, [sp, #-8]!
    4468:	b084      	sub	sp, #16
    446a:	af00      	add	r7, sp, #0
    446c:	60f8      	str	r0, [r7, #12]
    446e:	60b9      	str	r1, [r7, #8]
    4470:	607a      	str	r2, [r7, #4]
/home/qemu-sgx/devel/optee/optee_os/lib/libutee/tee_api.c:323
    4472:	687a      	ldr	r2, [r7, #4]
    4474:	68b9      	ldr	r1, [r7, #8]
    4476:	68f8      	ldr	r0, [r7, #12]
    4478:	f7fe edbc 	blx	2ff4 <memmove@plt>
    447c:	4603      	mov	r3, r0
/home/qemu-sgx/devel/optee/optee_os/lib/libutee/tee_api.c:324
    447e:	4618      	mov	r0, r3
    4480:	f107 0710 	add.w	r7, r7, #16
    4484:	46bd      	mov	sp, r7
    4486:	bd80      	pop	{r7, pc}

00004488 <TEE_MemCompare>:
TEE_MemCompare():
/home/qemu-sgx/devel/optee/optee_os/lib/libutee/tee_api.c:327
    4488:	e96d 7e02 	strd	r7, lr, [sp, #-8]!
    448c:	b084      	sub	sp, #16
    448e:	af00      	add	r7, sp, #0
    4490:	60f8      	str	r0, [r7, #12]
    4492:	60b9      	str	r1, [r7, #8]
    4494:	607a      	str	r2, [r7, #4]
/home/qemu-sgx/devel/optee/optee_os/lib/libutee/tee_api.c:328
    4496:	687a      	ldr	r2, [r7, #4]
    4498:	68b9      	ldr	r1, [r7, #8]
    449a:	68f8      	ldr	r0, [r7, #12]
    449c:	f7fe ee40 	blx	3120 <consttime_memcmp@plt>
    44a0:	4603      	mov	r3, r0
/home/qemu-sgx/devel/optee/optee_os/lib/libutee/tee_api.c:329
    44a2:	4618      	mov	r0, r3
    44a4:	f107 0710 	add.w	r7, r7, #16
    44a8:	46bd      	mov	sp, r7
    44aa:	bd80      	pop	{r7, pc}

000044ac <TEE_MemFill>:
TEE_MemFill():
/home/qemu-sgx/devel/optee/optee_os/lib/libutee/tee_api.c:332
    44ac:	e96d 7e02 	strd	r7, lr, [sp, #-8]!
    44b0:	b084      	sub	sp, #16
    44b2:	af00      	add	r7, sp, #0
    44b4:	60f8      	str	r0, [r7, #12]
    44b6:	60b9      	str	r1, [r7, #8]
    44b8:	607a      	str	r2, [r7, #4]
/home/qemu-sgx/devel/optee/optee_os/lib/libutee/tee_api.c:333
    44ba:	68bb      	ldr	r3, [r7, #8]
    44bc:	687a      	ldr	r2, [r7, #4]
    44be:	4619      	mov	r1, r3
    44c0:	68f8      	ldr	r0, [r7, #12]
    44c2:	f7fe ef06 	blx	32d0 <memset@plt>
    44c6:	4603      	mov	r3, r0
/home/qemu-sgx/devel/optee/optee_os/lib/libutee/tee_api.c:334
    44c8:	4618      	mov	r0, r3
    44ca:	f107 0710 	add.w	r7, r7, #16
    44ce:	46bd      	mov	sp, r7
    44d0:	bd80      	pop	{r7, pc}

000044d2 <TEE_GetSystemTime>:
TEE_GetSystemTime():
/home/qemu-sgx/devel/optee/optee_os/lib/libutee/tee_api.c:339
    44d2:	e96d 7e02 	strd	r7, lr, [sp, #-8]!
    44d6:	b084      	sub	sp, #16
    44d8:	af00      	add	r7, sp, #0
    44da:	6078      	str	r0, [r7, #4]
/home/qemu-sgx/devel/optee/optee_os/lib/libutee/tee_api.c:340
    44dc:	6879      	ldr	r1, [r7, #4]
    44de:	f04f 0000 	mov.w	r0, #0
    44e2:	f7fe ef7a 	blx	33d8 <_utee_get_time@plt>
    44e6:	60f8      	str	r0, [r7, #12]
/home/qemu-sgx/devel/optee/optee_os/lib/libutee/tee_api.c:342
    44e8:	68fb      	ldr	r3, [r7, #12]
    44ea:	2b00      	cmp	r3, #0
    44ec:	d002      	beq.n	44f4 <TEE_GetSystemTime+0x22>
/home/qemu-sgx/devel/optee/optee_os/lib/libutee/tee_api.c:343
    44ee:	68f8      	ldr	r0, [r7, #12]
    44f0:	f7fe edb6 	blx	3060 <TEE_Panic@plt>
/home/qemu-sgx/devel/optee/optee_os/lib/libutee/tee_api.c:344
    44f4:	bf00      	nop
    44f6:	f107 0710 	add.w	r7, r7, #16
    44fa:	46bd      	mov	sp, r7
    44fc:	bd80      	pop	{r7, pc}

000044fe <TEE_Wait>:
TEE_Wait():
/home/qemu-sgx/devel/optee/optee_os/lib/libutee/tee_api.c:347
    44fe:	e96d 7e02 	strd	r7, lr, [sp, #-8]!
    4502:	b084      	sub	sp, #16
    4504:	af00      	add	r7, sp, #0
    4506:	6078      	str	r0, [r7, #4]
/home/qemu-sgx/devel/optee/optee_os/lib/libutee/tee_api.c:348
    4508:	6878      	ldr	r0, [r7, #4]
    450a:	f7fe ef54 	blx	33b4 <_utee_wait@plt>
    450e:	60f8      	str	r0, [r7, #12]
/home/qemu-sgx/devel/optee/optee_os/lib/libutee/tee_api.c:350
    4510:	68fb      	ldr	r3, [r7, #12]
    4512:	2b00      	cmp	r3, #0
    4514:	d009      	beq.n	452a <TEE_Wait+0x2c>
/home/qemu-sgx/devel/optee/optee_os/lib/libutee/tee_api.c:350 (discriminator 1)
    4516:	68fa      	ldr	r2, [r7, #12]
    4518:	f04f 0302 	mov.w	r3, #2
    451c:	f6cf 73ff 	movt	r3, #65535	; 0xffff
    4520:	429a      	cmp	r2, r3
    4522:	d002      	beq.n	452a <TEE_Wait+0x2c>
/home/qemu-sgx/devel/optee/optee_os/lib/libutee/tee_api.c:351
    4524:	68f8      	ldr	r0, [r7, #12]
    4526:	f7fe ed9c 	blx	3060 <TEE_Panic@plt>
/home/qemu-sgx/devel/optee/optee_os/lib/libutee/tee_api.c:353
    452a:	68fb      	ldr	r3, [r7, #12]
/home/qemu-sgx/devel/optee/optee_os/lib/libutee/tee_api.c:354
    452c:	4618      	mov	r0, r3
    452e:	f107 0710 	add.w	r7, r7, #16
    4532:	46bd      	mov	sp, r7
    4534:	bd80      	pop	{r7, pc}

00004536 <TEE_GetTAPersistentTime>:
TEE_GetTAPersistentTime():
/home/qemu-sgx/devel/optee/optee_os/lib/libutee/tee_api.c:357
    4536:	e96d 7e02 	strd	r7, lr, [sp, #-8]!
    453a:	b084      	sub	sp, #16
    453c:	af00      	add	r7, sp, #0
    453e:	6078      	str	r0, [r7, #4]
/home/qemu-sgx/devel/optee/optee_os/lib/libutee/tee_api.c:360
    4540:	6879      	ldr	r1, [r7, #4]
    4542:	f04f 0001 	mov.w	r0, #1
    4546:	f7fe ef48 	blx	33d8 <_utee_get_time@plt>
    454a:	60f8      	str	r0, [r7, #12]
/home/qemu-sgx/devel/optee/optee_os/lib/libutee/tee_api.c:362
    454c:	68fb      	ldr	r3, [r7, #12]
    454e:	2b00      	cmp	r3, #0
    4550:	d00e      	beq.n	4570 <TEE_GetTAPersistentTime+0x3a>
/home/qemu-sgx/devel/optee/optee_os/lib/libutee/tee_api.c:362 (discriminator 1)
    4552:	68fa      	ldr	r2, [r7, #12]
    4554:	f243 030f 	movw	r3, #12303	; 0x300f
    4558:	f6cf 73ff 	movt	r3, #65535	; 0xffff
    455c:	429a      	cmp	r2, r3
    455e:	d007      	beq.n	4570 <TEE_GetTAPersistentTime+0x3a>
/home/qemu-sgx/devel/optee/optee_os/lib/libutee/tee_api.c:363
    4560:	687b      	ldr	r3, [r7, #4]
    4562:	f04f 0200 	mov.w	r2, #0
    4566:	601a      	str	r2, [r3, #0]
/home/qemu-sgx/devel/optee/optee_os/lib/libutee/tee_api.c:364
    4568:	687b      	ldr	r3, [r7, #4]
    456a:	f04f 0200 	mov.w	r2, #0
    456e:	605a      	str	r2, [r3, #4]
/home/qemu-sgx/devel/optee/optee_os/lib/libutee/tee_api.c:367
    4570:	68fb      	ldr	r3, [r7, #12]
    4572:	2b00      	cmp	r3, #0
    4574:	d01b      	beq.n	45ae <TEE_GetTAPersistentTime+0x78>
/home/qemu-sgx/devel/optee/optee_os/lib/libutee/tee_api.c:367 (discriminator 1)
    4576:	68fb      	ldr	r3, [r7, #12]
    4578:	f513 4f30 	cmn.w	r3, #45056	; 0xb000
    457c:	d017      	beq.n	45ae <TEE_GetTAPersistentTime+0x78>
/home/qemu-sgx/devel/optee/optee_os/lib/libutee/tee_api.c:368
    457e:	68fa      	ldr	r2, [r7, #12]
    4580:	f245 0301 	movw	r3, #20481	; 0x5001
    4584:	f6cf 73ff 	movt	r3, #65535	; 0xffff
    4588:	429a      	cmp	r2, r3
    458a:	d010      	beq.n	45ae <TEE_GetTAPersistentTime+0x78>
/home/qemu-sgx/devel/optee/optee_os/lib/libutee/tee_api.c:369
    458c:	68fa      	ldr	r2, [r7, #12]
    458e:	f243 030f 	movw	r3, #12303	; 0x300f
    4592:	f6cf 73ff 	movt	r3, #65535	; 0xffff
    4596:	429a      	cmp	r2, r3
    4598:	d009      	beq.n	45ae <TEE_GetTAPersistentTime+0x78>
/home/qemu-sgx/devel/optee/optee_os/lib/libutee/tee_api.c:370
    459a:	68fa      	ldr	r2, [r7, #12]
    459c:	f04f 030c 	mov.w	r3, #12
    45a0:	f6cf 73ff 	movt	r3, #65535	; 0xffff
    45a4:	429a      	cmp	r2, r3
    45a6:	d002      	beq.n	45ae <TEE_GetTAPersistentTime+0x78>
/home/qemu-sgx/devel/optee/optee_os/lib/libutee/tee_api.c:372
    45a8:	68f8      	ldr	r0, [r7, #12]
    45aa:	f7fe ed5a 	blx	3060 <TEE_Panic@plt>
/home/qemu-sgx/devel/optee/optee_os/lib/libutee/tee_api.c:374
    45ae:	68fb      	ldr	r3, [r7, #12]
/home/qemu-sgx/devel/optee/optee_os/lib/libutee/tee_api.c:375
    45b0:	4618      	mov	r0, r3
    45b2:	f107 0710 	add.w	r7, r7, #16
    45b6:	46bd      	mov	sp, r7
    45b8:	bd80      	pop	{r7, pc}

000045ba <TEE_SetTAPersistentTime>:
TEE_SetTAPersistentTime():
/home/qemu-sgx/devel/optee/optee_os/lib/libutee/tee_api.c:378
    45ba:	e96d 7e02 	strd	r7, lr, [sp, #-8]!
    45be:	b084      	sub	sp, #16
    45c0:	af00      	add	r7, sp, #0
    45c2:	6078      	str	r0, [r7, #4]
/home/qemu-sgx/devel/optee/optee_os/lib/libutee/tee_api.c:381
    45c4:	6878      	ldr	r0, [r7, #4]
    45c6:	f7fe ee3c 	blx	3240 <_utee_set_ta_time@plt>
    45ca:	60f8      	str	r0, [r7, #12]
/home/qemu-sgx/devel/optee/optee_os/lib/libutee/tee_api.c:383
    45cc:	68fb      	ldr	r3, [r7, #12]
    45ce:	2b00      	cmp	r3, #0
    45d0:	d010      	beq.n	45f4 <TEE_SetTAPersistentTime+0x3a>
/home/qemu-sgx/devel/optee/optee_os/lib/libutee/tee_api.c:383 (discriminator 1)
    45d2:	68fa      	ldr	r2, [r7, #12]
    45d4:	f04f 030c 	mov.w	r3, #12
    45d8:	f6cf 73ff 	movt	r3, #65535	; 0xffff
    45dc:	429a      	cmp	r2, r3
    45de:	d009      	beq.n	45f4 <TEE_SetTAPersistentTime+0x3a>
/home/qemu-sgx/devel/optee/optee_os/lib/libutee/tee_api.c:384
    45e0:	68fa      	ldr	r2, [r7, #12]
    45e2:	f243 0341 	movw	r3, #12353	; 0x3041
    45e6:	f6cf 73ff 	movt	r3, #65535	; 0xffff
    45ea:	429a      	cmp	r2, r3
    45ec:	d002      	beq.n	45f4 <TEE_SetTAPersistentTime+0x3a>
/home/qemu-sgx/devel/optee/optee_os/lib/libutee/tee_api.c:386
    45ee:	68f8      	ldr	r0, [r7, #12]
    45f0:	f7fe ed36 	blx	3060 <TEE_Panic@plt>
/home/qemu-sgx/devel/optee/optee_os/lib/libutee/tee_api.c:388
    45f4:	68fb      	ldr	r3, [r7, #12]
/home/qemu-sgx/devel/optee/optee_os/lib/libutee/tee_api.c:389
    45f6:	4618      	mov	r0, r3
    45f8:	f107 0710 	add.w	r7, r7, #16
    45fc:	46bd      	mov	sp, r7
    45fe:	bd80      	pop	{r7, pc}

00004600 <TEE_GetREETime>:
TEE_GetREETime():
/home/qemu-sgx/devel/optee/optee_os/lib/libutee/tee_api.c:392
    4600:	e96d 7e02 	strd	r7, lr, [sp, #-8]!
    4604:	b084      	sub	sp, #16
    4606:	af00      	add	r7, sp, #0
    4608:	6078      	str	r0, [r7, #4]
/home/qemu-sgx/devel/optee/optee_os/lib/libutee/tee_api.c:393
    460a:	6879      	ldr	r1, [r7, #4]
    460c:	f04f 0002 	mov.w	r0, #2
    4610:	f7fe eee2 	blx	33d8 <_utee_get_time@plt>
    4614:	60f8      	str	r0, [r7, #12]
/home/qemu-sgx/devel/optee/optee_os/lib/libutee/tee_api.c:395
    4616:	68fb      	ldr	r3, [r7, #12]
    4618:	2b00      	cmp	r3, #0
    461a:	d002      	beq.n	4622 <TEE_GetREETime+0x22>
/home/qemu-sgx/devel/optee/optee_os/lib/libutee/tee_api.c:396
    461c:	68f8      	ldr	r0, [r7, #12]
    461e:	f7fe ed20 	blx	3060 <TEE_Panic@plt>
/home/qemu-sgx/devel/optee/optee_os/lib/libutee/tee_api.c:397
    4622:	bf00      	nop
    4624:	f107 0710 	add.w	r7, r7, #16
    4628:	46bd      	mov	sp, r7
    462a:	bd80      	pop	{r7, pc}

0000462c <TEE_Malloc>:
TEE_Malloc():
/home/qemu-sgx/devel/optee/optee_os/lib/libutee/tee_api.c:400
    462c:	e96d 7e02 	strd	r7, lr, [sp, #-8]!
    4630:	b084      	sub	sp, #16
    4632:	af02      	add	r7, sp, #8
    4634:	6078      	str	r0, [r7, #4]
    4636:	6039      	str	r1, [r7, #0]
/home/qemu-sgx/devel/optee/optee_os/lib/libutee/tee_api.c:401
    4638:	687b      	ldr	r3, [r7, #4]
    463a:	2b00      	cmp	r3, #0
    463c:	d102      	bne.n	4644 <TEE_Malloc+0x18>
/home/qemu-sgx/devel/optee/optee_os/lib/libutee/tee_api.c:402
    463e:	f04f 0301 	mov.w	r3, #1
    4642:	e023      	b.n	468c <TEE_Malloc+0x60>
/home/qemu-sgx/devel/optee/optee_os/lib/libutee/tee_api.c:404
    4644:	683b      	ldr	r3, [r7, #0]
    4646:	2b00      	cmp	r3, #0
    4648:	d106      	bne.n	4658 <TEE_Malloc+0x2c>
/home/qemu-sgx/devel/optee/optee_os/lib/libutee/tee_api.c:405
    464a:	6879      	ldr	r1, [r7, #4]
    464c:	f04f 0001 	mov.w	r0, #1
    4650:	f7fe ed8a 	blx	3168 <calloc@plt>
    4654:	4603      	mov	r3, r0
    4656:	e019      	b.n	468c <TEE_Malloc+0x60>
/home/qemu-sgx/devel/optee/optee_os/lib/libutee/tee_api.c:406
    4658:	683b      	ldr	r3, [r7, #0]
    465a:	f1b3 4f00 	cmp.w	r3, #2147483648	; 0x80000000
    465e:	d104      	bne.n	466a <TEE_Malloc+0x3e>
/home/qemu-sgx/devel/optee/optee_os/lib/libutee/tee_api.c:407
    4660:	6878      	ldr	r0, [r7, #4]
    4662:	f7fe ed0a 	blx	3078 <malloc@plt>
    4666:	4603      	mov	r3, r0
    4668:	e010      	b.n	468c <TEE_Malloc+0x60>
/home/qemu-sgx/devel/optee/optee_os/lib/libutee/tee_api.c:409
    466a:	683b      	ldr	r3, [r7, #0]
    466c:	9301      	str	r3, [sp, #4]
    466e:	4b0a      	ldr	r3, [pc, #40]	; (4698 <TEE_Malloc+0x6c>)
    4670:	447b      	add	r3, pc
    4672:	9300      	str	r3, [sp, #0]
    4674:	f04f 0301 	mov.w	r3, #1
    4678:	f04f 0201 	mov.w	r2, #1
    467c:	f240 1199 	movw	r1, #409	; 0x199
    4680:	4806      	ldr	r0, [pc, #24]	; (469c <TEE_Malloc+0x70>)
    4682:	4478      	add	r0, pc
    4684:	f7fe ecda 	blx	303c <trace_printf@plt>
/home/qemu-sgx/devel/optee/optee_os/lib/libutee/tee_api.c:411
    4688:	f04f 0300 	mov.w	r3, #0
/home/qemu-sgx/devel/optee/optee_os/lib/libutee/tee_api.c:412
    468c:	4618      	mov	r0, r3
    468e:	f107 0708 	add.w	r7, r7, #8
    4692:	46bd      	mov	sp, r7
    4694:	bd80      	pop	{r7, pc}
    4696:	bf00      	nop
    4698:	00008c3c 	.word	0x00008c3c
    469c:	00008c3e 	.word	0x00008c3e

000046a0 <TEE_Realloc>:
TEE_Realloc():
/home/qemu-sgx/devel/optee/optee_os/lib/libutee/tee_api.c:415
    46a0:	e96d 7e02 	strd	r7, lr, [sp, #-8]!
    46a4:	b082      	sub	sp, #8
    46a6:	af00      	add	r7, sp, #0
    46a8:	6078      	str	r0, [r7, #4]
    46aa:	6039      	str	r1, [r7, #0]
/home/qemu-sgx/devel/optee/optee_os/lib/libutee/tee_api.c:416
    46ac:	683b      	ldr	r3, [r7, #0]
    46ae:	2b00      	cmp	r3, #0
    46b0:	d105      	bne.n	46be <TEE_Realloc+0x1e>
/home/qemu-sgx/devel/optee/optee_os/lib/libutee/tee_api.c:417
    46b2:	6878      	ldr	r0, [r7, #4]
    46b4:	f7fe ee84 	blx	33c0 <TEE_Free@plt>
/home/qemu-sgx/devel/optee/optee_os/lib/libutee/tee_api.c:418
    46b8:	f04f 0301 	mov.w	r3, #1
    46bc:	e00e      	b.n	46dc <TEE_Realloc+0x3c>
/home/qemu-sgx/devel/optee/optee_os/lib/libutee/tee_api.c:421
    46be:	687b      	ldr	r3, [r7, #4]
    46c0:	2b01      	cmp	r3, #1
    46c2:	d106      	bne.n	46d2 <TEE_Realloc+0x32>
/home/qemu-sgx/devel/optee/optee_os/lib/libutee/tee_api.c:422
    46c4:	6839      	ldr	r1, [r7, #0]
    46c6:	f04f 0001 	mov.w	r0, #1
    46ca:	f7fe ed4e 	blx	3168 <calloc@plt>
    46ce:	4603      	mov	r3, r0
    46d0:	e004      	b.n	46dc <TEE_Realloc+0x3c>
/home/qemu-sgx/devel/optee/optee_os/lib/libutee/tee_api.c:424
    46d2:	6839      	ldr	r1, [r7, #0]
    46d4:	6878      	ldr	r0, [r7, #4]
    46d6:	f7fe edc6 	blx	3264 <realloc@plt>
    46da:	4603      	mov	r3, r0
/home/qemu-sgx/devel/optee/optee_os/lib/libutee/tee_api.c:425
    46dc:	4618      	mov	r0, r3
    46de:	f107 0708 	add.w	r7, r7, #8
    46e2:	46bd      	mov	sp, r7
    46e4:	bd80      	pop	{r7, pc}

000046e6 <TEE_Free>:
TEE_Free():
/home/qemu-sgx/devel/optee/optee_os/lib/libutee/tee_api.c:428
    46e6:	e96d 7e02 	strd	r7, lr, [sp, #-8]!
    46ea:	b082      	sub	sp, #8
    46ec:	af00      	add	r7, sp, #0
    46ee:	6078      	str	r0, [r7, #4]
/home/qemu-sgx/devel/optee/optee_os/lib/libutee/tee_api.c:429
    46f0:	687b      	ldr	r3, [r7, #4]
    46f2:	2b01      	cmp	r3, #1
    46f4:	d002      	beq.n	46fc <TEE_Free+0x16>
/home/qemu-sgx/devel/optee/optee_os/lib/libutee/tee_api.c:430
    46f6:	6878      	ldr	r0, [r7, #4]
    46f8:	f7fe eeda 	blx	34b0 <free@plt>
/home/qemu-sgx/devel/optee/optee_os/lib/libutee/tee_api.c:431
    46fc:	bf00      	nop
    46fe:	f107 0708 	add.w	r7, r7, #8
    4702:	46bd      	mov	sp, r7
    4704:	bd80      	pop	{r7, pc}

00004706 <TEE_CacheClean>:
TEE_CacheClean():
/home/qemu-sgx/devel/optee/optee_os/lib/libutee/tee_api.c:435
    4706:	e96d 7e02 	strd	r7, lr, [sp, #-8]!
    470a:	b082      	sub	sp, #8
    470c:	af00      	add	r7, sp, #0
    470e:	6078      	str	r0, [r7, #4]
    4710:	6039      	str	r1, [r7, #0]
/home/qemu-sgx/devel/optee/optee_os/lib/libutee/tee_api.c:436
    4712:	f04f 0200 	mov.w	r2, #0
    4716:	6839      	ldr	r1, [r7, #0]
    4718:	6878      	ldr	r0, [r7, #4]
    471a:	f7fe ec96 	blx	3048 <_utee_cache_operation@plt>
    471e:	4603      	mov	r3, r0
/home/qemu-sgx/devel/optee/optee_os/lib/libutee/tee_api.c:437
    4720:	4618      	mov	r0, r3
    4722:	f107 0708 	add.w	r7, r7, #8
    4726:	46bd      	mov	sp, r7
    4728:	bd80      	pop	{r7, pc}

0000472a <TEE_CacheFlush>:
TEE_CacheFlush():
/home/qemu-sgx/devel/optee/optee_os/lib/libutee/tee_api.c:439
    472a:	e96d 7e02 	strd	r7, lr, [sp, #-8]!
    472e:	b082      	sub	sp, #8
    4730:	af00      	add	r7, sp, #0
    4732:	6078      	str	r0, [r7, #4]
    4734:	6039      	str	r1, [r7, #0]
/home/qemu-sgx/devel/optee/optee_os/lib/libutee/tee_api.c:440
    4736:	f04f 0201 	mov.w	r2, #1
    473a:	6839      	ldr	r1, [r7, #0]
    473c:	6878      	ldr	r0, [r7, #4]
    473e:	f7fe ec84 	blx	3048 <_utee_cache_operation@plt>
    4742:	4603      	mov	r3, r0
/home/qemu-sgx/devel/optee/optee_os/lib/libutee/tee_api.c:441
    4744:	4618      	mov	r0, r3
    4746:	f107 0708 	add.w	r7, r7, #8
    474a:	46bd      	mov	sp, r7
    474c:	bd80      	pop	{r7, pc}

0000474e <TEE_CacheInvalidate>:
TEE_CacheInvalidate():
/home/qemu-sgx/devel/optee/optee_os/lib/libutee/tee_api.c:444
    474e:	e96d 7e02 	strd	r7, lr, [sp, #-8]!
    4752:	b082      	sub	sp, #8
    4754:	af00      	add	r7, sp, #0
    4756:	6078      	str	r0, [r7, #4]
    4758:	6039      	str	r1, [r7, #0]
/home/qemu-sgx/devel/optee/optee_os/lib/libutee/tee_api.c:445
    475a:	f04f 0202 	mov.w	r2, #2
    475e:	6839      	ldr	r1, [r7, #0]
    4760:	6878      	ldr	r0, [r7, #4]
    4762:	f7fe ec72 	blx	3048 <_utee_cache_operation@plt>
    4766:	4603      	mov	r3, r0
/home/qemu-sgx/devel/optee/optee_os/lib/libutee/tee_api.c:446
    4768:	4618      	mov	r0, r3
    476a:	f107 0708 	add.w	r7, r7, #8
    476e:	46bd      	mov	sp, r7
    4770:	bd80      	pop	{r7, pc}
    4772:	bf00      	nop

00004774 <reg_pair_to_64>:
reg_pair_to_64():
/home/qemu-sgx/devel/optee/optee_os/lib/libutils/ext/include/util.h:159
    4774:	f84d 4d1c 	str.w	r4, [sp, #-28]!
    4778:	e9cd 5701 	strd	r5, r7, [sp, #4]
    477c:	e9cd 8903 	strd	r8, r9, [sp, #12]
    4780:	e9cd ab05 	strd	sl, fp, [sp, #20]
    4784:	b083      	sub	sp, #12
    4786:	af00      	add	r7, sp, #0
    4788:	6078      	str	r0, [r7, #4]
    478a:	6039      	str	r1, [r7, #0]
/home/qemu-sgx/devel/optee/optee_os/lib/libutils/ext/include/util.h:160
    478c:	687b      	ldr	r3, [r7, #4]
    478e:	f04f 0200 	mov.w	r2, #0
    4792:	469a      	mov	sl, r3
    4794:	4693      	mov	fp, r2
    4796:	f04f 0200 	mov.w	r2, #0
    479a:	f04f 0300 	mov.w	r3, #0
    479e:	4653      	mov	r3, sl
    47a0:	f04f 0200 	mov.w	r2, #0
    47a4:	6839      	ldr	r1, [r7, #0]
    47a6:	f04f 0000 	mov.w	r0, #0
    47aa:	460c      	mov	r4, r1
    47ac:	4605      	mov	r5, r0
    47ae:	ea42 0804 	orr.w	r8, r2, r4
    47b2:	ea43 0905 	orr.w	r9, r3, r5
    47b6:	4642      	mov	r2, r8
    47b8:	464b      	mov	r3, r9
/home/qemu-sgx/devel/optee/optee_os/lib/libutils/ext/include/util.h:161
    47ba:	4610      	mov	r0, r2
    47bc:	4619      	mov	r1, r3
    47be:	f107 070c 	add.w	r7, r7, #12
    47c2:	46bd      	mov	sp, r7
    47c4:	e9dd 4500 	ldrd	r4, r5, [sp]
    47c8:	e9dd 7802 	ldrd	r7, r8, [sp, #8]
    47cc:	e9dd 9a04 	ldrd	r9, sl, [sp, #16]
    47d0:	b006      	add	sp, #24
    47d2:	f85d bb04 	ldr.w	fp, [sp], #4
    47d6:	4770      	bx	lr

000047d8 <reg_pair_from_64>:
reg_pair_from_64():
/home/qemu-sgx/devel/optee/optee_os/lib/libutils/ext/include/util.h:165
    47d8:	f84d 7d04 	str.w	r7, [sp, #-4]!
    47dc:	b085      	sub	sp, #20
    47de:	af00      	add	r7, sp, #0
    47e0:	e9c7 0102 	strd	r0, r1, [r7, #8]
    47e4:	607a      	str	r2, [r7, #4]
    47e6:	603b      	str	r3, [r7, #0]
/home/qemu-sgx/devel/optee/optee_os/lib/libutils/ext/include/util.h:166
    47e8:	e9d7 0102 	ldrd	r0, r1, [r7, #8]
    47ec:	f04f 0200 	mov.w	r2, #0
    47f0:	f04f 0300 	mov.w	r3, #0
    47f4:	460a      	mov	r2, r1
    47f6:	f04f 0300 	mov.w	r3, #0
    47fa:	687b      	ldr	r3, [r7, #4]
    47fc:	601a      	str	r2, [r3, #0]
/home/qemu-sgx/devel/optee/optee_os/lib/libutils/ext/include/util.h:167
    47fe:	68ba      	ldr	r2, [r7, #8]
    4800:	683b      	ldr	r3, [r7, #0]
    4802:	601a      	str	r2, [r3, #0]
/home/qemu-sgx/devel/optee/optee_os/lib/libutils/ext/include/util.h:168
    4804:	bf00      	nop
    4806:	f107 0714 	add.w	r7, r7, #20
    480a:	46bd      	mov	sp, r7
    480c:	f85d 7b04 	ldr.w	r7, [sp], #4
    4810:	4770      	bx	lr

00004812 <invoke_system_pta>:
invoke_system_pta():
/home/qemu-sgx/devel/optee/optee_os/lib/libutee/tee_system_pta.c:16
    4812:	e96d 7e02 	strd	r7, lr, [sp, #-8]!
    4816:	b088      	sub	sp, #32
    4818:	af02      	add	r7, sp, #8
    481a:	60f8      	str	r0, [r7, #12]
    481c:	60b9      	str	r1, [r7, #8]
    481e:	607a      	str	r2, [r7, #4]
/home/qemu-sgx/devel/optee/optee_os/lib/libutee/tee_system_pta.c:20
    4820:	4b17      	ldr	r3, [pc, #92]	; (4880 <invoke_system_pta+0x6e>)
    4822:	447b      	add	r3, pc
    4824:	681b      	ldr	r3, [r3, #0]
    4826:	2b00      	cmp	r3, #0
    4828:	d115      	bne.n	4856 <invoke_system_pta+0x44>
/home/qemu-sgx/devel/optee/optee_os/lib/libutee/tee_system_pta.c:21
    482a:	f04f 0300 	mov.w	r3, #0
    482e:	9301      	str	r3, [sp, #4]
    4830:	4b14      	ldr	r3, [pc, #80]	; (4884 <invoke_system_pta+0x72>)
    4832:	447b      	add	r3, pc
    4834:	9300      	str	r3, [sp, #0]
    4836:	f04f 0300 	mov.w	r3, #0
    483a:	f04f 0200 	mov.w	r2, #0
    483e:	f04f 31ff 	mov.w	r1, #4294967295	; 0xffffffff
    4842:	4811      	ldr	r0, [pc, #68]	; (4888 <invoke_system_pta+0x76>)
    4844:	4478      	add	r0, pc
    4846:	f7fe ede6 	blx	3414 <TEE_OpenTASession@plt>
    484a:	6178      	str	r0, [r7, #20]
/home/qemu-sgx/devel/optee/optee_os/lib/libutee/tee_system_pta.c:24
    484c:	697b      	ldr	r3, [r7, #20]
    484e:	2b00      	cmp	r3, #0
    4850:	d001      	beq.n	4856 <invoke_system_pta+0x44>
/home/qemu-sgx/devel/optee/optee_os/lib/libutee/tee_system_pta.c:25
    4852:	697b      	ldr	r3, [r7, #20]
    4854:	e00e      	b.n	4874 <invoke_system_pta+0x62>
/home/qemu-sgx/devel/optee/optee_os/lib/libutee/tee_system_pta.c:28
    4856:	4b0d      	ldr	r3, [pc, #52]	; (488c <invoke_system_pta+0x7a>)
    4858:	447b      	add	r3, pc
    485a:	6818      	ldr	r0, [r3, #0]
    485c:	f04f 0300 	mov.w	r3, #0
    4860:	9301      	str	r3, [sp, #4]
    4862:	687b      	ldr	r3, [r7, #4]
    4864:	9300      	str	r3, [sp, #0]
    4866:	68bb      	ldr	r3, [r7, #8]
    4868:	68fa      	ldr	r2, [r7, #12]
    486a:	f04f 31ff 	mov.w	r1, #4294967295	; 0xffffffff
    486e:	f7fe ebaa 	blx	2fc4 <TEE_InvokeTACommand@plt>
    4872:	4603      	mov	r3, r0
/home/qemu-sgx/devel/optee/optee_os/lib/libutee/tee_system_pta.c:30
    4874:	4618      	mov	r0, r3
    4876:	f107 0718 	add.w	r7, r7, #24
    487a:	46bd      	mov	sp, r7
    487c:	bd80      	pop	{r7, pc}
    487e:	bf00      	nop
    4880:	0000ba46 	.word	0x0000ba46
    4884:	0000ba36 	.word	0x0000ba36
    4888:	00008ae0 	.word	0x00008ae0
    488c:	0000ba10 	.word	0x0000ba10

00004890 <tee_map_zi>:
tee_map_zi():
/home/qemu-sgx/devel/optee/optee_os/lib/libutee/tee_system_pta.c:33
    4890:	e96d 7e02 	strd	r7, lr, [sp, #-8]!
    4894:	b08c      	sub	sp, #48	; 0x30
    4896:	af00      	add	r7, sp, #0
    4898:	6078      	str	r0, [r7, #4]
    489a:	6039      	str	r1, [r7, #0]
/home/qemu-sgx/devel/optee/optee_os/lib/libutee/tee_system_pta.c:34
    489c:	f240 1331 	movw	r3, #305	; 0x131
    48a0:	62fb      	str	r3, [r7, #44]	; 0x2c
/home/qemu-sgx/devel/optee/optee_os/lib/libutee/tee_system_pta.c:38
    48a2:	f107 0308 	add.w	r3, r7, #8
    48a6:	efc0 0010 	vmov.i32	d16, #0	; 0x00000000
    48aa:	edc3 0b00 	vstr	d16, [r3]
    48ae:	edc3 0b02 	vstr	d16, [r3, #8]
    48b2:	edc3 0b04 	vstr	d16, [r3, #16]
    48b6:	edc3 0b06 	vstr	d16, [r3, #24]
/home/qemu-sgx/devel/optee/optee_os/lib/libutee/tee_system_pta.c:39
    48ba:	f04f 0300 	mov.w	r3, #0
    48be:	62bb      	str	r3, [r7, #40]	; 0x28
/home/qemu-sgx/devel/optee/optee_os/lib/libutee/tee_system_pta.c:41
    48c0:	687b      	ldr	r3, [r7, #4]
    48c2:	60bb      	str	r3, [r7, #8]
/home/qemu-sgx/devel/optee/optee_os/lib/libutee/tee_system_pta.c:42
    48c4:	68bb      	ldr	r3, [r7, #8]
    48c6:	687a      	ldr	r2, [r7, #4]
    48c8:	429a      	cmp	r2, r3
    48ca:	d002      	beq.n	48d2 <tee_map_zi+0x42>
/home/qemu-sgx/devel/optee/optee_os/lib/libutee/tee_system_pta.c:43
    48cc:	f04f 0300 	mov.w	r3, #0
    48d0:	e025      	b.n	491e <tee_map_zi+0x8e>
/home/qemu-sgx/devel/optee/optee_os/lib/libutee/tee_system_pta.c:44
    48d2:	683b      	ldr	r3, [r7, #0]
    48d4:	2b00      	cmp	r3, #0
    48d6:	d009      	beq.n	48ec <tee_map_zi+0x5c>
    48d8:	683b      	ldr	r3, [r7, #0]
    48da:	2b04      	cmp	r3, #4
    48dc:	d103      	bne.n	48e6 <tee_map_zi+0x56>
/home/qemu-sgx/devel/optee/optee_os/lib/libutee/tee_system_pta.c:48
    48de:	f04f 0301 	mov.w	r3, #1
    48e2:	60fb      	str	r3, [r7, #12]
/home/qemu-sgx/devel/optee/optee_os/lib/libutee/tee_system_pta.c:49
    48e4:	e003      	b.n	48ee <tee_map_zi+0x5e>
/home/qemu-sgx/devel/optee/optee_os/lib/libutee/tee_system_pta.c:51
    48e6:	f04f 0300 	mov.w	r3, #0
    48ea:	e018      	b.n	491e <tee_map_zi+0x8e>
/home/qemu-sgx/devel/optee/optee_os/lib/libutee/tee_system_pta.c:46
    48ec:	bf00      	nop
/home/qemu-sgx/devel/optee/optee_os/lib/libutee/tee_system_pta.c:54
    48ee:	f107 0308 	add.w	r3, r7, #8
    48f2:	461a      	mov	r2, r3
    48f4:	6af9      	ldr	r1, [r7, #44]	; 0x2c
    48f6:	f04f 0002 	mov.w	r0, #2
    48fa:	f7ff ff8a 	bl	4812 <invoke_system_pta>
    48fe:	62b8      	str	r0, [r7, #40]	; 0x28
/home/qemu-sgx/devel/optee/optee_os/lib/libutee/tee_system_pta.c:55
    4900:	6abb      	ldr	r3, [r7, #40]	; 0x28
    4902:	2b00      	cmp	r3, #0
    4904:	d002      	beq.n	490c <tee_map_zi+0x7c>
/home/qemu-sgx/devel/optee/optee_os/lib/libutee/tee_system_pta.c:56
    4906:	f04f 0300 	mov.w	r3, #0
    490a:	e008      	b.n	491e <tee_map_zi+0x8e>
/home/qemu-sgx/devel/optee/optee_os/lib/libutee/tee_system_pta.c:58
    490c:	693b      	ldr	r3, [r7, #16]
    490e:	697a      	ldr	r2, [r7, #20]
    4910:	4611      	mov	r1, r2
    4912:	4618      	mov	r0, r3
    4914:	f7ff ff2e 	bl	4774 <reg_pair_to_64>
    4918:	4602      	mov	r2, r0
    491a:	460b      	mov	r3, r1
    491c:	4613      	mov	r3, r2
/home/qemu-sgx/devel/optee/optee_os/lib/libutee/tee_system_pta.c:60 (discriminator 1)
    491e:	4618      	mov	r0, r3
    4920:	f107 0730 	add.w	r7, r7, #48	; 0x30
    4924:	46bd      	mov	sp, r7
    4926:	bd80      	pop	{r7, pc}

00004928 <tee_unmap>:
tee_unmap():
/home/qemu-sgx/devel/optee/optee_os/lib/libutee/tee_system_pta.c:63
    4928:	e96d 4504 	strd	r4, r5, [sp, #-16]!
    492c:	e9cd 7e02 	strd	r7, lr, [sp, #8]
    4930:	b090      	sub	sp, #64	; 0x40
    4932:	af04      	add	r7, sp, #16
    4934:	6078      	str	r0, [r7, #4]
    4936:	6039      	str	r1, [r7, #0]
/home/qemu-sgx/devel/optee/optee_os/lib/libutee/tee_system_pta.c:64
    4938:	f04f 0300 	mov.w	r3, #0
    493c:	62fb      	str	r3, [r7, #44]	; 0x2c
/home/qemu-sgx/devel/optee/optee_os/lib/libutee/tee_system_pta.c:65
    493e:	f04f 0311 	mov.w	r3, #17
    4942:	62bb      	str	r3, [r7, #40]	; 0x28
/home/qemu-sgx/devel/optee/optee_os/lib/libutee/tee_system_pta.c:69
    4944:	f107 0308 	add.w	r3, r7, #8
    4948:	efc0 0010 	vmov.i32	d16, #0	; 0x00000000
    494c:	edc3 0b00 	vstr	d16, [r3]
    4950:	edc3 0b02 	vstr	d16, [r3, #8]
    4954:	edc3 0b04 	vstr	d16, [r3, #16]
    4958:	edc3 0b06 	vstr	d16, [r3, #24]
/home/qemu-sgx/devel/optee/optee_os/lib/libutee/tee_system_pta.c:71
    495c:	683b      	ldr	r3, [r7, #0]
    495e:	60bb      	str	r3, [r7, #8]
/home/qemu-sgx/devel/optee/optee_os/lib/libutee/tee_system_pta.c:72
    4960:	687b      	ldr	r3, [r7, #4]
    4962:	f04f 0200 	mov.w	r2, #0
    4966:	461c      	mov	r4, r3
    4968:	4615      	mov	r5, r2
    496a:	f107 0308 	add.w	r3, r7, #8
    496e:	f103 010c 	add.w	r1, r3, #12
    4972:	f107 0308 	add.w	r3, r7, #8
    4976:	f103 0208 	add.w	r2, r3, #8
    497a:	460b      	mov	r3, r1
    497c:	4620      	mov	r0, r4
    497e:	4629      	mov	r1, r5
    4980:	f7ff ff2a 	bl	47d8 <reg_pair_from_64>
/home/qemu-sgx/devel/optee/optee_os/lib/libutee/tee_system_pta.c:74
    4984:	f107 0308 	add.w	r3, r7, #8
    4988:	461a      	mov	r2, r3
    498a:	6ab9      	ldr	r1, [r7, #40]	; 0x28
    498c:	f04f 0003 	mov.w	r0, #3
    4990:	f7ff ff3f 	bl	4812 <invoke_system_pta>
    4994:	62f8      	str	r0, [r7, #44]	; 0x2c
/home/qemu-sgx/devel/optee/optee_os/lib/libutee/tee_system_pta.c:75
    4996:	6afb      	ldr	r3, [r7, #44]	; 0x2c
    4998:	2b00      	cmp	r3, #0
    499a:	d010      	beq.n	49be <tee_unmap+0x96>
/home/qemu-sgx/devel/optee/optee_os/lib/libutee/tee_system_pta.c:76
    499c:	683b      	ldr	r3, [r7, #0]
    499e:	9302      	str	r3, [sp, #8]
    49a0:	687b      	ldr	r3, [r7, #4]
    49a2:	9301      	str	r3, [sp, #4]
    49a4:	4b0a      	ldr	r3, [pc, #40]	; (49d0 <tee_unmap+0xa8>)
    49a6:	447b      	add	r3, pc
    49a8:	9300      	str	r3, [sp, #0]
    49aa:	f04f 0301 	mov.w	r3, #1
    49ae:	f04f 0201 	mov.w	r2, #1
    49b2:	f04f 014c 	mov.w	r1, #76	; 0x4c
    49b6:	4807      	ldr	r0, [pc, #28]	; (49d4 <tee_unmap+0xac>)
    49b8:	4478      	add	r0, pc
    49ba:	f7fe eb40 	blx	303c <trace_printf@plt>
/home/qemu-sgx/devel/optee/optee_os/lib/libutee/tee_system_pta.c:78
    49be:	6afb      	ldr	r3, [r7, #44]	; 0x2c
/home/qemu-sgx/devel/optee/optee_os/lib/libutee/tee_system_pta.c:79
    49c0:	4618      	mov	r0, r3
    49c2:	f107 0730 	add.w	r7, r7, #48	; 0x30
    49c6:	46bd      	mov	sp, r7
    49c8:	e9dd 4500 	ldrd	r4, r5, [sp]
    49cc:	b002      	add	sp, #8
    49ce:	bd80      	pop	{r7, pc}
    49d0:	00008926 	.word	0x00008926
    49d4:	0000897c 	.word	0x0000897c

000049d8 <tee_invoke_supp_plugin>:
tee_invoke_supp_plugin():
/home/qemu-sgx/devel/optee/optee_os/lib/libutee/tee_system_pta.c:84
    49d8:	e96d 7e02 	strd	r7, lr, [sp, #-8]!
    49dc:	b090      	sub	sp, #64	; 0x40
    49de:	af02      	add	r7, sp, #8
    49e0:	60f8      	str	r0, [r7, #12]
    49e2:	60b9      	str	r1, [r7, #8]
    49e4:	607a      	str	r2, [r7, #4]
    49e6:	603b      	str	r3, [r7, #0]
/home/qemu-sgx/devel/optee/optee_os/lib/libutee/tee_system_pta.c:85
    49e8:	f04f 0300 	mov.w	r3, #0
    49ec:	637b      	str	r3, [r7, #52]	; 0x34
/home/qemu-sgx/devel/optee/optee_os/lib/libutee/tee_system_pta.c:86
    49ee:	f242 7315 	movw	r3, #10005	; 0x2715
    49f2:	633b      	str	r3, [r7, #48]	; 0x30
/home/qemu-sgx/devel/optee/optee_os/lib/libutee/tee_system_pta.c:90
    49f4:	f107 0310 	add.w	r3, r7, #16
    49f8:	efc0 0010 	vmov.i32	d16, #0	; 0x00000000
    49fc:	edc3 0b00 	vstr	d16, [r3]
    4a00:	edc3 0b02 	vstr	d16, [r3, #8]
    4a04:	edc3 0b04 	vstr	d16, [r3, #16]
    4a08:	edc3 0b06 	vstr	d16, [r3, #24]
/home/qemu-sgx/devel/optee/optee_os/lib/libutee/tee_system_pta.c:92
    4a0c:	68fb      	ldr	r3, [r7, #12]
    4a0e:	2b00      	cmp	r3, #0
    4a10:	d00b      	beq.n	4a2a <tee_invoke_supp_plugin+0x52>
/home/qemu-sgx/devel/optee/optee_os/lib/libutee/tee_system_pta.c:92 (discriminator 1)
    4a12:	6c3b      	ldr	r3, [r7, #64]	; 0x40
    4a14:	2b00      	cmp	r3, #0
    4a16:	d002      	beq.n	4a1e <tee_invoke_supp_plugin+0x46>
/home/qemu-sgx/devel/optee/optee_os/lib/libutee/tee_system_pta.c:92 (discriminator 2)
    4a18:	683b      	ldr	r3, [r7, #0]
    4a1a:	2b00      	cmp	r3, #0
    4a1c:	d005      	beq.n	4a2a <tee_invoke_supp_plugin+0x52>
/home/qemu-sgx/devel/optee/optee_os/lib/libutee/tee_system_pta.c:92 (discriminator 4)
    4a1e:	6c3b      	ldr	r3, [r7, #64]	; 0x40
    4a20:	2b00      	cmp	r3, #0
    4a22:	d107      	bne.n	4a34 <tee_invoke_supp_plugin+0x5c>
/home/qemu-sgx/devel/optee/optee_os/lib/libutee/tee_system_pta.c:92 (discriminator 5)
    4a24:	683b      	ldr	r3, [r7, #0]
    4a26:	2b00      	cmp	r3, #0
    4a28:	d004      	beq.n	4a34 <tee_invoke_supp_plugin+0x5c>
/home/qemu-sgx/devel/optee/optee_os/lib/libutee/tee_system_pta.c:93
    4a2a:	f04f 0306 	mov.w	r3, #6
    4a2e:	f6cf 73ff 	movt	r3, #65535	; 0xffff
    4a32:	e02e      	b.n	4a92 <tee_invoke_supp_plugin+0xba>
/home/qemu-sgx/devel/optee/optee_os/lib/libutee/tee_system_pta.c:95
    4a34:	68fb      	ldr	r3, [r7, #12]
    4a36:	613b      	str	r3, [r7, #16]
/home/qemu-sgx/devel/optee/optee_os/lib/libutee/tee_system_pta.c:96
    4a38:	f04f 0310 	mov.w	r3, #16
    4a3c:	617b      	str	r3, [r7, #20]
/home/qemu-sgx/devel/optee/optee_os/lib/libutee/tee_system_pta.c:97
    4a3e:	68bb      	ldr	r3, [r7, #8]
    4a40:	61bb      	str	r3, [r7, #24]
/home/qemu-sgx/devel/optee/optee_os/lib/libutee/tee_system_pta.c:98
    4a42:	687b      	ldr	r3, [r7, #4]
    4a44:	61fb      	str	r3, [r7, #28]
/home/qemu-sgx/devel/optee/optee_os/lib/libutee/tee_system_pta.c:99
    4a46:	683b      	ldr	r3, [r7, #0]
    4a48:	623b      	str	r3, [r7, #32]
/home/qemu-sgx/devel/optee/optee_os/lib/libutee/tee_system_pta.c:100
    4a4a:	6c3b      	ldr	r3, [r7, #64]	; 0x40
    4a4c:	627b      	str	r3, [r7, #36]	; 0x24
/home/qemu-sgx/devel/optee/optee_os/lib/libutee/tee_system_pta.c:102
    4a4e:	f107 0310 	add.w	r3, r7, #16
    4a52:	461a      	mov	r2, r3
    4a54:	6b39      	ldr	r1, [r7, #48]	; 0x30
    4a56:	f04f 000d 	mov.w	r0, #13
    4a5a:	f7ff feda 	bl	4812 <invoke_system_pta>
    4a5e:	6378      	str	r0, [r7, #52]	; 0x34
/home/qemu-sgx/devel/optee/optee_os/lib/libutee/tee_system_pta.c:104
    4a60:	6b7b      	ldr	r3, [r7, #52]	; 0x34
    4a62:	2b00      	cmp	r3, #0
    4a64:	d00e      	beq.n	4a84 <tee_invoke_supp_plugin+0xac>
/home/qemu-sgx/devel/optee/optee_os/lib/libutee/tee_system_pta.c:105
    4a66:	6b7b      	ldr	r3, [r7, #52]	; 0x34
    4a68:	9301      	str	r3, [sp, #4]
    4a6a:	4b0c      	ldr	r3, [pc, #48]	; (4a9c <tee_invoke_supp_plugin+0xc4>)
    4a6c:	447b      	add	r3, pc
    4a6e:	9300      	str	r3, [sp, #0]
    4a70:	f04f 0301 	mov.w	r3, #1
    4a74:	f04f 0201 	mov.w	r2, #1
    4a78:	f04f 0169 	mov.w	r1, #105	; 0x69
    4a7c:	4808      	ldr	r0, [pc, #32]	; (4aa0 <tee_invoke_supp_plugin+0xc8>)
    4a7e:	4478      	add	r0, pc
    4a80:	f7fe eadc 	blx	303c <trace_printf@plt>
/home/qemu-sgx/devel/optee/optee_os/lib/libutee/tee_system_pta.c:107
    4a84:	6c7b      	ldr	r3, [r7, #68]	; 0x44
    4a86:	2b00      	cmp	r3, #0
    4a88:	d002      	beq.n	4a90 <tee_invoke_supp_plugin+0xb8>
/home/qemu-sgx/devel/optee/optee_os/lib/libutee/tee_system_pta.c:108
    4a8a:	6aba      	ldr	r2, [r7, #40]	; 0x28
    4a8c:	6c7b      	ldr	r3, [r7, #68]	; 0x44
    4a8e:	601a      	str	r2, [r3, #0]
/home/qemu-sgx/devel/optee/optee_os/lib/libutee/tee_system_pta.c:110
    4a90:	6b7b      	ldr	r3, [r7, #52]	; 0x34
/home/qemu-sgx/devel/optee/optee_os/lib/libutee/tee_system_pta.c:111 (discriminator 1)
    4a92:	4618      	mov	r0, r3
    4a94:	f107 0738 	add.w	r7, r7, #56	; 0x38
    4a98:	46bd      	mov	sp, r7
    4a9a:	bd80      	pop	{r7, pc}
    4a9c:	0000888c 	.word	0x0000888c
    4aa0:	000088c2 	.word	0x000088c2

00004aa4 <tag_asan_free>:
tag_asan_free():
/home/qemu-sgx/devel/optee/optee_os/lib/libutils/isoc/bget_malloc.c:122
    4aa4:	f84d 7d04 	str.w	r7, [sp, #-4]!
    4aa8:	b083      	sub	sp, #12
    4aaa:	af00      	add	r7, sp, #0
    4aac:	6078      	str	r0, [r7, #4]
    4aae:	6039      	str	r1, [r7, #0]
/home/qemu-sgx/devel/optee/optee_os/lib/libutils/isoc/bget_malloc.c:123
    4ab0:	bf00      	nop
    4ab2:	f107 070c 	add.w	r7, r7, #12
    4ab6:	46bd      	mov	sp, r7
    4ab8:	f85d 7b04 	ldr.w	r7, [sp], #4
    4abc:	4770      	bx	lr

00004abe <tag_asan_alloced>:
tag_asan_alloced():
/home/qemu-sgx/devel/optee/optee_os/lib/libutils/isoc/bget_malloc.c:126
    4abe:	f84d 7d04 	str.w	r7, [sp, #-4]!
    4ac2:	b083      	sub	sp, #12
    4ac4:	af00      	add	r7, sp, #0
    4ac6:	6078      	str	r0, [r7, #4]
    4ac8:	6039      	str	r1, [r7, #0]
/home/qemu-sgx/devel/optee/optee_os/lib/libutils/isoc/bget_malloc.c:127
    4aca:	bf00      	nop
    4acc:	f107 070c 	add.w	r7, r7, #12
    4ad0:	46bd      	mov	sp, r7
    4ad2:	f85d 7b04 	ldr.w	r7, [sp], #4
    4ad6:	4770      	bx	lr

00004ad8 <memset_unchecked>:
memset_unchecked():
/home/qemu-sgx/devel/optee/optee_os/lib/libutils/isoc/bget_malloc.c:130
    4ad8:	e96d 7e02 	strd	r7, lr, [sp, #-8]!
    4adc:	b084      	sub	sp, #16
    4ade:	af00      	add	r7, sp, #0
    4ae0:	60f8      	str	r0, [r7, #12]
    4ae2:	60b9      	str	r1, [r7, #8]
    4ae4:	607a      	str	r2, [r7, #4]
/home/qemu-sgx/devel/optee/optee_os/lib/libutils/isoc/bget_malloc.c:131
    4ae6:	687a      	ldr	r2, [r7, #4]
    4ae8:	68b9      	ldr	r1, [r7, #8]
    4aea:	68f8      	ldr	r0, [r7, #12]
    4aec:	f7fe ebf0 	blx	32d0 <memset@plt>
    4af0:	4603      	mov	r3, r0
/home/qemu-sgx/devel/optee/optee_os/lib/libutils/isoc/bget_malloc.c:132
    4af2:	4618      	mov	r0, r3
    4af4:	f107 0710 	add.w	r7, r7, #16
    4af8:	46bd      	mov	sp, r7
    4afa:	bd80      	pop	{r7, pc}

00004afc <memcpy_unchecked>:
memcpy_unchecked():
/home/qemu-sgx/devel/optee/optee_os/lib/libutils/isoc/bget_malloc.c:136
    4afc:	e96d 7e02 	strd	r7, lr, [sp, #-8]!
    4b00:	b084      	sub	sp, #16
    4b02:	af00      	add	r7, sp, #0
    4b04:	60f8      	str	r0, [r7, #12]
    4b06:	60b9      	str	r1, [r7, #8]
    4b08:	607a      	str	r2, [r7, #4]
/home/qemu-sgx/devel/optee/optee_os/lib/libutils/isoc/bget_malloc.c:137
    4b0a:	687a      	ldr	r2, [r7, #4]
    4b0c:	68b9      	ldr	r1, [r7, #8]
    4b0e:	68f8      	ldr	r0, [r7, #12]
    4b10:	f7fe eaa0 	blx	3054 <memcpy@plt>
    4b14:	4603      	mov	r3, r0
/home/qemu-sgx/devel/optee/optee_os/lib/libutils/isoc/bget_malloc.c:138
    4b16:	4618      	mov	r0, r3
    4b18:	f107 0710 	add.w	r7, r7, #16
    4b1c:	46bd      	mov	sp, r7
    4b1e:	bd80      	pop	{r7, pc}

00004b20 <buf_get_pos>:
buf_get_pos():
/home/qemu-sgx/devel/optee/optee_os/lib/libutils/isoc/bget.c:581
    4b20:	f84d 7d04 	str.w	r7, [sp, #-4]!
    4b24:	b087      	sub	sp, #28
    4b26:	af00      	add	r7, sp, #0
    4b28:	60f8      	str	r0, [r7, #12]
    4b2a:	60b9      	str	r1, [r7, #8]
    4b2c:	607a      	str	r2, [r7, #4]
    4b2e:	603b      	str	r3, [r7, #0]
/home/qemu-sgx/devel/optee/optee_os/lib/libutils/isoc/bget.c:582
    4b30:	f04f 0300 	mov.w	r3, #0
    4b34:	617b      	str	r3, [r7, #20]
/home/qemu-sgx/devel/optee/optee_os/lib/libutils/isoc/bget.c:583
    4b36:	f04f 0300 	mov.w	r3, #0
    4b3a:	613b      	str	r3, [r7, #16]
/home/qemu-sgx/devel/optee/optee_os/lib/libutils/isoc/bget.c:585
    4b3c:	68fb      	ldr	r3, [r7, #12]
    4b3e:	685b      	ldr	r3, [r3, #4]
    4b40:	683a      	ldr	r2, [r7, #0]
    4b42:	429a      	cmp	r2, r3
    4b44:	dd02      	ble.n	4b4c <buf_get_pos+0x2c>
/home/qemu-sgx/devel/optee/optee_os/lib/libutils/isoc/bget.c:586
    4b46:	f04f 33ff 	mov.w	r3, #4294967295	; 0xffffffff
    4b4a:	e02a      	b.n	4ba2 <buf_get_pos+0x82>
/home/qemu-sgx/devel/optee/optee_os/lib/libutils/isoc/bget.c:592
    4b4c:	68fb      	ldr	r3, [r7, #12]
    4b4e:	685b      	ldr	r3, [r3, #4]
    4b50:	461a      	mov	r2, r3
    4b52:	68fb      	ldr	r3, [r7, #12]
    4b54:	441a      	add	r2, r3
    4b56:	683b      	ldr	r3, [r7, #0]
    4b58:	eba2 0203 	sub.w	r2, r2, r3
    4b5c:	687b      	ldr	r3, [r7, #4]
    4b5e:	4413      	add	r3, r2
    4b60:	f103 0308 	add.w	r3, r3, #8
    4b64:	617b      	str	r3, [r7, #20]
/home/qemu-sgx/devel/optee/optee_os/lib/libutils/isoc/bget.c:594
    4b66:	68bb      	ldr	r3, [r7, #8]
    4b68:	f1c3 0300 	rsb	r3, r3, #0
    4b6c:	461a      	mov	r2, r3
    4b6e:	697b      	ldr	r3, [r7, #20]
    4b70:	ea03 0302 	and.w	r3, r3, r2
    4b74:	617b      	str	r3, [r7, #20]
/home/qemu-sgx/devel/optee/optee_os/lib/libutils/isoc/bget.c:595
    4b76:	68fb      	ldr	r3, [r7, #12]
    4b78:	697a      	ldr	r2, [r7, #20]
    4b7a:	eba2 0203 	sub.w	r2, r2, r3
    4b7e:	687b      	ldr	r3, [r7, #4]
    4b80:	eba2 0303 	sub.w	r3, r2, r3
    4b84:	f1a3 0308 	sub.w	r3, r3, #8
    4b88:	613b      	str	r3, [r7, #16]
/home/qemu-sgx/devel/optee/optee_os/lib/libutils/isoc/bget.c:597
    4b8a:	693b      	ldr	r3, [r7, #16]
    4b8c:	2b00      	cmp	r3, #0
    4b8e:	d101      	bne.n	4b94 <buf_get_pos+0x74>
/home/qemu-sgx/devel/optee/optee_os/lib/libutils/isoc/bget.c:598
    4b90:	693b      	ldr	r3, [r7, #16]
    4b92:	e006      	b.n	4ba2 <buf_get_pos+0x82>
/home/qemu-sgx/devel/optee/optee_os/lib/libutils/isoc/bget.c:599
    4b94:	693b      	ldr	r3, [r7, #16]
    4b96:	2b0f      	cmp	r3, #15
    4b98:	d901      	bls.n	4b9e <buf_get_pos+0x7e>
/home/qemu-sgx/devel/optee/optee_os/lib/libutils/isoc/bget.c:600
    4b9a:	693b      	ldr	r3, [r7, #16]
    4b9c:	e001      	b.n	4ba2 <buf_get_pos+0x82>
/home/qemu-sgx/devel/optee/optee_os/lib/libutils/isoc/bget.c:602
    4b9e:	f04f 33ff 	mov.w	r3, #4294967295	; 0xffffffff
/home/qemu-sgx/devel/optee/optee_os/lib/libutils/isoc/bget.c:603
    4ba2:	4618      	mov	r0, r3
    4ba4:	f107 071c 	add.w	r7, r7, #28
    4ba8:	46bd      	mov	sp, r7
    4baa:	f85d 7b04 	ldr.w	r7, [sp], #4
    4bae:	4770      	bx	lr

00004bb0 <bget>:
bget():
/home/qemu-sgx/devel/optee/optee_os/lib/libutils/isoc/bget.c:612
    4bb0:	e96d 7e02 	strd	r7, lr, [sp, #-8]!
    4bb4:	b08c      	sub	sp, #48	; 0x30
    4bb6:	af00      	add	r7, sp, #0
    4bb8:	60f8      	str	r0, [r7, #12]
    4bba:	60b9      	str	r1, [r7, #8]
    4bbc:	607a      	str	r2, [r7, #4]
    4bbe:	603b      	str	r3, [r7, #0]
/home/qemu-sgx/devel/optee/optee_os/lib/libutils/isoc/bget.c:613
    4bc0:	68fb      	ldr	r3, [r7, #12]
    4bc2:	62fb      	str	r3, [r7, #44]	; 0x2c
/home/qemu-sgx/devel/optee/optee_os/lib/libutils/isoc/bget.c:614
    4bc4:	687b      	ldr	r3, [r7, #4]
    4bc6:	617b      	str	r3, [r7, #20]
/home/qemu-sgx/devel/optee/optee_os/lib/libutils/isoc/bget.c:625
    4bc8:	697b      	ldr	r3, [r7, #20]
    4bca:	2b00      	cmp	r3, #0
    4bcc:	dc0b      	bgt.n	4be6 <bget+0x36>
/home/qemu-sgx/devel/optee/optee_os/lib/libutils/isoc/bget.c:625 (discriminator 1)
    4bce:	4bc3      	ldr	r3, [pc, #780]	; (4edc <bget+0x32c>)
    4bd0:	447b      	add	r3, pc
    4bd2:	f240 2271 	movw	r2, #625	; 0x271
    4bd6:	49c2      	ldr	r1, [pc, #776]	; (4ee0 <bget+0x330>)
    4bd8:	4479      	add	r1, pc
    4bda:	48c2      	ldr	r0, [pc, #776]	; (4ee4 <bget+0x334>)
    4bdc:	4478      	add	r0, pc
    4bde:	f7fe ea82 	blx	30e4 <_assert_log@plt>
    4be2:	f7fe ebf4 	blx	33cc <_assert_break@plt>
/home/qemu-sgx/devel/optee/optee_os/lib/libutils/isoc/bget.c:626
    4be6:	bf00      	nop
/home/qemu-sgx/devel/optee/optee_os/lib/libutils/isoc/bget.c:628
    4be8:	6afb      	ldr	r3, [r7, #44]	; 0x2c
    4bea:	2b00      	cmp	r3, #0
    4bec:	db0e      	blt.n	4c0c <bget+0x5c>
/home/qemu-sgx/devel/optee/optee_os/lib/libutils/isoc/bget.c:628 (discriminator 1)
    4bee:	6afb      	ldr	r3, [r7, #44]	; 0x2c
    4bf0:	2b00      	cmp	r3, #0
    4bf2:	dd0e      	ble.n	4c12 <bget+0x62>
/home/qemu-sgx/devel/optee/optee_os/lib/libutils/isoc/bget.c:628 (discriminator 2)
    4bf4:	6afb      	ldr	r3, [r7, #44]	; 0x2c
    4bf6:	2b00      	cmp	r3, #0
    4bf8:	d008      	beq.n	4c0c <bget+0x5c>
/home/qemu-sgx/devel/optee/optee_os/lib/libutils/isoc/bget.c:628 (discriminator 3)
    4bfa:	6afb      	ldr	r3, [r7, #44]	; 0x2c
    4bfc:	f1c3 0200 	rsb	r2, r3, #0
    4c00:	6afb      	ldr	r3, [r7, #44]	; 0x2c
    4c02:	ea02 0203 	and.w	r2, r2, r3
    4c06:	6afb      	ldr	r3, [r7, #44]	; 0x2c
    4c08:	429a      	cmp	r2, r3
    4c0a:	d002      	beq.n	4c12 <bget+0x62>
/home/qemu-sgx/devel/optee/optee_os/lib/libutils/isoc/bget.c:629
    4c0c:	f04f 0300 	mov.w	r3, #0
    4c10:	e15e      	b.n	4ed0 <bget+0x320>
/home/qemu-sgx/devel/optee/optee_os/lib/libutils/isoc/bget.c:630
    4c12:	68bb      	ldr	r3, [r7, #8]
    4c14:	f003 0307 	and.w	r3, r3, #7
    4c18:	2b00      	cmp	r3, #0
    4c1a:	d002      	beq.n	4c22 <bget+0x72>
/home/qemu-sgx/devel/optee/optee_os/lib/libutils/isoc/bget.c:631
    4c1c:	f04f 0300 	mov.w	r3, #0
    4c20:	e156      	b.n	4ed0 <bget+0x320>
/home/qemu-sgx/devel/optee/optee_os/lib/libutils/isoc/bget.c:633
    4c22:	697b      	ldr	r3, [r7, #20]
    4c24:	2b07      	cmp	r3, #7
    4c26:	d802      	bhi.n	4c2e <bget+0x7e>
/home/qemu-sgx/devel/optee/optee_os/lib/libutils/isoc/bget.c:634
    4c28:	f04f 0308 	mov.w	r3, #8
    4c2c:	617b      	str	r3, [r7, #20]
/home/qemu-sgx/devel/optee/optee_os/lib/libutils/isoc/bget.c:636
    4c2e:	6afb      	ldr	r3, [r7, #44]	; 0x2c
    4c30:	2b07      	cmp	r3, #7
    4c32:	d802      	bhi.n	4c3a <bget+0x8a>
/home/qemu-sgx/devel/optee/optee_os/lib/libutils/isoc/bget.c:637
    4c34:	f04f 0308 	mov.w	r3, #8
    4c38:	62fb      	str	r3, [r7, #44]	; 0x2c
/home/qemu-sgx/devel/optee/optee_os/lib/libutils/isoc/bget.c:640
    4c3a:	697b      	ldr	r3, [r7, #20]
    4c3c:	f04f 0200 	mov.w	r2, #0
    4c40:	3307      	adds	r3, #7
    4c42:	d701      	bvc.n	4c48 <bget+0x98>
    4c44:	f04f 0201 	mov.w	r2, #1
    4c48:	617b      	str	r3, [r7, #20]
    4c4a:	4613      	mov	r3, r2
    4c4c:	f003 0301 	and.w	r3, r3, #1
    4c50:	b2db      	uxtb	r3, r3
    4c52:	2b00      	cmp	r3, #0
    4c54:	d002      	beq.n	4c5c <bget+0xac>
/home/qemu-sgx/devel/optee/optee_os/lib/libutils/isoc/bget.c:641
    4c56:	f04f 0300 	mov.w	r3, #0
    4c5a:	e139      	b.n	4ed0 <bget+0x320>
/home/qemu-sgx/devel/optee/optee_os/lib/libutils/isoc/bget.c:643
    4c5c:	697b      	ldr	r3, [r7, #20]
    4c5e:	f023 0307 	bic.w	r3, r3, #7
    4c62:	617b      	str	r3, [r7, #20]
/home/qemu-sgx/devel/optee/optee_os/lib/libutils/isoc/bget.c:648
    4c64:	697b      	ldr	r3, [r7, #20]
    4c66:	f04f 0200 	mov.w	r2, #0
    4c6a:	3308      	adds	r3, #8
    4c6c:	d701      	bvc.n	4c72 <bget+0xc2>
    4c6e:	f04f 0201 	mov.w	r2, #1
    4c72:	617b      	str	r3, [r7, #20]
    4c74:	4613      	mov	r3, r2
    4c76:	f003 0301 	and.w	r3, r3, #1
    4c7a:	b2db      	uxtb	r3, r3
    4c7c:	2b00      	cmp	r3, #0
    4c7e:	d002      	beq.n	4c86 <bget+0xd6>
/home/qemu-sgx/devel/optee/optee_os/lib/libutils/isoc/bget.c:649
    4c80:	f04f 0300 	mov.w	r3, #0
    4c84:	e124      	b.n	4ed0 <bget+0x320>
/home/qemu-sgx/devel/optee/optee_os/lib/libutils/isoc/bget.c:650
    4c86:	697a      	ldr	r2, [r7, #20]
    4c88:	f04f 0100 	mov.w	r1, #0
    4c8c:	68bb      	ldr	r3, [r7, #8]
    4c8e:	18d3      	adds	r3, r2, r3
    4c90:	d701      	bvc.n	4c96 <bget+0xe6>
    4c92:	f04f 0101 	mov.w	r1, #1
    4c96:	617b      	str	r3, [r7, #20]
    4c98:	460b      	mov	r3, r1
    4c9a:	f003 0301 	and.w	r3, r3, #1
    4c9e:	b2db      	uxtb	r3, r3
    4ca0:	2b00      	cmp	r3, #0
    4ca2:	d002      	beq.n	4caa <bget+0xfa>
/home/qemu-sgx/devel/optee/optee_os/lib/libutils/isoc/bget.c:651
    4ca4:	f04f 0300 	mov.w	r3, #0
    4ca8:	e112      	b.n	4ed0 <bget+0x320>
/home/qemu-sgx/devel/optee/optee_os/lib/libutils/isoc/bget.c:660
    4caa:	683b      	ldr	r3, [r7, #0]
    4cac:	689b      	ldr	r3, [r3, #8]
    4cae:	62bb      	str	r3, [r7, #40]	; 0x28
/home/qemu-sgx/devel/optee/optee_os/lib/libutils/isoc/bget.c:684
    4cb0:	e107      	b.n	4ec2 <bget+0x312>
/home/qemu-sgx/devel/optee/optee_os/lib/libutils/isoc/bget.c:685
    4cb2:	697b      	ldr	r3, [r7, #20]
    4cb4:	68ba      	ldr	r2, [r7, #8]
    4cb6:	6af9      	ldr	r1, [r7, #44]	; 0x2c
    4cb8:	6ab8      	ldr	r0, [r7, #40]	; 0x28
    4cba:	f7ff ff31 	bl	4b20 <buf_get_pos>
    4cbe:	6278      	str	r0, [r7, #36]	; 0x24
/home/qemu-sgx/devel/optee/optee_os/lib/libutils/isoc/bget.c:686
    4cc0:	6a7b      	ldr	r3, [r7, #36]	; 0x24
    4cc2:	2b00      	cmp	r3, #0
    4cc4:	f2c0 80fa 	blt.w	4ebc <bget+0x30c>
/home/qemu-sgx/devel/optee/optee_os/lib/libutils/isoc/bget.c:687
    4cc8:	6a7b      	ldr	r3, [r7, #36]	; 0x24
    4cca:	6aba      	ldr	r2, [r7, #40]	; 0x28
    4ccc:	4413      	add	r3, r2
    4cce:	623b      	str	r3, [r7, #32]
/home/qemu-sgx/devel/optee/optee_os/lib/libutils/isoc/bget.c:688
    4cd0:	6abb      	ldr	r3, [r7, #40]	; 0x28
    4cd2:	685b      	ldr	r3, [r3, #4]
    4cd4:	461a      	mov	r2, r3
    4cd6:	6abb      	ldr	r3, [r7, #40]	; 0x28
    4cd8:	4413      	add	r3, r2
    4cda:	61fb      	str	r3, [r7, #28]
/home/qemu-sgx/devel/optee/optee_os/lib/libutils/isoc/bget.c:690
    4cdc:	69fb      	ldr	r3, [r7, #28]
    4cde:	681a      	ldr	r2, [r3, #0]
    4ce0:	6abb      	ldr	r3, [r7, #40]	; 0x28
    4ce2:	685b      	ldr	r3, [r3, #4]
    4ce4:	429a      	cmp	r2, r3
    4ce6:	d00b      	beq.n	4d00 <bget+0x150>
/home/qemu-sgx/devel/optee/optee_os/lib/libutils/isoc/bget.c:690 (discriminator 1)
    4ce8:	4b7f      	ldr	r3, [pc, #508]	; (4ee8 <bget+0x338>)
    4cea:	447b      	add	r3, pc
    4cec:	f240 22b2 	movw	r2, #690	; 0x2b2
    4cf0:	497e      	ldr	r1, [pc, #504]	; (4eec <bget+0x33c>)
    4cf2:	4479      	add	r1, pc
    4cf4:	487e      	ldr	r0, [pc, #504]	; (4ef0 <bget+0x340>)
    4cf6:	4478      	add	r0, pc
    4cf8:	f7fe e9f4 	blx	30e4 <_assert_log@plt>
    4cfc:	f7fe eb66 	blx	33cc <_assert_break@plt>
/home/qemu-sgx/devel/optee/optee_os/lib/libutils/isoc/bget.c:696
    4d00:	69fb      	ldr	r3, [r7, #28]
    4d02:	f04f 0200 	mov.w	r2, #0
    4d06:	601a      	str	r2, [r3, #0]
/home/qemu-sgx/devel/optee/optee_os/lib/libutils/isoc/bget.c:698
    4d08:	6abb      	ldr	r3, [r7, #40]	; 0x28
    4d0a:	68db      	ldr	r3, [r3, #12]
    4d0c:	689b      	ldr	r3, [r3, #8]
    4d0e:	6aba      	ldr	r2, [r7, #40]	; 0x28
    4d10:	429a      	cmp	r2, r3
    4d12:	d00b      	beq.n	4d2c <bget+0x17c>
/home/qemu-sgx/devel/optee/optee_os/lib/libutils/isoc/bget.c:698 (discriminator 1)
    4d14:	4b77      	ldr	r3, [pc, #476]	; (4ef4 <bget+0x344>)
    4d16:	447b      	add	r3, pc
    4d18:	f240 22ba 	movw	r2, #698	; 0x2ba
    4d1c:	4976      	ldr	r1, [pc, #472]	; (4ef8 <bget+0x348>)
    4d1e:	4479      	add	r1, pc
    4d20:	4876      	ldr	r0, [pc, #472]	; (4efc <bget+0x34c>)
    4d22:	4478      	add	r0, pc
    4d24:	f7fe e9de 	blx	30e4 <_assert_log@plt>
    4d28:	f7fe eb50 	blx	33cc <_assert_break@plt>
/home/qemu-sgx/devel/optee/optee_os/lib/libutils/isoc/bget.c:699
    4d2c:	6abb      	ldr	r3, [r7, #40]	; 0x28
    4d2e:	689b      	ldr	r3, [r3, #8]
    4d30:	68db      	ldr	r3, [r3, #12]
    4d32:	6aba      	ldr	r2, [r7, #40]	; 0x28
    4d34:	429a      	cmp	r2, r3
    4d36:	d00b      	beq.n	4d50 <bget+0x1a0>
/home/qemu-sgx/devel/optee/optee_os/lib/libutils/isoc/bget.c:699 (discriminator 1)
    4d38:	4b71      	ldr	r3, [pc, #452]	; (4f00 <bget+0x350>)
    4d3a:	447b      	add	r3, pc
    4d3c:	f240 22bb 	movw	r2, #699	; 0x2bb
    4d40:	4970      	ldr	r1, [pc, #448]	; (4f04 <bget+0x354>)
    4d42:	4479      	add	r1, pc
    4d44:	4870      	ldr	r0, [pc, #448]	; (4f08 <bget+0x358>)
    4d46:	4478      	add	r0, pc
    4d48:	f7fe e9cc 	blx	30e4 <_assert_log@plt>
    4d4c:	f7fe eb3e 	blx	33cc <_assert_break@plt>
/home/qemu-sgx/devel/optee/optee_os/lib/libutils/isoc/bget.c:701
    4d50:	6a7b      	ldr	r3, [r7, #36]	; 0x24
    4d52:	2b00      	cmp	r3, #0
    4d54:	d110      	bne.n	4d78 <bget+0x1c8>
/home/qemu-sgx/devel/optee/optee_os/lib/libutils/isoc/bget.c:706
    4d56:	6abb      	ldr	r3, [r7, #40]	; 0x28
    4d58:	68db      	ldr	r3, [r3, #12]
    4d5a:	6aba      	ldr	r2, [r7, #40]	; 0x28
    4d5c:	6892      	ldr	r2, [r2, #8]
    4d5e:	609a      	str	r2, [r3, #8]
/home/qemu-sgx/devel/optee/optee_os/lib/libutils/isoc/bget.c:707
    4d60:	6abb      	ldr	r3, [r7, #40]	; 0x28
    4d62:	689b      	ldr	r3, [r3, #8]
    4d64:	6aba      	ldr	r2, [r7, #40]	; 0x28
    4d66:	68d2      	ldr	r2, [r2, #12]
    4d68:	60da      	str	r2, [r3, #12]
/home/qemu-sgx/devel/optee/optee_os/lib/libutils/isoc/bget.c:710
    4d6a:	6abb      	ldr	r3, [r7, #40]	; 0x28
    4d6c:	685b      	ldr	r3, [r3, #4]
    4d6e:	f1c3 0200 	rsb	r2, r3, #0
    4d72:	6abb      	ldr	r3, [r7, #40]	; 0x28
    4d74:	605a      	str	r2, [r3, #4]
    4d76:	e00c      	b.n	4d92 <bget+0x1e2>
/home/qemu-sgx/devel/optee/optee_os/lib/libutils/isoc/bget.c:716
    4d78:	6abb      	ldr	r3, [r7, #40]	; 0x28
    4d7a:	685b      	ldr	r3, [r3, #4]
    4d7c:	6a7a      	ldr	r2, [r7, #36]	; 0x24
    4d7e:	eba2 0203 	sub.w	r2, r2, r3
    4d82:	6a3b      	ldr	r3, [r7, #32]
    4d84:	605a      	str	r2, [r3, #4]
/home/qemu-sgx/devel/optee/optee_os/lib/libutils/isoc/bget.c:717
    4d86:	6a3b      	ldr	r3, [r7, #32]
    4d88:	6a7a      	ldr	r2, [r7, #36]	; 0x24
    4d8a:	601a      	str	r2, [r3, #0]
/home/qemu-sgx/devel/optee/optee_os/lib/libutils/isoc/bget.c:718
    4d8c:	6abb      	ldr	r3, [r7, #40]	; 0x28
    4d8e:	6a7a      	ldr	r2, [r7, #36]	; 0x24
    4d90:	605a      	str	r2, [r3, #4]
/home/qemu-sgx/devel/optee/optee_os/lib/libutils/isoc/bget.c:721
    4d92:	6a3b      	ldr	r3, [r7, #32]
    4d94:	685b      	ldr	r3, [r3, #4]
    4d96:	2b00      	cmp	r3, #0
    4d98:	db0b      	blt.n	4db2 <bget+0x202>
/home/qemu-sgx/devel/optee/optee_os/lib/libutils/isoc/bget.c:721 (discriminator 1)
    4d9a:	4b5c      	ldr	r3, [pc, #368]	; (4f0c <bget+0x35c>)
    4d9c:	447b      	add	r3, pc
    4d9e:	f240 22d1 	movw	r2, #721	; 0x2d1
    4da2:	495b      	ldr	r1, [pc, #364]	; (4f10 <bget+0x360>)
    4da4:	4479      	add	r1, pc
    4da6:	485b      	ldr	r0, [pc, #364]	; (4f14 <bget+0x364>)
    4da8:	4478      	add	r0, pc
    4daa:	f7fe e99c 	blx	30e4 <_assert_log@plt>
    4dae:	f7fe eb0e 	blx	33cc <_assert_break@plt>
/home/qemu-sgx/devel/optee/optee_os/lib/libutils/isoc/bget.c:727
    4db2:	6a3b      	ldr	r3, [r7, #32]
    4db4:	685b      	ldr	r3, [r3, #4]
    4db6:	f1c3 0200 	rsb	r2, r3, #0
    4dba:	697b      	ldr	r3, [r7, #20]
    4dbc:	eba2 0303 	sub.w	r3, r2, r3
    4dc0:	2b10      	cmp	r3, #16
    4dc2:	d962      	bls.n	4e8a <bget+0x2da>
/home/qemu-sgx/devel/optee/optee_os/lib/libutils/isoc/bget.c:733
    4dc4:	697b      	ldr	r3, [r7, #20]
    4dc6:	461a      	mov	r2, r3
    4dc8:	6a3b      	ldr	r3, [r7, #32]
    4dca:	4413      	add	r3, r2
    4dcc:	62bb      	str	r3, [r7, #40]	; 0x28
/home/qemu-sgx/devel/optee/optee_os/lib/libutils/isoc/bget.c:734
    4dce:	6a3b      	ldr	r3, [r7, #32]
    4dd0:	685b      	ldr	r3, [r3, #4]
    4dd2:	f1c3 0200 	rsb	r2, r3, #0
    4dd6:	697b      	ldr	r3, [r7, #20]
    4dd8:	eba2 0203 	sub.w	r2, r2, r3
    4ddc:	6abb      	ldr	r3, [r7, #40]	; 0x28
    4dde:	605a      	str	r2, [r3, #4]
/home/qemu-sgx/devel/optee/optee_os/lib/libutils/isoc/bget.c:735
    4de0:	6abb      	ldr	r3, [r7, #40]	; 0x28
    4de2:	f04f 0200 	mov.w	r2, #0
    4de6:	601a      	str	r2, [r3, #0]
/home/qemu-sgx/devel/optee/optee_os/lib/libutils/isoc/bget.c:736
    4de8:	6a3b      	ldr	r3, [r7, #32]
    4dea:	685a      	ldr	r2, [r3, #4]
    4dec:	6abb      	ldr	r3, [r7, #40]	; 0x28
    4dee:	685b      	ldr	r3, [r3, #4]
    4df0:	441a      	add	r2, r3
    4df2:	6a3b      	ldr	r3, [r7, #32]
    4df4:	605a      	str	r2, [r3, #4]
/home/qemu-sgx/devel/optee/optee_os/lib/libutils/isoc/bget.c:738
    4df6:	683b      	ldr	r3, [r7, #0]
    4df8:	68db      	ldr	r3, [r3, #12]
    4dfa:	689a      	ldr	r2, [r3, #8]
    4dfc:	683b      	ldr	r3, [r7, #0]
    4dfe:	429a      	cmp	r2, r3
    4e00:	d00b      	beq.n	4e1a <bget+0x26a>
/home/qemu-sgx/devel/optee/optee_os/lib/libutils/isoc/bget.c:738 (discriminator 1)
    4e02:	4b45      	ldr	r3, [pc, #276]	; (4f18 <bget+0x368>)
    4e04:	447b      	add	r3, pc
    4e06:	f240 22e2 	movw	r2, #738	; 0x2e2
    4e0a:	4944      	ldr	r1, [pc, #272]	; (4f1c <bget+0x36c>)
    4e0c:	4479      	add	r1, pc
    4e0e:	4844      	ldr	r0, [pc, #272]	; (4f20 <bget+0x370>)
    4e10:	4478      	add	r0, pc
    4e12:	f7fe e968 	blx	30e4 <_assert_log@plt>
    4e16:	f7fe eada 	blx	33cc <_assert_break@plt>
/home/qemu-sgx/devel/optee/optee_os/lib/libutils/isoc/bget.c:740
    4e1a:	683b      	ldr	r3, [r7, #0]
    4e1c:	689b      	ldr	r3, [r3, #8]
    4e1e:	68da      	ldr	r2, [r3, #12]
    4e20:	683b      	ldr	r3, [r7, #0]
    4e22:	429a      	cmp	r2, r3
    4e24:	d00b      	beq.n	4e3e <bget+0x28e>
/home/qemu-sgx/devel/optee/optee_os/lib/libutils/isoc/bget.c:740 (discriminator 1)
    4e26:	4b3f      	ldr	r3, [pc, #252]	; (4f24 <bget+0x374>)
    4e28:	447b      	add	r3, pc
    4e2a:	f44f 7239 	mov.w	r2, #740	; 0x2e4
    4e2e:	493e      	ldr	r1, [pc, #248]	; (4f28 <bget+0x378>)
    4e30:	4479      	add	r1, pc
    4e32:	483e      	ldr	r0, [pc, #248]	; (4f2c <bget+0x37c>)
    4e34:	4478      	add	r0, pc
    4e36:	f7fe e956 	blx	30e4 <_assert_log@plt>
    4e3a:	f7fe eac8 	blx	33cc <_assert_break@plt>
/home/qemu-sgx/devel/optee/optee_os/lib/libutils/isoc/bget.c:742
    4e3e:	683a      	ldr	r2, [r7, #0]
    4e40:	6abb      	ldr	r3, [r7, #40]	; 0x28
    4e42:	609a      	str	r2, [r3, #8]
/home/qemu-sgx/devel/optee/optee_os/lib/libutils/isoc/bget.c:743
    4e44:	683b      	ldr	r3, [r7, #0]
    4e46:	68da      	ldr	r2, [r3, #12]
    4e48:	6abb      	ldr	r3, [r7, #40]	; 0x28
    4e4a:	60da      	str	r2, [r3, #12]
/home/qemu-sgx/devel/optee/optee_os/lib/libutils/isoc/bget.c:744
    4e4c:	683b      	ldr	r3, [r7, #0]
    4e4e:	6aba      	ldr	r2, [r7, #40]	; 0x28
    4e50:	60da      	str	r2, [r3, #12]
/home/qemu-sgx/devel/optee/optee_os/lib/libutils/isoc/bget.c:745
    4e52:	6abb      	ldr	r3, [r7, #40]	; 0x28
    4e54:	68db      	ldr	r3, [r3, #12]
    4e56:	6aba      	ldr	r2, [r7, #40]	; 0x28
    4e58:	609a      	str	r2, [r3, #8]
/home/qemu-sgx/devel/optee/optee_os/lib/libutils/isoc/bget.c:747
    4e5a:	6abb      	ldr	r3, [r7, #40]	; 0x28
    4e5c:	685b      	ldr	r3, [r3, #4]
    4e5e:	461a      	mov	r2, r3
    4e60:	6abb      	ldr	r3, [r7, #40]	; 0x28
    4e62:	4413      	add	r3, r2
    4e64:	69fa      	ldr	r2, [r7, #28]
    4e66:	429a      	cmp	r2, r3
    4e68:	d00b      	beq.n	4e82 <bget+0x2d2>
/home/qemu-sgx/devel/optee/optee_os/lib/libutils/isoc/bget.c:747 (discriminator 1)
    4e6a:	4b31      	ldr	r3, [pc, #196]	; (4f30 <bget+0x380>)
    4e6c:	447b      	add	r3, pc
    4e6e:	f240 22eb 	movw	r2, #747	; 0x2eb
    4e72:	4930      	ldr	r1, [pc, #192]	; (4f34 <bget+0x384>)
    4e74:	4479      	add	r1, pc
    4e76:	4830      	ldr	r0, [pc, #192]	; (4f38 <bget+0x388>)
    4e78:	4478      	add	r0, pc
    4e7a:	f7fe e934 	blx	30e4 <_assert_log@plt>
    4e7e:	f7fe eaa6 	blx	33cc <_assert_break@plt>
/home/qemu-sgx/devel/optee/optee_os/lib/libutils/isoc/bget.c:748
    4e82:	6abb      	ldr	r3, [r7, #40]	; 0x28
    4e84:	685a      	ldr	r2, [r3, #4]
    4e86:	69fb      	ldr	r3, [r7, #28]
    4e88:	601a      	str	r2, [r3, #0]
/home/qemu-sgx/devel/optee/optee_os/lib/libutils/isoc/bget.c:752
    4e8a:	683b      	ldr	r3, [r7, #0]
    4e8c:	691a      	ldr	r2, [r3, #16]
    4e8e:	6a3b      	ldr	r3, [r7, #32]
    4e90:	685b      	ldr	r3, [r3, #4]
    4e92:	eba2 0203 	sub.w	r2, r2, r3
    4e96:	683b      	ldr	r3, [r7, #0]
    4e98:	611a      	str	r2, [r3, #16]
/home/qemu-sgx/devel/optee/optee_os/lib/libutils/isoc/bget.c:753
    4e9a:	683b      	ldr	r3, [r7, #0]
    4e9c:	695b      	ldr	r3, [r3, #20]
    4e9e:	f103 0201 	add.w	r2, r3, #1
    4ea2:	683b      	ldr	r3, [r7, #0]
    4ea4:	615a      	str	r2, [r3, #20]
/home/qemu-sgx/devel/optee/optee_os/lib/libutils/isoc/bget.c:755
    4ea6:	6a3b      	ldr	r3, [r7, #32]
    4ea8:	f103 0308 	add.w	r3, r3, #8
    4eac:	61bb      	str	r3, [r7, #24]
/home/qemu-sgx/devel/optee/optee_os/lib/libutils/isoc/bget.c:756
    4eae:	697b      	ldr	r3, [r7, #20]
    4eb0:	4619      	mov	r1, r3
    4eb2:	69b8      	ldr	r0, [r7, #24]
    4eb4:	f7ff fe03 	bl	4abe <tag_asan_alloced>
/home/qemu-sgx/devel/optee/optee_os/lib/libutils/isoc/bget.c:757
    4eb8:	69bb      	ldr	r3, [r7, #24]
    4eba:	e009      	b.n	4ed0 <bget+0x320>
/home/qemu-sgx/devel/optee/optee_os/lib/libutils/isoc/bget.c:759
    4ebc:	6abb      	ldr	r3, [r7, #40]	; 0x28
    4ebe:	689b      	ldr	r3, [r3, #8]
    4ec0:	62bb      	str	r3, [r7, #40]	; 0x28
/home/qemu-sgx/devel/optee/optee_os/lib/libutils/isoc/bget.c:684
    4ec2:	683b      	ldr	r3, [r7, #0]
    4ec4:	6aba      	ldr	r2, [r7, #40]	; 0x28
    4ec6:	429a      	cmp	r2, r3
    4ec8:	f47f aef3 	bne.w	4cb2 <bget+0x102>
/home/qemu-sgx/devel/optee/optee_os/lib/libutils/isoc/bget.c:838
    4ecc:	f04f 0300 	mov.w	r3, #0
/home/qemu-sgx/devel/optee/optee_os/lib/libutils/isoc/bget.c:839 (discriminator 1)
    4ed0:	4618      	mov	r0, r3
    4ed2:	f107 0730 	add.w	r7, r7, #48	; 0x30
    4ed6:	46bd      	mov	sp, r7
    4ed8:	bd80      	pop	{r7, pc}
    4eda:	bf00      	nop
    4edc:	00008b88 	.word	0x00008b88
    4ee0:	00008780 	.word	0x00008780
    4ee4:	00008798 	.word	0x00008798
    4ee8:	00008a6e 	.word	0x00008a6e
    4eec:	00008666 	.word	0x00008666
    4ef0:	0000868a 	.word	0x0000868a
    4ef4:	00008a42 	.word	0x00008a42
    4ef8:	0000863a 	.word	0x0000863a
    4efc:	0000867e 	.word	0x0000867e
    4f00:	00008a1e 	.word	0x00008a1e
    4f04:	00008616 	.word	0x00008616
    4f08:	00008676 	.word	0x00008676
    4f0c:	000089bc 	.word	0x000089bc
    4f10:	000085b4 	.word	0x000085b4
    4f14:	00008630 	.word	0x00008630
    4f18:	00008954 	.word	0x00008954
    4f1c:	0000854c 	.word	0x0000854c
    4f20:	000085dc 	.word	0x000085dc
    4f24:	00008930 	.word	0x00008930
    4f28:	00008528 	.word	0x00008528
    4f2c:	000085f4 	.word	0x000085f4
    4f30:	000088ec 	.word	0x000088ec
    4f34:	000084e4 	.word	0x000084e4
    4f38:	000085ec 	.word	0x000085ec

00004f3c <bgetz>:
bgetz():
/home/qemu-sgx/devel/optee/optee_os/lib/libutils/isoc/bget.c:850
    4f3c:	e96d 7e02 	strd	r7, lr, [sp, #-8]!
    4f40:	b088      	sub	sp, #32
    4f42:	af00      	add	r7, sp, #0
    4f44:	60f8      	str	r0, [r7, #12]
    4f46:	60b9      	str	r1, [r7, #8]
    4f48:	607a      	str	r2, [r7, #4]
    4f4a:	603b      	str	r3, [r7, #0]
/home/qemu-sgx/devel/optee/optee_os/lib/libutils/isoc/bget.c:851
    4f4c:	683b      	ldr	r3, [r7, #0]
    4f4e:	687a      	ldr	r2, [r7, #4]
    4f50:	68b9      	ldr	r1, [r7, #8]
    4f52:	68f8      	ldr	r0, [r7, #12]
    4f54:	f7fe ea22 	blx	339c <bget@plt>
    4f58:	61b8      	str	r0, [r7, #24]
/home/qemu-sgx/devel/optee/optee_os/lib/libutils/isoc/bget.c:853
    4f5a:	69bb      	ldr	r3, [r7, #24]
    4f5c:	2b00      	cmp	r3, #0
    4f5e:	d035      	beq.n	4fcc <bgetz+0x90>
/home/qemu-sgx/devel/optee/optee_os/lib/libutils/isoc/bget.c:857
    4f60:	69bb      	ldr	r3, [r7, #24]
    4f62:	f1a3 0308 	sub.w	r3, r3, #8
    4f66:	617b      	str	r3, [r7, #20]
/home/qemu-sgx/devel/optee/optee_os/lib/libutils/isoc/bget.c:858
    4f68:	697b      	ldr	r3, [r7, #20]
    4f6a:	685b      	ldr	r3, [r3, #4]
    4f6c:	f1c3 0300 	rsb	r3, r3, #0
    4f70:	61fb      	str	r3, [r7, #28]
/home/qemu-sgx/devel/optee/optee_os/lib/libutils/isoc/bget.c:859
    4f72:	69fb      	ldr	r3, [r7, #28]
    4f74:	2b00      	cmp	r3, #0
    4f76:	d10e      	bne.n	4f96 <bgetz+0x5a>
/home/qemu-sgx/devel/optee/optee_os/lib/libutils/isoc/bget.c:862
    4f78:	69bb      	ldr	r3, [r7, #24]
    4f7a:	f1a3 0310 	sub.w	r3, r3, #16
    4f7e:	613b      	str	r3, [r7, #16]
/home/qemu-sgx/devel/optee/optee_os/lib/libutils/isoc/bget.c:863
    4f80:	693b      	ldr	r3, [r7, #16]
    4f82:	681b      	ldr	r3, [r3, #0]
    4f84:	461a      	mov	r2, r3
    4f86:	693b      	ldr	r3, [r7, #16]
    4f88:	685b      	ldr	r3, [r3, #4]
    4f8a:	eba2 0303 	sub.w	r3, r2, r3
    4f8e:	f1a3 0310 	sub.w	r3, r3, #16
    4f92:	61fb      	str	r3, [r7, #28]
    4f94:	e003      	b.n	4f9e <bgetz+0x62>
/home/qemu-sgx/devel/optee/optee_os/lib/libutils/isoc/bget.c:865
    4f96:	69fb      	ldr	r3, [r7, #28]
    4f98:	f1a3 0308 	sub.w	r3, r3, #8
    4f9c:	61fb      	str	r3, [r7, #28]
/home/qemu-sgx/devel/optee/optee_os/lib/libutils/isoc/bget.c:867
    4f9e:	69fa      	ldr	r2, [r7, #28]
    4fa0:	687b      	ldr	r3, [r7, #4]
    4fa2:	429a      	cmp	r2, r3
    4fa4:	da0b      	bge.n	4fbe <bgetz+0x82>
/home/qemu-sgx/devel/optee/optee_os/lib/libutils/isoc/bget.c:867 (discriminator 1)
    4fa6:	4b0c      	ldr	r3, [pc, #48]	; (4fd8 <bgetz+0x9c>)
    4fa8:	447b      	add	r3, pc
    4faa:	f240 3263 	movw	r2, #867	; 0x363
    4fae:	490b      	ldr	r1, [pc, #44]	; (4fdc <bgetz+0xa0>)
    4fb0:	4479      	add	r1, pc
    4fb2:	480b      	ldr	r0, [pc, #44]	; (4fe0 <bgetz+0xa4>)
    4fb4:	4478      	add	r0, pc
    4fb6:	f7fe e896 	blx	30e4 <_assert_log@plt>
    4fba:	f7fe ea08 	blx	33cc <_assert_break@plt>
/home/qemu-sgx/devel/optee/optee_os/lib/libutils/isoc/bget.c:868
    4fbe:	69fb      	ldr	r3, [r7, #28]
    4fc0:	461a      	mov	r2, r3
    4fc2:	f04f 0100 	mov.w	r1, #0
    4fc6:	69b8      	ldr	r0, [r7, #24]
    4fc8:	f7ff fd86 	bl	4ad8 <memset_unchecked>
/home/qemu-sgx/devel/optee/optee_os/lib/libutils/isoc/bget.c:870
    4fcc:	69bb      	ldr	r3, [r7, #24]
/home/qemu-sgx/devel/optee/optee_os/lib/libutils/isoc/bget.c:871
    4fce:	4618      	mov	r0, r3
    4fd0:	f107 0720 	add.w	r7, r7, #32
    4fd4:	46bd      	mov	sp, r7
    4fd6:	bd80      	pop	{r7, pc}
    4fd8:	000087b8 	.word	0x000087b8
    4fdc:	000083a8 	.word	0x000083a8
    4fe0:	000084d8 	.word	0x000084d8

00004fe4 <bgetr>:
bgetr():
/home/qemu-sgx/devel/optee/optee_os/lib/libutils/isoc/bget.c:884
    4fe4:	e96d 7e02 	strd	r7, lr, [sp, #-8]!
    4fe8:	b088      	sub	sp, #32
    4fea:	af00      	add	r7, sp, #0
    4fec:	60f8      	str	r0, [r7, #12]
    4fee:	60b9      	str	r1, [r7, #8]
    4ff0:	607a      	str	r2, [r7, #4]
    4ff2:	603b      	str	r3, [r7, #0]
/home/qemu-sgx/devel/optee/optee_os/lib/libutils/isoc/bget.c:889
    4ff4:	6abb      	ldr	r3, [r7, #40]	; 0x28
    4ff6:	683a      	ldr	r2, [r7, #0]
    4ff8:	6879      	ldr	r1, [r7, #4]
    4ffa:	68b8      	ldr	r0, [r7, #8]
    4ffc:	f7fe e9ce 	blx	339c <bget@plt>
    5000:	61f8      	str	r0, [r7, #28]
    5002:	69fb      	ldr	r3, [r7, #28]
    5004:	2b00      	cmp	r3, #0
    5006:	d102      	bne.n	500e <bgetr+0x2a>
/home/qemu-sgx/devel/optee/optee_os/lib/libutils/isoc/bget.c:890
    5008:	f04f 0300 	mov.w	r3, #0
    500c:	e042      	b.n	5094 <bgetr+0xb0>
/home/qemu-sgx/devel/optee/optee_os/lib/libutils/isoc/bget.c:892
    500e:	68fb      	ldr	r3, [r7, #12]
    5010:	2b00      	cmp	r3, #0
    5012:	d101      	bne.n	5018 <bgetr+0x34>
/home/qemu-sgx/devel/optee/optee_os/lib/libutils/isoc/bget.c:893
    5014:	69fb      	ldr	r3, [r7, #28]
    5016:	e03d      	b.n	5094 <bgetr+0xb0>
/home/qemu-sgx/devel/optee/optee_os/lib/libutils/isoc/bget.c:895
    5018:	68fb      	ldr	r3, [r7, #12]
    501a:	f1a3 0308 	sub.w	r3, r3, #8
    501e:	61bb      	str	r3, [r7, #24]
/home/qemu-sgx/devel/optee/optee_os/lib/libutils/isoc/bget.c:896
    5020:	69bb      	ldr	r3, [r7, #24]
    5022:	685b      	ldr	r3, [r3, #4]
    5024:	f1c3 0300 	rsb	r3, r3, #0
    5028:	617b      	str	r3, [r7, #20]
/home/qemu-sgx/devel/optee/optee_os/lib/libutils/isoc/bget.c:906
    502a:	697b      	ldr	r3, [r7, #20]
    502c:	f1a3 0308 	sub.w	r3, r3, #8
    5030:	617b      	str	r3, [r7, #20]
/home/qemu-sgx/devel/optee/optee_os/lib/libutils/isoc/bget.c:907
    5032:	697b      	ldr	r3, [r7, #20]
    5034:	2b00      	cmp	r3, #0
    5036:	dc0b      	bgt.n	5050 <bgetr+0x6c>
/home/qemu-sgx/devel/optee/optee_os/lib/libutils/isoc/bget.c:907 (discriminator 1)
    5038:	4b19      	ldr	r3, [pc, #100]	; (50a0 <bgetr+0xbc>)
    503a:	447b      	add	r3, pc
    503c:	f240 328b 	movw	r2, #907	; 0x38b
    5040:	4918      	ldr	r1, [pc, #96]	; (50a4 <bgetr+0xc0>)
    5042:	4479      	add	r1, pc
    5044:	4818      	ldr	r0, [pc, #96]	; (50a8 <bgetr+0xc4>)
    5046:	4478      	add	r0, pc
    5048:	f7fe e84c 	blx	30e4 <_assert_log@plt>
    504c:	f7fe e9be 	blx	33cc <_assert_break@plt>
/home/qemu-sgx/devel/optee/optee_os/lib/libutils/isoc/bget.c:909
    5050:	697a      	ldr	r2, [r7, #20]
    5052:	683b      	ldr	r3, [r7, #0]
    5054:	4293      	cmp	r3, r2
    5056:	bfa8      	it	ge
    5058:	4613      	movge	r3, r2
/home/qemu-sgx/devel/optee/optee_os/lib/libutils/isoc/bget.c:908
    505a:	461a      	mov	r2, r3
    505c:	68f9      	ldr	r1, [r7, #12]
    505e:	69f8      	ldr	r0, [r7, #28]
    5060:	f7fd eff8 	blx	3054 <memcpy@plt>
/home/qemu-sgx/devel/optee/optee_os/lib/libutils/isoc/bget.c:912
    5064:	683a      	ldr	r2, [r7, #0]
    5066:	697b      	ldr	r3, [r7, #20]
    5068:	429a      	cmp	r2, r3
    506a:	dd0c      	ble.n	5086 <bgetr+0xa2>
/home/qemu-sgx/devel/optee/optee_os/lib/libutils/isoc/bget.c:913
    506c:	697b      	ldr	r3, [r7, #20]
    506e:	69fa      	ldr	r2, [r7, #28]
    5070:	eb02 0003 	add.w	r0, r2, r3
    5074:	683a      	ldr	r2, [r7, #0]
    5076:	697b      	ldr	r3, [r7, #20]
    5078:	eba2 0303 	sub.w	r3, r2, r3
    507c:	461a      	mov	r2, r3
    507e:	f04f 0100 	mov.w	r1, #0
    5082:	f7fe e926 	blx	32d0 <memset@plt>
/home/qemu-sgx/devel/optee/optee_os/lib/libutils/isoc/bget.c:915
    5086:	f04f 0200 	mov.w	r2, #0
    508a:	6ab9      	ldr	r1, [r7, #40]	; 0x28
    508c:	68f8      	ldr	r0, [r7, #12]
    508e:	f7fe e9fe 	blx	348c <brel@plt>
/home/qemu-sgx/devel/optee/optee_os/lib/libutils/isoc/bget.c:916
    5092:	69fb      	ldr	r3, [r7, #28]
/home/qemu-sgx/devel/optee/optee_os/lib/libutils/isoc/bget.c:917
    5094:	4618      	mov	r0, r3
    5096:	f107 0720 	add.w	r7, r7, #32
    509a:	46bd      	mov	sp, r7
    509c:	bd80      	pop	{r7, pc}
    509e:	bf00      	nop
    50a0:	0000872e 	.word	0x0000872e
    50a4:	00008316 	.word	0x00008316
    50a8:	00008456 	.word	0x00008456

000050ac <brel>:
brel():
/home/qemu-sgx/devel/optee/optee_os/lib/libutils/isoc/bget.c:925
    50ac:	f84d 4d0c 	str.w	r4, [sp, #-12]!
    50b0:	e9cd 7e01 	strd	r7, lr, [sp, #4]
    50b4:	b089      	sub	sp, #36	; 0x24
    50b6:	af00      	add	r7, sp, #0
    50b8:	60f8      	str	r0, [r7, #12]
    50ba:	60b9      	str	r1, [r7, #8]
    50bc:	607a      	str	r2, [r7, #4]
/home/qemu-sgx/devel/optee/optee_os/lib/libutils/isoc/bget.c:929
    50be:	68fb      	ldr	r3, [r7, #12]
    50c0:	f1a3 0308 	sub.w	r3, r3, #8
    50c4:	61fb      	str	r3, [r7, #28]
/home/qemu-sgx/devel/optee/optee_os/lib/libutils/isoc/bget.c:931
    50c6:	68bb      	ldr	r3, [r7, #8]
    50c8:	699b      	ldr	r3, [r3, #24]
    50ca:	f103 0201 	add.w	r2, r3, #1
    50ce:	68bb      	ldr	r3, [r7, #8]
    50d0:	619a      	str	r2, [r3, #24]
/home/qemu-sgx/devel/optee/optee_os/lib/libutils/isoc/bget.c:933
    50d2:	68fb      	ldr	r3, [r7, #12]
    50d4:	2b00      	cmp	r3, #0
    50d6:	d10b      	bne.n	50f0 <brel+0x44>
/home/qemu-sgx/devel/optee/optee_os/lib/libutils/isoc/bget.c:933 (discriminator 1)
    50d8:	4ba1      	ldr	r3, [pc, #644]	; (5360 <brel+0x2b4>)
    50da:	447b      	add	r3, pc
    50dc:	f240 32a5 	movw	r2, #933	; 0x3a5
    50e0:	49a0      	ldr	r1, [pc, #640]	; (5364 <brel+0x2b8>)
    50e2:	4479      	add	r1, pc
    50e4:	48a0      	ldr	r0, [pc, #640]	; (5368 <brel+0x2bc>)
    50e6:	4478      	add	r0, pc
    50e8:	f7fd effc 	blx	30e4 <_assert_log@plt>
    50ec:	f7fe e96e 	blx	33cc <_assert_break@plt>
/home/qemu-sgx/devel/optee/optee_os/lib/libutils/isoc/bget.c:965
    50f0:	69fb      	ldr	r3, [r7, #28]
    50f2:	685b      	ldr	r3, [r3, #4]
    50f4:	2b00      	cmp	r3, #0
    50f6:	db02      	blt.n	50fe <brel+0x52>
/home/qemu-sgx/devel/optee/optee_os/lib/libutils/isoc/bget.c:966
    50f8:	f04f 0300 	mov.w	r3, #0
    50fc:	61bb      	str	r3, [r7, #24]
/home/qemu-sgx/devel/optee/optee_os/lib/libutils/isoc/bget.c:968
    50fe:	69fb      	ldr	r3, [r7, #28]
    5100:	685b      	ldr	r3, [r3, #4]
    5102:	2b00      	cmp	r3, #0
    5104:	db0b      	blt.n	511e <brel+0x72>
/home/qemu-sgx/devel/optee/optee_os/lib/libutils/isoc/bget.c:968 (discriminator 1)
    5106:	4b99      	ldr	r3, [pc, #612]	; (536c <brel+0x2c0>)
    5108:	447b      	add	r3, pc
    510a:	f44f 7272 	mov.w	r2, #968	; 0x3c8
    510e:	4998      	ldr	r1, [pc, #608]	; (5370 <brel+0x2c4>)
    5110:	4479      	add	r1, pc
    5112:	4898      	ldr	r0, [pc, #608]	; (5374 <brel+0x2c8>)
    5114:	4478      	add	r0, pc
    5116:	f7fd efe6 	blx	30e4 <_assert_log@plt>
    511a:	f7fe e958 	blx	33cc <_assert_break@plt>
/home/qemu-sgx/devel/optee/optee_os/lib/libutils/isoc/bget.c:969
    511e:	69fb      	ldr	r3, [r7, #28]
    5120:	685b      	ldr	r3, [r3, #4]
    5122:	f1c3 0300 	rsb	r3, r3, #0
    5126:	617b      	str	r3, [r7, #20]
/home/qemu-sgx/devel/optee/optee_os/lib/libutils/isoc/bget.c:974
    5128:	69fb      	ldr	r3, [r7, #28]
    512a:	685b      	ldr	r3, [r3, #4]
    512c:	f1c3 0300 	rsb	r3, r3, #0
    5130:	69fa      	ldr	r2, [r7, #28]
    5132:	4413      	add	r3, r2
    5134:	681b      	ldr	r3, [r3, #0]
    5136:	2b00      	cmp	r3, #0
    5138:	d00b      	beq.n	5152 <brel+0xa6>
/home/qemu-sgx/devel/optee/optee_os/lib/libutils/isoc/bget.c:974 (discriminator 1)
    513a:	4b8f      	ldr	r3, [pc, #572]	; (5378 <brel+0x2cc>)
    513c:	447b      	add	r3, pc
    513e:	f240 32ce 	movw	r2, #974	; 0x3ce
    5142:	498e      	ldr	r1, [pc, #568]	; (537c <brel+0x2d0>)
    5144:	4479      	add	r1, pc
    5146:	488e      	ldr	r0, [pc, #568]	; (5380 <brel+0x2d4>)
    5148:	4478      	add	r0, pc
    514a:	f7fd efcc 	blx	30e4 <_assert_log@plt>
    514e:	f7fe e93e 	blx	33cc <_assert_break@plt>
/home/qemu-sgx/devel/optee/optee_os/lib/libutils/isoc/bget.c:977
    5152:	68bb      	ldr	r3, [r7, #8]
    5154:	691a      	ldr	r2, [r3, #16]
    5156:	69fb      	ldr	r3, [r7, #28]
    5158:	685b      	ldr	r3, [r3, #4]
    515a:	441a      	add	r2, r3
    515c:	68bb      	ldr	r3, [r7, #8]
    515e:	611a      	str	r2, [r3, #16]
/home/qemu-sgx/devel/optee/optee_os/lib/libutils/isoc/bget.c:978
    5160:	68bb      	ldr	r3, [r7, #8]
    5162:	691b      	ldr	r3, [r3, #16]
    5164:	2b00      	cmp	r3, #0
    5166:	da0b      	bge.n	5180 <brel+0xd4>
/home/qemu-sgx/devel/optee/optee_os/lib/libutils/isoc/bget.c:978 (discriminator 1)
    5168:	4b86      	ldr	r3, [pc, #536]	; (5384 <brel+0x2d8>)
    516a:	447b      	add	r3, pc
    516c:	f240 32d2 	movw	r2, #978	; 0x3d2
    5170:	4985      	ldr	r1, [pc, #532]	; (5388 <brel+0x2dc>)
    5172:	4479      	add	r1, pc
    5174:	4885      	ldr	r0, [pc, #532]	; (538c <brel+0x2e0>)
    5176:	4478      	add	r0, pc
    5178:	f7fd efb4 	blx	30e4 <_assert_log@plt>
    517c:	f7fe e926 	blx	33cc <_assert_break@plt>
/home/qemu-sgx/devel/optee/optee_os/lib/libutils/isoc/bget.c:983
    5180:	69fb      	ldr	r3, [r7, #28]
    5182:	681b      	ldr	r3, [r3, #0]
    5184:	2b00      	cmp	r3, #0
    5186:	d026      	beq.n	51d6 <brel+0x12a>
/home/qemu-sgx/devel/optee/optee_os/lib/libutils/isoc/bget.c:991
    5188:	69fb      	ldr	r3, [r7, #28]
    518a:	685c      	ldr	r4, [r3, #4]
/home/qemu-sgx/devel/optee/optee_os/lib/libutils/isoc/bget.c:994
    518c:	69fb      	ldr	r3, [r7, #28]
    518e:	681b      	ldr	r3, [r3, #0]
    5190:	f1c3 0300 	rsb	r3, r3, #0
    5194:	69fa      	ldr	r2, [r7, #28]
    5196:	4413      	add	r3, r2
    5198:	685a      	ldr	r2, [r3, #4]
    519a:	69fb      	ldr	r3, [r7, #28]
    519c:	681b      	ldr	r3, [r3, #0]
    519e:	429a      	cmp	r2, r3
    51a0:	d00b      	beq.n	51ba <brel+0x10e>
/home/qemu-sgx/devel/optee/optee_os/lib/libutils/isoc/bget.c:994 (discriminator 1)
    51a2:	4b7b      	ldr	r3, [pc, #492]	; (5390 <brel+0x2e4>)
    51a4:	447b      	add	r3, pc
    51a6:	f240 32e2 	movw	r2, #994	; 0x3e2
    51aa:	497a      	ldr	r1, [pc, #488]	; (5394 <brel+0x2e8>)
    51ac:	4479      	add	r1, pc
    51ae:	487a      	ldr	r0, [pc, #488]	; (5398 <brel+0x2ec>)
    51b0:	4478      	add	r0, pc
    51b2:	f7fd ef98 	blx	30e4 <_assert_log@plt>
    51b6:	f7fe e90a 	blx	33cc <_assert_break@plt>
/home/qemu-sgx/devel/optee/optee_os/lib/libutils/isoc/bget.c:995
    51ba:	69fb      	ldr	r3, [r7, #28]
    51bc:	681b      	ldr	r3, [r3, #0]
    51be:	f1c3 0300 	rsb	r3, r3, #0
    51c2:	69fa      	ldr	r2, [r7, #28]
    51c4:	4413      	add	r3, r2
    51c6:	61fb      	str	r3, [r7, #28]
/home/qemu-sgx/devel/optee/optee_os/lib/libutils/isoc/bget.c:996
    51c8:	69fb      	ldr	r3, [r7, #28]
    51ca:	685b      	ldr	r3, [r3, #4]
    51cc:	eba3 0204 	sub.w	r2, r3, r4
    51d0:	69fb      	ldr	r3, [r7, #28]
    51d2:	605a      	str	r2, [r3, #4]
    51d4:	e037      	b.n	5246 <brel+0x19a>
/home/qemu-sgx/devel/optee/optee_os/lib/libutils/isoc/bget.c:1002
    51d6:	68bb      	ldr	r3, [r7, #8]
    51d8:	68db      	ldr	r3, [r3, #12]
    51da:	689a      	ldr	r2, [r3, #8]
    51dc:	68bb      	ldr	r3, [r7, #8]
    51de:	429a      	cmp	r2, r3
    51e0:	d00b      	beq.n	51fa <brel+0x14e>
/home/qemu-sgx/devel/optee/optee_os/lib/libutils/isoc/bget.c:1002 (discriminator 1)
    51e2:	4b6e      	ldr	r3, [pc, #440]	; (539c <brel+0x2f0>)
    51e4:	447b      	add	r3, pc
    51e6:	f240 32ea 	movw	r2, #1002	; 0x3ea
    51ea:	496d      	ldr	r1, [pc, #436]	; (53a0 <brel+0x2f4>)
    51ec:	4479      	add	r1, pc
    51ee:	486d      	ldr	r0, [pc, #436]	; (53a4 <brel+0x2f8>)
    51f0:	4478      	add	r0, pc
    51f2:	f7fd ef78 	blx	30e4 <_assert_log@plt>
    51f6:	f7fe e8ea 	blx	33cc <_assert_break@plt>
/home/qemu-sgx/devel/optee/optee_os/lib/libutils/isoc/bget.c:1003
    51fa:	68bb      	ldr	r3, [r7, #8]
    51fc:	689b      	ldr	r3, [r3, #8]
    51fe:	68da      	ldr	r2, [r3, #12]
    5200:	68bb      	ldr	r3, [r7, #8]
    5202:	429a      	cmp	r2, r3
    5204:	d00b      	beq.n	521e <brel+0x172>
/home/qemu-sgx/devel/optee/optee_os/lib/libutils/isoc/bget.c:1003 (discriminator 1)
    5206:	4b68      	ldr	r3, [pc, #416]	; (53a8 <brel+0x2fc>)
    5208:	447b      	add	r3, pc
    520a:	f240 32eb 	movw	r2, #1003	; 0x3eb
    520e:	4967      	ldr	r1, [pc, #412]	; (53ac <brel+0x300>)
    5210:	4479      	add	r1, pc
    5212:	4867      	ldr	r0, [pc, #412]	; (53b0 <brel+0x304>)
    5214:	4478      	add	r0, pc
    5216:	f7fd ef66 	blx	30e4 <_assert_log@plt>
    521a:	f7fe e8d8 	blx	33cc <_assert_break@plt>
/home/qemu-sgx/devel/optee/optee_os/lib/libutils/isoc/bget.c:1004
    521e:	68ba      	ldr	r2, [r7, #8]
    5220:	69fb      	ldr	r3, [r7, #28]
    5222:	609a      	str	r2, [r3, #8]
/home/qemu-sgx/devel/optee/optee_os/lib/libutils/isoc/bget.c:1005
    5224:	68bb      	ldr	r3, [r7, #8]
    5226:	68da      	ldr	r2, [r3, #12]
    5228:	69fb      	ldr	r3, [r7, #28]
    522a:	60da      	str	r2, [r3, #12]
/home/qemu-sgx/devel/optee/optee_os/lib/libutils/isoc/bget.c:1006
    522c:	68bb      	ldr	r3, [r7, #8]
    522e:	69fa      	ldr	r2, [r7, #28]
    5230:	60da      	str	r2, [r3, #12]
/home/qemu-sgx/devel/optee/optee_os/lib/libutils/isoc/bget.c:1007
    5232:	69fb      	ldr	r3, [r7, #28]
    5234:	68db      	ldr	r3, [r3, #12]
    5236:	69fa      	ldr	r2, [r7, #28]
    5238:	609a      	str	r2, [r3, #8]
/home/qemu-sgx/devel/optee/optee_os/lib/libutils/isoc/bget.c:1008
    523a:	69fb      	ldr	r3, [r7, #28]
    523c:	685b      	ldr	r3, [r3, #4]
    523e:	f1c3 0200 	rsb	r2, r3, #0
    5242:	69fb      	ldr	r3, [r7, #28]
    5244:	605a      	str	r2, [r3, #4]
/home/qemu-sgx/devel/optee/optee_os/lib/libutils/isoc/bget.c:1016
    5246:	69fb      	ldr	r3, [r7, #28]
    5248:	685b      	ldr	r3, [r3, #4]
    524a:	461a      	mov	r2, r3
    524c:	69fb      	ldr	r3, [r7, #28]
    524e:	4413      	add	r3, r2
    5250:	61bb      	str	r3, [r7, #24]
/home/qemu-sgx/devel/optee/optee_os/lib/libutils/isoc/bget.c:1017
    5252:	69bb      	ldr	r3, [r7, #24]
    5254:	685b      	ldr	r3, [r3, #4]
    5256:	2b00      	cmp	r3, #0
    5258:	dd50      	ble.n	52fc <brel+0x250>
/home/qemu-sgx/devel/optee/optee_os/lib/libutils/isoc/bget.c:1022
    525a:	69bb      	ldr	r3, [r7, #24]
    525c:	685b      	ldr	r3, [r3, #4]
    525e:	461a      	mov	r2, r3
    5260:	69bb      	ldr	r3, [r7, #24]
    5262:	4413      	add	r3, r2
    5264:	681a      	ldr	r2, [r3, #0]
    5266:	69bb      	ldr	r3, [r7, #24]
    5268:	685b      	ldr	r3, [r3, #4]
    526a:	429a      	cmp	r2, r3
    526c:	d00b      	beq.n	5286 <brel+0x1da>
/home/qemu-sgx/devel/optee/optee_os/lib/libutils/isoc/bget.c:1022 (discriminator 1)
    526e:	4b51      	ldr	r3, [pc, #324]	; (53b4 <brel+0x308>)
    5270:	447b      	add	r3, pc
    5272:	f240 32fe 	movw	r2, #1022	; 0x3fe
    5276:	4950      	ldr	r1, [pc, #320]	; (53b8 <brel+0x30c>)
    5278:	4479      	add	r1, pc
    527a:	4850      	ldr	r0, [pc, #320]	; (53bc <brel+0x310>)
    527c:	4478      	add	r0, pc
    527e:	f7fd ef32 	blx	30e4 <_assert_log@plt>
    5282:	f7fe e8a4 	blx	33cc <_assert_break@plt>
/home/qemu-sgx/devel/optee/optee_os/lib/libutils/isoc/bget.c:1023
    5286:	69bb      	ldr	r3, [r7, #24]
    5288:	68db      	ldr	r3, [r3, #12]
    528a:	689b      	ldr	r3, [r3, #8]
    528c:	69ba      	ldr	r2, [r7, #24]
    528e:	429a      	cmp	r2, r3
    5290:	d00b      	beq.n	52aa <brel+0x1fe>
/home/qemu-sgx/devel/optee/optee_os/lib/libutils/isoc/bget.c:1023 (discriminator 1)
    5292:	4b4b      	ldr	r3, [pc, #300]	; (53c0 <brel+0x314>)
    5294:	447b      	add	r3, pc
    5296:	f240 32ff 	movw	r2, #1023	; 0x3ff
    529a:	494a      	ldr	r1, [pc, #296]	; (53c4 <brel+0x318>)
    529c:	4479      	add	r1, pc
    529e:	484a      	ldr	r0, [pc, #296]	; (53c8 <brel+0x31c>)
    52a0:	4478      	add	r0, pc
    52a2:	f7fd ef20 	blx	30e4 <_assert_log@plt>
    52a6:	f7fe e892 	blx	33cc <_assert_break@plt>
/home/qemu-sgx/devel/optee/optee_os/lib/libutils/isoc/bget.c:1024
    52aa:	69bb      	ldr	r3, [r7, #24]
    52ac:	689b      	ldr	r3, [r3, #8]
    52ae:	68db      	ldr	r3, [r3, #12]
    52b0:	69ba      	ldr	r2, [r7, #24]
    52b2:	429a      	cmp	r2, r3
    52b4:	d00b      	beq.n	52ce <brel+0x222>
/home/qemu-sgx/devel/optee/optee_os/lib/libutils/isoc/bget.c:1024 (discriminator 1)
    52b6:	4b45      	ldr	r3, [pc, #276]	; (53cc <brel+0x320>)
    52b8:	447b      	add	r3, pc
    52ba:	f44f 6280 	mov.w	r2, #1024	; 0x400
    52be:	4944      	ldr	r1, [pc, #272]	; (53d0 <brel+0x324>)
    52c0:	4479      	add	r1, pc
    52c2:	4844      	ldr	r0, [pc, #272]	; (53d4 <brel+0x328>)
    52c4:	4478      	add	r0, pc
    52c6:	f7fd ef0e 	blx	30e4 <_assert_log@plt>
    52ca:	f7fe e880 	blx	33cc <_assert_break@plt>
/home/qemu-sgx/devel/optee/optee_os/lib/libutils/isoc/bget.c:1025
    52ce:	69bb      	ldr	r3, [r7, #24]
    52d0:	68db      	ldr	r3, [r3, #12]
    52d2:	69ba      	ldr	r2, [r7, #24]
    52d4:	6892      	ldr	r2, [r2, #8]
    52d6:	609a      	str	r2, [r3, #8]
/home/qemu-sgx/devel/optee/optee_os/lib/libutils/isoc/bget.c:1026
    52d8:	69bb      	ldr	r3, [r7, #24]
    52da:	689b      	ldr	r3, [r3, #8]
    52dc:	69ba      	ldr	r2, [r7, #24]
    52de:	68d2      	ldr	r2, [r2, #12]
    52e0:	60da      	str	r2, [r3, #12]
/home/qemu-sgx/devel/optee/optee_os/lib/libutils/isoc/bget.c:1027
    52e2:	69fb      	ldr	r3, [r7, #28]
    52e4:	685a      	ldr	r2, [r3, #4]
    52e6:	69bb      	ldr	r3, [r7, #24]
    52e8:	685b      	ldr	r3, [r3, #4]
    52ea:	441a      	add	r2, r3
    52ec:	69fb      	ldr	r3, [r7, #28]
    52ee:	605a      	str	r2, [r3, #4]
/home/qemu-sgx/devel/optee/optee_os/lib/libutils/isoc/bget.c:1036
    52f0:	69fb      	ldr	r3, [r7, #28]
    52f2:	685b      	ldr	r3, [r3, #4]
    52f4:	461a      	mov	r2, r3
    52f6:	69fb      	ldr	r3, [r7, #28]
    52f8:	4413      	add	r3, r2
    52fa:	61bb      	str	r3, [r7, #24]
/home/qemu-sgx/devel/optee/optee_os/lib/libutils/isoc/bget.c:1038
    52fc:	687b      	ldr	r3, [r7, #4]
    52fe:	2b00      	cmp	r3, #0
    5300:	d00b      	beq.n	531a <brel+0x26e>
/home/qemu-sgx/devel/optee/optee_os/lib/libutils/isoc/bget.c:1039
    5302:	69fb      	ldr	r3, [r7, #28]
    5304:	f103 0010 	add.w	r0, r3, #16
/home/qemu-sgx/devel/optee/optee_os/lib/libutils/isoc/bget.c:1040
    5308:	69fb      	ldr	r3, [r7, #28]
    530a:	685b      	ldr	r3, [r3, #4]
    530c:	f1a3 0310 	sub.w	r3, r3, #16
/home/qemu-sgx/devel/optee/optee_os/lib/libutils/isoc/bget.c:1039
    5310:	461a      	mov	r2, r3
    5312:	f04f 0155 	mov.w	r1, #85	; 0x55
    5316:	f7ff fbdf 	bl	4ad8 <memset_unchecked>
/home/qemu-sgx/devel/optee/optee_os/lib/libutils/isoc/bget.c:1042
    531a:	69bb      	ldr	r3, [r7, #24]
    531c:	685b      	ldr	r3, [r3, #4]
    531e:	2b00      	cmp	r3, #0
    5320:	db0b      	blt.n	533a <brel+0x28e>
/home/qemu-sgx/devel/optee/optee_os/lib/libutils/isoc/bget.c:1042 (discriminator 1)
    5322:	4b2d      	ldr	r3, [pc, #180]	; (53d8 <brel+0x32c>)
    5324:	447b      	add	r3, pc
    5326:	f240 4212 	movw	r2, #1042	; 0x412
    532a:	492c      	ldr	r1, [pc, #176]	; (53dc <brel+0x330>)
    532c:	4479      	add	r1, pc
    532e:	482c      	ldr	r0, [pc, #176]	; (53e0 <brel+0x334>)
    5330:	4478      	add	r0, pc
    5332:	f7fd eed8 	blx	30e4 <_assert_log@plt>
    5336:	f7fe e84a 	blx	33cc <_assert_break@plt>
/home/qemu-sgx/devel/optee/optee_os/lib/libutils/isoc/bget.c:1047
    533a:	69fb      	ldr	r3, [r7, #28]
    533c:	685a      	ldr	r2, [r3, #4]
    533e:	69bb      	ldr	r3, [r7, #24]
    5340:	601a      	str	r2, [r3, #0]
/home/qemu-sgx/devel/optee/optee_os/lib/libutils/isoc/bget.c:1074
    5342:	697b      	ldr	r3, [r7, #20]
    5344:	4619      	mov	r1, r3
    5346:	68f8      	ldr	r0, [r7, #12]
    5348:	f7ff fbac 	bl	4aa4 <tag_asan_free>
/home/qemu-sgx/devel/optee/optee_os/lib/libutils/isoc/bget.c:1075
    534c:	bf00      	nop
    534e:	f107 0724 	add.w	r7, r7, #36	; 0x24
    5352:	46bd      	mov	sp, r7
    5354:	e9dd 4700 	ldrd	r4, r7, [sp]
    5358:	b002      	add	sp, #8
    535a:	f85d fb04 	ldr.w	pc, [sp], #4
    535e:	bf00      	nop
    5360:	00008696 	.word	0x00008696
    5364:	00008276 	.word	0x00008276
    5368:	000083c2 	.word	0x000083c2
    536c:	00008668 	.word	0x00008668
    5370:	00008248 	.word	0x00008248
    5374:	000083a0 	.word	0x000083a0
    5378:	00008634 	.word	0x00008634
    537c:	00008214 	.word	0x00008214
    5380:	0000837c 	.word	0x0000837c
    5384:	00008606 	.word	0x00008606
    5388:	000081e6 	.word	0x000081e6
    538c:	0000837a 	.word	0x0000837a
    5390:	000085cc 	.word	0x000085cc
    5394:	000081ac 	.word	0x000081ac
    5398:	00008358 	.word	0x00008358
    539c:	0000858c 	.word	0x0000858c
    53a0:	0000816c 	.word	0x0000816c
    53a4:	000081fc 	.word	0x000081fc
    53a8:	00008568 	.word	0x00008568
    53ac:	00008148 	.word	0x00008148
    53b0:	00008214 	.word	0x00008214
    53b4:	00008500 	.word	0x00008500
    53b8:	000080e0 	.word	0x000080e0
    53bc:	000082c8 	.word	0x000082c8
    53c0:	000084dc 	.word	0x000084dc
    53c4:	000080bc 	.word	0x000080bc
    53c8:	000082e0 	.word	0x000082e0
    53cc:	000084b8 	.word	0x000084b8
    53d0:	00008098 	.word	0x00008098
    53d4:	000082dc 	.word	0x000082dc
    53d8:	0000844c 	.word	0x0000844c
    53dc:	0000802c 	.word	0x0000802c
    53e0:	00008290 	.word	0x00008290

000053e4 <bpool>:
bpool():
/home/qemu-sgx/devel/optee/optee_os/lib/libutils/isoc/bget.c:1101
    53e4:	e96d 7e02 	strd	r7, lr, [sp, #-8]!
    53e8:	b086      	sub	sp, #24
    53ea:	af00      	add	r7, sp, #0
    53ec:	60f8      	str	r0, [r7, #12]
    53ee:	60b9      	str	r1, [r7, #8]
    53f0:	607a      	str	r2, [r7, #4]
/home/qemu-sgx/devel/optee/optee_os/lib/libutils/isoc/bget.c:1102
    53f2:	68fb      	ldr	r3, [r7, #12]
    53f4:	617b      	str	r3, [r7, #20]
/home/qemu-sgx/devel/optee/optee_os/lib/libutils/isoc/bget.c:1106
    53f6:	68bb      	ldr	r3, [r7, #8]
    53f8:	f023 0307 	bic.w	r3, r3, #7
    53fc:	60bb      	str	r3, [r7, #8]
/home/qemu-sgx/devel/optee/optee_os/lib/libutils/isoc/bget.c:1125
    53fe:	68bb      	ldr	r3, [r7, #8]
    5400:	f1a3 0308 	sub.w	r3, r3, #8
    5404:	2b00      	cmp	r3, #0
    5406:	da0b      	bge.n	5420 <bpool+0x3c>
/home/qemu-sgx/devel/optee/optee_os/lib/libutils/isoc/bget.c:1125 (discriminator 1)
    5408:	4b2c      	ldr	r3, [pc, #176]	; (54bc <bpool+0xd8>)
    540a:	447b      	add	r3, pc
    540c:	f240 4265 	movw	r2, #1125	; 0x465
    5410:	492b      	ldr	r1, [pc, #172]	; (54c0 <bpool+0xdc>)
    5412:	4479      	add	r1, pc
    5414:	482b      	ldr	r0, [pc, #172]	; (54c4 <bpool+0xe0>)
    5416:	4478      	add	r0, pc
    5418:	f7fd ee64 	blx	30e4 <_assert_log@plt>
    541c:	f7fd efd6 	blx	33cc <_assert_break@plt>
/home/qemu-sgx/devel/optee/optee_os/lib/libutils/isoc/bget.c:1131
    5420:	697b      	ldr	r3, [r7, #20]
    5422:	f04f 0200 	mov.w	r2, #0
    5426:	601a      	str	r2, [r3, #0]
/home/qemu-sgx/devel/optee/optee_os/lib/libutils/isoc/bget.c:1135
    5428:	687b      	ldr	r3, [r7, #4]
    542a:	68db      	ldr	r3, [r3, #12]
    542c:	689a      	ldr	r2, [r3, #8]
    542e:	687b      	ldr	r3, [r7, #4]
    5430:	429a      	cmp	r2, r3
    5432:	d00b      	beq.n	544c <bpool+0x68>
/home/qemu-sgx/devel/optee/optee_os/lib/libutils/isoc/bget.c:1135 (discriminator 1)
    5434:	4b24      	ldr	r3, [pc, #144]	; (54c8 <bpool+0xe4>)
    5436:	447b      	add	r3, pc
    5438:	f240 426f 	movw	r2, #1135	; 0x46f
    543c:	4923      	ldr	r1, [pc, #140]	; (54cc <bpool+0xe8>)
    543e:	4479      	add	r1, pc
    5440:	4823      	ldr	r0, [pc, #140]	; (54d0 <bpool+0xec>)
    5442:	4478      	add	r0, pc
    5444:	f7fd ee4e 	blx	30e4 <_assert_log@plt>
    5448:	f7fd efc0 	blx	33cc <_assert_break@plt>
/home/qemu-sgx/devel/optee/optee_os/lib/libutils/isoc/bget.c:1136
    544c:	687b      	ldr	r3, [r7, #4]
    544e:	689b      	ldr	r3, [r3, #8]
    5450:	68da      	ldr	r2, [r3, #12]
    5452:	687b      	ldr	r3, [r7, #4]
    5454:	429a      	cmp	r2, r3
    5456:	d00b      	beq.n	5470 <bpool+0x8c>
/home/qemu-sgx/devel/optee/optee_os/lib/libutils/isoc/bget.c:1136 (discriminator 1)
    5458:	4b1e      	ldr	r3, [pc, #120]	; (54d4 <bpool+0xf0>)
    545a:	447b      	add	r3, pc
    545c:	f44f 628e 	mov.w	r2, #1136	; 0x470
    5460:	491d      	ldr	r1, [pc, #116]	; (54d8 <bpool+0xf4>)
    5462:	4479      	add	r1, pc
    5464:	481d      	ldr	r0, [pc, #116]	; (54dc <bpool+0xf8>)
    5466:	4478      	add	r0, pc
    5468:	f7fd ee3c 	blx	30e4 <_assert_log@plt>
    546c:	f7fd efae 	blx	33cc <_assert_break@plt>
/home/qemu-sgx/devel/optee/optee_os/lib/libutils/isoc/bget.c:1137
    5470:	687a      	ldr	r2, [r7, #4]
    5472:	697b      	ldr	r3, [r7, #20]
    5474:	609a      	str	r2, [r3, #8]
/home/qemu-sgx/devel/optee/optee_os/lib/libutils/isoc/bget.c:1138
    5476:	687b      	ldr	r3, [r7, #4]
    5478:	68da      	ldr	r2, [r3, #12]
    547a:	697b      	ldr	r3, [r7, #20]
    547c:	60da      	str	r2, [r3, #12]
/home/qemu-sgx/devel/optee/optee_os/lib/libutils/isoc/bget.c:1139
    547e:	687b      	ldr	r3, [r7, #4]
    5480:	697a      	ldr	r2, [r7, #20]
    5482:	60da      	str	r2, [r3, #12]
/home/qemu-sgx/devel/optee/optee_os/lib/libutils/isoc/bget.c:1140
    5484:	697b      	ldr	r3, [r7, #20]
    5486:	68db      	ldr	r3, [r3, #12]
    5488:	697a      	ldr	r2, [r7, #20]
    548a:	609a      	str	r2, [r3, #8]
/home/qemu-sgx/devel/optee/optee_os/lib/libutils/isoc/bget.c:1150
    548c:	68bb      	ldr	r3, [r7, #8]
    548e:	f1a3 0308 	sub.w	r3, r3, #8
    5492:	60bb      	str	r3, [r7, #8]
/home/qemu-sgx/devel/optee/optee_os/lib/libutils/isoc/bget.c:1151
    5494:	697b      	ldr	r3, [r7, #20]
    5496:	68ba      	ldr	r2, [r7, #8]
    5498:	605a      	str	r2, [r3, #4]
/home/qemu-sgx/devel/optee/optee_os/lib/libutils/isoc/bget.c:1156
    549a:	68bb      	ldr	r3, [r7, #8]
    549c:	697a      	ldr	r2, [r7, #20]
    549e:	4413      	add	r3, r2
    54a0:	613b      	str	r3, [r7, #16]
/home/qemu-sgx/devel/optee/optee_os/lib/libutils/isoc/bget.c:1157
    54a2:	693b      	ldr	r3, [r7, #16]
    54a4:	68ba      	ldr	r2, [r7, #8]
    54a6:	601a      	str	r2, [r3, #0]
/home/qemu-sgx/devel/optee/optee_os/lib/libutils/isoc/bget.c:1160
    54a8:	693b      	ldr	r3, [r7, #16]
    54aa:	f04f 4200 	mov.w	r2, #2147483648	; 0x80000000
    54ae:	605a      	str	r2, [r3, #4]
/home/qemu-sgx/devel/optee/optee_os/lib/libutils/isoc/bget.c:1161
    54b0:	bf00      	nop
    54b2:	f107 0718 	add.w	r7, r7, #24
    54b6:	46bd      	mov	sp, r7
    54b8:	bd80      	pop	{r7, pc}
    54ba:	bf00      	nop
    54bc:	0000836e 	.word	0x0000836e
    54c0:	00007f46 	.word	0x00007f46
    54c4:	000081be 	.word	0x000081be
    54c8:	00008342 	.word	0x00008342
    54cc:	00007f1a 	.word	0x00007f1a
    54d0:	00007faa 	.word	0x00007faa
    54d4:	0000831e 	.word	0x0000831e
    54d8:	00007ef6 	.word	0x00007ef6
    54dc:	00007fc2 	.word	0x00007fc2

000054e0 <bstats>:
bstats():
/home/qemu-sgx/devel/optee/optee_os/lib/libutils/isoc/bget.c:1171
    54e0:	e96d 7e02 	strd	r7, lr, [sp, #-8]!
    54e4:	b086      	sub	sp, #24
    54e6:	af00      	add	r7, sp, #0
    54e8:	60f8      	str	r0, [r7, #12]
    54ea:	60b9      	str	r1, [r7, #8]
    54ec:	607a      	str	r2, [r7, #4]
    54ee:	603b      	str	r3, [r7, #0]
/home/qemu-sgx/devel/optee/optee_os/lib/libutils/isoc/bget.c:1172
    54f0:	6a7b      	ldr	r3, [r7, #36]	; 0x24
    54f2:	689b      	ldr	r3, [r3, #8]
    54f4:	617b      	str	r3, [r7, #20]
/home/qemu-sgx/devel/optee/optee_os/lib/libutils/isoc/bget.c:1174
    54f6:	6a7b      	ldr	r3, [r7, #36]	; 0x24
    54f8:	695a      	ldr	r2, [r3, #20]
    54fa:	683b      	ldr	r3, [r7, #0]
    54fc:	601a      	str	r2, [r3, #0]
/home/qemu-sgx/devel/optee/optee_os/lib/libutils/isoc/bget.c:1175
    54fe:	6a7b      	ldr	r3, [r7, #36]	; 0x24
    5500:	699a      	ldr	r2, [r3, #24]
    5502:	6a3b      	ldr	r3, [r7, #32]
    5504:	601a      	str	r2, [r3, #0]
/home/qemu-sgx/devel/optee/optee_os/lib/libutils/isoc/bget.c:1176
    5506:	6a7b      	ldr	r3, [r7, #36]	; 0x24
    5508:	691a      	ldr	r2, [r3, #16]
    550a:	68fb      	ldr	r3, [r7, #12]
    550c:	601a      	str	r2, [r3, #0]
/home/qemu-sgx/devel/optee/optee_os/lib/libutils/isoc/bget.c:1177
    550e:	68bb      	ldr	r3, [r7, #8]
    5510:	f04f 0200 	mov.w	r2, #0
    5514:	601a      	str	r2, [r3, #0]
/home/qemu-sgx/devel/optee/optee_os/lib/libutils/isoc/bget.c:1178
    5516:	687b      	ldr	r3, [r7, #4]
    5518:	f04f 32ff 	mov.w	r2, #4294967295	; 0xffffffff
    551c:	601a      	str	r2, [r3, #0]
/home/qemu-sgx/devel/optee/optee_os/lib/libutils/isoc/bget.c:1179
    551e:	e023      	b.n	5568 <bstats+0x88>
/home/qemu-sgx/devel/optee/optee_os/lib/libutils/isoc/bget.c:1180
    5520:	697b      	ldr	r3, [r7, #20]
    5522:	685b      	ldr	r3, [r3, #4]
    5524:	2b00      	cmp	r3, #0
    5526:	dc0b      	bgt.n	5540 <bstats+0x60>
/home/qemu-sgx/devel/optee/optee_os/lib/libutils/isoc/bget.c:1180 (discriminator 1)
    5528:	4b14      	ldr	r3, [pc, #80]	; (557c <bstats+0x9c>)
    552a:	447b      	add	r3, pc
    552c:	f240 429c 	movw	r2, #1180	; 0x49c
    5530:	4913      	ldr	r1, [pc, #76]	; (5580 <bstats+0xa0>)
    5532:	4479      	add	r1, pc
    5534:	4813      	ldr	r0, [pc, #76]	; (5584 <bstats+0xa4>)
    5536:	4478      	add	r0, pc
    5538:	f7fd edd4 	blx	30e4 <_assert_log@plt>
    553c:	f7fd ef46 	blx	33cc <_assert_break@plt>
/home/qemu-sgx/devel/optee/optee_os/lib/libutils/isoc/bget.c:1181
    5540:	68bb      	ldr	r3, [r7, #8]
    5542:	681a      	ldr	r2, [r3, #0]
    5544:	697b      	ldr	r3, [r7, #20]
    5546:	685b      	ldr	r3, [r3, #4]
    5548:	441a      	add	r2, r3
    554a:	68bb      	ldr	r3, [r7, #8]
    554c:	601a      	str	r2, [r3, #0]
/home/qemu-sgx/devel/optee/optee_os/lib/libutils/isoc/bget.c:1182
    554e:	697b      	ldr	r3, [r7, #20]
    5550:	685a      	ldr	r2, [r3, #4]
    5552:	687b      	ldr	r3, [r7, #4]
    5554:	681b      	ldr	r3, [r3, #0]
    5556:	429a      	cmp	r2, r3
    5558:	dd03      	ble.n	5562 <bstats+0x82>
/home/qemu-sgx/devel/optee/optee_os/lib/libutils/isoc/bget.c:1183
    555a:	697b      	ldr	r3, [r7, #20]
    555c:	685a      	ldr	r2, [r3, #4]
    555e:	687b      	ldr	r3, [r7, #4]
    5560:	601a      	str	r2, [r3, #0]
/home/qemu-sgx/devel/optee/optee_os/lib/libutils/isoc/bget.c:1185
    5562:	697b      	ldr	r3, [r7, #20]
    5564:	689b      	ldr	r3, [r3, #8]
    5566:	617b      	str	r3, [r7, #20]
/home/qemu-sgx/devel/optee/optee_os/lib/libutils/isoc/bget.c:1179
    5568:	6a7b      	ldr	r3, [r7, #36]	; 0x24
    556a:	697a      	ldr	r2, [r7, #20]
    556c:	429a      	cmp	r2, r3
    556e:	d1d7      	bne.n	5520 <bstats+0x40>
/home/qemu-sgx/devel/optee/optee_os/lib/libutils/isoc/bget.c:1187
    5570:	bf00      	nop
    5572:	bf00      	nop
    5574:	f107 0718 	add.w	r7, r7, #24
    5578:	46bd      	mov	sp, r7
    557a:	bd80      	pop	{r7, pc}
    557c:	00008256 	.word	0x00008256
    5580:	00007e26 	.word	0x00007e26
    5584:	000080d6 	.word	0x000080d6

00005588 <myrand>:
myrand():
/home/qemu-sgx/devel/optee/optee_os/lib/libutils/isoc/bget.c:1411
    5588:	f84d 7d04 	str.w	r7, [sp, #-4]!
    558c:	af00      	add	r7, sp, #0
/home/qemu-sgx/devel/optee/optee_os/lib/libutils/isoc/bget.c:1412
    558e:	4b0e      	ldr	r3, [pc, #56]	; (55c8 <myrand+0x40>)
    5590:	447b      	add	r3, pc
    5592:	681a      	ldr	r2, [r3, #0]
    5594:	f644 636d 	movw	r3, #20077	; 0x4e6d
    5598:	f2c4 13c6 	movt	r3, #16838	; 0x41c6
    559c:	fb02 f303 	mul.w	r3, r2, r3
    55a0:	f503 5340 	add.w	r3, r3, #12288	; 0x3000
    55a4:	f103 0339 	add.w	r3, r3, #57	; 0x39
    55a8:	4a08      	ldr	r2, [pc, #32]	; (55cc <myrand+0x44>)
    55aa:	447a      	add	r2, pc
    55ac:	6013      	str	r3, [r2, #0]
/home/qemu-sgx/devel/optee/optee_os/lib/libutils/isoc/bget.c:1413
    55ae:	4b08      	ldr	r3, [pc, #32]	; (55d0 <myrand+0x48>)
    55b0:	447b      	add	r3, pc
    55b2:	681b      	ldr	r3, [r3, #0]
    55b4:	ea4f 4313 	mov.w	r3, r3, lsr #16
    55b8:	f3c3 030e 	ubfx	r3, r3, #0, #15
/home/qemu-sgx/devel/optee/optee_os/lib/libutils/isoc/bget.c:1414
    55bc:	4618      	mov	r0, r3
    55be:	46bd      	mov	sp, r7
    55c0:	f85d 7b04 	ldr.w	r7, [sp], #4
    55c4:	4770      	bx	lr
    55c6:	bf00      	nop
    55c8:	0000ac54 	.word	0x0000ac54
    55cc:	0000ac3a 	.word	0x0000ac3a
    55d0:	0000ac34 	.word	0x0000ac34

000055d4 <mysrand>:
mysrand():
/home/qemu-sgx/devel/optee/optee_os/lib/libutils/isoc/bget.c:1419
    55d4:	f84d 7d04 	str.w	r7, [sp, #-4]!
    55d8:	b083      	sub	sp, #12
    55da:	af00      	add	r7, sp, #0
    55dc:	6078      	str	r0, [r7, #4]
/home/qemu-sgx/devel/optee/optee_os/lib/libutils/isoc/bget.c:1420
    55de:	4b05      	ldr	r3, [pc, #20]	; (55f4 <mysrand+0x20>)
    55e0:	447b      	add	r3, pc
    55e2:	687a      	ldr	r2, [r7, #4]
    55e4:	601a      	str	r2, [r3, #0]
/home/qemu-sgx/devel/optee/optee_os/lib/libutils/isoc/bget.c:1421
    55e6:	bf00      	nop
    55e8:	f107 070c 	add.w	r7, r7, #12
    55ec:	46bd      	mov	sp, r7
    55ee:	f85d 7b04 	ldr.w	r7, [sp], #4
    55f2:	4770      	bx	lr
    55f4:	0000ac04 	.word	0x0000ac04

000055f8 <stats>:
stats():
/home/qemu-sgx/devel/optee/optee_os/lib/libutils/isoc/bget.c:1427
    55f8:	f84d 4d0c 	str.w	r4, [sp, #-12]!
    55fc:	e9cd 7e01 	strd	r7, lr, [sp, #4]
    5600:	b08d      	sub	sp, #52	; 0x34
    5602:	af04      	add	r7, sp, #16
    5604:	6078      	str	r0, [r7, #4]
    5606:	6039      	str	r1, [r7, #0]
/home/qemu-sgx/devel/optee/optee_os/lib/libutils/isoc/bget.c:1438
    5608:	f107 0410 	add.w	r4, r7, #16
    560c:	f107 0214 	add.w	r2, r7, #20
    5610:	f107 0118 	add.w	r1, r7, #24
    5614:	f107 001c 	add.w	r0, r7, #28
    5618:	683b      	ldr	r3, [r7, #0]
    561a:	9301      	str	r3, [sp, #4]
    561c:	f107 030c 	add.w	r3, r7, #12
    5620:	9300      	str	r3, [sp, #0]
    5622:	4623      	mov	r3, r4
    5624:	f7fd ef4a 	blx	34bc <bstats@plt>
/home/qemu-sgx/devel/optee/optee_os/lib/libutils/isoc/bget.c:1439
    5628:	6938      	ldr	r0, [r7, #16]
    562a:	68fc      	ldr	r4, [r7, #12]
    562c:	69fb      	ldr	r3, [r7, #28]
    562e:	69ba      	ldr	r2, [r7, #24]
    5630:	6979      	ldr	r1, [r7, #20]
    5632:	9102      	str	r1, [sp, #8]
    5634:	9201      	str	r2, [sp, #4]
    5636:	9300      	str	r3, [sp, #0]
    5638:	4623      	mov	r3, r4
    563a:	4602      	mov	r2, r0
    563c:	6879      	ldr	r1, [r7, #4]
    563e:	4806      	ldr	r0, [pc, #24]	; (5658 <stats+0x60>)
    5640:	4478      	add	r0, pc
    5642:	f7fd ecb4 	blx	2fac <printf@plt>
/home/qemu-sgx/devel/optee/optee_os/lib/libutils/isoc/bget.c:1450
    5646:	bf00      	nop
    5648:	f107 0724 	add.w	r7, r7, #36	; 0x24
    564c:	46bd      	mov	sp, r7
    564e:	e9dd 4700 	ldrd	r4, r7, [sp]
    5652:	b002      	add	sp, #8
    5654:	f85d fb04 	ldr.w	pc, [sp], #4
    5658:	00007fdc 	.word	0x00007fdc

0000565c <blimit>:
blimit():
/home/qemu-sgx/devel/optee/optee_os/lib/libutils/isoc/bget.c:1548
    565c:	f84d 7d04 	str.w	r7, [sp, #-4]!
    5660:	b083      	sub	sp, #12
    5662:	af00      	add	r7, sp, #0
    5664:	6078      	str	r0, [r7, #4]
/home/qemu-sgx/devel/optee/optee_os/lib/libutils/isoc/bget.c:1549
    5666:	687b      	ldr	r3, [r7, #4]
    5668:	2b03      	cmp	r3, #3
    566a:	d802      	bhi.n	5672 <blimit+0x16>
/home/qemu-sgx/devel/optee/optee_os/lib/libutils/isoc/bget.c:1550
    566c:	f04f 0304 	mov.w	r3, #4
    5670:	607b      	str	r3, [r7, #4]
/home/qemu-sgx/devel/optee/optee_os/lib/libutils/isoc/bget.c:1562
    5672:	687a      	ldr	r2, [r7, #4]
    5674:	f44f 6354 	mov.w	r3, #3392	; 0xd40
    5678:	f2c0 0303 	movt	r3, #3
    567c:	429a      	cmp	r2, r3
    567e:	dd04      	ble.n	568a <blimit+0x2e>
/home/qemu-sgx/devel/optee/optee_os/lib/libutils/isoc/bget.c:1563
    5680:	f44f 6354 	mov.w	r3, #3392	; 0xd40
    5684:	f2c0 0303 	movt	r3, #3
    5688:	607b      	str	r3, [r7, #4]
/home/qemu-sgx/devel/optee/optee_os/lib/libutils/isoc/bget.c:1566
    568a:	687b      	ldr	r3, [r7, #4]
/home/qemu-sgx/devel/optee/optee_os/lib/libutils/isoc/bget.c:1567
    568c:	4618      	mov	r0, r3
    568e:	f107 070c 	add.w	r7, r7, #12
    5692:	46bd      	mov	sp, r7
    5694:	f85d 7b04 	ldr.w	r7, [sp], #4
    5698:	4770      	bx	lr

0000569a <bget_main_test>:
bget_main_test():
/home/qemu-sgx/devel/optee/optee_os/lib/libutils/isoc/bget.c:1570
    569a:	f84d 4d0c 	str.w	r4, [sp, #-12]!
    569e:	e9cd 7e01 	strd	r7, lr, [sp, #4]
    56a2:	b095      	sub	sp, #84	; 0x54
    56a4:	af02      	add	r7, sp, #8
    56a6:	6078      	str	r0, [r7, #4]
    56a8:	6039      	str	r1, [r7, #0]
/home/qemu-sgx/devel/optee/optee_os/lib/libutils/isoc/bget.c:1576
    56aa:	4bda      	ldr	r3, [pc, #872]	; (5a14 <bget_main_test+0x37a>)
    56ac:	447b      	add	r3, pc
    56ae:	687a      	ldr	r2, [r7, #4]
    56b0:	601a      	str	r2, [r3, #0]
/home/qemu-sgx/devel/optee/optee_os/lib/libutils/isoc/bget.c:1577
    56b2:	4bd9      	ldr	r3, [pc, #868]	; (5a18 <bget_main_test+0x37e>)
    56b4:	447b      	add	r3, pc
    56b6:	683a      	ldr	r2, [r7, #0]
    56b8:	601a      	str	r2, [r3, #0]
/home/qemu-sgx/devel/optee/optee_os/lib/libutils/isoc/bget.c:1583
    56ba:	f240 40d2 	movw	r0, #1234	; 0x4d2
    56be:	f7ff ff89 	bl	55d4 <mysrand>
/home/qemu-sgx/devel/optee/optee_os/lib/libutils/isoc/bget.c:1601
    56c2:	4bd6      	ldr	r3, [pc, #856]	; (5a1c <bget_main_test+0x382>)
    56c4:	447b      	add	r3, pc
    56c6:	681b      	ldr	r3, [r3, #0]
    56c8:	f24c 3050 	movw	r0, #50000	; 0xc350
    56cc:	4798      	blx	r3
    56ce:	4602      	mov	r2, r0
    56d0:	4bd3      	ldr	r3, [pc, #844]	; (5a20 <bget_main_test+0x386>)
    56d2:	447b      	add	r3, pc
    56d4:	601a      	str	r2, [r3, #0]
/home/qemu-sgx/devel/optee/optee_os/lib/libutils/isoc/bget.c:1602
    56d6:	4bd3      	ldr	r3, [pc, #844]	; (5a24 <bget_main_test+0x38a>)
    56d8:	447b      	add	r3, pc
    56da:	681b      	ldr	r3, [r3, #0]
    56dc:	2b00      	cmp	r3, #0
    56de:	d10b      	bne.n	56f8 <bget_main_test+0x5e>
/home/qemu-sgx/devel/optee/optee_os/lib/libutils/isoc/bget.c:1602 (discriminator 1)
    56e0:	4bd1      	ldr	r3, [pc, #836]	; (5a28 <bget_main_test+0x38e>)
    56e2:	447b      	add	r3, pc
    56e4:	f240 6242 	movw	r2, #1602	; 0x642
    56e8:	49d0      	ldr	r1, [pc, #832]	; (5a2c <bget_main_test+0x392>)
    56ea:	4479      	add	r1, pc
    56ec:	48d0      	ldr	r0, [pc, #832]	; (5a30 <bget_main_test+0x396>)
    56ee:	4478      	add	r0, pc
    56f0:	f7fd ecf8 	blx	30e4 <_assert_log@plt>
    56f4:	f7fd ee6a 	blx	33cc <_assert_break@plt>
/home/qemu-sgx/devel/optee/optee_os/lib/libutils/isoc/bget.c:1603
    56f8:	4bce      	ldr	r3, [pc, #824]	; (5a34 <bget_main_test+0x39a>)
    56fa:	447b      	add	r3, pc
    56fc:	681b      	ldr	r3, [r3, #0]
    56fe:	4ace      	ldr	r2, [pc, #824]	; (5a38 <bget_main_test+0x39e>)
    5700:	447a      	add	r2, pc
    5702:	f24c 3150 	movw	r1, #50000	; 0xc350
    5706:	4618      	mov	r0, r3
    5708:	f7fd edd6 	blx	32b8 <bpool@plt>
/home/qemu-sgx/devel/optee/optee_os/lib/libutils/isoc/bget.c:1606
    570c:	4bcb      	ldr	r3, [pc, #812]	; (5a3c <bget_main_test+0x3a2>)
    570e:	447b      	add	r3, pc
    5710:	4619      	mov	r1, r3
    5712:	4bcb      	ldr	r3, [pc, #812]	; (5a40 <bget_main_test+0x3a6>)
    5714:	447b      	add	r3, pc
    5716:	4618      	mov	r0, r3
    5718:	f7ff ff6e 	bl	55f8 <stats>
/home/qemu-sgx/devel/optee/optee_os/lib/libutils/isoc/bget.c:1614
    571c:	f04f 0300 	mov.w	r3, #0
    5720:	647b      	str	r3, [r7, #68]	; 0x44
    5722:	e13e      	b.n	59a2 <bget_main_test+0x308>
/home/qemu-sgx/devel/optee/optee_os/lib/libutils/isoc/bget.c:1619
    5724:	f7ff ff30 	bl	5588 <myrand>
    5728:	4603      	mov	r3, r0
    572a:	f3c3 0410 	ubfx	r4, r3, #0, #17
    572e:	f7ff ff2b 	bl	5588 <myrand>
    5732:	4603      	mov	r3, r0
    5734:	f003 0307 	and.w	r3, r3, #7
    5738:	fa44 f303 	asr.w	r3, r4, r3
    573c:	627b      	str	r3, [r7, #36]	; 0x24
/home/qemu-sgx/devel/optee/optee_os/lib/libutils/isoc/bget.c:1621
    573e:	f04f 0300 	mov.w	r3, #0
    5742:	63fb      	str	r3, [r7, #60]	; 0x3c
/home/qemu-sgx/devel/optee/optee_os/lib/libutils/isoc/bget.c:1622
    5744:	f04f 0300 	mov.w	r3, #0
    5748:	623b      	str	r3, [r7, #32]
/home/qemu-sgx/devel/optee/optee_os/lib/libutils/isoc/bget.c:1624
    574a:	f7fd ed62 	blx	3210 <rand@plt>
    574e:	4603      	mov	r3, r0
    5750:	f003 0303 	and.w	r3, r3, #3
    5754:	2b03      	cmp	r3, #3
    5756:	d00e      	beq.n	5776 <bget_main_test+0xdc>
    5758:	2b03      	cmp	r3, #3
    575a:	dc10      	bgt.n	577e <bget_main_test+0xe4>
    575c:	2b01      	cmp	r3, #1
    575e:	d002      	beq.n	5766 <bget_main_test+0xcc>
    5760:	2b02      	cmp	r3, #2
    5762:	d004      	beq.n	576e <bget_main_test+0xd4>
/home/qemu-sgx/devel/optee/optee_os/lib/libutils/isoc/bget.c:1635
    5764:	e00b      	b.n	577e <bget_main_test+0xe4>
/home/qemu-sgx/devel/optee/optee_os/lib/libutils/isoc/bget.c:1626
    5766:	f04f 0320 	mov.w	r3, #32
    576a:	63fb      	str	r3, [r7, #60]	; 0x3c
/home/qemu-sgx/devel/optee/optee_os/lib/libutils/isoc/bget.c:1627
    576c:	e008      	b.n	5780 <bget_main_test+0xe6>
/home/qemu-sgx/devel/optee/optee_os/lib/libutils/isoc/bget.c:1629
    576e:	f04f 0340 	mov.w	r3, #64	; 0x40
    5772:	63fb      	str	r3, [r7, #60]	; 0x3c
/home/qemu-sgx/devel/optee/optee_os/lib/libutils/isoc/bget.c:1630
    5774:	e004      	b.n	5780 <bget_main_test+0xe6>
/home/qemu-sgx/devel/optee/optee_os/lib/libutils/isoc/bget.c:1632
    5776:	f04f 0380 	mov.w	r3, #128	; 0x80
    577a:	63fb      	str	r3, [r7, #60]	; 0x3c
/home/qemu-sgx/devel/optee/optee_os/lib/libutils/isoc/bget.c:1633
    577c:	e000      	b.n	5780 <bget_main_test+0xe6>
/home/qemu-sgx/devel/optee/optee_os/lib/libutils/isoc/bget.c:1635
    577e:	bf00      	nop
/home/qemu-sgx/devel/optee/optee_os/lib/libutils/isoc/bget.c:1638
    5780:	f7fd ed46 	blx	3210 <rand@plt>
    5784:	4603      	mov	r3, r0
    5786:	f003 0303 	and.w	r3, r3, #3
    578a:	ea4f 03c3 	mov.w	r3, r3, lsl #3
    578e:	623b      	str	r3, [r7, #32]
/home/qemu-sgx/devel/optee/optee_os/lib/libutils/isoc/bget.c:1640
    5790:	6a7b      	ldr	r3, [r7, #36]	; 0x24
    5792:	f5b3 3f00 	cmp.w	r3, #131072	; 0x20000
    5796:	dd0b      	ble.n	57b0 <bget_main_test+0x116>
/home/qemu-sgx/devel/optee/optee_os/lib/libutils/isoc/bget.c:1640 (discriminator 1)
    5798:	4baa      	ldr	r3, [pc, #680]	; (5a44 <bget_main_test+0x3aa>)
    579a:	447b      	add	r3, pc
    579c:	f44f 62cd 	mov.w	r2, #1640	; 0x668
    57a0:	49a9      	ldr	r1, [pc, #676]	; (5a48 <bget_main_test+0x3ae>)
    57a2:	4479      	add	r1, pc
    57a4:	48a9      	ldr	r0, [pc, #676]	; (5a4c <bget_main_test+0x3b2>)
    57a6:	4478      	add	r0, pc
    57a8:	f7fd ec9c 	blx	30e4 <_assert_log@plt>
    57ac:	f7fd ee0e 	blx	33cc <_assert_break@plt>
/home/qemu-sgx/devel/optee/optee_os/lib/libutils/isoc/bget.c:1641
    57b0:	6a78      	ldr	r0, [r7, #36]	; 0x24
    57b2:	f7ff ff53 	bl	565c <blimit>
    57b6:	6278      	str	r0, [r7, #36]	; 0x24
/home/qemu-sgx/devel/optee/optee_os/lib/libutils/isoc/bget.c:1642
    57b8:	f7ff fee6 	bl	5588 <myrand>
    57bc:	4603      	mov	r3, r0
    57be:	f403 6380 	and.w	r3, r3, #1024	; 0x400
    57c2:	2b00      	cmp	r3, #0
    57c4:	d008      	beq.n	57d8 <bget_main_test+0x13e>
/home/qemu-sgx/devel/optee/optee_os/lib/libutils/isoc/bget.c:1643
    57c6:	4ba2      	ldr	r3, [pc, #648]	; (5a50 <bget_main_test+0x3b6>)
    57c8:	447b      	add	r3, pc
    57ca:	6a7a      	ldr	r2, [r7, #36]	; 0x24
    57cc:	6a39      	ldr	r1, [r7, #32]
    57ce:	6bf8      	ldr	r0, [r7, #60]	; 0x3c
    57d0:	f7fd ec76 	blx	30c0 <bgetz@plt>
    57d4:	6438      	str	r0, [r7, #64]	; 0x40
    57d6:	e007      	b.n	57e8 <bget_main_test+0x14e>
/home/qemu-sgx/devel/optee/optee_os/lib/libutils/isoc/bget.c:1645
    57d8:	4b9e      	ldr	r3, [pc, #632]	; (5a54 <bget_main_test+0x3ba>)
    57da:	447b      	add	r3, pc
    57dc:	6a7a      	ldr	r2, [r7, #36]	; 0x24
    57de:	6a39      	ldr	r1, [r7, #32]
    57e0:	6bf8      	ldr	r0, [r7, #60]	; 0x3c
    57e2:	f7fd eddc 	blx	339c <bget@plt>
    57e6:	6438      	str	r0, [r7, #64]	; 0x40
/home/qemu-sgx/devel/optee/optee_os/lib/libutils/isoc/bget.c:1647
    57e8:	6c3b      	ldr	r3, [r7, #64]	; 0x40
    57ea:	2b00      	cmp	r3, #0
    57ec:	d11b      	bne.n	5826 <bget_main_test+0x18c>
/home/qemu-sgx/devel/optee/optee_os/lib/libutils/isoc/bget.c:1651
    57ee:	4b9a      	ldr	r3, [pc, #616]	; (5a58 <bget_main_test+0x3be>)
    57f0:	447b      	add	r3, pc
    57f2:	681b      	ldr	r3, [r3, #0]
    57f4:	613b      	str	r3, [r7, #16]
/home/qemu-sgx/devel/optee/optee_os/lib/libutils/isoc/bget.c:1653
    57f6:	693b      	ldr	r3, [r7, #16]
    57f8:	2b00      	cmp	r3, #0
    57fa:	f000 80cd 	beq.w	5998 <bget_main_test+0x2fe>
/home/qemu-sgx/devel/optee/optee_os/lib/libutils/isoc/bget.c:1656
    57fe:	693b      	ldr	r3, [r7, #16]
    5800:	681b      	ldr	r3, [r3, #0]
    5802:	60fb      	str	r3, [r7, #12]
/home/qemu-sgx/devel/optee/optee_os/lib/libutils/isoc/bget.c:1657
    5804:	68fb      	ldr	r3, [r7, #12]
    5806:	2b00      	cmp	r3, #0
    5808:	f000 80c6 	beq.w	5998 <bget_main_test+0x2fe>
/home/qemu-sgx/devel/optee/optee_os/lib/libutils/isoc/bget.c:1658
    580c:	68fb      	ldr	r3, [r7, #12]
    580e:	681a      	ldr	r2, [r3, #0]
    5810:	693b      	ldr	r3, [r7, #16]
    5812:	601a      	str	r2, [r3, #0]
/home/qemu-sgx/devel/optee/optee_os/lib/libutils/isoc/bget.c:1659
    5814:	f04f 0201 	mov.w	r2, #1
    5818:	4b90      	ldr	r3, [pc, #576]	; (5a5c <bget_main_test+0x3c2>)
    581a:	447b      	add	r3, pc
    581c:	4619      	mov	r1, r3
    581e:	68f8      	ldr	r0, [r7, #12]
    5820:	f7fd ee34 	blx	348c <brel@plt>
/home/qemu-sgx/devel/optee/optee_os/lib/libutils/isoc/bget.c:1662
    5824:	e0b8      	b.n	5998 <bget_main_test+0x2fe>
/home/qemu-sgx/devel/optee/optee_os/lib/libutils/isoc/bget.c:1665
    5826:	6bfb      	ldr	r3, [r7, #60]	; 0x3c
    5828:	2b00      	cmp	r3, #0
    582a:	d015      	beq.n	5858 <bget_main_test+0x1be>
/home/qemu-sgx/devel/optee/optee_os/lib/libutils/isoc/bget.c:1665 (discriminator 1)
    582c:	6c3a      	ldr	r2, [r7, #64]	; 0x40
    582e:	6a3b      	ldr	r3, [r7, #32]
    5830:	4413      	add	r3, r2
    5832:	6bfa      	ldr	r2, [r7, #60]	; 0x3c
    5834:	f102 32ff 	add.w	r2, r2, #4294967295	; 0xffffffff
    5838:	ea03 0302 	and.w	r3, r3, r2
    583c:	2b00      	cmp	r3, #0
    583e:	d00b      	beq.n	5858 <bget_main_test+0x1be>
/home/qemu-sgx/devel/optee/optee_os/lib/libutils/isoc/bget.c:1665 (discriminator 2)
    5840:	4b87      	ldr	r3, [pc, #540]	; (5a60 <bget_main_test+0x3c6>)
    5842:	447b      	add	r3, pc
    5844:	f240 6281 	movw	r2, #1665	; 0x681
    5848:	4986      	ldr	r1, [pc, #536]	; (5a64 <bget_main_test+0x3ca>)
    584a:	4479      	add	r1, pc
    584c:	4886      	ldr	r0, [pc, #536]	; (5a68 <bget_main_test+0x3ce>)
    584e:	4478      	add	r0, pc
    5850:	f7fd ec48 	blx	30e4 <_assert_log@plt>
    5854:	f7fd edba 	blx	33cc <_assert_break@plt>
/home/qemu-sgx/devel/optee/optee_os/lib/libutils/isoc/bget.c:1666
    5858:	4b84      	ldr	r3, [pc, #528]	; (5a6c <bget_main_test+0x3d2>)
    585a:	447b      	add	r3, pc
    585c:	681a      	ldr	r2, [r3, #0]
    585e:	6c3b      	ldr	r3, [r7, #64]	; 0x40
    5860:	601a      	str	r2, [r3, #0]
/home/qemu-sgx/devel/optee/optee_os/lib/libutils/isoc/bget.c:1667
    5862:	4b83      	ldr	r3, [pc, #524]	; (5a70 <bget_main_test+0x3d6>)
    5864:	447b      	add	r3, pc
    5866:	6c3a      	ldr	r2, [r7, #64]	; 0x40
    5868:	601a      	str	r2, [r3, #0]
/home/qemu-sgx/devel/optee/optee_os/lib/libutils/isoc/bget.c:1672
    586a:	f7ff fe8d 	bl	5588 <myrand>
    586e:	4603      	mov	r3, r0
    5870:	f003 0310 	and.w	r3, r3, #16
    5874:	2b00      	cmp	r3, #0
    5876:	d12c      	bne.n	58d2 <bget_main_test+0x238>
/home/qemu-sgx/devel/optee/optee_os/lib/libutils/isoc/bget.c:1673
    5878:	4b7e      	ldr	r3, [pc, #504]	; (5a74 <bget_main_test+0x3da>)
    587a:	447b      	add	r3, pc
    587c:	681b      	ldr	r3, [r3, #0]
    587e:	63bb      	str	r3, [r7, #56]	; 0x38
/home/qemu-sgx/devel/optee/optee_os/lib/libutils/isoc/bget.c:1674
    5880:	f7ff fe82 	bl	5588 <myrand>
    5884:	4603      	mov	r3, r0
    5886:	f003 0303 	and.w	r3, r3, #3
    588a:	637b      	str	r3, [r7, #52]	; 0x34
/home/qemu-sgx/devel/optee/optee_os/lib/libutils/isoc/bget.c:1676
    588c:	e006      	b.n	589c <bget_main_test+0x202>
/home/qemu-sgx/devel/optee/optee_os/lib/libutils/isoc/bget.c:1677
    588e:	6bbb      	ldr	r3, [r7, #56]	; 0x38
    5890:	681b      	ldr	r3, [r3, #0]
    5892:	63bb      	str	r3, [r7, #56]	; 0x38
/home/qemu-sgx/devel/optee/optee_os/lib/libutils/isoc/bget.c:1678
    5894:	6b7b      	ldr	r3, [r7, #52]	; 0x34
    5896:	f103 33ff 	add.w	r3, r3, #4294967295	; 0xffffffff
    589a:	637b      	str	r3, [r7, #52]	; 0x34
/home/qemu-sgx/devel/optee/optee_os/lib/libutils/isoc/bget.c:1676
    589c:	6b7b      	ldr	r3, [r7, #52]	; 0x34
    589e:	2b00      	cmp	r3, #0
    58a0:	dd02      	ble.n	58a8 <bget_main_test+0x20e>
/home/qemu-sgx/devel/optee/optee_os/lib/libutils/isoc/bget.c:1676 (discriminator 1)
    58a2:	6bbb      	ldr	r3, [r7, #56]	; 0x38
    58a4:	2b00      	cmp	r3, #0
    58a6:	d1f2      	bne.n	588e <bget_main_test+0x1f4>
/home/qemu-sgx/devel/optee/optee_os/lib/libutils/isoc/bget.c:1680
    58a8:	6bbb      	ldr	r3, [r7, #56]	; 0x38
    58aa:	2b00      	cmp	r3, #0
    58ac:	d011      	beq.n	58d2 <bget_main_test+0x238>
/home/qemu-sgx/devel/optee/optee_os/lib/libutils/isoc/bget.c:1683
    58ae:	6bbb      	ldr	r3, [r7, #56]	; 0x38
    58b0:	681b      	ldr	r3, [r3, #0]
    58b2:	61fb      	str	r3, [r7, #28]
/home/qemu-sgx/devel/optee/optee_os/lib/libutils/isoc/bget.c:1684
    58b4:	69fb      	ldr	r3, [r7, #28]
    58b6:	2b00      	cmp	r3, #0
    58b8:	d00b      	beq.n	58d2 <bget_main_test+0x238>
/home/qemu-sgx/devel/optee/optee_os/lib/libutils/isoc/bget.c:1685
    58ba:	69fb      	ldr	r3, [r7, #28]
    58bc:	681a      	ldr	r2, [r3, #0]
    58be:	6bbb      	ldr	r3, [r7, #56]	; 0x38
    58c0:	601a      	str	r2, [r3, #0]
/home/qemu-sgx/devel/optee/optee_os/lib/libutils/isoc/bget.c:1686
    58c2:	f04f 0201 	mov.w	r2, #1
    58c6:	4b6c      	ldr	r3, [pc, #432]	; (5a78 <bget_main_test+0x3de>)
    58c8:	447b      	add	r3, pc
    58ca:	4619      	mov	r1, r3
    58cc:	69f8      	ldr	r0, [r7, #28]
    58ce:	f7fd edde 	blx	348c <brel@plt>
/home/qemu-sgx/devel/optee/optee_os/lib/libutils/isoc/bget.c:1694
    58d2:	f7ff fe59 	bl	5588 <myrand>
    58d6:	4603      	mov	r3, r0
    58d8:	f003 0320 	and.w	r3, r3, #32
    58dc:	2b00      	cmp	r3, #0
    58de:	d15c      	bne.n	599a <bget_main_test+0x300>
/home/qemu-sgx/devel/optee/optee_os/lib/libutils/isoc/bget.c:1695
    58e0:	4b66      	ldr	r3, [pc, #408]	; (5a7c <bget_main_test+0x3e2>)
    58e2:	447b      	add	r3, pc
    58e4:	681b      	ldr	r3, [r3, #0]
    58e6:	633b      	str	r3, [r7, #48]	; 0x30
/home/qemu-sgx/devel/optee/optee_os/lib/libutils/isoc/bget.c:1696
    58e8:	f7ff fe4e 	bl	5588 <myrand>
    58ec:	4603      	mov	r3, r0
    58ee:	f003 0303 	and.w	r3, r3, #3
    58f2:	62fb      	str	r3, [r7, #44]	; 0x2c
/home/qemu-sgx/devel/optee/optee_os/lib/libutils/isoc/bget.c:1698
    58f4:	e006      	b.n	5904 <bget_main_test+0x26a>
/home/qemu-sgx/devel/optee/optee_os/lib/libutils/isoc/bget.c:1699
    58f6:	6b3b      	ldr	r3, [r7, #48]	; 0x30
    58f8:	681b      	ldr	r3, [r3, #0]
    58fa:	633b      	str	r3, [r7, #48]	; 0x30
/home/qemu-sgx/devel/optee/optee_os/lib/libutils/isoc/bget.c:1700
    58fc:	6afb      	ldr	r3, [r7, #44]	; 0x2c
    58fe:	f103 33ff 	add.w	r3, r3, #4294967295	; 0xffffffff
    5902:	62fb      	str	r3, [r7, #44]	; 0x2c
/home/qemu-sgx/devel/optee/optee_os/lib/libutils/isoc/bget.c:1698
    5904:	6afb      	ldr	r3, [r7, #44]	; 0x2c
    5906:	2b00      	cmp	r3, #0
    5908:	dd02      	ble.n	5910 <bget_main_test+0x276>
/home/qemu-sgx/devel/optee/optee_os/lib/libutils/isoc/bget.c:1698 (discriminator 1)
    590a:	6b3b      	ldr	r3, [r7, #48]	; 0x30
    590c:	2b00      	cmp	r3, #0
    590e:	d1f2      	bne.n	58f6 <bget_main_test+0x25c>
/home/qemu-sgx/devel/optee/optee_os/lib/libutils/isoc/bget.c:1702
    5910:	6b3b      	ldr	r3, [r7, #48]	; 0x30
    5912:	2b00      	cmp	r3, #0
    5914:	d041      	beq.n	599a <bget_main_test+0x300>
/home/qemu-sgx/devel/optee/optee_os/lib/libutils/isoc/bget.c:1705
    5916:	6b3b      	ldr	r3, [r7, #48]	; 0x30
    5918:	681b      	ldr	r3, [r3, #0]
    591a:	61bb      	str	r3, [r7, #24]
/home/qemu-sgx/devel/optee/optee_os/lib/libutils/isoc/bget.c:1706
    591c:	69bb      	ldr	r3, [r7, #24]
    591e:	2b00      	cmp	r3, #0
    5920:	d03b      	beq.n	599a <bget_main_test+0x300>
/home/qemu-sgx/devel/optee/optee_os/lib/libutils/isoc/bget.c:1712
    5922:	f7fd ec76 	blx	3210 <rand@plt>
    5926:	4603      	mov	r3, r0
    5928:	f3c3 0410 	ubfx	r4, r3, #0, #17
    592c:	f7fd ec70 	blx	3210 <rand@plt>
    5930:	4603      	mov	r3, r0
    5932:	f003 0307 	and.w	r3, r3, #7
    5936:	fa44 f303 	asr.w	r3, r4, r3
    593a:	627b      	str	r3, [r7, #36]	; 0x24
/home/qemu-sgx/devel/optee/optee_os/lib/libutils/isoc/bget.c:1714
    593c:	6a78      	ldr	r0, [r7, #36]	; 0x24
    593e:	f7ff fe8d 	bl	565c <blimit>
    5942:	6278      	str	r0, [r7, #36]	; 0x24
/home/qemu-sgx/devel/optee/optee_os/lib/libutils/isoc/bget.c:1718
    5944:	4b4e      	ldr	r3, [pc, #312]	; (5a80 <bget_main_test+0x3e6>)
    5946:	447b      	add	r3, pc
    5948:	9300      	str	r3, [sp, #0]
    594a:	6a7b      	ldr	r3, [r7, #36]	; 0x24
    594c:	6a3a      	ldr	r2, [r7, #32]
    594e:	6bf9      	ldr	r1, [r7, #60]	; 0x3c
    5950:	69b8      	ldr	r0, [r7, #24]
    5952:	f7fd eb9e 	blx	3090 <bgetr@plt>
    5956:	6178      	str	r0, [r7, #20]
/home/qemu-sgx/devel/optee/optee_os/lib/libutils/isoc/bget.c:1722
    5958:	697b      	ldr	r3, [r7, #20]
    595a:	2b00      	cmp	r3, #0
    595c:	d01d      	beq.n	599a <bget_main_test+0x300>
/home/qemu-sgx/devel/optee/optee_os/lib/libutils/isoc/bget.c:1723
    595e:	6bfb      	ldr	r3, [r7, #60]	; 0x3c
    5960:	2b00      	cmp	r3, #0
    5962:	d015      	beq.n	5990 <bget_main_test+0x2f6>
/home/qemu-sgx/devel/optee/optee_os/lib/libutils/isoc/bget.c:1723 (discriminator 1)
    5964:	697a      	ldr	r2, [r7, #20]
    5966:	6a3b      	ldr	r3, [r7, #32]
    5968:	4413      	add	r3, r2
    596a:	6bfa      	ldr	r2, [r7, #60]	; 0x3c
    596c:	f102 32ff 	add.w	r2, r2, #4294967295	; 0xffffffff
    5970:	ea03 0302 	and.w	r3, r3, r2
    5974:	2b00      	cmp	r3, #0
    5976:	d00b      	beq.n	5990 <bget_main_test+0x2f6>
/home/qemu-sgx/devel/optee/optee_os/lib/libutils/isoc/bget.c:1723 (discriminator 2)
    5978:	4b42      	ldr	r3, [pc, #264]	; (5a84 <bget_main_test+0x3ea>)
    597a:	447b      	add	r3, pc
    597c:	f240 62bb 	movw	r2, #1723	; 0x6bb
    5980:	4941      	ldr	r1, [pc, #260]	; (5a88 <bget_main_test+0x3ee>)
    5982:	4479      	add	r1, pc
    5984:	4841      	ldr	r0, [pc, #260]	; (5a8c <bget_main_test+0x3f2>)
    5986:	4478      	add	r0, pc
    5988:	f7fd ebac 	blx	30e4 <_assert_log@plt>
    598c:	f7fd ed1e 	blx	33cc <_assert_break@plt>
/home/qemu-sgx/devel/optee/optee_os/lib/libutils/isoc/bget.c:1725
    5990:	6b3b      	ldr	r3, [r7, #48]	; 0x30
    5992:	697a      	ldr	r2, [r7, #20]
    5994:	601a      	str	r2, [r3, #0]
    5996:	e000      	b.n	599a <bget_main_test+0x300>
/home/qemu-sgx/devel/optee/optee_os/lib/libutils/isoc/bget.c:1662
    5998:	bf00      	nop
/home/qemu-sgx/devel/optee/optee_os/lib/libutils/isoc/bget.c:1614 (discriminator 2)
    599a:	6c7b      	ldr	r3, [r7, #68]	; 0x44
    599c:	f103 0301 	add.w	r3, r3, #1
    59a0:	647b      	str	r3, [r7, #68]	; 0x44
/home/qemu-sgx/devel/optee/optee_os/lib/libutils/isoc/bget.c:1614 (discriminator 1)
    59a2:	6c7b      	ldr	r3, [r7, #68]	; 0x44
    59a4:	f644 621f 	movw	r2, #19999	; 0x4e1f
    59a8:	4293      	cmp	r3, r2
    59aa:	f77f aebb 	ble.w	5724 <bget_main_test+0x8a>
/home/qemu-sgx/devel/optee/optee_os/lib/libutils/isoc/bget.c:1731
    59ae:	4b38      	ldr	r3, [pc, #224]	; (5a90 <bget_main_test+0x3f6>)
    59b0:	447b      	add	r3, pc
    59b2:	4619      	mov	r1, r3
    59b4:	4b37      	ldr	r3, [pc, #220]	; (5a94 <bget_main_test+0x3fa>)
    59b6:	447b      	add	r3, pc
    59b8:	4618      	mov	r0, r3
    59ba:	f7ff fe1d 	bl	55f8 <stats>
/home/qemu-sgx/devel/optee/optee_os/lib/libutils/isoc/bget.c:1741
    59be:	e010      	b.n	59e2 <bget_main_test+0x348>
/home/qemu-sgx/devel/optee/optee_os/lib/libutils/isoc/bget.c:1742
    59c0:	4b35      	ldr	r3, [pc, #212]	; (5a98 <bget_main_test+0x3fe>)
    59c2:	447b      	add	r3, pc
    59c4:	681b      	ldr	r3, [r3, #0]
    59c6:	62bb      	str	r3, [r7, #40]	; 0x28
/home/qemu-sgx/devel/optee/optee_os/lib/libutils/isoc/bget.c:1744
    59c8:	6abb      	ldr	r3, [r7, #40]	; 0x28
    59ca:	681a      	ldr	r2, [r3, #0]
    59cc:	4b33      	ldr	r3, [pc, #204]	; (5a9c <bget_main_test+0x402>)
    59ce:	447b      	add	r3, pc
    59d0:	601a      	str	r2, [r3, #0]
/home/qemu-sgx/devel/optee/optee_os/lib/libutils/isoc/bget.c:1745
    59d2:	f04f 0201 	mov.w	r2, #1
    59d6:	4b32      	ldr	r3, [pc, #200]	; (5aa0 <bget_main_test+0x406>)
    59d8:	447b      	add	r3, pc
    59da:	4619      	mov	r1, r3
    59dc:	6ab8      	ldr	r0, [r7, #40]	; 0x28
    59de:	f7fd ed56 	blx	348c <brel@plt>
/home/qemu-sgx/devel/optee/optee_os/lib/libutils/isoc/bget.c:1741
    59e2:	4b30      	ldr	r3, [pc, #192]	; (5aa4 <bget_main_test+0x40a>)
    59e4:	447b      	add	r3, pc
    59e6:	681b      	ldr	r3, [r3, #0]
    59e8:	2b00      	cmp	r3, #0
    59ea:	d1e9      	bne.n	59c0 <bget_main_test+0x326>
/home/qemu-sgx/devel/optee/optee_os/lib/libutils/isoc/bget.c:1747
    59ec:	4b2e      	ldr	r3, [pc, #184]	; (5aa8 <bget_main_test+0x40e>)
    59ee:	447b      	add	r3, pc
    59f0:	4619      	mov	r1, r3
    59f2:	4b2e      	ldr	r3, [pc, #184]	; (5aac <bget_main_test+0x412>)
    59f4:	447b      	add	r3, pc
    59f6:	4618      	mov	r0, r3
    59f8:	f7ff fdfe 	bl	55f8 <stats>
/home/qemu-sgx/devel/optee/optee_os/lib/libutils/isoc/bget.c:1759
    59fc:	f04f 0300 	mov.w	r3, #0
/home/qemu-sgx/devel/optee/optee_os/lib/libutils/isoc/bget.c:1760
    5a00:	4618      	mov	r0, r3
    5a02:	f107 074c 	add.w	r7, r7, #76	; 0x4c
    5a06:	46bd      	mov	sp, r7
    5a08:	e9dd 4700 	ldrd	r4, r7, [sp]
    5a0c:	b002      	add	sp, #8
    5a0e:	f85d fb04 	ldr.w	pc, [sp], #4
    5a12:	bf00      	nop
    5a14:	0000abc8 	.word	0x0000abc8
    5a18:	0000abc4 	.word	0x0000abc4
    5a1c:	0000abb0 	.word	0x0000abb0
    5a20:	0000ab9e 	.word	0x0000ab9e
    5a24:	0000ab98 	.word	0x0000ab98
    5a28:	000080a6 	.word	0x000080a6
    5a2c:	00007c6e 	.word	0x00007c6e
    5a30:	00007f72 	.word	0x00007f72
    5a34:	0000ab76 	.word	0x0000ab76
    5a38:	0000aae8 	.word	0x0000aae8
    5a3c:	0000aada 	.word	0x0000aada
    5a40:	00007f58 	.word	0x00007f58
    5a44:	00007fee 	.word	0x00007fee
    5a48:	00007bb6 	.word	0x00007bb6
    5a4c:	00007ed2 	.word	0x00007ed2
    5a50:	0000aa20 	.word	0x0000aa20
    5a54:	0000aa0e 	.word	0x0000aa0e
    5a58:	0000aa7c 	.word	0x0000aa7c
    5a5c:	0000a9ce 	.word	0x0000a9ce
    5a60:	00007f46 	.word	0x00007f46
    5a64:	00007b0e 	.word	0x00007b0e
    5a68:	00007e4a 	.word	0x00007e4a
    5a6c:	0000aa12 	.word	0x0000aa12
    5a70:	0000aa08 	.word	0x0000aa08
    5a74:	0000a9f2 	.word	0x0000a9f2
    5a78:	0000a920 	.word	0x0000a920
    5a7c:	0000a98a 	.word	0x0000a98a
    5a80:	0000a8a2 	.word	0x0000a8a2
    5a84:	00007e0e 	.word	0x00007e0e
    5a88:	000079d6 	.word	0x000079d6
    5a8c:	00007d4e 	.word	0x00007d4e
    5a90:	0000a838 	.word	0x0000a838
    5a94:	00007d5a 	.word	0x00007d5a
    5a98:	0000a8aa 	.word	0x0000a8aa
    5a9c:	0000a89e 	.word	0x0000a89e
    5aa0:	0000a810 	.word	0x0000a810
    5aa4:	0000a888 	.word	0x0000a888
    5aa8:	0000a7fa 	.word	0x0000a7fa
    5aac:	00007d30 	.word	0x00007d30

00005ab0 <malloc_lock>:
malloc_lock():
/home/qemu-sgx/devel/optee/optee_os/lib/libutils/isoc/bget_malloc.c:176
    5ab0:	f84d 7d04 	str.w	r7, [sp, #-4]!
    5ab4:	b083      	sub	sp, #12
    5ab6:	af00      	add	r7, sp, #0
    5ab8:	6078      	str	r0, [r7, #4]
/home/qemu-sgx/devel/optee/optee_os/lib/libutils/isoc/bget_malloc.c:177
    5aba:	f04f 0300 	mov.w	r3, #0
/home/qemu-sgx/devel/optee/optee_os/lib/libutils/isoc/bget_malloc.c:178
    5abe:	4618      	mov	r0, r3
    5ac0:	f107 070c 	add.w	r7, r7, #12
    5ac4:	46bd      	mov	sp, r7
    5ac6:	f85d 7b04 	ldr.w	r7, [sp], #4
    5aca:	4770      	bx	lr

00005acc <malloc_unlock>:
malloc_unlock():
/home/qemu-sgx/devel/optee/optee_os/lib/libutils/isoc/bget_malloc.c:182
    5acc:	f84d 7d04 	str.w	r7, [sp, #-4]!
    5ad0:	b083      	sub	sp, #12
    5ad2:	af00      	add	r7, sp, #0
    5ad4:	6078      	str	r0, [r7, #4]
    5ad6:	6039      	str	r1, [r7, #0]
/home/qemu-sgx/devel/optee/optee_os/lib/libutils/isoc/bget_malloc.c:183
    5ad8:	bf00      	nop
    5ada:	f107 070c 	add.w	r7, r7, #12
    5ade:	46bd      	mov	sp, r7
    5ae0:	f85d 7b04 	ldr.w	r7, [sp], #4
    5ae4:	4770      	bx	lr

00005ae6 <print_oom>:
print_oom():
/home/qemu-sgx/devel/optee/optee_os/lib/libutils/isoc/bget_malloc.c:199
    5ae6:	f84d 7d04 	str.w	r7, [sp, #-4]!
    5aea:	b083      	sub	sp, #12
    5aec:	af00      	add	r7, sp, #0
    5aee:	6078      	str	r0, [r7, #4]
    5af0:	6039      	str	r1, [r7, #0]
/home/qemu-sgx/devel/optee/optee_os/lib/libutils/isoc/bget_malloc.c:204
    5af2:	bf00      	nop
    5af4:	f107 070c 	add.w	r7, r7, #12
    5af8:	46bd      	mov	sp, r7
    5afa:	f85d 7b04 	ldr.w	r7, [sp], #4
    5afe:	4770      	bx	lr

00005b00 <raw_malloc_return_hook>:
raw_malloc_return_hook():
/home/qemu-sgx/devel/optee/optee_os/lib/libutils/isoc/bget_malloc.c:210
    5b00:	e96d 7e02 	strd	r7, lr, [sp, #-8]!
    5b04:	b084      	sub	sp, #16
    5b06:	af00      	add	r7, sp, #0
    5b08:	60f8      	str	r0, [r7, #12]
    5b0a:	60b9      	str	r1, [r7, #8]
    5b0c:	607a      	str	r2, [r7, #4]
/home/qemu-sgx/devel/optee/optee_os/lib/libutils/isoc/bget_malloc.c:211
    5b0e:	687b      	ldr	r3, [r7, #4]
    5b10:	691b      	ldr	r3, [r3, #16]
    5b12:	461a      	mov	r2, r3
    5b14:	687b      	ldr	r3, [r7, #4]
    5b16:	6c9b      	ldr	r3, [r3, #72]	; 0x48
    5b18:	429a      	cmp	r2, r3
    5b1a:	d904      	bls.n	5b26 <raw_malloc_return_hook+0x26>
/home/qemu-sgx/devel/optee/optee_os/lib/libutils/isoc/bget_malloc.c:212
    5b1c:	687b      	ldr	r3, [r7, #4]
    5b1e:	691b      	ldr	r3, [r3, #16]
    5b20:	461a      	mov	r2, r3
    5b22:	687b      	ldr	r3, [r7, #4]
    5b24:	649a      	str	r2, [r3, #72]	; 0x48
/home/qemu-sgx/devel/optee/optee_os/lib/libutils/isoc/bget_malloc.c:214
    5b26:	68fb      	ldr	r3, [r7, #12]
    5b28:	2b00      	cmp	r3, #0
    5b2a:	d116      	bne.n	5b5a <raw_malloc_return_hook+0x5a>
/home/qemu-sgx/devel/optee/optee_os/lib/libutils/isoc/bget_malloc.c:215
    5b2c:	687b      	ldr	r3, [r7, #4]
    5b2e:	6d1b      	ldr	r3, [r3, #80]	; 0x50
    5b30:	f103 0201 	add.w	r2, r3, #1
    5b34:	687b      	ldr	r3, [r7, #4]
    5b36:	651a      	str	r2, [r3, #80]	; 0x50
/home/qemu-sgx/devel/optee/optee_os/lib/libutils/isoc/bget_malloc.c:216
    5b38:	6879      	ldr	r1, [r7, #4]
    5b3a:	68b8      	ldr	r0, [r7, #8]
    5b3c:	f7ff ffd3 	bl	5ae6 <print_oom>
/home/qemu-sgx/devel/optee/optee_os/lib/libutils/isoc/bget_malloc.c:217
    5b40:	687b      	ldr	r3, [r7, #4]
    5b42:	6d5b      	ldr	r3, [r3, #84]	; 0x54
    5b44:	68ba      	ldr	r2, [r7, #8]
    5b46:	429a      	cmp	r2, r3
    5b48:	d907      	bls.n	5b5a <raw_malloc_return_hook+0x5a>
/home/qemu-sgx/devel/optee/optee_os/lib/libutils/isoc/bget_malloc.c:218
    5b4a:	687b      	ldr	r3, [r7, #4]
    5b4c:	68ba      	ldr	r2, [r7, #8]
    5b4e:	655a      	str	r2, [r3, #84]	; 0x54
/home/qemu-sgx/devel/optee/optee_os/lib/libutils/isoc/bget_malloc.c:220
    5b50:	687b      	ldr	r3, [r7, #4]
    5b52:	691b      	ldr	r3, [r3, #16]
    5b54:	461a      	mov	r2, r3
/home/qemu-sgx/devel/optee/optee_os/lib/libutils/isoc/bget_malloc.c:219
    5b56:	687b      	ldr	r3, [r7, #4]
    5b58:	659a      	str	r2, [r3, #88]	; 0x58
/home/qemu-sgx/devel/optee/optee_os/lib/libutils/isoc/bget_malloc.c:223
    5b5a:	bf00      	nop
    5b5c:	f107 0710 	add.w	r7, r7, #16
    5b60:	46bd      	mov	sp, r7
    5b62:	bd80      	pop	{r7, pc}

00005b64 <gen_malloc_reset_stats>:
gen_malloc_reset_stats():
/home/qemu-sgx/devel/optee/optee_os/lib/libutils/isoc/bget_malloc.c:226
    5b64:	e96d 7e02 	strd	r7, lr, [sp, #-8]!
    5b68:	b084      	sub	sp, #16
    5b6a:	af00      	add	r7, sp, #0
    5b6c:	6078      	str	r0, [r7, #4]
/home/qemu-sgx/devel/optee/optee_os/lib/libutils/isoc/bget_malloc.c:227
    5b6e:	6878      	ldr	r0, [r7, #4]
    5b70:	f7ff ff9e 	bl	5ab0 <malloc_lock>
    5b74:	60f8      	str	r0, [r7, #12]
/home/qemu-sgx/devel/optee/optee_os/lib/libutils/isoc/bget_malloc.c:229
    5b76:	687b      	ldr	r3, [r7, #4]
    5b78:	f04f 0200 	mov.w	r2, #0
    5b7c:	649a      	str	r2, [r3, #72]	; 0x48
/home/qemu-sgx/devel/optee/optee_os/lib/libutils/isoc/bget_malloc.c:230
    5b7e:	687b      	ldr	r3, [r7, #4]
    5b80:	f04f 0200 	mov.w	r2, #0
    5b84:	651a      	str	r2, [r3, #80]	; 0x50
/home/qemu-sgx/devel/optee/optee_os/lib/libutils/isoc/bget_malloc.c:231
    5b86:	687b      	ldr	r3, [r7, #4]
    5b88:	f04f 0200 	mov.w	r2, #0
    5b8c:	655a      	str	r2, [r3, #84]	; 0x54
/home/qemu-sgx/devel/optee/optee_os/lib/libutils/isoc/bget_malloc.c:232
    5b8e:	687b      	ldr	r3, [r7, #4]
    5b90:	f04f 0200 	mov.w	r2, #0
    5b94:	659a      	str	r2, [r3, #88]	; 0x58
/home/qemu-sgx/devel/optee/optee_os/lib/libutils/isoc/bget_malloc.c:233
    5b96:	68f9      	ldr	r1, [r7, #12]
    5b98:	6878      	ldr	r0, [r7, #4]
    5b9a:	f7ff ff97 	bl	5acc <malloc_unlock>
/home/qemu-sgx/devel/optee/optee_os/lib/libutils/isoc/bget_malloc.c:234
    5b9e:	bf00      	nop
    5ba0:	f107 0710 	add.w	r7, r7, #16
    5ba4:	46bd      	mov	sp, r7
    5ba6:	bd80      	pop	{r7, pc}

00005ba8 <malloc_reset_stats>:
malloc_reset_stats():
/home/qemu-sgx/devel/optee/optee_os/lib/libutils/isoc/bget_malloc.c:237
    5ba8:	e96d 7e02 	strd	r7, lr, [sp, #-8]!
    5bac:	af00      	add	r7, sp, #0
/home/qemu-sgx/devel/optee/optee_os/lib/libutils/isoc/bget_malloc.c:238
    5bae:	4b04      	ldr	r3, [pc, #16]	; (5bc0 <malloc_reset_stats+0x18>)
    5bb0:	447b      	add	r3, pc
    5bb2:	4618      	mov	r0, r3
    5bb4:	f7ff ffd6 	bl	5b64 <gen_malloc_reset_stats>
/home/qemu-sgx/devel/optee/optee_os/lib/libutils/isoc/bget_malloc.c:239
    5bb8:	bf00      	nop
    5bba:	46bd      	mov	sp, r7
    5bbc:	bd80      	pop	{r7, pc}
    5bbe:	bf00      	nop
    5bc0:	0000a654 	.word	0x0000a654

00005bc4 <gen_malloc_get_stats>:
gen_malloc_get_stats():
/home/qemu-sgx/devel/optee/optee_os/lib/libutils/isoc/bget_malloc.c:243
    5bc4:	e96d 7e02 	strd	r7, lr, [sp, #-8]!
    5bc8:	b084      	sub	sp, #16
    5bca:	af00      	add	r7, sp, #0
    5bcc:	6078      	str	r0, [r7, #4]
    5bce:	6039      	str	r1, [r7, #0]
/home/qemu-sgx/devel/optee/optee_os/lib/libutils/isoc/bget_malloc.c:244
    5bd0:	6878      	ldr	r0, [r7, #4]
    5bd2:	f7ff ff6d 	bl	5ab0 <malloc_lock>
    5bd6:	60f8      	str	r0, [r7, #12]
/home/qemu-sgx/devel/optee/optee_os/lib/libutils/isoc/bget_malloc.c:246
    5bd8:	687b      	ldr	r3, [r7, #4]
    5bda:	f103 0324 	add.w	r3, r3, #36	; 0x24
    5bde:	f04f 0238 	mov.w	r2, #56	; 0x38
    5be2:	4619      	mov	r1, r3
    5be4:	6838      	ldr	r0, [r7, #0]
    5be6:	f7fe ff89 	bl	4afc <memcpy_unchecked>
/home/qemu-sgx/devel/optee/optee_os/lib/libutils/isoc/bget_malloc.c:247
    5bea:	687b      	ldr	r3, [r7, #4]
    5bec:	691b      	ldr	r3, [r3, #16]
    5bee:	461a      	mov	r2, r3
    5bf0:	683b      	ldr	r3, [r7, #0]
    5bf2:	621a      	str	r2, [r3, #32]
/home/qemu-sgx/devel/optee/optee_os/lib/libutils/isoc/bget_malloc.c:248
    5bf4:	68f9      	ldr	r1, [r7, #12]
    5bf6:	6878      	ldr	r0, [r7, #4]
    5bf8:	f7ff ff68 	bl	5acc <malloc_unlock>
/home/qemu-sgx/devel/optee/optee_os/lib/libutils/isoc/bget_malloc.c:249
    5bfc:	bf00      	nop
    5bfe:	f107 0710 	add.w	r7, r7, #16
    5c02:	46bd      	mov	sp, r7
    5c04:	bd80      	pop	{r7, pc}

00005c06 <malloc_get_stats>:
malloc_get_stats():
/home/qemu-sgx/devel/optee/optee_os/lib/libutils/isoc/bget_malloc.c:252
    5c06:	e96d 7e02 	strd	r7, lr, [sp, #-8]!
    5c0a:	b082      	sub	sp, #8
    5c0c:	af00      	add	r7, sp, #0
    5c0e:	6078      	str	r0, [r7, #4]
/home/qemu-sgx/devel/optee/optee_os/lib/libutils/isoc/bget_malloc.c:253
    5c10:	6879      	ldr	r1, [r7, #4]
    5c12:	4b05      	ldr	r3, [pc, #20]	; (5c28 <malloc_get_stats+0x22>)
    5c14:	447b      	add	r3, pc
    5c16:	4618      	mov	r0, r3
    5c18:	f7ff ffd4 	bl	5bc4 <gen_malloc_get_stats>
/home/qemu-sgx/devel/optee/optee_os/lib/libutils/isoc/bget_malloc.c:254
    5c1c:	bf00      	nop
    5c1e:	f107 0708 	add.w	r7, r7, #8
    5c22:	46bd      	mov	sp, r7
    5c24:	bd80      	pop	{r7, pc}
    5c26:	bf00      	nop
    5c28:	0000a5f0 	.word	0x0000a5f0

00005c2c <raw_malloc_validate_pools>:
raw_malloc_validate_pools():
/home/qemu-sgx/devel/optee/optee_os/lib/libutils/isoc/bget_malloc.c:277
    5c2c:	f84d 7d04 	str.w	r7, [sp, #-4]!
    5c30:	b083      	sub	sp, #12
    5c32:	af00      	add	r7, sp, #0
    5c34:	6078      	str	r0, [r7, #4]
/home/qemu-sgx/devel/optee/optee_os/lib/libutils/isoc/bget_malloc.c:278
    5c36:	bf00      	nop
    5c38:	f107 070c 	add.w	r7, r7, #12
    5c3c:	46bd      	mov	sp, r7
    5c3e:	f85d 7b04 	ldr.w	r7, [sp], #4
    5c42:	4770      	bx	lr

00005c44 <bpool_foreach_iterator_init>:
bpool_foreach_iterator_init():
/home/qemu-sgx/devel/optee/optee_os/lib/libutils/isoc/bget_malloc.c:288
    5c44:	f84d 7d04 	str.w	r7, [sp, #-4]!
    5c48:	b083      	sub	sp, #12
    5c4a:	af00      	add	r7, sp, #0
    5c4c:	6078      	str	r0, [r7, #4]
    5c4e:	6039      	str	r1, [r7, #0]
/home/qemu-sgx/devel/optee/optee_os/lib/libutils/isoc/bget_malloc.c:289
    5c50:	683b      	ldr	r3, [r7, #0]
    5c52:	f04f 0200 	mov.w	r2, #0
    5c56:	605a      	str	r2, [r3, #4]
/home/qemu-sgx/devel/optee/optee_os/lib/libutils/isoc/bget_malloc.c:290
    5c58:	687b      	ldr	r3, [r7, #4]
    5c5a:	69db      	ldr	r3, [r3, #28]
    5c5c:	681a      	ldr	r2, [r3, #0]
    5c5e:	683b      	ldr	r3, [r7, #0]
    5c60:	601a      	str	r2, [r3, #0]
/home/qemu-sgx/devel/optee/optee_os/lib/libutils/isoc/bget_malloc.c:291
    5c62:	bf00      	nop
    5c64:	f107 070c 	add.w	r7, r7, #12
    5c68:	46bd      	mov	sp, r7
    5c6a:	f85d 7b04 	ldr.w	r7, [sp], #4
    5c6e:	4770      	bx	lr

00005c70 <bpool_foreach_pool>:
bpool_foreach_pool():
/home/qemu-sgx/devel/optee/optee_os/lib/libutils/isoc/bget_malloc.c:295
    5c70:	e96d 7e02 	strd	r7, lr, [sp, #-8]!
    5c74:	b086      	sub	sp, #24
    5c76:	af00      	add	r7, sp, #0
    5c78:	60f8      	str	r0, [r7, #12]
    5c7a:	60b9      	str	r1, [r7, #8]
    5c7c:	607a      	str	r2, [r7, #4]
    5c7e:	603b      	str	r3, [r7, #0]
/home/qemu-sgx/devel/optee/optee_os/lib/libutils/isoc/bget_malloc.c:296
    5c80:	68fb      	ldr	r3, [r7, #12]
    5c82:	681b      	ldr	r3, [r3, #0]
    5c84:	613b      	str	r3, [r7, #16]
/home/qemu-sgx/devel/optee/optee_os/lib/libutils/isoc/bget_malloc.c:297
    5c86:	693b      	ldr	r3, [r7, #16]
    5c88:	685b      	ldr	r3, [r3, #4]
    5c8a:	617b      	str	r3, [r7, #20]
/home/qemu-sgx/devel/optee/optee_os/lib/libutils/isoc/bget_malloc.c:299
    5c8c:	697b      	ldr	r3, [r7, #20]
    5c8e:	f1b3 4f00 	cmp.w	r3, #2147483648	; 0x80000000
    5c92:	d102      	bne.n	5c9a <bpool_foreach_pool+0x2a>
/home/qemu-sgx/devel/optee/optee_os/lib/libutils/isoc/bget_malloc.c:300
    5c94:	f04f 0300 	mov.w	r3, #0
    5c98:	e044      	b.n	5d24 <bpool_foreach_pool+0xb4>
/home/qemu-sgx/devel/optee/optee_os/lib/libutils/isoc/bget_malloc.c:302
    5c9a:	697b      	ldr	r3, [r7, #20]
    5c9c:	2b00      	cmp	r3, #0
    5c9e:	da08      	bge.n	5cb2 <bpool_foreach_pool+0x42>
/home/qemu-sgx/devel/optee/optee_os/lib/libutils/isoc/bget_malloc.c:304
    5ca0:	697b      	ldr	r3, [r7, #20]
    5ca2:	f1c3 0300 	rsb	r3, r3, #0
    5ca6:	617b      	str	r3, [r7, #20]
/home/qemu-sgx/devel/optee/optee_os/lib/libutils/isoc/bget_malloc.c:306
    5ca8:	683b      	ldr	r3, [r7, #0]
    5caa:	f04f 0200 	mov.w	r2, #0
    5cae:	701a      	strb	r2, [r3, #0]
    5cb0:	e027      	b.n	5d02 <bpool_foreach_pool+0x92>
/home/qemu-sgx/devel/optee/optee_os/lib/libutils/isoc/bget_malloc.c:309
    5cb2:	683b      	ldr	r3, [r7, #0]
    5cb4:	f04f 0201 	mov.w	r2, #1
    5cb8:	701a      	strb	r2, [r3, #0]
/home/qemu-sgx/devel/optee/optee_os/lib/libutils/isoc/bget_malloc.c:312
    5cba:	693b      	ldr	r3, [r7, #16]
    5cbc:	68db      	ldr	r3, [r3, #12]
    5cbe:	689b      	ldr	r3, [r3, #8]
    5cc0:	693a      	ldr	r2, [r7, #16]
    5cc2:	429a      	cmp	r2, r3
    5cc4:	d00b      	beq.n	5cde <bpool_foreach_pool+0x6e>
/home/qemu-sgx/devel/optee/optee_os/lib/libutils/isoc/bget_malloc.c:312 (discriminator 1)
    5cc6:	4b1a      	ldr	r3, [pc, #104]	; (5d30 <bpool_foreach_pool+0xc0>)
    5cc8:	447b      	add	r3, pc
    5cca:	f44f 729c 	mov.w	r2, #312	; 0x138
    5cce:	4919      	ldr	r1, [pc, #100]	; (5d34 <bpool_foreach_pool+0xc4>)
    5cd0:	4479      	add	r1, pc
    5cd2:	4819      	ldr	r0, [pc, #100]	; (5d38 <bpool_foreach_pool+0xc8>)
    5cd4:	4478      	add	r0, pc
    5cd6:	f7fd ea06 	blx	30e4 <_assert_log@plt>
    5cda:	f7fd eb78 	blx	33cc <_assert_break@plt>
/home/qemu-sgx/devel/optee/optee_os/lib/libutils/isoc/bget_malloc.c:313
    5cde:	693b      	ldr	r3, [r7, #16]
    5ce0:	689b      	ldr	r3, [r3, #8]
    5ce2:	68db      	ldr	r3, [r3, #12]
    5ce4:	693a      	ldr	r2, [r7, #16]
    5ce6:	429a      	cmp	r2, r3
    5ce8:	d00b      	beq.n	5d02 <bpool_foreach_pool+0x92>
/home/qemu-sgx/devel/optee/optee_os/lib/libutils/isoc/bget_malloc.c:313 (discriminator 1)
    5cea:	4b14      	ldr	r3, [pc, #80]	; (5d3c <bpool_foreach_pool+0xcc>)
    5cec:	447b      	add	r3, pc
    5cee:	f240 1239 	movw	r2, #313	; 0x139
    5cf2:	4913      	ldr	r1, [pc, #76]	; (5d40 <bpool_foreach_pool+0xd0>)
    5cf4:	4479      	add	r1, pc
    5cf6:	4813      	ldr	r0, [pc, #76]	; (5d44 <bpool_foreach_pool+0xd4>)
    5cf8:	4478      	add	r0, pc
    5cfa:	f7fd e9f4 	blx	30e4 <_assert_log@plt>
    5cfe:	f7fd eb66 	blx	33cc <_assert_break@plt>
/home/qemu-sgx/devel/optee/optee_os/lib/libutils/isoc/bget_malloc.c:316
    5d02:	693b      	ldr	r3, [r7, #16]
    5d04:	f103 0208 	add.w	r2, r3, #8
    5d08:	68bb      	ldr	r3, [r7, #8]
    5d0a:	601a      	str	r2, [r3, #0]
/home/qemu-sgx/devel/optee/optee_os/lib/libutils/isoc/bget_malloc.c:317
    5d0c:	697b      	ldr	r3, [r7, #20]
    5d0e:	f1a3 0208 	sub.w	r2, r3, #8
    5d12:	687b      	ldr	r3, [r7, #4]
    5d14:	601a      	str	r2, [r3, #0]
/home/qemu-sgx/devel/optee/optee_os/lib/libutils/isoc/bget_malloc.c:319
    5d16:	697b      	ldr	r3, [r7, #20]
    5d18:	693a      	ldr	r2, [r7, #16]
    5d1a:	441a      	add	r2, r3
    5d1c:	68fb      	ldr	r3, [r7, #12]
    5d1e:	601a      	str	r2, [r3, #0]
/home/qemu-sgx/devel/optee/optee_os/lib/libutils/isoc/bget_malloc.c:320
    5d20:	f04f 0301 	mov.w	r3, #1
/home/qemu-sgx/devel/optee/optee_os/lib/libutils/isoc/bget_malloc.c:321
    5d24:	4618      	mov	r0, r3
    5d26:	f107 0718 	add.w	r7, r7, #24
    5d2a:	46bd      	mov	sp, r7
    5d2c:	bd80      	pop	{r7, pc}
    5d2e:	bf00      	nop
    5d30:	00007ad0 	.word	0x00007ad0
    5d34:	00007a64 	.word	0x00007a64
    5d38:	000076cc 	.word	0x000076cc
    5d3c:	00007aac 	.word	0x00007aac
    5d40:	00007a40 	.word	0x00007a40
    5d44:	000076c4 	.word	0x000076c4

00005d48 <bpool_foreach>:
bpool_foreach():
/home/qemu-sgx/devel/optee/optee_os/lib/libutils/isoc/bget_malloc.c:325
    5d48:	e96d 7e02 	strd	r7, lr, [sp, #-8]!
    5d4c:	b086      	sub	sp, #24
    5d4e:	af00      	add	r7, sp, #0
    5d50:	60f8      	str	r0, [r7, #12]
    5d52:	60b9      	str	r1, [r7, #8]
    5d54:	607a      	str	r2, [r7, #4]
/home/qemu-sgx/devel/optee/optee_os/lib/libutils/isoc/bget_malloc.c:330
    5d56:	f107 0313 	add.w	r3, r7, #19
    5d5a:	f107 0214 	add.w	r2, r7, #20
    5d5e:	6879      	ldr	r1, [r7, #4]
    5d60:	68b8      	ldr	r0, [r7, #8]
    5d62:	f7ff ff85 	bl	5c70 <bpool_foreach_pool>
    5d66:	4603      	mov	r3, r0
    5d68:	2b00      	cmp	r3, #0
    5d6a:	d005      	beq.n	5d78 <bpool_foreach+0x30>
/home/qemu-sgx/devel/optee/optee_os/lib/libutils/isoc/bget_malloc.c:331
    5d6c:	7cfb      	ldrb	r3, [r7, #19]
    5d6e:	2b00      	cmp	r3, #0
    5d70:	d11e      	bne.n	5db0 <bpool_foreach+0x68>
/home/qemu-sgx/devel/optee/optee_os/lib/libutils/isoc/bget_malloc.c:333
    5d72:	f04f 0301 	mov.w	r3, #1
    5d76:	e01d      	b.n	5db4 <bpool_foreach+0x6c>
/home/qemu-sgx/devel/optee/optee_os/lib/libutils/isoc/bget_malloc.c:336
    5d78:	68bb      	ldr	r3, [r7, #8]
    5d7a:	685b      	ldr	r3, [r3, #4]
    5d7c:	f103 0201 	add.w	r2, r3, #1
    5d80:	68fb      	ldr	r3, [r7, #12]
    5d82:	6a1b      	ldr	r3, [r3, #32]
    5d84:	429a      	cmp	r2, r3
    5d86:	d302      	bcc.n	5d8e <bpool_foreach+0x46>
/home/qemu-sgx/devel/optee/optee_os/lib/libutils/isoc/bget_malloc.c:337
    5d88:	f04f 0300 	mov.w	r3, #0
    5d8c:	e012      	b.n	5db4 <bpool_foreach+0x6c>
/home/qemu-sgx/devel/optee/optee_os/lib/libutils/isoc/bget_malloc.c:339
    5d8e:	68bb      	ldr	r3, [r7, #8]
    5d90:	685b      	ldr	r3, [r3, #4]
    5d92:	f103 0201 	add.w	r2, r3, #1
    5d96:	68bb      	ldr	r3, [r7, #8]
    5d98:	605a      	str	r2, [r3, #4]
/home/qemu-sgx/devel/optee/optee_os/lib/libutils/isoc/bget_malloc.c:340
    5d9a:	68fb      	ldr	r3, [r7, #12]
    5d9c:	69da      	ldr	r2, [r3, #28]
    5d9e:	68bb      	ldr	r3, [r7, #8]
    5da0:	685b      	ldr	r3, [r3, #4]
    5da2:	ea4f 03c3 	mov.w	r3, r3, lsl #3
    5da6:	4413      	add	r3, r2
    5da8:	681a      	ldr	r2, [r3, #0]
    5daa:	68bb      	ldr	r3, [r7, #8]
    5dac:	601a      	str	r2, [r3, #0]
    5dae:	e7d2      	b.n	5d56 <bpool_foreach+0xe>
/home/qemu-sgx/devel/optee/optee_os/lib/libutils/isoc/bget_malloc.c:332
    5db0:	bf00      	nop
/home/qemu-sgx/devel/optee/optee_os/lib/libutils/isoc/bget_malloc.c:326
    5db2:	e7d0      	b.n	5d56 <bpool_foreach+0xe>
/home/qemu-sgx/devel/optee/optee_os/lib/libutils/isoc/bget_malloc.c:342
    5db4:	4618      	mov	r0, r3
    5db6:	f107 0718 	add.w	r7, r7, #24
    5dba:	46bd      	mov	sp, r7
    5dbc:	bd80      	pop	{r7, pc}

00005dbe <raw_memalign>:
raw_memalign():
/home/qemu-sgx/devel/optee/optee_os/lib/libutils/isoc/bget_malloc.c:351
    5dbe:	e96d 7e02 	strd	r7, lr, [sp, #-8]!
    5dc2:	b086      	sub	sp, #24
    5dc4:	af00      	add	r7, sp, #0
    5dc6:	60f8      	str	r0, [r7, #12]
    5dc8:	60b9      	str	r1, [r7, #8]
    5dca:	607a      	str	r2, [r7, #4]
    5dcc:	603b      	str	r3, [r7, #0]
/home/qemu-sgx/devel/optee/optee_os/lib/libutils/isoc/bget_malloc.c:352
    5dce:	f04f 0300 	mov.w	r3, #0
    5dd2:	617b      	str	r3, [r7, #20]
/home/qemu-sgx/devel/optee/optee_os/lib/libutils/isoc/bget_malloc.c:355
    5dd4:	687b      	ldr	r3, [r7, #4]
    5dd6:	2b00      	cmp	r3, #0
    5dd8:	d00b      	beq.n	5df2 <raw_memalign+0x34>
/home/qemu-sgx/devel/optee/optee_os/lib/libutils/isoc/bget_malloc.c:355 (discriminator 1)
    5dda:	687b      	ldr	r3, [r7, #4]
    5ddc:	2b00      	cmp	r3, #0
    5dde:	d008      	beq.n	5df2 <raw_memalign+0x34>
/home/qemu-sgx/devel/optee/optee_os/lib/libutils/isoc/bget_malloc.c:355 (discriminator 2)
    5de0:	687b      	ldr	r3, [r7, #4]
    5de2:	f1c3 0200 	rsb	r2, r3, #0
    5de6:	687b      	ldr	r3, [r7, #4]
    5de8:	ea03 0302 	and.w	r3, r3, r2
    5dec:	687a      	ldr	r2, [r7, #4]
    5dee:	429a      	cmp	r2, r3
    5df0:	d002      	beq.n	5df8 <raw_memalign+0x3a>
/home/qemu-sgx/devel/optee/optee_os/lib/libutils/isoc/bget_malloc.c:356
    5df2:	f04f 0300 	mov.w	r3, #0
    5df6:	e02b      	b.n	5e50 <raw_memalign+0x92>
/home/qemu-sgx/devel/optee/optee_os/lib/libutils/isoc/bget_malloc.c:358
    5df8:	6a38      	ldr	r0, [r7, #32]
    5dfa:	f7ff ff17 	bl	5c2c <raw_malloc_validate_pools>
/home/qemu-sgx/devel/optee/optee_os/lib/libutils/isoc/bget_malloc.c:361
    5dfe:	f04f 0100 	mov.w	r1, #0
    5e02:	683a      	ldr	r2, [r7, #0]
    5e04:	68bb      	ldr	r3, [r7, #8]
    5e06:	4413      	add	r3, r2
    5e08:	2b00      	cmp	r3, #0
    5e0a:	db02      	blt.n	5e12 <raw_memalign+0x54>
    5e0c:	68ba      	ldr	r2, [r7, #8]
    5e0e:	4293      	cmp	r3, r2
    5e10:	d201      	bcs.n	5e16 <raw_memalign+0x58>
    5e12:	f04f 0101 	mov.w	r1, #1
    5e16:	613b      	str	r3, [r7, #16]
    5e18:	460b      	mov	r3, r1
    5e1a:	f003 0301 	and.w	r3, r3, #1
    5e1e:	b2db      	uxtb	r3, r3
    5e20:	2b00      	cmp	r3, #0
    5e22:	d10e      	bne.n	5e42 <raw_memalign+0x84>
/home/qemu-sgx/devel/optee/optee_os/lib/libutils/isoc/bget_malloc.c:365
    5e24:	693b      	ldr	r3, [r7, #16]
    5e26:	2b00      	cmp	r3, #0
    5e28:	d103      	bne.n	5e32 <raw_memalign+0x74>
/home/qemu-sgx/devel/optee/optee_os/lib/libutils/isoc/bget_malloc.c:366
    5e2a:	693b      	ldr	r3, [r7, #16]
    5e2c:	f103 0301 	add.w	r3, r3, #1
    5e30:	613b      	str	r3, [r7, #16]
/home/qemu-sgx/devel/optee/optee_os/lib/libutils/isoc/bget_malloc.c:368
    5e32:	6878      	ldr	r0, [r7, #4]
    5e34:	68f9      	ldr	r1, [r7, #12]
    5e36:	693a      	ldr	r2, [r7, #16]
    5e38:	6a3b      	ldr	r3, [r7, #32]
    5e3a:	f7fd eab0 	blx	339c <bget@plt>
    5e3e:	6178      	str	r0, [r7, #20]
    5e40:	e000      	b.n	5e44 <raw_memalign+0x86>
/home/qemu-sgx/devel/optee/optee_os/lib/libutils/isoc/bget_malloc.c:362
    5e42:	bf00      	nop
/home/qemu-sgx/devel/optee/optee_os/lib/libutils/isoc/bget_malloc.c:370
    5e44:	6a3a      	ldr	r2, [r7, #32]
    5e46:	6839      	ldr	r1, [r7, #0]
    5e48:	6978      	ldr	r0, [r7, #20]
    5e4a:	f7ff fe59 	bl	5b00 <raw_malloc_return_hook>
/home/qemu-sgx/devel/optee/optee_os/lib/libutils/isoc/bget_malloc.c:372
    5e4e:	697b      	ldr	r3, [r7, #20]
/home/qemu-sgx/devel/optee/optee_os/lib/libutils/isoc/bget_malloc.c:373 (discriminator 1)
    5e50:	4618      	mov	r0, r3
    5e52:	f107 0718 	add.w	r7, r7, #24
    5e56:	46bd      	mov	sp, r7
    5e58:	bd80      	pop	{r7, pc}

00005e5a <raw_malloc>:
raw_malloc():
/home/qemu-sgx/devel/optee/optee_os/lib/libutils/isoc/bget_malloc.c:377
    5e5a:	e96d 7e02 	strd	r7, lr, [sp, #-8]!
    5e5e:	b086      	sub	sp, #24
    5e60:	af02      	add	r7, sp, #8
    5e62:	60f8      	str	r0, [r7, #12]
    5e64:	60b9      	str	r1, [r7, #8]
    5e66:	607a      	str	r2, [r7, #4]
    5e68:	603b      	str	r3, [r7, #0]
/home/qemu-sgx/devel/optee/optee_os/lib/libutils/isoc/bget_malloc.c:382
    5e6a:	683b      	ldr	r3, [r7, #0]
    5e6c:	9300      	str	r3, [sp, #0]
    5e6e:	687b      	ldr	r3, [r7, #4]
    5e70:	f04f 0208 	mov.w	r2, #8
    5e74:	68b9      	ldr	r1, [r7, #8]
    5e76:	68f8      	ldr	r0, [r7, #12]
    5e78:	f7ff ffa1 	bl	5dbe <raw_memalign>
    5e7c:	4603      	mov	r3, r0
/home/qemu-sgx/devel/optee/optee_os/lib/libutils/isoc/bget_malloc.c:383
    5e7e:	4618      	mov	r0, r3
    5e80:	f107 0710 	add.w	r7, r7, #16
    5e84:	46bd      	mov	sp, r7
    5e86:	bd80      	pop	{r7, pc}

00005e88 <raw_free>:
raw_free():
/home/qemu-sgx/devel/optee/optee_os/lib/libutils/isoc/bget_malloc.c:386
    5e88:	e96d 7e02 	strd	r7, lr, [sp, #-8]!
    5e8c:	b084      	sub	sp, #16
    5e8e:	af00      	add	r7, sp, #0
    5e90:	60f8      	str	r0, [r7, #12]
    5e92:	60b9      	str	r1, [r7, #8]
    5e94:	4613      	mov	r3, r2
    5e96:	71fb      	strb	r3, [r7, #7]
/home/qemu-sgx/devel/optee/optee_os/lib/libutils/isoc/bget_malloc.c:387
    5e98:	68b8      	ldr	r0, [r7, #8]
    5e9a:	f7ff fec7 	bl	5c2c <raw_malloc_validate_pools>
/home/qemu-sgx/devel/optee/optee_os/lib/libutils/isoc/bget_malloc.c:389
    5e9e:	68fb      	ldr	r3, [r7, #12]
    5ea0:	2b00      	cmp	r3, #0
    5ea2:	d005      	beq.n	5eb0 <raw_free+0x28>
/home/qemu-sgx/devel/optee/optee_os/lib/libutils/isoc/bget_malloc.c:390
    5ea4:	68bb      	ldr	r3, [r7, #8]
    5ea6:	79fa      	ldrb	r2, [r7, #7]
    5ea8:	4619      	mov	r1, r3
    5eaa:	68f8      	ldr	r0, [r7, #12]
    5eac:	f7fd eaee 	blx	348c <brel@plt>
/home/qemu-sgx/devel/optee/optee_os/lib/libutils/isoc/bget_malloc.c:391
    5eb0:	bf00      	nop
    5eb2:	f107 0710 	add.w	r7, r7, #16
    5eb6:	46bd      	mov	sp, r7
    5eb8:	bd80      	pop	{r7, pc}

00005eba <raw_calloc>:
raw_calloc():
/home/qemu-sgx/devel/optee/optee_os/lib/libutils/isoc/bget_malloc.c:395
    5eba:	e96d 4504 	strd	r4, r5, [sp, #-16]!
    5ebe:	e9cd 7e02 	strd	r7, lr, [sp, #8]
    5ec2:	b086      	sub	sp, #24
    5ec4:	af00      	add	r7, sp, #0
    5ec6:	60f8      	str	r0, [r7, #12]
    5ec8:	60b9      	str	r1, [r7, #8]
    5eca:	607a      	str	r2, [r7, #4]
    5ecc:	603b      	str	r3, [r7, #0]
/home/qemu-sgx/devel/optee/optee_os/lib/libutils/isoc/bget_malloc.c:396
    5ece:	f04f 0300 	mov.w	r3, #0
    5ed2:	617b      	str	r3, [r7, #20]
/home/qemu-sgx/devel/optee/optee_os/lib/libutils/isoc/bget_malloc.c:399
    5ed4:	6ab8      	ldr	r0, [r7, #40]	; 0x28
    5ed6:	f7ff fea9 	bl	5c2c <raw_malloc_validate_pools>
/home/qemu-sgx/devel/optee/optee_os/lib/libutils/isoc/bget_malloc.c:402
    5eda:	f04f 0100 	mov.w	r1, #0
    5ede:	687a      	ldr	r2, [r7, #4]
    5ee0:	683b      	ldr	r3, [r7, #0]
    5ee2:	fba2 4503 	umull	r4, r5, r2, r3
    5ee6:	f04f 0200 	mov.w	r2, #0
    5eea:	f04f 0300 	mov.w	r3, #0
    5eee:	462a      	mov	r2, r5
    5ef0:	f04f 0300 	mov.w	r3, #0
    5ef4:	2a00      	cmp	r2, #0
    5ef6:	d001      	beq.n	5efc <raw_calloc+0x42>
    5ef8:	f04f 0101 	mov.w	r1, #1
    5efc:	2c00      	cmp	r4, #0
    5efe:	da01      	bge.n	5f04 <raw_calloc+0x4a>
    5f00:	f04f 0101 	mov.w	r1, #1
    5f04:	4623      	mov	r3, r4
    5f06:	613b      	str	r3, [r7, #16]
    5f08:	460b      	mov	r3, r1
    5f0a:	f003 0301 	and.w	r3, r3, #1
    5f0e:	b2db      	uxtb	r3, r3
    5f10:	2b00      	cmp	r3, #0
    5f12:	d122      	bne.n	5f5a <raw_calloc+0xa0>
/home/qemu-sgx/devel/optee/optee_os/lib/libutils/isoc/bget_malloc.c:404
    5f14:	693a      	ldr	r2, [r7, #16]
    5f16:	f04f 0000 	mov.w	r0, #0
    5f1a:	68bb      	ldr	r3, [r7, #8]
    5f1c:	4413      	add	r3, r2
    5f1e:	f103 4100 	add.w	r1, r3, #2147483648	; 0x80000000
    5f22:	68ba      	ldr	r2, [r7, #8]
    5f24:	4291      	cmp	r1, r2
    5f26:	d201      	bcs.n	5f2c <raw_calloc+0x72>
    5f28:	f04f 0001 	mov.w	r0, #1
    5f2c:	613b      	str	r3, [r7, #16]
    5f2e:	4603      	mov	r3, r0
    5f30:	f003 0301 	and.w	r3, r3, #1
    5f34:	b2db      	uxtb	r3, r3
    5f36:	2b00      	cmp	r3, #0
    5f38:	d111      	bne.n	5f5e <raw_calloc+0xa4>
/home/qemu-sgx/devel/optee/optee_os/lib/libutils/isoc/bget_malloc.c:408
    5f3a:	693b      	ldr	r3, [r7, #16]
    5f3c:	2b00      	cmp	r3, #0
    5f3e:	d103      	bne.n	5f48 <raw_calloc+0x8e>
/home/qemu-sgx/devel/optee/optee_os/lib/libutils/isoc/bget_malloc.c:409
    5f40:	693b      	ldr	r3, [r7, #16]
    5f42:	f103 0301 	add.w	r3, r3, #1
    5f46:	613b      	str	r3, [r7, #16]
/home/qemu-sgx/devel/optee/optee_os/lib/libutils/isoc/bget_malloc.c:411
    5f48:	68f9      	ldr	r1, [r7, #12]
    5f4a:	693a      	ldr	r2, [r7, #16]
    5f4c:	6abb      	ldr	r3, [r7, #40]	; 0x28
    5f4e:	f04f 0000 	mov.w	r0, #0
    5f52:	f7fd e8b6 	blx	30c0 <bgetz@plt>
    5f56:	6178      	str	r0, [r7, #20]
    5f58:	e002      	b.n	5f60 <raw_calloc+0xa6>
/home/qemu-sgx/devel/optee/optee_os/lib/libutils/isoc/bget_malloc.c:403
    5f5a:	bf00      	nop
    5f5c:	e000      	b.n	5f60 <raw_calloc+0xa6>
/home/qemu-sgx/devel/optee/optee_os/lib/libutils/isoc/bget_malloc.c:405
    5f5e:	bf00      	nop
/home/qemu-sgx/devel/optee/optee_os/lib/libutils/isoc/bget_malloc.c:413
    5f60:	687b      	ldr	r3, [r7, #4]
    5f62:	683a      	ldr	r2, [r7, #0]
    5f64:	fb02 f303 	mul.w	r3, r2, r3
    5f68:	6aba      	ldr	r2, [r7, #40]	; 0x28
    5f6a:	4619      	mov	r1, r3
    5f6c:	6978      	ldr	r0, [r7, #20]
    5f6e:	f7ff fdc7 	bl	5b00 <raw_malloc_return_hook>
/home/qemu-sgx/devel/optee/optee_os/lib/libutils/isoc/bget_malloc.c:415
    5f72:	697b      	ldr	r3, [r7, #20]
/home/qemu-sgx/devel/optee/optee_os/lib/libutils/isoc/bget_malloc.c:416
    5f74:	4618      	mov	r0, r3
    5f76:	f107 0718 	add.w	r7, r7, #24
    5f7a:	46bd      	mov	sp, r7
    5f7c:	e9dd 4500 	ldrd	r4, r5, [sp]
    5f80:	b002      	add	sp, #8
    5f82:	bd80      	pop	{r7, pc}

00005f84 <raw_realloc>:
raw_realloc():
/home/qemu-sgx/devel/optee/optee_os/lib/libutils/isoc/bget_malloc.c:420
    5f84:	e96d 7e02 	strd	r7, lr, [sp, #-8]!
    5f88:	b088      	sub	sp, #32
    5f8a:	af02      	add	r7, sp, #8
    5f8c:	60f8      	str	r0, [r7, #12]
    5f8e:	60b9      	str	r1, [r7, #8]
    5f90:	607a      	str	r2, [r7, #4]
    5f92:	603b      	str	r3, [r7, #0]
/home/qemu-sgx/devel/optee/optee_os/lib/libutils/isoc/bget_malloc.c:421
    5f94:	f04f 0300 	mov.w	r3, #0
    5f98:	617b      	str	r3, [r7, #20]
/home/qemu-sgx/devel/optee/optee_os/lib/libutils/isoc/bget_malloc.c:425
    5f9a:	f04f 0100 	mov.w	r1, #0
    5f9e:	683a      	ldr	r2, [r7, #0]
    5fa0:	68bb      	ldr	r3, [r7, #8]
    5fa2:	4413      	add	r3, r2
    5fa4:	2b00      	cmp	r3, #0
    5fa6:	db02      	blt.n	5fae <raw_realloc+0x2a>
    5fa8:	68ba      	ldr	r2, [r7, #8]
    5faa:	4293      	cmp	r3, r2
    5fac:	d201      	bcs.n	5fb2 <raw_realloc+0x2e>
    5fae:	f04f 0101 	mov.w	r1, #1
    5fb2:	613b      	str	r3, [r7, #16]
    5fb4:	460b      	mov	r3, r1
    5fb6:	f003 0301 	and.w	r3, r3, #1
    5fba:	b2db      	uxtb	r3, r3
    5fbc:	2b00      	cmp	r3, #0
    5fbe:	d129      	bne.n	6014 <raw_realloc+0x90>
/home/qemu-sgx/devel/optee/optee_os/lib/libutils/isoc/bget_malloc.c:427
    5fc0:	693a      	ldr	r2, [r7, #16]
    5fc2:	f04f 0000 	mov.w	r0, #0
    5fc6:	687b      	ldr	r3, [r7, #4]
    5fc8:	4413      	add	r3, r2
    5fca:	f103 4100 	add.w	r1, r3, #2147483648	; 0x80000000
    5fce:	687a      	ldr	r2, [r7, #4]
    5fd0:	4291      	cmp	r1, r2
    5fd2:	d201      	bcs.n	5fd8 <raw_realloc+0x54>
    5fd4:	f04f 0001 	mov.w	r0, #1
    5fd8:	613b      	str	r3, [r7, #16]
    5fda:	4603      	mov	r3, r0
    5fdc:	f003 0301 	and.w	r3, r3, #1
    5fe0:	b2db      	uxtb	r3, r3
    5fe2:	2b00      	cmp	r3, #0
    5fe4:	d118      	bne.n	6018 <raw_realloc+0x94>
/home/qemu-sgx/devel/optee/optee_os/lib/libutils/isoc/bget_malloc.c:430
    5fe6:	6a38      	ldr	r0, [r7, #32]
    5fe8:	f7ff fe20 	bl	5c2c <raw_malloc_validate_pools>
/home/qemu-sgx/devel/optee/optee_os/lib/libutils/isoc/bget_malloc.c:433
    5fec:	693b      	ldr	r3, [r7, #16]
    5fee:	2b00      	cmp	r3, #0
    5ff0:	d103      	bne.n	5ffa <raw_realloc+0x76>
/home/qemu-sgx/devel/optee/optee_os/lib/libutils/isoc/bget_malloc.c:434
    5ff2:	693b      	ldr	r3, [r7, #16]
    5ff4:	f103 0301 	add.w	r3, r3, #1
    5ff8:	613b      	str	r3, [r7, #16]
/home/qemu-sgx/devel/optee/optee_os/lib/libutils/isoc/bget_malloc.c:436
    5ffa:	693a      	ldr	r2, [r7, #16]
    5ffc:	6a3b      	ldr	r3, [r7, #32]
    5ffe:	9300      	str	r3, [sp, #0]
    6000:	4613      	mov	r3, r2
    6002:	f04f 0200 	mov.w	r2, #0
    6006:	f04f 0100 	mov.w	r1, #0
    600a:	68f8      	ldr	r0, [r7, #12]
    600c:	f7fd e840 	blx	3090 <bgetr@plt>
    6010:	6178      	str	r0, [r7, #20]
    6012:	e002      	b.n	601a <raw_realloc+0x96>
/home/qemu-sgx/devel/optee/optee_os/lib/libutils/isoc/bget_malloc.c:426
    6014:	bf00      	nop
    6016:	e000      	b.n	601a <raw_realloc+0x96>
/home/qemu-sgx/devel/optee/optee_os/lib/libutils/isoc/bget_malloc.c:428
    6018:	bf00      	nop
/home/qemu-sgx/devel/optee/optee_os/lib/libutils/isoc/bget_malloc.c:438
    601a:	6a3a      	ldr	r2, [r7, #32]
    601c:	6839      	ldr	r1, [r7, #0]
    601e:	6978      	ldr	r0, [r7, #20]
    6020:	f7ff fd6e 	bl	5b00 <raw_malloc_return_hook>
/home/qemu-sgx/devel/optee/optee_os/lib/libutils/isoc/bget_malloc.c:440
    6024:	697b      	ldr	r3, [r7, #20]
/home/qemu-sgx/devel/optee/optee_os/lib/libutils/isoc/bget_malloc.c:441
    6026:	4618      	mov	r0, r3
    6028:	f107 0718 	add.w	r7, r7, #24
    602c:	46bd      	mov	sp, r7
    602e:	bd80      	pop	{r7, pc}

00006030 <bget_buf_size>:
bget_buf_size():
/home/qemu-sgx/devel/optee/optee_os/lib/libutils/isoc/bget_malloc.c:445
    6030:	e96d 7e02 	strd	r7, lr, [sp, #-8]!
    6034:	b084      	sub	sp, #16
    6036:	af00      	add	r7, sp, #0
    6038:	6078      	str	r0, [r7, #4]
/home/qemu-sgx/devel/optee/optee_os/lib/libutils/isoc/bget_malloc.c:449
    603a:	687b      	ldr	r3, [r7, #4]
    603c:	f1a3 0308 	sub.w	r3, r3, #8
    6040:	60fb      	str	r3, [r7, #12]
/home/qemu-sgx/devel/optee/optee_os/lib/libutils/isoc/bget_malloc.c:450
    6042:	68fb      	ldr	r3, [r7, #12]
    6044:	685b      	ldr	r3, [r3, #4]
    6046:	f1c3 0300 	rsb	r3, r3, #0
    604a:	60bb      	str	r3, [r7, #8]
/home/qemu-sgx/devel/optee/optee_os/lib/libutils/isoc/bget_malloc.c:460
    604c:	68bb      	ldr	r3, [r7, #8]
    604e:	f1a3 0308 	sub.w	r3, r3, #8
    6052:	60bb      	str	r3, [r7, #8]
/home/qemu-sgx/devel/optee/optee_os/lib/libutils/isoc/bget_malloc.c:461
    6054:	68bb      	ldr	r3, [r7, #8]
    6056:	2b00      	cmp	r3, #0
    6058:	dc0b      	bgt.n	6072 <bget_buf_size+0x42>
/home/qemu-sgx/devel/optee/optee_os/lib/libutils/isoc/bget_malloc.c:461 (discriminator 1)
    605a:	4b09      	ldr	r3, [pc, #36]	; (6080 <bget_buf_size+0x50>)
    605c:	447b      	add	r3, pc
    605e:	f240 12cd 	movw	r2, #461	; 0x1cd
    6062:	4908      	ldr	r1, [pc, #32]	; (6084 <bget_buf_size+0x54>)
    6064:	4479      	add	r1, pc
    6066:	4808      	ldr	r0, [pc, #32]	; (6088 <bget_buf_size+0x58>)
    6068:	4478      	add	r0, pc
    606a:	f7fd e83c 	blx	30e4 <_assert_log@plt>
    606e:	f7fd e9ae 	blx	33cc <_assert_break@plt>
/home/qemu-sgx/devel/optee/optee_os/lib/libutils/isoc/bget_malloc.c:462
    6072:	68bb      	ldr	r3, [r7, #8]
/home/qemu-sgx/devel/optee/optee_os/lib/libutils/isoc/bget_malloc.c:463
    6074:	4618      	mov	r0, r3
    6076:	f107 0710 	add.w	r7, r7, #16
    607a:	46bd      	mov	sp, r7
    607c:	bd80      	pop	{r7, pc}
    607e:	bf00      	nop
    6080:	00007750 	.word	0x00007750
    6084:	000076d0 	.word	0x000076d0
    6088:	00007434 	.word	0x00007434

0000608c <malloc>:
malloc():
/home/qemu-sgx/devel/optee/optee_os/lib/libutils/isoc/bget_malloc.c:715
    608c:	e96d 7e02 	strd	r7, lr, [sp, #-8]!
    6090:	b084      	sub	sp, #16
    6092:	af00      	add	r7, sp, #0
    6094:	6078      	str	r0, [r7, #4]
/home/qemu-sgx/devel/optee/optee_os/lib/libutils/isoc/bget_malloc.c:717
    6096:	4b0e      	ldr	r3, [pc, #56]	; (60d0 <malloc+0x44>)
    6098:	447b      	add	r3, pc
    609a:	4618      	mov	r0, r3
    609c:	f7ff fd08 	bl	5ab0 <malloc_lock>
    60a0:	60f8      	str	r0, [r7, #12]
/home/qemu-sgx/devel/optee/optee_os/lib/libutils/isoc/bget_malloc.c:719
    60a2:	4b0c      	ldr	r3, [pc, #48]	; (60d4 <malloc+0x48>)
    60a4:	447b      	add	r3, pc
    60a6:	687a      	ldr	r2, [r7, #4]
    60a8:	f04f 0100 	mov.w	r1, #0
    60ac:	f04f 0000 	mov.w	r0, #0
    60b0:	f7ff fed3 	bl	5e5a <raw_malloc>
    60b4:	60b8      	str	r0, [r7, #8]
/home/qemu-sgx/devel/optee/optee_os/lib/libutils/isoc/bget_malloc.c:720
    60b6:	68f9      	ldr	r1, [r7, #12]
    60b8:	4b07      	ldr	r3, [pc, #28]	; (60d8 <malloc+0x4c>)
    60ba:	447b      	add	r3, pc
    60bc:	4618      	mov	r0, r3
    60be:	f7ff fd05 	bl	5acc <malloc_unlock>
/home/qemu-sgx/devel/optee/optee_os/lib/libutils/isoc/bget_malloc.c:721
    60c2:	68bb      	ldr	r3, [r7, #8]
/home/qemu-sgx/devel/optee/optee_os/lib/libutils/isoc/bget_malloc.c:722
    60c4:	4618      	mov	r0, r3
    60c6:	f107 0710 	add.w	r7, r7, #16
    60ca:	46bd      	mov	sp, r7
    60cc:	bd80      	pop	{r7, pc}
    60ce:	bf00      	nop
    60d0:	0000a16c 	.word	0x0000a16c
    60d4:	0000a160 	.word	0x0000a160
    60d8:	0000a14a 	.word	0x0000a14a

000060dc <free_helper>:
free_helper():
/home/qemu-sgx/devel/optee/optee_os/lib/libutils/isoc/bget_malloc.c:725
    60dc:	e96d 7e02 	strd	r7, lr, [sp, #-8]!
    60e0:	b084      	sub	sp, #16
    60e2:	af00      	add	r7, sp, #0
    60e4:	6078      	str	r0, [r7, #4]
    60e6:	460b      	mov	r3, r1
    60e8:	70fb      	strb	r3, [r7, #3]
/home/qemu-sgx/devel/optee/optee_os/lib/libutils/isoc/bget_malloc.c:726
    60ea:	4b0c      	ldr	r3, [pc, #48]	; (611c <free_helper+0x40>)
    60ec:	447b      	add	r3, pc
    60ee:	4618      	mov	r0, r3
    60f0:	f7ff fcde 	bl	5ab0 <malloc_lock>
    60f4:	60f8      	str	r0, [r7, #12]
/home/qemu-sgx/devel/optee/optee_os/lib/libutils/isoc/bget_malloc.c:728
    60f6:	78fb      	ldrb	r3, [r7, #3]
    60f8:	461a      	mov	r2, r3
    60fa:	4b09      	ldr	r3, [pc, #36]	; (6120 <free_helper+0x44>)
    60fc:	447b      	add	r3, pc
    60fe:	4619      	mov	r1, r3
    6100:	6878      	ldr	r0, [r7, #4]
    6102:	f7ff fec1 	bl	5e88 <raw_free>
/home/qemu-sgx/devel/optee/optee_os/lib/libutils/isoc/bget_malloc.c:729
    6106:	68f9      	ldr	r1, [r7, #12]
    6108:	4b06      	ldr	r3, [pc, #24]	; (6124 <free_helper+0x48>)
    610a:	447b      	add	r3, pc
    610c:	4618      	mov	r0, r3
    610e:	f7ff fcdd 	bl	5acc <malloc_unlock>
/home/qemu-sgx/devel/optee/optee_os/lib/libutils/isoc/bget_malloc.c:730
    6112:	bf00      	nop
    6114:	f107 0710 	add.w	r7, r7, #16
    6118:	46bd      	mov	sp, r7
    611a:	bd80      	pop	{r7, pc}
    611c:	0000a118 	.word	0x0000a118
    6120:	0000a108 	.word	0x0000a108
    6124:	0000a0fa 	.word	0x0000a0fa

00006128 <calloc>:
calloc():
/home/qemu-sgx/devel/optee/optee_os/lib/libutils/isoc/bget_malloc.c:733
    6128:	e96d 7e02 	strd	r7, lr, [sp, #-8]!
    612c:	b086      	sub	sp, #24
    612e:	af02      	add	r7, sp, #8
    6130:	6078      	str	r0, [r7, #4]
    6132:	6039      	str	r1, [r7, #0]
/home/qemu-sgx/devel/optee/optee_os/lib/libutils/isoc/bget_malloc.c:735
    6134:	4b0e      	ldr	r3, [pc, #56]	; (6170 <calloc+0x48>)
    6136:	447b      	add	r3, pc
    6138:	4618      	mov	r0, r3
    613a:	f7ff fcb9 	bl	5ab0 <malloc_lock>
    613e:	60f8      	str	r0, [r7, #12]
/home/qemu-sgx/devel/optee/optee_os/lib/libutils/isoc/bget_malloc.c:737
    6140:	4b0c      	ldr	r3, [pc, #48]	; (6174 <calloc+0x4c>)
    6142:	447b      	add	r3, pc
    6144:	9300      	str	r3, [sp, #0]
    6146:	683b      	ldr	r3, [r7, #0]
    6148:	687a      	ldr	r2, [r7, #4]
    614a:	f04f 0100 	mov.w	r1, #0
    614e:	f04f 0000 	mov.w	r0, #0
    6152:	f7ff feb2 	bl	5eba <raw_calloc>
    6156:	60b8      	str	r0, [r7, #8]
/home/qemu-sgx/devel/optee/optee_os/lib/libutils/isoc/bget_malloc.c:738
    6158:	68f9      	ldr	r1, [r7, #12]
    615a:	4b07      	ldr	r3, [pc, #28]	; (6178 <calloc+0x50>)
    615c:	447b      	add	r3, pc
    615e:	4618      	mov	r0, r3
    6160:	f7ff fcb4 	bl	5acc <malloc_unlock>
/home/qemu-sgx/devel/optee/optee_os/lib/libutils/isoc/bget_malloc.c:739
    6164:	68bb      	ldr	r3, [r7, #8]
/home/qemu-sgx/devel/optee/optee_os/lib/libutils/isoc/bget_malloc.c:740
    6166:	4618      	mov	r0, r3
    6168:	f107 0710 	add.w	r7, r7, #16
    616c:	46bd      	mov	sp, r7
    616e:	bd80      	pop	{r7, pc}
    6170:	0000a0ce 	.word	0x0000a0ce
    6174:	0000a0c2 	.word	0x0000a0c2
    6178:	0000a0a8 	.word	0x0000a0a8

0000617c <realloc_unlocked>:
realloc_unlocked():
/home/qemu-sgx/devel/optee/optee_os/lib/libutils/isoc/bget_malloc.c:744
    617c:	e96d 7e02 	strd	r7, lr, [sp, #-8]!
    6180:	b086      	sub	sp, #24
    6182:	af02      	add	r7, sp, #8
    6184:	60f8      	str	r0, [r7, #12]
    6186:	60b9      	str	r1, [r7, #8]
    6188:	607a      	str	r2, [r7, #4]
/home/qemu-sgx/devel/optee/optee_os/lib/libutils/isoc/bget_malloc.c:745
    618a:	68fb      	ldr	r3, [r7, #12]
    618c:	9300      	str	r3, [sp, #0]
    618e:	687b      	ldr	r3, [r7, #4]
    6190:	f04f 0200 	mov.w	r2, #0
    6194:	f04f 0100 	mov.w	r1, #0
    6198:	68b8      	ldr	r0, [r7, #8]
    619a:	f7ff fef3 	bl	5f84 <raw_realloc>
    619e:	4603      	mov	r3, r0
/home/qemu-sgx/devel/optee/optee_os/lib/libutils/isoc/bget_malloc.c:746
    61a0:	4618      	mov	r0, r3
    61a2:	f107 0710 	add.w	r7, r7, #16
    61a6:	46bd      	mov	sp, r7
    61a8:	bd80      	pop	{r7, pc}

000061aa <realloc>:
realloc():
/home/qemu-sgx/devel/optee/optee_os/lib/libutils/isoc/bget_malloc.c:749
    61aa:	e96d 7e02 	strd	r7, lr, [sp, #-8]!
    61ae:	b084      	sub	sp, #16
    61b0:	af00      	add	r7, sp, #0
    61b2:	6078      	str	r0, [r7, #4]
    61b4:	6039      	str	r1, [r7, #0]
/home/qemu-sgx/devel/optee/optee_os/lib/libutils/isoc/bget_malloc.c:751
    61b6:	4b0d      	ldr	r3, [pc, #52]	; (61ec <realloc+0x42>)
    61b8:	447b      	add	r3, pc
    61ba:	4618      	mov	r0, r3
    61bc:	f7ff fc78 	bl	5ab0 <malloc_lock>
    61c0:	60f8      	str	r0, [r7, #12]
/home/qemu-sgx/devel/optee/optee_os/lib/libutils/isoc/bget_malloc.c:753
    61c2:	683a      	ldr	r2, [r7, #0]
    61c4:	6879      	ldr	r1, [r7, #4]
    61c6:	4b0a      	ldr	r3, [pc, #40]	; (61f0 <realloc+0x46>)
    61c8:	447b      	add	r3, pc
    61ca:	4618      	mov	r0, r3
    61cc:	f7ff ffd6 	bl	617c <realloc_unlocked>
    61d0:	60b8      	str	r0, [r7, #8]
/home/qemu-sgx/devel/optee/optee_os/lib/libutils/isoc/bget_malloc.c:754
    61d2:	68f9      	ldr	r1, [r7, #12]
    61d4:	4b07      	ldr	r3, [pc, #28]	; (61f4 <realloc+0x4a>)
    61d6:	447b      	add	r3, pc
    61d8:	4618      	mov	r0, r3
    61da:	f7ff fc77 	bl	5acc <malloc_unlock>
/home/qemu-sgx/devel/optee/optee_os/lib/libutils/isoc/bget_malloc.c:755
    61de:	68bb      	ldr	r3, [r7, #8]
/home/qemu-sgx/devel/optee/optee_os/lib/libutils/isoc/bget_malloc.c:756
    61e0:	4618      	mov	r0, r3
    61e2:	f107 0710 	add.w	r7, r7, #16
    61e6:	46bd      	mov	sp, r7
    61e8:	bd80      	pop	{r7, pc}
    61ea:	bf00      	nop
    61ec:	0000a04c 	.word	0x0000a04c
    61f0:	0000a03c 	.word	0x0000a03c
    61f4:	0000a02e 	.word	0x0000a02e

000061f8 <memalign>:
memalign():
/home/qemu-sgx/devel/optee/optee_os/lib/libutils/isoc/bget_malloc.c:759
    61f8:	e96d 7e02 	strd	r7, lr, [sp, #-8]!
    61fc:	b086      	sub	sp, #24
    61fe:	af02      	add	r7, sp, #8
    6200:	6078      	str	r0, [r7, #4]
    6202:	6039      	str	r1, [r7, #0]
/home/qemu-sgx/devel/optee/optee_os/lib/libutils/isoc/bget_malloc.c:761
    6204:	4b0e      	ldr	r3, [pc, #56]	; (6240 <memalign+0x48>)
    6206:	447b      	add	r3, pc
    6208:	4618      	mov	r0, r3
    620a:	f7ff fc51 	bl	5ab0 <malloc_lock>
    620e:	60f8      	str	r0, [r7, #12]
/home/qemu-sgx/devel/optee/optee_os/lib/libutils/isoc/bget_malloc.c:763
    6210:	4b0c      	ldr	r3, [pc, #48]	; (6244 <memalign+0x4c>)
    6212:	447b      	add	r3, pc
    6214:	9300      	str	r3, [sp, #0]
    6216:	683b      	ldr	r3, [r7, #0]
    6218:	687a      	ldr	r2, [r7, #4]
    621a:	f04f 0100 	mov.w	r1, #0
    621e:	f04f 0000 	mov.w	r0, #0
    6222:	f7ff fdcc 	bl	5dbe <raw_memalign>
    6226:	60b8      	str	r0, [r7, #8]
/home/qemu-sgx/devel/optee/optee_os/lib/libutils/isoc/bget_malloc.c:764
    6228:	68f9      	ldr	r1, [r7, #12]
    622a:	4b07      	ldr	r3, [pc, #28]	; (6248 <memalign+0x50>)
    622c:	447b      	add	r3, pc
    622e:	4618      	mov	r0, r3
    6230:	f7ff fc4c 	bl	5acc <malloc_unlock>
/home/qemu-sgx/devel/optee/optee_os/lib/libutils/isoc/bget_malloc.c:765
    6234:	68bb      	ldr	r3, [r7, #8]
/home/qemu-sgx/devel/optee/optee_os/lib/libutils/isoc/bget_malloc.c:766
    6236:	4618      	mov	r0, r3
    6238:	f107 0710 	add.w	r7, r7, #16
    623c:	46bd      	mov	sp, r7
    623e:	bd80      	pop	{r7, pc}
    6240:	00009ffe 	.word	0x00009ffe
    6244:	00009ff2 	.word	0x00009ff2
    6248:	00009fd8 	.word	0x00009fd8

0000624c <get_payload_start_size>:
get_payload_start_size():
/home/qemu-sgx/devel/optee/optee_os/lib/libutils/isoc/bget_malloc.c:769
    624c:	e96d 7e02 	strd	r7, lr, [sp, #-8]!
    6250:	b082      	sub	sp, #8
    6252:	af00      	add	r7, sp, #0
    6254:	6078      	str	r0, [r7, #4]
    6256:	6039      	str	r1, [r7, #0]
/home/qemu-sgx/devel/optee/optee_os/lib/libutils/isoc/bget_malloc.c:770
    6258:	6878      	ldr	r0, [r7, #4]
    625a:	f7ff fee9 	bl	6030 <bget_buf_size>
    625e:	4603      	mov	r3, r0
    6260:	461a      	mov	r2, r3
    6262:	683b      	ldr	r3, [r7, #0]
    6264:	601a      	str	r2, [r3, #0]
/home/qemu-sgx/devel/optee/optee_os/lib/libutils/isoc/bget_malloc.c:771
    6266:	687b      	ldr	r3, [r7, #4]
/home/qemu-sgx/devel/optee/optee_os/lib/libutils/isoc/bget_malloc.c:772
    6268:	4618      	mov	r0, r3
    626a:	f107 0708 	add.w	r7, r7, #8
    626e:	46bd      	mov	sp, r7
    6270:	bd80      	pop	{r7, pc}

00006272 <free>:
free():
/home/qemu-sgx/devel/optee/optee_os/lib/libutils/isoc/bget_malloc.c:777
    6272:	e96d 7e02 	strd	r7, lr, [sp, #-8]!
    6276:	b082      	sub	sp, #8
    6278:	af00      	add	r7, sp, #0
    627a:	6078      	str	r0, [r7, #4]
/home/qemu-sgx/devel/optee/optee_os/lib/libutils/isoc/bget_malloc.c:778
    627c:	f04f 0100 	mov.w	r1, #0
    6280:	6878      	ldr	r0, [r7, #4]
    6282:	f7ff ff2b 	bl	60dc <free_helper>
/home/qemu-sgx/devel/optee/optee_os/lib/libutils/isoc/bget_malloc.c:779
    6286:	bf00      	nop
    6288:	f107 0708 	add.w	r7, r7, #8
    628c:	46bd      	mov	sp, r7
    628e:	bd80      	pop	{r7, pc}

00006290 <free_wipe>:
free_wipe():
/home/qemu-sgx/devel/optee/optee_os/lib/libutils/isoc/bget_malloc.c:782
    6290:	e96d 7e02 	strd	r7, lr, [sp, #-8]!
    6294:	b082      	sub	sp, #8
    6296:	af00      	add	r7, sp, #0
    6298:	6078      	str	r0, [r7, #4]
/home/qemu-sgx/devel/optee/optee_os/lib/libutils/isoc/bget_malloc.c:783
    629a:	f04f 0101 	mov.w	r1, #1
    629e:	6878      	ldr	r0, [r7, #4]
    62a0:	f7ff ff1c 	bl	60dc <free_helper>
/home/qemu-sgx/devel/optee/optee_os/lib/libutils/isoc/bget_malloc.c:784
    62a4:	bf00      	nop
    62a6:	f107 0708 	add.w	r7, r7, #8
    62aa:	46bd      	mov	sp, r7
    62ac:	bd80      	pop	{r7, pc}

000062ae <gen_malloc_add_pool>:
gen_malloc_add_pool():
/home/qemu-sgx/devel/optee/optee_os/lib/libutils/isoc/bget_malloc.c:787
    62ae:	e96d 7e02 	strd	r7, lr, [sp, #-8]!
    62b2:	b08a      	sub	sp, #40	; 0x28
    62b4:	af00      	add	r7, sp, #0
    62b6:	60f8      	str	r0, [r7, #12]
    62b8:	60b9      	str	r1, [r7, #8]
    62ba:	607a      	str	r2, [r7, #4]
/home/qemu-sgx/devel/optee/optee_os/lib/libutils/isoc/bget_malloc.c:791
    62bc:	68bb      	ldr	r3, [r7, #8]
    62be:	627b      	str	r3, [r7, #36]	; 0x24
/home/qemu-sgx/devel/optee/optee_os/lib/libutils/isoc/bget_malloc.c:792
    62c0:	6a7a      	ldr	r2, [r7, #36]	; 0x24
    62c2:	687b      	ldr	r3, [r7, #4]
    62c4:	4413      	add	r3, r2
    62c6:	623b      	str	r3, [r7, #32]
/home/qemu-sgx/devel/optee/optee_os/lib/libutils/isoc/bget_malloc.c:793
    62c8:	f04f 0318 	mov.w	r3, #24
    62cc:	61fb      	str	r3, [r7, #28]
/home/qemu-sgx/devel/optee/optee_os/lib/libutils/isoc/bget_malloc.c:795
    62ce:	6a7b      	ldr	r3, [r7, #36]	; 0x24
    62d0:	f103 0307 	add.w	r3, r3, #7
    62d4:	f023 0307 	bic.w	r3, r3, #7
    62d8:	627b      	str	r3, [r7, #36]	; 0x24
/home/qemu-sgx/devel/optee/optee_os/lib/libutils/isoc/bget_malloc.c:796
    62da:	6a3b      	ldr	r3, [r7, #32]
    62dc:	f023 0307 	bic.w	r3, r3, #7
    62e0:	623b      	str	r3, [r7, #32]
/home/qemu-sgx/devel/optee/optee_os/lib/libutils/isoc/bget_malloc.c:798
    62e2:	6a7a      	ldr	r2, [r7, #36]	; 0x24
    62e4:	6a3b      	ldr	r3, [r7, #32]
    62e6:	429a      	cmp	r2, r3
    62e8:	d872      	bhi.n	63d0 <gen_malloc_add_pool+0x122>
/home/qemu-sgx/devel/optee/optee_os/lib/libutils/isoc/bget_malloc.c:798 (discriminator 1)
    62ea:	6a3a      	ldr	r2, [r7, #32]
    62ec:	6a7b      	ldr	r3, [r7, #36]	; 0x24
    62ee:	eba2 0303 	sub.w	r3, r2, r3
    62f2:	69fa      	ldr	r2, [r7, #28]
    62f4:	429a      	cmp	r2, r3
    62f6:	d86b      	bhi.n	63d0 <gen_malloc_add_pool+0x122>
/home/qemu-sgx/devel/optee/optee_os/lib/libutils/isoc/bget_malloc.c:804
    62f8:	68fb      	ldr	r3, [r7, #12]
    62fa:	6a1b      	ldr	r3, [r3, #32]
    62fc:	2b00      	cmp	r3, #0
    62fe:	d106      	bne.n	630e <gen_malloc_add_pool+0x60>
/home/qemu-sgx/devel/optee/optee_os/lib/libutils/isoc/bget_malloc.c:804 (discriminator 1)
    6300:	6a3a      	ldr	r2, [r7, #32]
    6302:	6a7b      	ldr	r3, [r7, #36]	; 0x24
    6304:	eba2 0303 	sub.w	r3, r2, r3
    6308:	f5b3 6f80 	cmp.w	r3, #1024	; 0x400
    630c:	d362      	bcc.n	63d4 <gen_malloc_add_pool+0x126>
/home/qemu-sgx/devel/optee/optee_os/lib/libutils/isoc/bget_malloc.c:809
    630e:	68f8      	ldr	r0, [r7, #12]
    6310:	f7ff fbce 	bl	5ab0 <malloc_lock>
    6314:	61b8      	str	r0, [r7, #24]
/home/qemu-sgx/devel/optee/optee_os/lib/libutils/isoc/bget_malloc.c:811
    6316:	6a78      	ldr	r0, [r7, #36]	; 0x24
    6318:	6a3a      	ldr	r2, [r7, #32]
    631a:	6a7b      	ldr	r3, [r7, #36]	; 0x24
    631c:	eba2 0303 	sub.w	r3, r2, r3
    6320:	4619      	mov	r1, r3
    6322:	f7fe fbbf 	bl	4aa4 <tag_asan_free>
/home/qemu-sgx/devel/optee/optee_os/lib/libutils/isoc/bget_malloc.c:812
    6326:	6a78      	ldr	r0, [r7, #36]	; 0x24
    6328:	6a3a      	ldr	r2, [r7, #32]
    632a:	6a7b      	ldr	r3, [r7, #36]	; 0x24
    632c:	eba2 0303 	sub.w	r3, r2, r3
    6330:	4619      	mov	r1, r3
    6332:	68fb      	ldr	r3, [r7, #12]
    6334:	461a      	mov	r2, r3
    6336:	f7fc efc0 	blx	32b8 <bpool@plt>
/home/qemu-sgx/devel/optee/optee_os/lib/libutils/isoc/bget_malloc.c:813
    633a:	68fb      	ldr	r3, [r7, #12]
    633c:	6a1b      	ldr	r3, [r3, #32]
    633e:	f103 0301 	add.w	r3, r3, #1
    6342:	617b      	str	r3, [r7, #20]
/home/qemu-sgx/devel/optee/optee_os/lib/libutils/isoc/bget_malloc.c:814
    6344:	68fb      	ldr	r3, [r7, #12]
    6346:	69d9      	ldr	r1, [r3, #28]
    6348:	697b      	ldr	r3, [r7, #20]
    634a:	ea4f 03c3 	mov.w	r3, r3, lsl #3
    634e:	461a      	mov	r2, r3
    6350:	68f8      	ldr	r0, [r7, #12]
    6352:	f7ff ff13 	bl	617c <realloc_unlocked>
    6356:	6138      	str	r0, [r7, #16]
/home/qemu-sgx/devel/optee/optee_os/lib/libutils/isoc/bget_malloc.c:815
    6358:	693b      	ldr	r3, [r7, #16]
    635a:	2b00      	cmp	r3, #0
    635c:	d10b      	bne.n	6376 <gen_malloc_add_pool+0xc8>
/home/qemu-sgx/devel/optee/optee_os/lib/libutils/isoc/bget_malloc.c:815 (discriminator 1)
    635e:	4b20      	ldr	r3, [pc, #128]	; (63e0 <gen_malloc_add_pool+0x132>)
    6360:	447b      	add	r3, pc
    6362:	f240 322f 	movw	r2, #815	; 0x32f
    6366:	491f      	ldr	r1, [pc, #124]	; (63e4 <gen_malloc_add_pool+0x136>)
    6368:	4479      	add	r1, pc
    636a:	481f      	ldr	r0, [pc, #124]	; (63e8 <gen_malloc_add_pool+0x13a>)
    636c:	4478      	add	r0, pc
    636e:	f7fc eeba 	blx	30e4 <_assert_log@plt>
    6372:	f7fd e82c 	blx	33cc <_assert_break@plt>
/home/qemu-sgx/devel/optee/optee_os/lib/libutils/isoc/bget_malloc.c:816
    6376:	68fb      	ldr	r3, [r7, #12]
    6378:	693a      	ldr	r2, [r7, #16]
    637a:	61da      	str	r2, [r3, #28]
/home/qemu-sgx/devel/optee/optee_os/lib/libutils/isoc/bget_malloc.c:817
    637c:	68fb      	ldr	r3, [r7, #12]
    637e:	69da      	ldr	r2, [r3, #28]
    6380:	68fb      	ldr	r3, [r7, #12]
    6382:	6a1b      	ldr	r3, [r3, #32]
    6384:	ea4f 03c3 	mov.w	r3, r3, lsl #3
    6388:	4413      	add	r3, r2
    638a:	6a7a      	ldr	r2, [r7, #36]	; 0x24
    638c:	601a      	str	r2, [r3, #0]
/home/qemu-sgx/devel/optee/optee_os/lib/libutils/isoc/bget_malloc.c:818
    638e:	68fb      	ldr	r3, [r7, #12]
    6390:	69da      	ldr	r2, [r3, #28]
    6392:	68fb      	ldr	r3, [r7, #12]
    6394:	6a1b      	ldr	r3, [r3, #32]
    6396:	ea4f 03c3 	mov.w	r3, r3, lsl #3
    639a:	4413      	add	r3, r2
    639c:	6a39      	ldr	r1, [r7, #32]
    639e:	6a7a      	ldr	r2, [r7, #36]	; 0x24
    63a0:	eba1 0202 	sub.w	r2, r1, r2
    63a4:	605a      	str	r2, [r3, #4]
/home/qemu-sgx/devel/optee/optee_os/lib/libutils/isoc/bget_malloc.c:820
    63a6:	68fb      	ldr	r3, [r7, #12]
    63a8:	6cda      	ldr	r2, [r3, #76]	; 0x4c
    63aa:	68fb      	ldr	r3, [r7, #12]
    63ac:	69d9      	ldr	r1, [r3, #28]
    63ae:	68fb      	ldr	r3, [r7, #12]
    63b0:	6a1b      	ldr	r3, [r3, #32]
    63b2:	ea4f 03c3 	mov.w	r3, r3, lsl #3
    63b6:	440b      	add	r3, r1
    63b8:	685b      	ldr	r3, [r3, #4]
    63ba:	441a      	add	r2, r3
    63bc:	68fb      	ldr	r3, [r7, #12]
    63be:	64da      	str	r2, [r3, #76]	; 0x4c
/home/qemu-sgx/devel/optee/optee_os/lib/libutils/isoc/bget_malloc.c:822
    63c0:	68fb      	ldr	r3, [r7, #12]
    63c2:	697a      	ldr	r2, [r7, #20]
    63c4:	621a      	str	r2, [r3, #32]
/home/qemu-sgx/devel/optee/optee_os/lib/libutils/isoc/bget_malloc.c:823
    63c6:	69b9      	ldr	r1, [r7, #24]
    63c8:	68f8      	ldr	r0, [r7, #12]
    63ca:	f7ff fb7f 	bl	5acc <malloc_unlock>
    63ce:	e002      	b.n	63d6 <gen_malloc_add_pool+0x128>
/home/qemu-sgx/devel/optee/optee_os/lib/libutils/isoc/bget_malloc.c:800
    63d0:	bf00      	nop
    63d2:	e000      	b.n	63d6 <gen_malloc_add_pool+0x128>
/home/qemu-sgx/devel/optee/optee_os/lib/libutils/isoc/bget_malloc.c:806
    63d4:	bf00      	nop
/home/qemu-sgx/devel/optee/optee_os/lib/libutils/isoc/bget_malloc.c:824
    63d6:	f107 0728 	add.w	r7, r7, #40	; 0x28
    63da:	46bd      	mov	sp, r7
    63dc:	bd80      	pop	{r7, pc}
    63de:	bf00      	nop
    63e0:	0000745c 	.word	0x0000745c
    63e4:	000073cc 	.word	0x000073cc
    63e8:	000073e8 	.word	0x000073e8

000063ec <gen_malloc_buffer_is_within_alloced>:
gen_malloc_buffer_is_within_alloced():
/home/qemu-sgx/devel/optee/optee_os/lib/libutils/isoc/bget_malloc.c:828
    63ec:	e96d 7e02 	strd	r7, lr, [sp, #-8]!
    63f0:	b08e      	sub	sp, #56	; 0x38
    63f2:	af00      	add	r7, sp, #0
    63f4:	60f8      	str	r0, [r7, #12]
    63f6:	60b9      	str	r1, [r7, #8]
    63f8:	607a      	str	r2, [r7, #4]
/home/qemu-sgx/devel/optee/optee_os/lib/libutils/isoc/bget_malloc.c:831
    63fa:	68bb      	ldr	r3, [r7, #8]
    63fc:	633b      	str	r3, [r7, #48]	; 0x30
/home/qemu-sgx/devel/optee/optee_os/lib/libutils/isoc/bget_malloc.c:832
    63fe:	6b3a      	ldr	r2, [r7, #48]	; 0x30
    6400:	687b      	ldr	r3, [r7, #4]
    6402:	4413      	add	r3, r2
    6404:	62fb      	str	r3, [r7, #44]	; 0x2c
/home/qemu-sgx/devel/optee/optee_os/lib/libutils/isoc/bget_malloc.c:833
    6406:	f04f 0300 	mov.w	r3, #0
    640a:	f887 3037 	strb.w	r3, [r7, #55]	; 0x37
/home/qemu-sgx/devel/optee/optee_os/lib/libutils/isoc/bget_malloc.c:834
    640e:	68f8      	ldr	r0, [r7, #12]
    6410:	f7ff fb4e 	bl	5ab0 <malloc_lock>
    6414:	62b8      	str	r0, [r7, #40]	; 0x28
/home/qemu-sgx/devel/optee/optee_os/lib/libutils/isoc/bget_malloc.c:836
    6416:	68f8      	ldr	r0, [r7, #12]
    6418:	f7ff fc08 	bl	5c2c <raw_malloc_validate_pools>
/home/qemu-sgx/devel/optee/optee_os/lib/libutils/isoc/bget_malloc.c:839
    641c:	6b3a      	ldr	r2, [r7, #48]	; 0x30
    641e:	6afb      	ldr	r3, [r7, #44]	; 0x2c
    6420:	429a      	cmp	r2, r3
    6422:	d82b      	bhi.n	647c <gen_malloc_buffer_is_within_alloced+0x90>
/home/qemu-sgx/devel/optee/optee_os/lib/libutils/isoc/bget_malloc.c:842
    6424:	f107 0318 	add.w	r3, r7, #24
    6428:	4619      	mov	r1, r3
    642a:	68f8      	ldr	r0, [r7, #12]
    642c:	f7ff fc0a 	bl	5c44 <bpool_foreach_iterator_init>
    6430:	e018      	b.n	6464 <gen_malloc_buffer_is_within_alloced+0x78>
/home/qemu-sgx/devel/optee/optee_os/lib/libutils/isoc/bget_malloc.c:847
    6432:	697b      	ldr	r3, [r7, #20]
    6434:	f107 0210 	add.w	r2, r7, #16
    6438:	4611      	mov	r1, r2
    643a:	4618      	mov	r0, r3
    643c:	f7ff ff06 	bl	624c <get_payload_start_size>
    6440:	6278      	str	r0, [r7, #36]	; 0x24
/home/qemu-sgx/devel/optee/optee_os/lib/libutils/isoc/bget_malloc.c:848
    6442:	693b      	ldr	r3, [r7, #16]
    6444:	6a7a      	ldr	r2, [r7, #36]	; 0x24
    6446:	4413      	add	r3, r2
    6448:	623b      	str	r3, [r7, #32]
/home/qemu-sgx/devel/optee/optee_os/lib/libutils/isoc/bget_malloc.c:850
    644a:	6b3a      	ldr	r2, [r7, #48]	; 0x30
    644c:	6a7b      	ldr	r3, [r7, #36]	; 0x24
    644e:	429a      	cmp	r2, r3
    6450:	d308      	bcc.n	6464 <gen_malloc_buffer_is_within_alloced+0x78>
/home/qemu-sgx/devel/optee/optee_os/lib/libutils/isoc/bget_malloc.c:850 (discriminator 1)
    6452:	6afa      	ldr	r2, [r7, #44]	; 0x2c
    6454:	6a3b      	ldr	r3, [r7, #32]
    6456:	429a      	cmp	r2, r3
    6458:	d804      	bhi.n	6464 <gen_malloc_buffer_is_within_alloced+0x78>
/home/qemu-sgx/devel/optee/optee_os/lib/libutils/isoc/bget_malloc.c:851
    645a:	f04f 0301 	mov.w	r3, #1
    645e:	f887 3037 	strb.w	r3, [r7, #55]	; 0x37
    6462:	e00c      	b.n	647e <gen_malloc_buffer_is_within_alloced+0x92>
/home/qemu-sgx/devel/optee/optee_os/lib/libutils/isoc/bget_malloc.c:842 (discriminator 1)
    6464:	f107 0214 	add.w	r2, r7, #20
    6468:	f107 0318 	add.w	r3, r7, #24
    646c:	4619      	mov	r1, r3
    646e:	68f8      	ldr	r0, [r7, #12]
    6470:	f7ff fc6a 	bl	5d48 <bpool_foreach>
    6474:	4603      	mov	r3, r0
    6476:	2b00      	cmp	r3, #0
    6478:	d1db      	bne.n	6432 <gen_malloc_buffer_is_within_alloced+0x46>
/home/qemu-sgx/devel/optee/optee_os/lib/libutils/isoc/bget_malloc.c:856
    647a:	e000      	b.n	647e <gen_malloc_buffer_is_within_alloced+0x92>
/home/qemu-sgx/devel/optee/optee_os/lib/libutils/isoc/bget_malloc.c:840
    647c:	bf00      	nop
/home/qemu-sgx/devel/optee/optee_os/lib/libutils/isoc/bget_malloc.c:857
    647e:	6ab9      	ldr	r1, [r7, #40]	; 0x28
    6480:	68f8      	ldr	r0, [r7, #12]
    6482:	f7ff fb23 	bl	5acc <malloc_unlock>
/home/qemu-sgx/devel/optee/optee_os/lib/libutils/isoc/bget_malloc.c:859
    6486:	f897 3037 	ldrb.w	r3, [r7, #55]	; 0x37
/home/qemu-sgx/devel/optee/optee_os/lib/libutils/isoc/bget_malloc.c:860
    648a:	4618      	mov	r0, r3
    648c:	f107 0738 	add.w	r7, r7, #56	; 0x38
    6490:	46bd      	mov	sp, r7
    6492:	bd80      	pop	{r7, pc}

00006494 <gen_malloc_buffer_overlaps_heap>:
gen_malloc_buffer_overlaps_heap():
/home/qemu-sgx/devel/optee/optee_os/lib/libutils/isoc/bget_malloc.c:864
    6494:	e96d 7e02 	strd	r7, lr, [sp, #-8]!
    6498:	b08c      	sub	sp, #48	; 0x30
    649a:	af00      	add	r7, sp, #0
    649c:	60f8      	str	r0, [r7, #12]
    649e:	60b9      	str	r1, [r7, #8]
    64a0:	607a      	str	r2, [r7, #4]
/home/qemu-sgx/devel/optee/optee_os/lib/libutils/isoc/bget_malloc.c:865
    64a2:	68bb      	ldr	r3, [r7, #8]
    64a4:	627b      	str	r3, [r7, #36]	; 0x24
/home/qemu-sgx/devel/optee/optee_os/lib/libutils/isoc/bget_malloc.c:866
    64a6:	6a7a      	ldr	r2, [r7, #36]	; 0x24
    64a8:	687b      	ldr	r3, [r7, #4]
    64aa:	4413      	add	r3, r2
    64ac:	623b      	str	r3, [r7, #32]
/home/qemu-sgx/devel/optee/optee_os/lib/libutils/isoc/bget_malloc.c:868
    64ae:	f04f 0300 	mov.w	r3, #0
    64b2:	f887 302b 	strb.w	r3, [r7, #43]	; 0x2b
/home/qemu-sgx/devel/optee/optee_os/lib/libutils/isoc/bget_malloc.c:869
    64b6:	68f8      	ldr	r0, [r7, #12]
    64b8:	f7ff fafa 	bl	5ab0 <malloc_lock>
    64bc:	61f8      	str	r0, [r7, #28]
/home/qemu-sgx/devel/optee/optee_os/lib/libutils/isoc/bget_malloc.c:871
    64be:	68f8      	ldr	r0, [r7, #12]
    64c0:	f7ff fbb4 	bl	5c2c <raw_malloc_validate_pools>
/home/qemu-sgx/devel/optee/optee_os/lib/libutils/isoc/bget_malloc.c:873
    64c4:	f04f 0300 	mov.w	r3, #0
    64c8:	62fb      	str	r3, [r7, #44]	; 0x2c
    64ca:	e02f      	b.n	652c <gen_malloc_buffer_overlaps_heap+0x98>
/home/qemu-sgx/devel/optee/optee_os/lib/libutils/isoc/bget_malloc.c:874
    64cc:	68fb      	ldr	r3, [r7, #12]
    64ce:	69da      	ldr	r2, [r3, #28]
    64d0:	6afb      	ldr	r3, [r7, #44]	; 0x2c
    64d2:	ea4f 03c3 	mov.w	r3, r3, lsl #3
    64d6:	4413      	add	r3, r2
    64d8:	681b      	ldr	r3, [r3, #0]
    64da:	61bb      	str	r3, [r7, #24]
/home/qemu-sgx/devel/optee/optee_os/lib/libutils/isoc/bget_malloc.c:875
    64dc:	68fb      	ldr	r3, [r7, #12]
    64de:	69da      	ldr	r2, [r3, #28]
    64e0:	6afb      	ldr	r3, [r7, #44]	; 0x2c
    64e2:	ea4f 03c3 	mov.w	r3, r3, lsl #3
    64e6:	4413      	add	r3, r2
    64e8:	685b      	ldr	r3, [r3, #4]
    64ea:	69ba      	ldr	r2, [r7, #24]
    64ec:	4413      	add	r3, r2
    64ee:	617b      	str	r3, [r7, #20]
/home/qemu-sgx/devel/optee/optee_os/lib/libutils/isoc/bget_malloc.c:877
    64f0:	6a7a      	ldr	r2, [r7, #36]	; 0x24
    64f2:	6a3b      	ldr	r3, [r7, #32]
    64f4:	429a      	cmp	r2, r3
    64f6:	d803      	bhi.n	6500 <gen_malloc_buffer_overlaps_heap+0x6c>
/home/qemu-sgx/devel/optee/optee_os/lib/libutils/isoc/bget_malloc.c:877 (discriminator 1)
    64f8:	69ba      	ldr	r2, [r7, #24]
    64fa:	697b      	ldr	r3, [r7, #20]
    64fc:	429a      	cmp	r2, r3
    64fe:	d904      	bls.n	650a <gen_malloc_buffer_overlaps_heap+0x76>
/home/qemu-sgx/devel/optee/optee_os/lib/libutils/isoc/bget_malloc.c:878
    6500:	f04f 0301 	mov.w	r3, #1
    6504:	f887 302b 	strb.w	r3, [r7, #43]	; 0x2b
/home/qemu-sgx/devel/optee/optee_os/lib/libutils/isoc/bget_malloc.c:879
    6508:	e016      	b.n	6538 <gen_malloc_buffer_overlaps_heap+0xa4>
/home/qemu-sgx/devel/optee/optee_os/lib/libutils/isoc/bget_malloc.c:882
    650a:	6a3a      	ldr	r2, [r7, #32]
    650c:	69bb      	ldr	r3, [r7, #24]
    650e:	429a      	cmp	r2, r3
    6510:	d803      	bhi.n	651a <gen_malloc_buffer_overlaps_heap+0x86>
/home/qemu-sgx/devel/optee/optee_os/lib/libutils/isoc/bget_malloc.c:882 (discriminator 1)
    6512:	6a7a      	ldr	r2, [r7, #36]	; 0x24
    6514:	697b      	ldr	r3, [r7, #20]
    6516:	429a      	cmp	r2, r3
    6518:	d204      	bcs.n	6524 <gen_malloc_buffer_overlaps_heap+0x90>
/home/qemu-sgx/devel/optee/optee_os/lib/libutils/isoc/bget_malloc.c:883
    651a:	f04f 0301 	mov.w	r3, #1
    651e:	f887 302b 	strb.w	r3, [r7, #43]	; 0x2b
/home/qemu-sgx/devel/optee/optee_os/lib/libutils/isoc/bget_malloc.c:884
    6522:	e009      	b.n	6538 <gen_malloc_buffer_overlaps_heap+0xa4>
/home/qemu-sgx/devel/optee/optee_os/lib/libutils/isoc/bget_malloc.c:873 (discriminator 2)
    6524:	6afb      	ldr	r3, [r7, #44]	; 0x2c
    6526:	f103 0301 	add.w	r3, r3, #1
    652a:	62fb      	str	r3, [r7, #44]	; 0x2c
/home/qemu-sgx/devel/optee/optee_os/lib/libutils/isoc/bget_malloc.c:873 (discriminator 1)
    652c:	68fb      	ldr	r3, [r7, #12]
    652e:	6a1b      	ldr	r3, [r3, #32]
    6530:	6afa      	ldr	r2, [r7, #44]	; 0x2c
    6532:	429a      	cmp	r2, r3
    6534:	d3ca      	bcc.n	64cc <gen_malloc_buffer_overlaps_heap+0x38>
/home/qemu-sgx/devel/optee/optee_os/lib/libutils/isoc/bget_malloc.c:888
    6536:	bf00      	nop
/home/qemu-sgx/devel/optee/optee_os/lib/libutils/isoc/bget_malloc.c:889
    6538:	69f9      	ldr	r1, [r7, #28]
    653a:	68f8      	ldr	r0, [r7, #12]
    653c:	f7ff fac6 	bl	5acc <malloc_unlock>
/home/qemu-sgx/devel/optee/optee_os/lib/libutils/isoc/bget_malloc.c:890
    6540:	f897 302b 	ldrb.w	r3, [r7, #43]	; 0x2b
/home/qemu-sgx/devel/optee/optee_os/lib/libutils/isoc/bget_malloc.c:891
    6544:	4618      	mov	r0, r3
    6546:	f107 0730 	add.w	r7, r7, #48	; 0x30
    654a:	46bd      	mov	sp, r7
    654c:	bd80      	pop	{r7, pc}

0000654e <malloc_add_pool>:
malloc_add_pool():
/home/qemu-sgx/devel/optee/optee_os/lib/libutils/isoc/bget_malloc.c:894
    654e:	e96d 7e02 	strd	r7, lr, [sp, #-8]!
    6552:	b082      	sub	sp, #8
    6554:	af00      	add	r7, sp, #0
    6556:	6078      	str	r0, [r7, #4]
    6558:	6039      	str	r1, [r7, #0]
/home/qemu-sgx/devel/optee/optee_os/lib/libutils/isoc/bget_malloc.c:895
    655a:	683a      	ldr	r2, [r7, #0]
    655c:	6879      	ldr	r1, [r7, #4]
    655e:	4b05      	ldr	r3, [pc, #20]	; (6574 <malloc_add_pool+0x26>)
    6560:	447b      	add	r3, pc
    6562:	4618      	mov	r0, r3
    6564:	f7ff fea3 	bl	62ae <gen_malloc_add_pool>
/home/qemu-sgx/devel/optee/optee_os/lib/libutils/isoc/bget_malloc.c:896
    6568:	bf00      	nop
    656a:	f107 0708 	add.w	r7, r7, #8
    656e:	46bd      	mov	sp, r7
    6570:	bd80      	pop	{r7, pc}
    6572:	bf00      	nop
    6574:	00009ca4 	.word	0x00009ca4

00006578 <malloc_buffer_is_within_alloced>:
malloc_buffer_is_within_alloced():
/home/qemu-sgx/devel/optee/optee_os/lib/libutils/isoc/bget_malloc.c:899
    6578:	e96d 7e02 	strd	r7, lr, [sp, #-8]!
    657c:	b082      	sub	sp, #8
    657e:	af00      	add	r7, sp, #0
    6580:	6078      	str	r0, [r7, #4]
    6582:	6039      	str	r1, [r7, #0]
/home/qemu-sgx/devel/optee/optee_os/lib/libutils/isoc/bget_malloc.c:900
    6584:	683a      	ldr	r2, [r7, #0]
    6586:	6879      	ldr	r1, [r7, #4]
    6588:	4b05      	ldr	r3, [pc, #20]	; (65a0 <malloc_buffer_is_within_alloced+0x28>)
    658a:	447b      	add	r3, pc
    658c:	4618      	mov	r0, r3
    658e:	f7ff ff2d 	bl	63ec <gen_malloc_buffer_is_within_alloced>
    6592:	4603      	mov	r3, r0
/home/qemu-sgx/devel/optee/optee_os/lib/libutils/isoc/bget_malloc.c:901
    6594:	4618      	mov	r0, r3
    6596:	f107 0708 	add.w	r7, r7, #8
    659a:	46bd      	mov	sp, r7
    659c:	bd80      	pop	{r7, pc}
    659e:	bf00      	nop
    65a0:	00009c7a 	.word	0x00009c7a

000065a4 <malloc_buffer_overlaps_heap>:
malloc_buffer_overlaps_heap():
/home/qemu-sgx/devel/optee/optee_os/lib/libutils/isoc/bget_malloc.c:904
    65a4:	e96d 7e02 	strd	r7, lr, [sp, #-8]!
    65a8:	b082      	sub	sp, #8
    65aa:	af00      	add	r7, sp, #0
    65ac:	6078      	str	r0, [r7, #4]
    65ae:	6039      	str	r1, [r7, #0]
/home/qemu-sgx/devel/optee/optee_os/lib/libutils/isoc/bget_malloc.c:905
    65b0:	683a      	ldr	r2, [r7, #0]
    65b2:	6879      	ldr	r1, [r7, #4]
    65b4:	4b05      	ldr	r3, [pc, #20]	; (65cc <malloc_buffer_overlaps_heap+0x28>)
    65b6:	447b      	add	r3, pc
    65b8:	4618      	mov	r0, r3
    65ba:	f7ff ff6b 	bl	6494 <gen_malloc_buffer_overlaps_heap>
    65be:	4603      	mov	r3, r0
/home/qemu-sgx/devel/optee/optee_os/lib/libutils/isoc/bget_malloc.c:906
    65c0:	4618      	mov	r0, r3
    65c2:	f107 0708 	add.w	r7, r7, #8
    65c6:	46bd      	mov	sp, r7
    65c8:	bd80      	pop	{r7, pc}
    65ca:	bf00      	nop
    65cc:	00009c4e 	.word	0x00009c4e

000065d0 <memcpy>:
memcpy():
/home/qemu-sgx/devel/optee/optee_os/lib/libutils/isoc/newlib/memcpy.c:87
    65d0:	f84d 7d04 	str.w	r7, [sp, #-4]!
    65d4:	b089      	sub	sp, #36	; 0x24
    65d6:	af00      	add	r7, sp, #0
    65d8:	60f8      	str	r0, [r7, #12]
    65da:	60b9      	str	r1, [r7, #8]
    65dc:	607a      	str	r2, [r7, #4]
/home/qemu-sgx/devel/optee/optee_os/lib/libutils/isoc/newlib/memcpy.c:99
    65de:	68fb      	ldr	r3, [r7, #12]
    65e0:	61fb      	str	r3, [r7, #28]
/home/qemu-sgx/devel/optee/optee_os/lib/libutils/isoc/newlib/memcpy.c:100
    65e2:	68bb      	ldr	r3, [r7, #8]
    65e4:	61bb      	str	r3, [r7, #24]
/home/qemu-sgx/devel/optee/optee_os/lib/libutils/isoc/newlib/memcpy.c:106
    65e6:	687b      	ldr	r3, [r7, #4]
    65e8:	2b0f      	cmp	r3, #15
    65ea:	d95c      	bls.n	66a6 <memcpy+0xd6>
/home/qemu-sgx/devel/optee/optee_os/lib/libutils/isoc/newlib/memcpy.c:106 (discriminator 1)
    65ec:	69ba      	ldr	r2, [r7, #24]
    65ee:	69fb      	ldr	r3, [r7, #28]
    65f0:	ea43 0302 	orr.w	r3, r3, r2
    65f4:	f003 0303 	and.w	r3, r3, #3
    65f8:	2b00      	cmp	r3, #0
    65fa:	d154      	bne.n	66a6 <memcpy+0xd6>
/home/qemu-sgx/devel/optee/optee_os/lib/libutils/isoc/newlib/memcpy.c:107
    65fc:	69fb      	ldr	r3, [r7, #28]
    65fe:	617b      	str	r3, [r7, #20]
/home/qemu-sgx/devel/optee/optee_os/lib/libutils/isoc/newlib/memcpy.c:108
    6600:	69bb      	ldr	r3, [r7, #24]
    6602:	613b      	str	r3, [r7, #16]
/home/qemu-sgx/devel/optee/optee_os/lib/libutils/isoc/newlib/memcpy.c:111
    6604:	e02b      	b.n	665e <memcpy+0x8e>
/home/qemu-sgx/devel/optee/optee_os/lib/libutils/isoc/newlib/memcpy.c:112
    6606:	693a      	ldr	r2, [r7, #16]
    6608:	f102 0304 	add.w	r3, r2, #4
    660c:	613b      	str	r3, [r7, #16]
    660e:	697b      	ldr	r3, [r7, #20]
    6610:	f103 0104 	add.w	r1, r3, #4
    6614:	6179      	str	r1, [r7, #20]
    6616:	6812      	ldr	r2, [r2, #0]
    6618:	601a      	str	r2, [r3, #0]
/home/qemu-sgx/devel/optee/optee_os/lib/libutils/isoc/newlib/memcpy.c:113
    661a:	693a      	ldr	r2, [r7, #16]
    661c:	f102 0304 	add.w	r3, r2, #4
    6620:	613b      	str	r3, [r7, #16]
    6622:	697b      	ldr	r3, [r7, #20]
    6624:	f103 0104 	add.w	r1, r3, #4
    6628:	6179      	str	r1, [r7, #20]
    662a:	6812      	ldr	r2, [r2, #0]
    662c:	601a      	str	r2, [r3, #0]
/home/qemu-sgx/devel/optee/optee_os/lib/libutils/isoc/newlib/memcpy.c:114
    662e:	693a      	ldr	r2, [r7, #16]
    6630:	f102 0304 	add.w	r3, r2, #4
    6634:	613b      	str	r3, [r7, #16]
    6636:	697b      	ldr	r3, [r7, #20]
    6638:	f103 0104 	add.w	r1, r3, #4
    663c:	6179      	str	r1, [r7, #20]
    663e:	6812      	ldr	r2, [r2, #0]
    6640:	601a      	str	r2, [r3, #0]
/home/qemu-sgx/devel/optee/optee_os/lib/libutils/isoc/newlib/memcpy.c:115
    6642:	693a      	ldr	r2, [r7, #16]
    6644:	f102 0304 	add.w	r3, r2, #4
    6648:	613b      	str	r3, [r7, #16]
    664a:	697b      	ldr	r3, [r7, #20]
    664c:	f103 0104 	add.w	r1, r3, #4
    6650:	6179      	str	r1, [r7, #20]
    6652:	6812      	ldr	r2, [r2, #0]
    6654:	601a      	str	r2, [r3, #0]
/home/qemu-sgx/devel/optee/optee_os/lib/libutils/isoc/newlib/memcpy.c:116
    6656:	687b      	ldr	r3, [r7, #4]
    6658:	f1a3 0310 	sub.w	r3, r3, #16
    665c:	607b      	str	r3, [r7, #4]
/home/qemu-sgx/devel/optee/optee_os/lib/libutils/isoc/newlib/memcpy.c:111
    665e:	687b      	ldr	r3, [r7, #4]
    6660:	2b0f      	cmp	r3, #15
    6662:	d8d0      	bhi.n	6606 <memcpy+0x36>
/home/qemu-sgx/devel/optee/optee_os/lib/libutils/isoc/newlib/memcpy.c:120
    6664:	e00d      	b.n	6682 <memcpy+0xb2>
/home/qemu-sgx/devel/optee/optee_os/lib/libutils/isoc/newlib/memcpy.c:121
    6666:	693a      	ldr	r2, [r7, #16]
    6668:	f102 0304 	add.w	r3, r2, #4
    666c:	613b      	str	r3, [r7, #16]
    666e:	697b      	ldr	r3, [r7, #20]
    6670:	f103 0104 	add.w	r1, r3, #4
    6674:	6179      	str	r1, [r7, #20]
    6676:	6812      	ldr	r2, [r2, #0]
    6678:	601a      	str	r2, [r3, #0]
/home/qemu-sgx/devel/optee/optee_os/lib/libutils/isoc/newlib/memcpy.c:122
    667a:	687b      	ldr	r3, [r7, #4]
    667c:	f1a3 0304 	sub.w	r3, r3, #4
    6680:	607b      	str	r3, [r7, #4]
/home/qemu-sgx/devel/optee/optee_os/lib/libutils/isoc/newlib/memcpy.c:120
    6682:	687b      	ldr	r3, [r7, #4]
    6684:	2b03      	cmp	r3, #3
    6686:	d8ee      	bhi.n	6666 <memcpy+0x96>
/home/qemu-sgx/devel/optee/optee_os/lib/libutils/isoc/newlib/memcpy.c:126
    6688:	697b      	ldr	r3, [r7, #20]
    668a:	61fb      	str	r3, [r7, #28]
/home/qemu-sgx/devel/optee/optee_os/lib/libutils/isoc/newlib/memcpy.c:127
    668c:	693b      	ldr	r3, [r7, #16]
    668e:	61bb      	str	r3, [r7, #24]
/home/qemu-sgx/devel/optee/optee_os/lib/libutils/isoc/newlib/memcpy.c:130
    6690:	e009      	b.n	66a6 <memcpy+0xd6>
/home/qemu-sgx/devel/optee/optee_os/lib/libutils/isoc/newlib/memcpy.c:131
    6692:	69ba      	ldr	r2, [r7, #24]
    6694:	f102 0301 	add.w	r3, r2, #1
    6698:	61bb      	str	r3, [r7, #24]
    669a:	69fb      	ldr	r3, [r7, #28]
    669c:	f103 0101 	add.w	r1, r3, #1
    66a0:	61f9      	str	r1, [r7, #28]
    66a2:	7812      	ldrb	r2, [r2, #0]
    66a4:	701a      	strb	r2, [r3, #0]
/home/qemu-sgx/devel/optee/optee_os/lib/libutils/isoc/newlib/memcpy.c:130
    66a6:	687b      	ldr	r3, [r7, #4]
    66a8:	f103 32ff 	add.w	r2, r3, #4294967295	; 0xffffffff
    66ac:	607a      	str	r2, [r7, #4]
    66ae:	2b00      	cmp	r3, #0
    66b0:	d1ef      	bne.n	6692 <memcpy+0xc2>
/home/qemu-sgx/devel/optee/optee_os/lib/libutils/isoc/newlib/memcpy.c:133
    66b2:	68fb      	ldr	r3, [r7, #12]
/home/qemu-sgx/devel/optee/optee_os/lib/libutils/isoc/newlib/memcpy.c:135
    66b4:	4618      	mov	r0, r3
    66b6:	f107 0724 	add.w	r7, r7, #36	; 0x24
    66ba:	46bd      	mov	sp, r7
    66bc:	f85d 7b04 	ldr.w	r7, [sp], #4
    66c0:	4770      	bx	lr

000066c2 <memmove>:
memmove():
/home/qemu-sgx/devel/optee/optee_os/lib/libutils/isoc/newlib/memmove.c:91
    66c2:	f84d 7d04 	str.w	r7, [sp, #-4]!
    66c6:	b089      	sub	sp, #36	; 0x24
    66c8:	af00      	add	r7, sp, #0
    66ca:	60f8      	str	r0, [r7, #12]
    66cc:	60b9      	str	r1, [r7, #8]
    66ce:	607a      	str	r2, [r7, #4]
/home/qemu-sgx/devel/optee/optee_os/lib/libutils/isoc/newlib/memmove.c:109
    66d0:	68fb      	ldr	r3, [r7, #12]
    66d2:	61fb      	str	r3, [r7, #28]
/home/qemu-sgx/devel/optee/optee_os/lib/libutils/isoc/newlib/memmove.c:110
    66d4:	68bb      	ldr	r3, [r7, #8]
    66d6:	61bb      	str	r3, [r7, #24]
/home/qemu-sgx/devel/optee/optee_os/lib/libutils/isoc/newlib/memmove.c:114
    66d8:	69ba      	ldr	r2, [r7, #24]
    66da:	69fb      	ldr	r3, [r7, #28]
    66dc:	429a      	cmp	r2, r3
    66de:	d221      	bcs.n	6724 <memmove+0x62>
/home/qemu-sgx/devel/optee/optee_os/lib/libutils/isoc/newlib/memmove.c:114 (discriminator 1)
    66e0:	69ba      	ldr	r2, [r7, #24]
    66e2:	687b      	ldr	r3, [r7, #4]
    66e4:	4413      	add	r3, r2
    66e6:	69fa      	ldr	r2, [r7, #28]
    66e8:	429a      	cmp	r2, r3
    66ea:	d21b      	bcs.n	6724 <memmove+0x62>
/home/qemu-sgx/devel/optee/optee_os/lib/libutils/isoc/newlib/memmove.c:116
    66ec:	69ba      	ldr	r2, [r7, #24]
    66ee:	687b      	ldr	r3, [r7, #4]
    66f0:	4413      	add	r3, r2
    66f2:	61bb      	str	r3, [r7, #24]
/home/qemu-sgx/devel/optee/optee_os/lib/libutils/isoc/newlib/memmove.c:117
    66f4:	69fa      	ldr	r2, [r7, #28]
    66f6:	687b      	ldr	r3, [r7, #4]
    66f8:	4413      	add	r3, r2
    66fa:	61fb      	str	r3, [r7, #28]
/home/qemu-sgx/devel/optee/optee_os/lib/libutils/isoc/newlib/memmove.c:118
    66fc:	e00b      	b.n	6716 <memmove+0x54>
/home/qemu-sgx/devel/optee/optee_os/lib/libutils/isoc/newlib/memmove.c:119
    66fe:	69bb      	ldr	r3, [r7, #24]
    6700:	f103 33ff 	add.w	r3, r3, #4294967295	; 0xffffffff
    6704:	61bb      	str	r3, [r7, #24]
    6706:	69fb      	ldr	r3, [r7, #28]
    6708:	f103 33ff 	add.w	r3, r3, #4294967295	; 0xffffffff
    670c:	61fb      	str	r3, [r7, #28]
    670e:	69bb      	ldr	r3, [r7, #24]
    6710:	781a      	ldrb	r2, [r3, #0]
    6712:	69fb      	ldr	r3, [r7, #28]
    6714:	701a      	strb	r2, [r3, #0]
/home/qemu-sgx/devel/optee/optee_os/lib/libutils/isoc/newlib/memmove.c:118
    6716:	687b      	ldr	r3, [r7, #4]
    6718:	f103 32ff 	add.w	r2, r3, #4294967295	; 0xffffffff
    671c:	607a      	str	r2, [r7, #4]
    671e:	2b00      	cmp	r3, #0
    6720:	d1ed      	bne.n	66fe <memmove+0x3c>
/home/qemu-sgx/devel/optee/optee_os/lib/libutils/isoc/newlib/memmove.c:114
    6722:	e065      	b.n	67f0 <memmove+0x12e>
/home/qemu-sgx/devel/optee/optee_os/lib/libutils/isoc/newlib/memmove.c:127
    6724:	687b      	ldr	r3, [r7, #4]
    6726:	2b0f      	cmp	r3, #15
    6728:	d95c      	bls.n	67e4 <memmove+0x122>
/home/qemu-sgx/devel/optee/optee_os/lib/libutils/isoc/newlib/memmove.c:127 (discriminator 1)
    672a:	69ba      	ldr	r2, [r7, #24]
    672c:	69fb      	ldr	r3, [r7, #28]
    672e:	ea43 0302 	orr.w	r3, r3, r2
    6732:	f003 0303 	and.w	r3, r3, #3
    6736:	2b00      	cmp	r3, #0
    6738:	d154      	bne.n	67e4 <memmove+0x122>
/home/qemu-sgx/devel/optee/optee_os/lib/libutils/isoc/newlib/memmove.c:128
    673a:	69fb      	ldr	r3, [r7, #28]
    673c:	617b      	str	r3, [r7, #20]
/home/qemu-sgx/devel/optee/optee_os/lib/libutils/isoc/newlib/memmove.c:129
    673e:	69bb      	ldr	r3, [r7, #24]
    6740:	613b      	str	r3, [r7, #16]
/home/qemu-sgx/devel/optee/optee_os/lib/libutils/isoc/newlib/memmove.c:132
    6742:	e02b      	b.n	679c <memmove+0xda>
/home/qemu-sgx/devel/optee/optee_os/lib/libutils/isoc/newlib/memmove.c:133
    6744:	693a      	ldr	r2, [r7, #16]
    6746:	f102 0304 	add.w	r3, r2, #4
    674a:	613b      	str	r3, [r7, #16]
    674c:	697b      	ldr	r3, [r7, #20]
    674e:	f103 0104 	add.w	r1, r3, #4
    6752:	6179      	str	r1, [r7, #20]
    6754:	6812      	ldr	r2, [r2, #0]
    6756:	601a      	str	r2, [r3, #0]
/home/qemu-sgx/devel/optee/optee_os/lib/libutils/isoc/newlib/memmove.c:134
    6758:	693a      	ldr	r2, [r7, #16]
    675a:	f102 0304 	add.w	r3, r2, #4
    675e:	613b      	str	r3, [r7, #16]
    6760:	697b      	ldr	r3, [r7, #20]
    6762:	f103 0104 	add.w	r1, r3, #4
    6766:	6179      	str	r1, [r7, #20]
    6768:	6812      	ldr	r2, [r2, #0]
    676a:	601a      	str	r2, [r3, #0]
/home/qemu-sgx/devel/optee/optee_os/lib/libutils/isoc/newlib/memmove.c:135
    676c:	693a      	ldr	r2, [r7, #16]
    676e:	f102 0304 	add.w	r3, r2, #4
    6772:	613b      	str	r3, [r7, #16]
    6774:	697b      	ldr	r3, [r7, #20]
    6776:	f103 0104 	add.w	r1, r3, #4
    677a:	6179      	str	r1, [r7, #20]
    677c:	6812      	ldr	r2, [r2, #0]
    677e:	601a      	str	r2, [r3, #0]
/home/qemu-sgx/devel/optee/optee_os/lib/libutils/isoc/newlib/memmove.c:136
    6780:	693a      	ldr	r2, [r7, #16]
    6782:	f102 0304 	add.w	r3, r2, #4
    6786:	613b      	str	r3, [r7, #16]
    6788:	697b      	ldr	r3, [r7, #20]
    678a:	f103 0104 	add.w	r1, r3, #4
    678e:	6179      	str	r1, [r7, #20]
    6790:	6812      	ldr	r2, [r2, #0]
    6792:	601a      	str	r2, [r3, #0]
/home/qemu-sgx/devel/optee/optee_os/lib/libutils/isoc/newlib/memmove.c:137
    6794:	687b      	ldr	r3, [r7, #4]
    6796:	f1a3 0310 	sub.w	r3, r3, #16
    679a:	607b      	str	r3, [r7, #4]
/home/qemu-sgx/devel/optee/optee_os/lib/libutils/isoc/newlib/memmove.c:132
    679c:	687b      	ldr	r3, [r7, #4]
    679e:	2b0f      	cmp	r3, #15
    67a0:	d8d0      	bhi.n	6744 <memmove+0x82>
/home/qemu-sgx/devel/optee/optee_os/lib/libutils/isoc/newlib/memmove.c:141
    67a2:	e00d      	b.n	67c0 <memmove+0xfe>
/home/qemu-sgx/devel/optee/optee_os/lib/libutils/isoc/newlib/memmove.c:142
    67a4:	693a      	ldr	r2, [r7, #16]
    67a6:	f102 0304 	add.w	r3, r2, #4
    67aa:	613b      	str	r3, [r7, #16]
    67ac:	697b      	ldr	r3, [r7, #20]
    67ae:	f103 0104 	add.w	r1, r3, #4
    67b2:	6179      	str	r1, [r7, #20]
    67b4:	6812      	ldr	r2, [r2, #0]
    67b6:	601a      	str	r2, [r3, #0]
/home/qemu-sgx/devel/optee/optee_os/lib/libutils/isoc/newlib/memmove.c:143
    67b8:	687b      	ldr	r3, [r7, #4]
    67ba:	f1a3 0304 	sub.w	r3, r3, #4
    67be:	607b      	str	r3, [r7, #4]
/home/qemu-sgx/devel/optee/optee_os/lib/libutils/isoc/newlib/memmove.c:141
    67c0:	687b      	ldr	r3, [r7, #4]
    67c2:	2b03      	cmp	r3, #3
    67c4:	d8ee      	bhi.n	67a4 <memmove+0xe2>
/home/qemu-sgx/devel/optee/optee_os/lib/libutils/isoc/newlib/memmove.c:147
    67c6:	697b      	ldr	r3, [r7, #20]
    67c8:	61fb      	str	r3, [r7, #28]
/home/qemu-sgx/devel/optee/optee_os/lib/libutils/isoc/newlib/memmove.c:148
    67ca:	693b      	ldr	r3, [r7, #16]
    67cc:	61bb      	str	r3, [r7, #24]
/home/qemu-sgx/devel/optee/optee_os/lib/libutils/isoc/newlib/memmove.c:151
    67ce:	e009      	b.n	67e4 <memmove+0x122>
/home/qemu-sgx/devel/optee/optee_os/lib/libutils/isoc/newlib/memmove.c:152
    67d0:	69ba      	ldr	r2, [r7, #24]
    67d2:	f102 0301 	add.w	r3, r2, #1
    67d6:	61bb      	str	r3, [r7, #24]
    67d8:	69fb      	ldr	r3, [r7, #28]
    67da:	f103 0101 	add.w	r1, r3, #1
    67de:	61f9      	str	r1, [r7, #28]
    67e0:	7812      	ldrb	r2, [r2, #0]
    67e2:	701a      	strb	r2, [r3, #0]
/home/qemu-sgx/devel/optee/optee_os/lib/libutils/isoc/newlib/memmove.c:151
    67e4:	687b      	ldr	r3, [r7, #4]
    67e6:	f103 32ff 	add.w	r2, r3, #4294967295	; 0xffffffff
    67ea:	607a      	str	r2, [r7, #4]
    67ec:	2b00      	cmp	r3, #0
    67ee:	d1ef      	bne.n	67d0 <memmove+0x10e>
/home/qemu-sgx/devel/optee/optee_os/lib/libutils/isoc/newlib/memmove.c:155
    67f0:	68fb      	ldr	r3, [r7, #12]
/home/qemu-sgx/devel/optee/optee_os/lib/libutils/isoc/newlib/memmove.c:157
    67f2:	4618      	mov	r0, r3
    67f4:	f107 0724 	add.w	r7, r7, #36	; 0x24
    67f8:	46bd      	mov	sp, r7
    67fa:	f85d 7b04 	ldr.w	r7, [sp], #4
    67fe:	4770      	bx	lr

00006800 <memset>:
memset():
/home/qemu-sgx/devel/optee/optee_os/lib/libutils/isoc/newlib/memset.c:76
    6800:	f84d 7d04 	str.w	r7, [sp, #-4]!
    6804:	b08b      	sub	sp, #44	; 0x2c
    6806:	af00      	add	r7, sp, #0
    6808:	60f8      	str	r0, [r7, #12]
    680a:	60b9      	str	r1, [r7, #8]
    680c:	607a      	str	r2, [r7, #4]
/home/qemu-sgx/devel/optee/optee_os/lib/libutils/isoc/newlib/memset.c:77
    680e:	68fb      	ldr	r3, [r7, #12]
    6810:	627b      	str	r3, [r7, #36]	; 0x24
/home/qemu-sgx/devel/optee/optee_os/lib/libutils/isoc/newlib/memset.c:83
    6812:	68bb      	ldr	r3, [r7, #8]
    6814:	b2db      	uxtb	r3, r3
    6816:	617b      	str	r3, [r7, #20]
/home/qemu-sgx/devel/optee/optee_os/lib/libutils/isoc/newlib/memset.c:86
    6818:	e00f      	b.n	683a <memset+0x3a>
/home/qemu-sgx/devel/optee/optee_os/lib/libutils/isoc/newlib/memset.c:87
    681a:	687b      	ldr	r3, [r7, #4]
    681c:	f103 32ff 	add.w	r2, r3, #4294967295	; 0xffffffff
    6820:	607a      	str	r2, [r7, #4]
    6822:	2b00      	cmp	r3, #0
    6824:	d007      	beq.n	6836 <memset+0x36>
/home/qemu-sgx/devel/optee/optee_os/lib/libutils/isoc/newlib/memset.c:88
    6826:	6a7b      	ldr	r3, [r7, #36]	; 0x24
    6828:	f103 0201 	add.w	r2, r3, #1
    682c:	627a      	str	r2, [r7, #36]	; 0x24
    682e:	68ba      	ldr	r2, [r7, #8]
    6830:	b2d2      	uxtb	r2, r2
    6832:	701a      	strb	r2, [r3, #0]
    6834:	e001      	b.n	683a <memset+0x3a>
/home/qemu-sgx/devel/optee/optee_os/lib/libutils/isoc/newlib/memset.c:90
    6836:	68fb      	ldr	r3, [r7, #12]
    6838:	e069      	b.n	690e <memset+0x10e>
/home/qemu-sgx/devel/optee/optee_os/lib/libutils/isoc/newlib/memset.c:86
    683a:	6a7b      	ldr	r3, [r7, #36]	; 0x24
    683c:	f003 0303 	and.w	r3, r3, #3
    6840:	2b00      	cmp	r3, #0
    6842:	d1ea      	bne.n	681a <memset+0x1a>
/home/qemu-sgx/devel/optee/optee_os/lib/libutils/isoc/newlib/memset.c:93
    6844:	687b      	ldr	r3, [r7, #4]
    6846:	2b03      	cmp	r3, #3
    6848:	d95a      	bls.n	6900 <memset+0x100>
/home/qemu-sgx/devel/optee/optee_os/lib/libutils/isoc/newlib/memset.c:98
    684a:	6a7b      	ldr	r3, [r7, #36]	; 0x24
    684c:	61bb      	str	r3, [r7, #24]
/home/qemu-sgx/devel/optee/optee_os/lib/libutils/isoc/newlib/memset.c:102
    684e:	697b      	ldr	r3, [r7, #20]
    6850:	ea4f 2303 	mov.w	r3, r3, lsl #8
    6854:	697a      	ldr	r2, [r7, #20]
    6856:	ea43 0302 	orr.w	r3, r3, r2
    685a:	61fb      	str	r3, [r7, #28]
/home/qemu-sgx/devel/optee/optee_os/lib/libutils/isoc/newlib/memset.c:103
    685c:	69fb      	ldr	r3, [r7, #28]
    685e:	ea4f 4303 	mov.w	r3, r3, lsl #16
    6862:	69fa      	ldr	r2, [r7, #28]
    6864:	ea43 0302 	orr.w	r3, r3, r2
    6868:	61fb      	str	r3, [r7, #28]
/home/qemu-sgx/devel/optee/optee_os/lib/libutils/isoc/newlib/memset.c:104
    686a:	f04f 0320 	mov.w	r3, #32
    686e:	623b      	str	r3, [r7, #32]
    6870:	e00b      	b.n	688a <memset+0x8a>
/home/qemu-sgx/devel/optee/optee_os/lib/libutils/isoc/newlib/memset.c:105 (discriminator 3)
    6872:	69fa      	ldr	r2, [r7, #28]
    6874:	6a3b      	ldr	r3, [r7, #32]
    6876:	fa02 f303 	lsl.w	r3, r2, r3
    687a:	69fa      	ldr	r2, [r7, #28]
    687c:	ea43 0302 	orr.w	r3, r3, r2
    6880:	61fb      	str	r3, [r7, #28]
/home/qemu-sgx/devel/optee/optee_os/lib/libutils/isoc/newlib/memset.c:104 (discriminator 3)
    6882:	6a3b      	ldr	r3, [r7, #32]
    6884:	ea4f 0343 	mov.w	r3, r3, lsl #1
    6888:	623b      	str	r3, [r7, #32]
/home/qemu-sgx/devel/optee/optee_os/lib/libutils/isoc/newlib/memset.c:104 (discriminator 1)
    688a:	6a3b      	ldr	r3, [r7, #32]
    688c:	2b1f      	cmp	r3, #31
    688e:	d9f0      	bls.n	6872 <memset+0x72>
/home/qemu-sgx/devel/optee/optee_os/lib/libutils/isoc/newlib/memset.c:108
    6890:	e01b      	b.n	68ca <memset+0xca>
/home/qemu-sgx/devel/optee/optee_os/lib/libutils/isoc/newlib/memset.c:109
    6892:	69bb      	ldr	r3, [r7, #24]
    6894:	f103 0204 	add.w	r2, r3, #4
    6898:	61ba      	str	r2, [r7, #24]
    689a:	69fa      	ldr	r2, [r7, #28]
    689c:	601a      	str	r2, [r3, #0]
/home/qemu-sgx/devel/optee/optee_os/lib/libutils/isoc/newlib/memset.c:110
    689e:	69bb      	ldr	r3, [r7, #24]
    68a0:	f103 0204 	add.w	r2, r3, #4
    68a4:	61ba      	str	r2, [r7, #24]
    68a6:	69fa      	ldr	r2, [r7, #28]
    68a8:	601a      	str	r2, [r3, #0]
/home/qemu-sgx/devel/optee/optee_os/lib/libutils/isoc/newlib/memset.c:111
    68aa:	69bb      	ldr	r3, [r7, #24]
    68ac:	f103 0204 	add.w	r2, r3, #4
    68b0:	61ba      	str	r2, [r7, #24]
    68b2:	69fa      	ldr	r2, [r7, #28]
    68b4:	601a      	str	r2, [r3, #0]
/home/qemu-sgx/devel/optee/optee_os/lib/libutils/isoc/newlib/memset.c:112
    68b6:	69bb      	ldr	r3, [r7, #24]
    68b8:	f103 0204 	add.w	r2, r3, #4
    68bc:	61ba      	str	r2, [r7, #24]
    68be:	69fa      	ldr	r2, [r7, #28]
    68c0:	601a      	str	r2, [r3, #0]
/home/qemu-sgx/devel/optee/optee_os/lib/libutils/isoc/newlib/memset.c:113
    68c2:	687b      	ldr	r3, [r7, #4]
    68c4:	f1a3 0310 	sub.w	r3, r3, #16
    68c8:	607b      	str	r3, [r7, #4]
/home/qemu-sgx/devel/optee/optee_os/lib/libutils/isoc/newlib/memset.c:108
    68ca:	687b      	ldr	r3, [r7, #4]
    68cc:	2b0f      	cmp	r3, #15
    68ce:	d8e0      	bhi.n	6892 <memset+0x92>
/home/qemu-sgx/devel/optee/optee_os/lib/libutils/isoc/newlib/memset.c:116
    68d0:	e009      	b.n	68e6 <memset+0xe6>
/home/qemu-sgx/devel/optee/optee_os/lib/libutils/isoc/newlib/memset.c:117
    68d2:	69bb      	ldr	r3, [r7, #24]
    68d4:	f103 0204 	add.w	r2, r3, #4
    68d8:	61ba      	str	r2, [r7, #24]
    68da:	69fa      	ldr	r2, [r7, #28]
    68dc:	601a      	str	r2, [r3, #0]
/home/qemu-sgx/devel/optee/optee_os/lib/libutils/isoc/newlib/memset.c:118
    68de:	687b      	ldr	r3, [r7, #4]
    68e0:	f1a3 0304 	sub.w	r3, r3, #4
    68e4:	607b      	str	r3, [r7, #4]
/home/qemu-sgx/devel/optee/optee_os/lib/libutils/isoc/newlib/memset.c:116
    68e6:	687b      	ldr	r3, [r7, #4]
    68e8:	2b03      	cmp	r3, #3
    68ea:	d8f2      	bhi.n	68d2 <memset+0xd2>
/home/qemu-sgx/devel/optee/optee_os/lib/libutils/isoc/newlib/memset.c:121
    68ec:	69bb      	ldr	r3, [r7, #24]
    68ee:	627b      	str	r3, [r7, #36]	; 0x24
/home/qemu-sgx/devel/optee/optee_os/lib/libutils/isoc/newlib/memset.c:125
    68f0:	e006      	b.n	6900 <memset+0x100>
/home/qemu-sgx/devel/optee/optee_os/lib/libutils/isoc/newlib/memset.c:126
    68f2:	6a7b      	ldr	r3, [r7, #36]	; 0x24
    68f4:	f103 0201 	add.w	r2, r3, #1
    68f8:	627a      	str	r2, [r7, #36]	; 0x24
    68fa:	68ba      	ldr	r2, [r7, #8]
    68fc:	b2d2      	uxtb	r2, r2
    68fe:	701a      	strb	r2, [r3, #0]
/home/qemu-sgx/devel/optee/optee_os/lib/libutils/isoc/newlib/memset.c:125
    6900:	687b      	ldr	r3, [r7, #4]
    6902:	f103 32ff 	add.w	r2, r3, #4294967295	; 0xffffffff
    6906:	607a      	str	r2, [r7, #4]
    6908:	2b00      	cmp	r3, #0
    690a:	d1f2      	bne.n	68f2 <memset+0xf2>
/home/qemu-sgx/devel/optee/optee_os/lib/libutils/isoc/newlib/memset.c:128
    690c:	68fb      	ldr	r3, [r7, #12]
/home/qemu-sgx/devel/optee/optee_os/lib/libutils/isoc/newlib/memset.c:129
    690e:	4618      	mov	r0, r3
    6910:	f107 072c 	add.w	r7, r7, #44	; 0x2c
    6914:	46bd      	mov	sp, r7
    6916:	f85d 7b04 	ldr.w	r7, [sp], #4
    691a:	4770      	bx	lr

0000691c <strlen>:
strlen():
/home/qemu-sgx/devel/optee/optee_os/lib/libutils/isoc/newlib/strlen.c:92
    691c:	f84d 7d04 	str.w	r7, [sp, #-4]!
    6920:	b085      	sub	sp, #20
    6922:	af00      	add	r7, sp, #0
    6924:	6078      	str	r0, [r7, #4]
/home/qemu-sgx/devel/optee/optee_os/lib/libutils/isoc/newlib/strlen.c:93
    6926:	687b      	ldr	r3, [r7, #4]
    6928:	60bb      	str	r3, [r7, #8]
/home/qemu-sgx/devel/optee/optee_os/lib/libutils/isoc/newlib/strlen.c:99
    692a:	e00c      	b.n	6946 <strlen+0x2a>
/home/qemu-sgx/devel/optee/optee_os/lib/libutils/isoc/newlib/strlen.c:100
    692c:	687b      	ldr	r3, [r7, #4]
    692e:	781b      	ldrb	r3, [r3, #0]
    6930:	2b00      	cmp	r3, #0
    6932:	d104      	bne.n	693e <strlen+0x22>
/home/qemu-sgx/devel/optee/optee_os/lib/libutils/isoc/newlib/strlen.c:101
    6934:	687a      	ldr	r2, [r7, #4]
    6936:	68bb      	ldr	r3, [r7, #8]
    6938:	eba2 0303 	sub.w	r3, r2, r3
    693c:	e02c      	b.n	6998 <strlen+0x7c>
/home/qemu-sgx/devel/optee/optee_os/lib/libutils/isoc/newlib/strlen.c:102
    693e:	687b      	ldr	r3, [r7, #4]
    6940:	f103 0301 	add.w	r3, r3, #1
    6944:	607b      	str	r3, [r7, #4]
/home/qemu-sgx/devel/optee/optee_os/lib/libutils/isoc/newlib/strlen.c:99
    6946:	687b      	ldr	r3, [r7, #4]
    6948:	f003 0303 	and.w	r3, r3, #3
    694c:	2b00      	cmp	r3, #0
    694e:	d1ed      	bne.n	692c <strlen+0x10>
/home/qemu-sgx/devel/optee/optee_os/lib/libutils/isoc/newlib/strlen.c:107
    6950:	687b      	ldr	r3, [r7, #4]
    6952:	60fb      	str	r3, [r7, #12]
/home/qemu-sgx/devel/optee/optee_os/lib/libutils/isoc/newlib/strlen.c:108
    6954:	e003      	b.n	695e <strlen+0x42>
/home/qemu-sgx/devel/optee/optee_os/lib/libutils/isoc/newlib/strlen.c:109
    6956:	68fb      	ldr	r3, [r7, #12]
    6958:	f103 0304 	add.w	r3, r3, #4
    695c:	60fb      	str	r3, [r7, #12]
/home/qemu-sgx/devel/optee/optee_os/lib/libutils/isoc/newlib/strlen.c:108
    695e:	68fb      	ldr	r3, [r7, #12]
    6960:	681b      	ldr	r3, [r3, #0]
    6962:	f1a3 3201 	sub.w	r2, r3, #16843009	; 0x1010101
    6966:	68fb      	ldr	r3, [r7, #12]
    6968:	681b      	ldr	r3, [r3, #0]
    696a:	ea6f 0303 	mvn.w	r3, r3
    696e:	ea03 0302 	and.w	r3, r3, r2
    6972:	f003 3380 	and.w	r3, r3, #2155905152	; 0x80808080
    6976:	2b00      	cmp	r3, #0
    6978:	d0ed      	beq.n	6956 <strlen+0x3a>
/home/qemu-sgx/devel/optee/optee_os/lib/libutils/isoc/newlib/strlen.c:113
    697a:	68fb      	ldr	r3, [r7, #12]
    697c:	607b      	str	r3, [r7, #4]
/home/qemu-sgx/devel/optee/optee_os/lib/libutils/isoc/newlib/strlen.c:117
    697e:	e003      	b.n	6988 <strlen+0x6c>
/home/qemu-sgx/devel/optee/optee_os/lib/libutils/isoc/newlib/strlen.c:118
    6980:	687b      	ldr	r3, [r7, #4]
    6982:	f103 0301 	add.w	r3, r3, #1
    6986:	607b      	str	r3, [r7, #4]
/home/qemu-sgx/devel/optee/optee_os/lib/libutils/isoc/newlib/strlen.c:117
    6988:	687b      	ldr	r3, [r7, #4]
    698a:	781b      	ldrb	r3, [r3, #0]
    698c:	2b00      	cmp	r3, #0
    698e:	d1f7      	bne.n	6980 <strlen+0x64>
/home/qemu-sgx/devel/optee/optee_os/lib/libutils/isoc/newlib/strlen.c:119
    6990:	687a      	ldr	r2, [r7, #4]
    6992:	68bb      	ldr	r3, [r7, #8]
    6994:	eba2 0303 	sub.w	r3, r2, r3
/home/qemu-sgx/devel/optee/optee_os/lib/libutils/isoc/newlib/strlen.c:120
    6998:	4618      	mov	r0, r3
    699a:	f107 0714 	add.w	r7, r7, #20
    699e:	46bd      	mov	sp, r7
    69a0:	f85d 7b04 	ldr.w	r7, [sp], #4
    69a4:	4770      	bx	lr
	...

000069a8 <trace_set_level>:
trace_set_level():
/home/qemu-sgx/devel/optee/optee_os/lib/libutils/ext/trace.c:25
    69a8:	f84d 7d04 	str.w	r7, [sp, #-4]!
    69ac:	b083      	sub	sp, #12
    69ae:	af00      	add	r7, sp, #0
    69b0:	6078      	str	r0, [r7, #4]
    69b2:	4b0d      	ldr	r3, [pc, #52]	; (69e8 <trace_set_level+0x40>)
    69b4:	447b      	add	r3, pc
/home/qemu-sgx/devel/optee/optee_os/lib/libutils/ext/trace.c:26
    69b6:	687a      	ldr	r2, [r7, #4]
    69b8:	2a00      	cmp	r2, #0
    69ba:	db07      	blt.n	69cc <trace_set_level+0x24>
/home/qemu-sgx/devel/optee/optee_os/lib/libutils/ext/trace.c:26 (discriminator 1)
    69bc:	687a      	ldr	r2, [r7, #4]
    69be:	2a04      	cmp	r2, #4
    69c0:	dc04      	bgt.n	69cc <trace_set_level+0x24>
/home/qemu-sgx/devel/optee/optee_os/lib/libutils/ext/trace.c:27
    69c2:	4a0a      	ldr	r2, [pc, #40]	; (69ec <trace_set_level+0x44>)
    69c4:	589b      	ldr	r3, [r3, r2]
    69c6:	687a      	ldr	r2, [r7, #4]
    69c8:	601a      	str	r2, [r3, #0]
    69ca:	e005      	b.n	69d8 <trace_set_level+0x30>
/home/qemu-sgx/devel/optee/optee_os/lib/libutils/ext/trace.c:29
    69cc:	4a07      	ldr	r2, [pc, #28]	; (69ec <trace_set_level+0x44>)
    69ce:	589b      	ldr	r3, [r3, r2]
    69d0:	f04f 0204 	mov.w	r2, #4
    69d4:	601a      	str	r2, [r3, #0]
/home/qemu-sgx/devel/optee/optee_os/lib/libutils/ext/trace.c:30
    69d6:	bf00      	nop
    69d8:	bf00      	nop
    69da:	f107 070c 	add.w	r7, r7, #12
    69de:	46bd      	mov	sp, r7
    69e0:	f85d 7b04 	ldr.w	r7, [sp], #4
    69e4:	4770      	bx	lr
    69e6:	bf00      	nop
    69e8:	00009648 	.word	0x00009648
    69ec:	000001d4 	.word	0x000001d4

000069f0 <trace_get_level>:
trace_get_level():
/home/qemu-sgx/devel/optee/optee_os/lib/libutils/ext/trace.c:33
    69f0:	f84d 7d04 	str.w	r7, [sp, #-4]!
    69f4:	af00      	add	r7, sp, #0
    69f6:	4a05      	ldr	r2, [pc, #20]	; (6a0c <trace_get_level+0x1c>)
    69f8:	447a      	add	r2, pc
/home/qemu-sgx/devel/optee/optee_os/lib/libutils/ext/trace.c:34
    69fa:	4b05      	ldr	r3, [pc, #20]	; (6a10 <trace_get_level+0x20>)
    69fc:	58d3      	ldr	r3, [r2, r3]
    69fe:	681b      	ldr	r3, [r3, #0]
/home/qemu-sgx/devel/optee/optee_os/lib/libutils/ext/trace.c:35
    6a00:	4618      	mov	r0, r3
    6a02:	46bd      	mov	sp, r7
    6a04:	f85d 7b04 	ldr.w	r7, [sp], #4
    6a08:	4770      	bx	lr
    6a0a:	bf00      	nop
    6a0c:	00009604 	.word	0x00009604
    6a10:	000001d4 	.word	0x000001d4

00006a14 <trace_level_to_string>:
trace_level_to_string():
/home/qemu-sgx/devel/optee/optee_os/lib/libutils/ext/trace.c:38
    6a14:	f84d 7d04 	str.w	r7, [sp, #-4]!
    6a18:	b085      	sub	sp, #20
    6a1a:	af00      	add	r7, sp, #0
    6a1c:	6078      	str	r0, [r7, #4]
    6a1e:	460b      	mov	r3, r1
    6a20:	70fb      	strb	r3, [r7, #3]
/home/qemu-sgx/devel/optee/optee_os/lib/libutils/ext/trace.c:47
    6a22:	f04f 0300 	mov.w	r3, #0
    6a26:	60fb      	str	r3, [r7, #12]
/home/qemu-sgx/devel/optee/optee_os/lib/libutils/ext/trace.c:49
    6a28:	78fb      	ldrb	r3, [r7, #3]
    6a2a:	f083 0301 	eor.w	r3, r3, #1
    6a2e:	b2db      	uxtb	r3, r3
    6a30:	2b00      	cmp	r3, #0
    6a32:	d002      	beq.n	6a3a <trace_level_to_string+0x26>
/home/qemu-sgx/devel/optee/optee_os/lib/libutils/ext/trace.c:50
    6a34:	f04f 034d 	mov.w	r3, #77	; 0x4d
    6a38:	e00c      	b.n	6a54 <trace_level_to_string+0x40>
/home/qemu-sgx/devel/optee/optee_os/lib/libutils/ext/trace.c:52
    6a3a:	687b      	ldr	r3, [r7, #4]
    6a3c:	2b00      	cmp	r3, #0
    6a3e:	db04      	blt.n	6a4a <trace_level_to_string+0x36>
/home/qemu-sgx/devel/optee/optee_os/lib/libutils/ext/trace.c:52 (discriminator 1)
    6a40:	687b      	ldr	r3, [r7, #4]
    6a42:	2b04      	cmp	r3, #4
    6a44:	dc01      	bgt.n	6a4a <trace_level_to_string+0x36>
/home/qemu-sgx/devel/optee/optee_os/lib/libutils/ext/trace.c:53
    6a46:	687b      	ldr	r3, [r7, #4]
    6a48:	60fb      	str	r3, [r7, #12]
/home/qemu-sgx/devel/optee/optee_os/lib/libutils/ext/trace.c:55
    6a4a:	4a06      	ldr	r2, [pc, #24]	; (6a64 <trace_level_to_string+0x50>)
    6a4c:	447a      	add	r2, pc
    6a4e:	68fb      	ldr	r3, [r7, #12]
    6a50:	4413      	add	r3, r2
    6a52:	781b      	ldrb	r3, [r3, #0]
/home/qemu-sgx/devel/optee/optee_os/lib/libutils/ext/trace.c:56
    6a54:	4618      	mov	r0, r3
    6a56:	f107 0714 	add.w	r7, r7, #20
    6a5a:	46bd      	mov	sp, r7
    6a5c:	f85d 7b04 	ldr.w	r7, [sp], #4
    6a60:	4770      	bx	lr
    6a62:	bf00      	nop
    6a64:	00006da8 	.word	0x00006da8

00006a68 <print_thread_id>:
print_thread_id():
/home/qemu-sgx/devel/optee/optee_os/lib/libutils/ext/trace.c:59
    6a68:	e96d 7e02 	strd	r7, lr, [sp, #-8]!
    6a6c:	b086      	sub	sp, #24
    6a6e:	af02      	add	r7, sp, #8
    6a70:	6078      	str	r0, [r7, #4]
    6a72:	6039      	str	r1, [r7, #0]
/home/qemu-sgx/devel/optee/optee_os/lib/libutils/ext/trace.c:63
    6a74:	f04f 0301 	mov.w	r3, #1
    6a78:	60fb      	str	r3, [r7, #12]
/home/qemu-sgx/devel/optee/optee_os/lib/libutils/ext/trace.c:65
    6a7a:	f7fc ecd8 	blx	342c <trace_ext_get_thread_id@plt>
    6a7e:	60b8      	str	r0, [r7, #8]
/home/qemu-sgx/devel/optee/optee_os/lib/libutils/ext/trace.c:67
    6a80:	68bb      	ldr	r3, [r7, #8]
    6a82:	2b00      	cmp	r3, #0
    6a84:	db0a      	blt.n	6a9c <print_thread_id+0x34>
/home/qemu-sgx/devel/optee/optee_os/lib/libutils/ext/trace.c:68
    6a86:	68bb      	ldr	r3, [r7, #8]
    6a88:	9300      	str	r3, [sp, #0]
    6a8a:	68fb      	ldr	r3, [r7, #12]
    6a8c:	4a0b      	ldr	r2, [pc, #44]	; (6abc <print_thread_id+0x54>)
    6a8e:	447a      	add	r2, pc
    6a90:	6839      	ldr	r1, [r7, #0]
    6a92:	6878      	ldr	r0, [r7, #4]
    6a94:	f7fc ec76 	blx	3384 <snprintk@plt>
    6a98:	4603      	mov	r3, r0
    6a9a:	e00a      	b.n	6ab2 <print_thread_id+0x4a>
/home/qemu-sgx/devel/optee/optee_os/lib/libutils/ext/trace.c:70
    6a9c:	4b08      	ldr	r3, [pc, #32]	; (6ac0 <print_thread_id+0x58>)
    6a9e:	447b      	add	r3, pc
    6aa0:	9300      	str	r3, [sp, #0]
    6aa2:	68fb      	ldr	r3, [r7, #12]
    6aa4:	4a07      	ldr	r2, [pc, #28]	; (6ac4 <print_thread_id+0x5c>)
    6aa6:	447a      	add	r2, pc
    6aa8:	6839      	ldr	r1, [r7, #0]
    6aaa:	6878      	ldr	r0, [r7, #4]
    6aac:	f7fc ec6a 	blx	3384 <snprintk@plt>
    6ab0:	4603      	mov	r3, r0
/home/qemu-sgx/devel/optee/optee_os/lib/libutils/ext/trace.c:71
    6ab2:	4618      	mov	r0, r3
    6ab4:	f107 0710 	add.w	r7, r7, #16
    6ab8:	46bd      	mov	sp, r7
    6aba:	bd80      	pop	{r7, pc}
    6abc:	00006d42 	.word	0x00006d42
    6ac0:	00006d42 	.word	0x00006d42
    6ac4:	00006d32 	.word	0x00006d32

00006ac8 <print_core_id>:
print_core_id():
/home/qemu-sgx/devel/optee/optee_os/lib/libutils/ext/trace.c:89
    6ac8:	f84d 7d04 	str.w	r7, [sp, #-4]!
    6acc:	b083      	sub	sp, #12
    6ace:	af00      	add	r7, sp, #0
    6ad0:	6078      	str	r0, [r7, #4]
    6ad2:	6039      	str	r1, [r7, #0]
/home/qemu-sgx/devel/optee/optee_os/lib/libutils/ext/trace.c:90
    6ad4:	f04f 0300 	mov.w	r3, #0
/home/qemu-sgx/devel/optee/optee_os/lib/libutils/ext/trace.c:91
    6ad8:	4618      	mov	r0, r3
    6ada:	f107 070c 	add.w	r7, r7, #12
    6ade:	46bd      	mov	sp, r7
    6ae0:	f85d 7b04 	ldr.w	r7, [sp], #4
    6ae4:	4770      	bx	lr

00006ae6 <trace_printf>:
trace_printf():
/home/qemu-sgx/devel/optee/optee_os/lib/libutils/ext/trace.c:97
    6ae6:	e96d 7e02 	strd	r7, lr, [sp, #-8]!
    6aea:	b088      	sub	sp, #32
    6aec:	af02      	add	r7, sp, #8
    6aee:	60f8      	str	r0, [r7, #12]
    6af0:	60b9      	str	r1, [r7, #8]
    6af2:	607a      	str	r2, [r7, #4]
    6af4:	70fb      	strb	r3, [r7, #3]
/home/qemu-sgx/devel/optee/optee_os/lib/libutils/ext/trace.c:100
    6af6:	f107 0324 	add.w	r3, r7, #36	; 0x24
    6afa:	617b      	str	r3, [r7, #20]
/home/qemu-sgx/devel/optee/optee_os/lib/libutils/ext/trace.c:101
    6afc:	78fa      	ldrb	r2, [r7, #3]
    6afe:	697b      	ldr	r3, [r7, #20]
    6b00:	9301      	str	r3, [sp, #4]
    6b02:	6a3b      	ldr	r3, [r7, #32]
    6b04:	9300      	str	r3, [sp, #0]
    6b06:	4613      	mov	r3, r2
    6b08:	687a      	ldr	r2, [r7, #4]
    6b0a:	68b9      	ldr	r1, [r7, #8]
    6b0c:	68f8      	ldr	r0, [r7, #12]
    6b0e:	f7fc eade 	blx	30cc <trace_vprintf@plt>
/home/qemu-sgx/devel/optee/optee_os/lib/libutils/ext/trace.c:103
    6b12:	bf00      	nop
    6b14:	f107 0718 	add.w	r7, r7, #24
    6b18:	46bd      	mov	sp, r7
    6b1a:	bd80      	pop	{r7, pc}

00006b1c <trace_vprintf>:
trace_vprintf():
/home/qemu-sgx/devel/optee/optee_os/lib/libutils/ext/trace.c:106
    6b1c:	f84d 4d0c 	str.w	r4, [sp, #-12]!
    6b20:	e9cd 7e01 	strd	r7, lr, [sp, #4]
    6b24:	b0c9      	sub	sp, #292	; 0x124
    6b26:	af02      	add	r7, sp, #8
    6b28:	f507 748c 	add.w	r4, r7, #280	; 0x118
    6b2c:	f5a4 7486 	sub.w	r4, r4, #268	; 0x10c
    6b30:	6020      	str	r0, [r4, #0]
    6b32:	f507 708c 	add.w	r0, r7, #280	; 0x118
    6b36:	f5a0 7088 	sub.w	r0, r0, #272	; 0x110
    6b3a:	6001      	str	r1, [r0, #0]
    6b3c:	f507 718c 	add.w	r1, r7, #280	; 0x118
    6b40:	f5a1 718a 	sub.w	r1, r1, #276	; 0x114
    6b44:	600a      	str	r2, [r1, #0]
    6b46:	461a      	mov	r2, r3
    6b48:	f507 738c 	add.w	r3, r7, #280	; 0x118
    6b4c:	f2a3 1315 	subw	r3, r3, #277	; 0x115
    6b50:	701a      	strb	r2, [r3, #0]
    6b52:	4caf      	ldr	r4, [pc, #700]	; (6e10 <trace_vprintf+0x2f4>)
    6b54:	447c      	add	r4, pc
/home/qemu-sgx/devel/optee/optee_os/lib/libutils/ext/trace.c:108
    6b56:	f04f 0300 	mov.w	r3, #0
    6b5a:	f8c7 3114 	str.w	r3, [r7, #276]	; 0x114
/home/qemu-sgx/devel/optee/optee_os/lib/libutils/ext/trace.c:111
    6b5e:	f507 738c 	add.w	r3, r7, #280	; 0x118
    6b62:	f2a3 1315 	subw	r3, r3, #277	; 0x115
    6b66:	781b      	ldrb	r3, [r3, #0]
    6b68:	2b00      	cmp	r3, #0
    6b6a:	d00a      	beq.n	6b82 <trace_vprintf+0x66>
/home/qemu-sgx/devel/optee/optee_os/lib/libutils/ext/trace.c:111 (discriminator 1)
    6b6c:	4ba9      	ldr	r3, [pc, #676]	; (6e14 <trace_vprintf+0x2f8>)
    6b6e:	58e3      	ldr	r3, [r4, r3]
    6b70:	681b      	ldr	r3, [r3, #0]
    6b72:	f507 728c 	add.w	r2, r7, #280	; 0x118
    6b76:	f5a2 728a 	sub.w	r2, r2, #276	; 0x114
    6b7a:	6812      	ldr	r2, [r2, #0]
    6b7c:	429a      	cmp	r2, r3
    6b7e:	f300 8131 	bgt.w	6de4 <trace_vprintf+0x2c8>
/home/qemu-sgx/devel/optee/optee_os/lib/libutils/ext/trace.c:116
    6b82:	f507 738c 	add.w	r3, r7, #280	; 0x118
    6b86:	f2a3 1315 	subw	r3, r3, #277	; 0x115
    6b8a:	781a      	ldrb	r2, [r3, #0]
    6b8c:	f507 738c 	add.w	r3, r7, #280	; 0x118
    6b90:	f5a3 738a 	sub.w	r3, r3, #276	; 0x114
    6b94:	4611      	mov	r1, r2
    6b96:	6818      	ldr	r0, [r3, #0]
    6b98:	f7ff ff3c 	bl	6a14 <trace_level_to_string>
    6b9c:	4603      	mov	r3, r0
/home/qemu-sgx/devel/optee/optee_os/lib/libutils/ext/trace.c:115
    6b9e:	f107 0010 	add.w	r0, r7, #16
    6ba2:	4a9d      	ldr	r2, [pc, #628]	; (6e18 <trace_vprintf+0x2fc>)
    6ba4:	447a      	add	r2, pc
    6ba6:	f44f 7180 	mov.w	r1, #256	; 0x100
    6baa:	f7fc ebec 	blx	3384 <snprintk@plt>
    6bae:	f8c7 0110 	str.w	r0, [r7, #272]	; 0x110
/home/qemu-sgx/devel/optee/optee_os/lib/libutils/ext/trace.c:117
    6bb2:	f8d7 3110 	ldr.w	r3, [r7, #272]	; 0x110
    6bb6:	2b00      	cmp	r3, #0
    6bb8:	f2c0 8116 	blt.w	6de8 <trace_vprintf+0x2cc>
/home/qemu-sgx/devel/optee/optee_os/lib/libutils/ext/trace.c:119
    6bbc:	f8d7 3110 	ldr.w	r3, [r7, #272]	; 0x110
    6bc0:	f8d7 2114 	ldr.w	r2, [r7, #276]	; 0x114
    6bc4:	4413      	add	r3, r2
    6bc6:	f8c7 3114 	str.w	r3, [r7, #276]	; 0x114
/home/qemu-sgx/devel/optee/optee_os/lib/libutils/ext/trace.c:122
    6bca:	f107 0210 	add.w	r2, r7, #16
    6bce:	f8d7 3114 	ldr.w	r3, [r7, #276]	; 0x114
    6bd2:	eb02 0003 	add.w	r0, r2, r3
    6bd6:	f8d7 3114 	ldr.w	r3, [r7, #276]	; 0x114
    6bda:	f5c3 7180 	rsb	r1, r3, #256	; 0x100
    6bde:	4b8f      	ldr	r3, [pc, #572]	; (6e1c <trace_vprintf+0x300>)
    6be0:	58e3      	ldr	r3, [r4, r3]
    6be2:	4a8f      	ldr	r2, [pc, #572]	; (6e20 <trace_vprintf+0x304>)
    6be4:	447a      	add	r2, pc
    6be6:	f7fc ebce 	blx	3384 <snprintk@plt>
    6bea:	f8c7 0110 	str.w	r0, [r7, #272]	; 0x110
/home/qemu-sgx/devel/optee/optee_os/lib/libutils/ext/trace.c:124
    6bee:	f8d7 3110 	ldr.w	r3, [r7, #272]	; 0x110
    6bf2:	2b00      	cmp	r3, #0
    6bf4:	f2c0 80fa 	blt.w	6dec <trace_vprintf+0x2d0>
/home/qemu-sgx/devel/optee/optee_os/lib/libutils/ext/trace.c:126
    6bf8:	f8d7 3110 	ldr.w	r3, [r7, #272]	; 0x110
    6bfc:	f8d7 2114 	ldr.w	r2, [r7, #276]	; 0x114
    6c00:	4413      	add	r3, r2
    6c02:	f8c7 3114 	str.w	r3, [r7, #276]	; 0x114
/home/qemu-sgx/devel/optee/optee_os/lib/libutils/ext/trace.c:128
    6c06:	f507 738c 	add.w	r3, r7, #280	; 0x118
    6c0a:	f2a3 1315 	subw	r3, r3, #277	; 0x115
    6c0e:	781b      	ldrb	r3, [r3, #0]
    6c10:	2b00      	cmp	r3, #0
    6c12:	d071      	beq.n	6cf8 <trace_vprintf+0x1dc>
/home/qemu-sgx/devel/optee/optee_os/lib/libutils/ext/trace.c:128 (discriminator 1)
    6c14:	f507 738c 	add.w	r3, r7, #280	; 0x118
    6c18:	f5a3 738a 	sub.w	r3, r3, #276	; 0x114
    6c1c:	f04f 021a 	mov.w	r2, #26
    6c20:	681b      	ldr	r3, [r3, #0]
    6c22:	fa22 f303 	lsr.w	r3, r2, r3
    6c26:	f003 0301 	and.w	r3, r3, #1
    6c2a:	2b00      	cmp	r3, #0
    6c2c:	d064      	beq.n	6cf8 <trace_vprintf+0x1dc>
/home/qemu-sgx/devel/optee/optee_os/lib/libutils/ext/trace.c:130
    6c2e:	f107 0210 	add.w	r2, r7, #16
    6c32:	f8d7 3114 	ldr.w	r3, [r7, #276]	; 0x114
    6c36:	441a      	add	r2, r3
    6c38:	f8d7 3114 	ldr.w	r3, [r7, #276]	; 0x114
    6c3c:	f5c3 7380 	rsb	r3, r3, #256	; 0x100
    6c40:	4619      	mov	r1, r3
    6c42:	4610      	mov	r0, r2
    6c44:	f7ff ff40 	bl	6ac8 <print_core_id>
    6c48:	f8c7 0110 	str.w	r0, [r7, #272]	; 0x110
/home/qemu-sgx/devel/optee/optee_os/lib/libutils/ext/trace.c:131
    6c4c:	f8d7 3110 	ldr.w	r3, [r7, #272]	; 0x110
    6c50:	2b00      	cmp	r3, #0
    6c52:	f2c0 80cd 	blt.w	6df0 <trace_vprintf+0x2d4>
/home/qemu-sgx/devel/optee/optee_os/lib/libutils/ext/trace.c:133
    6c56:	f8d7 3110 	ldr.w	r3, [r7, #272]	; 0x110
    6c5a:	f8d7 2114 	ldr.w	r2, [r7, #276]	; 0x114
    6c5e:	4413      	add	r3, r2
    6c60:	f8c7 3114 	str.w	r3, [r7, #276]	; 0x114
/home/qemu-sgx/devel/optee/optee_os/lib/libutils/ext/trace.c:136
    6c64:	f107 0210 	add.w	r2, r7, #16
    6c68:	f8d7 3114 	ldr.w	r3, [r7, #276]	; 0x114
    6c6c:	441a      	add	r2, r3
    6c6e:	f8d7 3114 	ldr.w	r3, [r7, #276]	; 0x114
    6c72:	f5c3 7380 	rsb	r3, r3, #256	; 0x100
    6c76:	4619      	mov	r1, r3
    6c78:	4610      	mov	r0, r2
    6c7a:	f7ff fef5 	bl	6a68 <print_thread_id>
    6c7e:	f8c7 0110 	str.w	r0, [r7, #272]	; 0x110
/home/qemu-sgx/devel/optee/optee_os/lib/libutils/ext/trace.c:137
    6c82:	f8d7 3110 	ldr.w	r3, [r7, #272]	; 0x110
    6c86:	2b00      	cmp	r3, #0
    6c88:	f2c0 80b4 	blt.w	6df4 <trace_vprintf+0x2d8>
/home/qemu-sgx/devel/optee/optee_os/lib/libutils/ext/trace.c:139
    6c8c:	f8d7 3110 	ldr.w	r3, [r7, #272]	; 0x110
    6c90:	f8d7 2114 	ldr.w	r2, [r7, #276]	; 0x114
    6c94:	4413      	add	r3, r2
    6c96:	f8c7 3114 	str.w	r3, [r7, #276]	; 0x114
/home/qemu-sgx/devel/optee/optee_os/lib/libutils/ext/trace.c:141
    6c9a:	f507 738c 	add.w	r3, r7, #280	; 0x118
    6c9e:	f5a3 7386 	sub.w	r3, r3, #268	; 0x10c
    6ca2:	681b      	ldr	r3, [r3, #0]
    6ca4:	2b00      	cmp	r3, #0
    6ca6:	d042      	beq.n	6d2e <trace_vprintf+0x212>
/home/qemu-sgx/devel/optee/optee_os/lib/libutils/ext/trace.c:142
    6ca8:	f107 0210 	add.w	r2, r7, #16
    6cac:	f8d7 3114 	ldr.w	r3, [r7, #276]	; 0x114
    6cb0:	eb02 0003 	add.w	r0, r2, r3
    6cb4:	f8d7 3114 	ldr.w	r3, [r7, #276]	; 0x114
    6cb8:	f5c3 7180 	rsb	r1, r3, #256	; 0x100
    6cbc:	f507 738c 	add.w	r3, r7, #280	; 0x118
    6cc0:	f5a3 7386 	sub.w	r3, r3, #268	; 0x10c
    6cc4:	f507 728c 	add.w	r2, r7, #280	; 0x118
    6cc8:	f5a2 7288 	sub.w	r2, r2, #272	; 0x110
    6ccc:	6812      	ldr	r2, [r2, #0]
    6cce:	9200      	str	r2, [sp, #0]
    6cd0:	681b      	ldr	r3, [r3, #0]
    6cd2:	4a54      	ldr	r2, [pc, #336]	; (6e24 <trace_vprintf+0x308>)
    6cd4:	447a      	add	r2, pc
    6cd6:	f7fc eb56 	blx	3384 <snprintk@plt>
    6cda:	f8c7 0110 	str.w	r0, [r7, #272]	; 0x110
/home/qemu-sgx/devel/optee/optee_os/lib/libutils/ext/trace.c:144
    6cde:	f8d7 3110 	ldr.w	r3, [r7, #272]	; 0x110
    6ce2:	2b00      	cmp	r3, #0
    6ce4:	f2c0 8088 	blt.w	6df8 <trace_vprintf+0x2dc>
/home/qemu-sgx/devel/optee/optee_os/lib/libutils/ext/trace.c:146
    6ce8:	f8d7 3110 	ldr.w	r3, [r7, #272]	; 0x110
    6cec:	f8d7 2114 	ldr.w	r2, [r7, #276]	; 0x114
    6cf0:	4413      	add	r3, r2
    6cf2:	f8c7 3114 	str.w	r3, [r7, #276]	; 0x114
/home/qemu-sgx/devel/optee/optee_os/lib/libutils/ext/trace.c:141
    6cf6:	e01a      	b.n	6d2e <trace_vprintf+0x212>
/home/qemu-sgx/devel/optee/optee_os/lib/libutils/ext/trace.c:150
    6cf8:	f8d7 3114 	ldr.w	r3, [r7, #276]	; 0x114
    6cfc:	2bfe      	cmp	r3, #254	; 0xfe
    6cfe:	d87d      	bhi.n	6dfc <trace_vprintf+0x2e0>
/home/qemu-sgx/devel/optee/optee_os/lib/libutils/ext/trace.c:152
    6d00:	f8d7 3114 	ldr.w	r3, [r7, #276]	; 0x114
    6d04:	f103 0201 	add.w	r2, r3, #1
    6d08:	f8c7 2114 	str.w	r2, [r7, #276]	; 0x114
    6d0c:	f507 728c 	add.w	r2, r7, #280	; 0x118
    6d10:	f5a2 7284 	sub.w	r2, r2, #264	; 0x108
    6d14:	f04f 0120 	mov.w	r1, #32
    6d18:	54d1      	strb	r1, [r2, r3]
/home/qemu-sgx/devel/optee/optee_os/lib/libutils/ext/trace.c:153
    6d1a:	f507 738c 	add.w	r3, r7, #280	; 0x118
    6d1e:	f5a3 7284 	sub.w	r2, r3, #264	; 0x108
    6d22:	f8d7 3114 	ldr.w	r3, [r7, #276]	; 0x114
    6d26:	4413      	add	r3, r2
    6d28:	f04f 0200 	mov.w	r2, #0
    6d2c:	701a      	strb	r2, [r3, #0]
/home/qemu-sgx/devel/optee/optee_os/lib/libutils/ext/trace.c:156
    6d2e:	f107 0210 	add.w	r2, r7, #16
    6d32:	f8d7 3114 	ldr.w	r3, [r7, #276]	; 0x114
    6d36:	eb02 0003 	add.w	r0, r2, r3
    6d3a:	f8d7 3114 	ldr.w	r3, [r7, #276]	; 0x114
    6d3e:	f5c3 7180 	rsb	r1, r3, #256	; 0x100
    6d42:	f8d7 312c 	ldr.w	r3, [r7, #300]	; 0x12c
    6d46:	f8d7 2128 	ldr.w	r2, [r7, #296]	; 0x128
    6d4a:	f7fc e94e 	blx	2fe8 <vsnprintk@plt>
    6d4e:	f8c7 0110 	str.w	r0, [r7, #272]	; 0x110
/home/qemu-sgx/devel/optee/optee_os/lib/libutils/ext/trace.c:157
    6d52:	f8d7 3110 	ldr.w	r3, [r7, #272]	; 0x110
    6d56:	2b00      	cmp	r3, #0
    6d58:	dd06      	ble.n	6d68 <trace_vprintf+0x24c>
/home/qemu-sgx/devel/optee/optee_os/lib/libutils/ext/trace.c:158
    6d5a:	f8d7 3110 	ldr.w	r3, [r7, #272]	; 0x110
    6d5e:	f8d7 2114 	ldr.w	r2, [r7, #276]	; 0x114
    6d62:	4413      	add	r3, r2
    6d64:	f8c7 3114 	str.w	r3, [r7, #276]	; 0x114
/home/qemu-sgx/devel/optee/optee_os/lib/libutils/ext/trace.c:160
    6d68:	f8d7 3114 	ldr.w	r3, [r7, #276]	; 0x114
    6d6c:	2bfe      	cmp	r3, #254	; 0xfe
    6d6e:	d903      	bls.n	6d78 <trace_vprintf+0x25c>
/home/qemu-sgx/devel/optee/optee_os/lib/libutils/ext/trace.c:161
    6d70:	f04f 03fe 	mov.w	r3, #254	; 0xfe
    6d74:	f8c7 3114 	str.w	r3, [r7, #276]	; 0x114
/home/qemu-sgx/devel/optee/optee_os/lib/libutils/ext/trace.c:163
    6d78:	f507 738c 	add.w	r3, r7, #280	; 0x118
    6d7c:	f5a3 7284 	sub.w	r2, r3, #264	; 0x108
    6d80:	f8d7 3114 	ldr.w	r3, [r7, #276]	; 0x114
    6d84:	4413      	add	r3, r2
    6d86:	f04f 020a 	mov.w	r2, #10
    6d8a:	701a      	strb	r2, [r3, #0]
/home/qemu-sgx/devel/optee/optee_os/lib/libutils/ext/trace.c:164
    6d8c:	e005      	b.n	6d9a <trace_vprintf+0x27e>
/home/qemu-sgx/devel/optee/optee_os/lib/libutils/ext/trace.c:165
    6d8e:	f8d7 3114 	ldr.w	r3, [r7, #276]	; 0x114
    6d92:	f103 33ff 	add.w	r3, r3, #4294967295	; 0xffffffff
    6d96:	f8c7 3114 	str.w	r3, [r7, #276]	; 0x114
/home/qemu-sgx/devel/optee/optee_os/lib/libutils/ext/trace.c:164
    6d9a:	f8d7 3114 	ldr.w	r3, [r7, #276]	; 0x114
    6d9e:	2b00      	cmp	r3, #0
    6da0:	d009      	beq.n	6db6 <trace_vprintf+0x29a>
/home/qemu-sgx/devel/optee/optee_os/lib/libutils/ext/trace.c:164 (discriminator 1)
    6da2:	f507 738c 	add.w	r3, r7, #280	; 0x118
    6da6:	f5a3 7284 	sub.w	r2, r3, #264	; 0x108
    6daa:	f8d7 3114 	ldr.w	r3, [r7, #276]	; 0x114
    6dae:	4413      	add	r3, r2
    6db0:	781b      	ldrb	r3, [r3, #0]
    6db2:	2b0a      	cmp	r3, #10
    6db4:	d0eb      	beq.n	6d8e <trace_vprintf+0x272>
/home/qemu-sgx/devel/optee/optee_os/lib/libutils/ext/trace.c:166
    6db6:	f8d7 3114 	ldr.w	r3, [r7, #276]	; 0x114
    6dba:	f103 0301 	add.w	r3, r3, #1
    6dbe:	f8c7 3114 	str.w	r3, [r7, #276]	; 0x114
/home/qemu-sgx/devel/optee/optee_os/lib/libutils/ext/trace.c:167
    6dc2:	f8d7 3114 	ldr.w	r3, [r7, #276]	; 0x114
    6dc6:	f103 0301 	add.w	r3, r3, #1
    6dca:	f507 728c 	add.w	r2, r7, #280	; 0x118
    6dce:	f5a2 7284 	sub.w	r2, r2, #264	; 0x108
    6dd2:	f04f 0100 	mov.w	r1, #0
    6dd6:	54d1      	strb	r1, [r2, r3]
/home/qemu-sgx/devel/optee/optee_os/lib/libutils/ext/trace.c:169
    6dd8:	f107 0310 	add.w	r3, r7, #16
    6ddc:	4618      	mov	r0, r3
    6dde:	f7fc eb20 	blx	3420 <trace_ext_puts@plt>
    6de2:	e00c      	b.n	6dfe <trace_vprintf+0x2e2>
/home/qemu-sgx/devel/optee/optee_os/lib/libutils/ext/trace.c:112
    6de4:	bf00      	nop
    6de6:	e00a      	b.n	6dfe <trace_vprintf+0x2e2>
/home/qemu-sgx/devel/optee/optee_os/lib/libutils/ext/trace.c:118
    6de8:	bf00      	nop
    6dea:	e008      	b.n	6dfe <trace_vprintf+0x2e2>
/home/qemu-sgx/devel/optee/optee_os/lib/libutils/ext/trace.c:125
    6dec:	bf00      	nop
    6dee:	e006      	b.n	6dfe <trace_vprintf+0x2e2>
/home/qemu-sgx/devel/optee/optee_os/lib/libutils/ext/trace.c:132
    6df0:	bf00      	nop
    6df2:	e004      	b.n	6dfe <trace_vprintf+0x2e2>
/home/qemu-sgx/devel/optee/optee_os/lib/libutils/ext/trace.c:138
    6df4:	bf00      	nop
    6df6:	e002      	b.n	6dfe <trace_vprintf+0x2e2>
/home/qemu-sgx/devel/optee/optee_os/lib/libutils/ext/trace.c:145
    6df8:	bf00      	nop
    6dfa:	e000      	b.n	6dfe <trace_vprintf+0x2e2>
/home/qemu-sgx/devel/optee/optee_os/lib/libutils/ext/trace.c:151
    6dfc:	bf00      	nop
/home/qemu-sgx/devel/optee/optee_os/lib/libutils/ext/trace.c:170
    6dfe:	f507 778e 	add.w	r7, r7, #284	; 0x11c
    6e02:	46bd      	mov	sp, r7
    6e04:	e9dd 4700 	ldrd	r4, r7, [sp]
    6e08:	b002      	add	sp, #8
    6e0a:	f85d fb04 	ldr.w	pc, [sp], #4
    6e0e:	bf00      	nop
    6e10:	000094a8 	.word	0x000094a8
    6e14:	000001d4 	.word	0x000001d4
    6e18:	00006c40 	.word	0x00006c40
    6e1c:	000001d8 	.word	0x000001d8
    6e20:	00006c04 	.word	0x00006c04
    6e24:	00006b18 	.word	0x00006b18

00006e28 <dhex_dump>:
dhex_dump():
/home/qemu-sgx/devel/optee/optee_os/lib/libutils/ext/trace.c:279
    6e28:	f84d 7d04 	str.w	r7, [sp, #-4]!
    6e2c:	b085      	sub	sp, #20
    6e2e:	af00      	add	r7, sp, #0
    6e30:	60f8      	str	r0, [r7, #12]
    6e32:	60b9      	str	r1, [r7, #8]
    6e34:	607a      	str	r2, [r7, #4]
    6e36:	603b      	str	r3, [r7, #0]
/home/qemu-sgx/devel/optee/optee_os/lib/libutils/ext/trace.c:280
    6e38:	bf00      	nop
    6e3a:	f107 0714 	add.w	r7, r7, #20
    6e3e:	46bd      	mov	sp, r7
    6e40:	f85d 7b04 	ldr.w	r7, [sp], #4
    6e44:	4770      	bx	lr
    6e46:	bf00      	nop

00006e48 <consttime_memcmp>:
consttime_memcmp():
/home/qemu-sgx/devel/optee/optee_os/lib/libutils/ext/consttime_memcmp.c:36
    6e48:	f84d 7d04 	str.w	r7, [sp, #-4]!
    6e4c:	b08b      	sub	sp, #44	; 0x2c
    6e4e:	af00      	add	r7, sp, #0
    6e50:	60f8      	str	r0, [r7, #12]
    6e52:	60b9      	str	r1, [r7, #8]
    6e54:	607a      	str	r2, [r7, #4]
/home/qemu-sgx/devel/optee/optee_os/lib/libutils/ext/consttime_memcmp.c:37
    6e56:	68fb      	ldr	r3, [r7, #12]
    6e58:	627b      	str	r3, [r7, #36]	; 0x24
/home/qemu-sgx/devel/optee/optee_os/lib/libutils/ext/consttime_memcmp.c:38
    6e5a:	68bb      	ldr	r3, [r7, #8]
    6e5c:	623b      	str	r3, [r7, #32]
/home/qemu-sgx/devel/optee/optee_os/lib/libutils/ext/consttime_memcmp.c:39
    6e5e:	f04f 0300 	mov.w	r3, #0
    6e62:	61fb      	str	r3, [r7, #28]
/home/qemu-sgx/devel/optee/optee_os/lib/libutils/ext/consttime_memcmp.c:40
    6e64:	f04f 0300 	mov.w	r3, #0
    6e68:	61bb      	str	r3, [r7, #24]
/home/qemu-sgx/devel/optee/optee_os/lib/libutils/ext/consttime_memcmp.c:41
    6e6a:	f44f 7380 	mov.w	r3, #256	; 0x100
    6e6e:	617b      	str	r3, [r7, #20]
/home/qemu-sgx/devel/optee/optee_os/lib/libutils/ext/consttime_memcmp.c:43
    6e70:	e031      	b.n	6ed6 <consttime_memcmp+0x8e>
/home/qemu-sgx/devel/optee/optee_os/lib/libutils/ext/consttime_memcmp.c:45 (discriminator 2)
    6e72:	6a7b      	ldr	r3, [r7, #36]	; 0x24
    6e74:	781b      	ldrb	r3, [r3, #0]
    6e76:	461a      	mov	r2, r3
    6e78:	6a3b      	ldr	r3, [r7, #32]
    6e7a:	781b      	ldrb	r3, [r3, #0]
    6e7c:	eba2 0203 	sub.w	r2, r2, r3
/home/qemu-sgx/devel/optee/optee_os/lib/libutils/ext/consttime_memcmp.c:44 (discriminator 2)
    6e80:	697b      	ldr	r3, [r7, #20]
    6e82:	ea03 0302 	and.w	r3, r3, r2
    6e86:	69fa      	ldr	r2, [r7, #28]
    6e88:	ea43 0302 	orr.w	r3, r3, r2
    6e8c:	61fb      	str	r3, [r7, #28]
/home/qemu-sgx/devel/optee/optee_os/lib/libutils/ext/consttime_memcmp.c:47 (discriminator 2)
    6e8e:	6a3b      	ldr	r3, [r7, #32]
    6e90:	781b      	ldrb	r3, [r3, #0]
    6e92:	461a      	mov	r2, r3
    6e94:	6a7b      	ldr	r3, [r7, #36]	; 0x24
    6e96:	781b      	ldrb	r3, [r3, #0]
    6e98:	eba2 0203 	sub.w	r2, r2, r3
/home/qemu-sgx/devel/optee/optee_os/lib/libutils/ext/consttime_memcmp.c:46 (discriminator 2)
    6e9c:	697b      	ldr	r3, [r7, #20]
    6e9e:	ea03 0302 	and.w	r3, r3, r2
    6ea2:	69ba      	ldr	r2, [r7, #24]
    6ea4:	ea43 0302 	orr.w	r3, r3, r2
    6ea8:	61bb      	str	r3, [r7, #24]
/home/qemu-sgx/devel/optee/optee_os/lib/libutils/ext/consttime_memcmp.c:48 (discriminator 2)
    6eaa:	69fa      	ldr	r2, [r7, #28]
    6eac:	69bb      	ldr	r3, [r7, #24]
    6eae:	ea43 0302 	orr.w	r3, r3, r2
    6eb2:	ea6f 0203 	mvn.w	r2, r3
    6eb6:	697b      	ldr	r3, [r7, #20]
    6eb8:	ea03 0302 	and.w	r3, r3, r2
    6ebc:	617b      	str	r3, [r7, #20]
/home/qemu-sgx/devel/optee/optee_os/lib/libutils/ext/consttime_memcmp.c:43 (discriminator 2)
    6ebe:	687b      	ldr	r3, [r7, #4]
    6ec0:	f103 33ff 	add.w	r3, r3, #4294967295	; 0xffffffff
    6ec4:	607b      	str	r3, [r7, #4]
    6ec6:	6a7b      	ldr	r3, [r7, #36]	; 0x24
    6ec8:	f103 0301 	add.w	r3, r3, #1
    6ecc:	627b      	str	r3, [r7, #36]	; 0x24
    6ece:	6a3b      	ldr	r3, [r7, #32]
    6ed0:	f103 0301 	add.w	r3, r3, #1
    6ed4:	623b      	str	r3, [r7, #32]
/home/qemu-sgx/devel/optee/optee_os/lib/libutils/ext/consttime_memcmp.c:43 (discriminator 1)
    6ed6:	687b      	ldr	r3, [r7, #4]
    6ed8:	2b00      	cmp	r3, #0
    6eda:	d1ca      	bne.n	6e72 <consttime_memcmp+0x2a>
/home/qemu-sgx/devel/optee/optee_os/lib/libutils/ext/consttime_memcmp.c:50
    6edc:	69bb      	ldr	r3, [r7, #24]
    6ede:	ea4f 2313 	mov.w	r3, r3, lsr #8
    6ee2:	461a      	mov	r2, r3
    6ee4:	69fb      	ldr	r3, [r7, #28]
    6ee6:	ea4f 2313 	mov.w	r3, r3, lsr #8
    6eea:	eba2 0303 	sub.w	r3, r2, r3
/home/qemu-sgx/devel/optee/optee_os/lib/libutils/ext/consttime_memcmp.c:51
    6eee:	4618      	mov	r0, r3
    6ef0:	f107 072c 	add.w	r7, r7, #44	; 0x2c
    6ef4:	46bd      	mov	sp, r7
    6ef6:	f85d 7b04 	ldr.w	r7, [sp], #4
    6efa:	4770      	bx	lr

00006efc <snprintk>:
snprintk():
/home/qemu-sgx/devel/optee/optee_os/lib/libutils/ext/snprintk.c:113
    6efc:	b40c      	push	{r2, r3}
    6efe:	e96d 7e02 	strd	r7, lr, [sp, #-8]!
    6f02:	b084      	sub	sp, #16
    6f04:	af00      	add	r7, sp, #0
    6f06:	6078      	str	r0, [r7, #4]
    6f08:	6039      	str	r1, [r7, #0]
/home/qemu-sgx/devel/optee/optee_os/lib/libutils/ext/snprintk.c:117
    6f0a:	f107 031c 	add.w	r3, r7, #28
    6f0e:	60bb      	str	r3, [r7, #8]
/home/qemu-sgx/devel/optee/optee_os/lib/libutils/ext/snprintk.c:118
    6f10:	68bb      	ldr	r3, [r7, #8]
    6f12:	69ba      	ldr	r2, [r7, #24]
    6f14:	6839      	ldr	r1, [r7, #0]
    6f16:	6878      	ldr	r0, [r7, #4]
    6f18:	f7fc e866 	blx	2fe8 <vsnprintk@plt>
    6f1c:	60f8      	str	r0, [r7, #12]
/home/qemu-sgx/devel/optee/optee_os/lib/libutils/ext/snprintk.c:121
    6f1e:	68fb      	ldr	r3, [r7, #12]
/home/qemu-sgx/devel/optee/optee_os/lib/libutils/ext/snprintk.c:122
    6f20:	4618      	mov	r0, r3
    6f22:	f107 0710 	add.w	r7, r7, #16
    6f26:	46bd      	mov	sp, r7
    6f28:	e9dd 7e00 	ldrd	r7, lr, [sp]
    6f2c:	b002      	add	sp, #8
    6f2e:	b002      	add	sp, #8
    6f30:	4770      	bx	lr

00006f32 <vsnprintk>:
vsnprintk():
/home/qemu-sgx/devel/optee/optee_os/lib/libutils/ext/snprintk.c:130
    6f32:	e96d 7e02 	strd	r7, lr, [sp, #-8]!
    6f36:	b086      	sub	sp, #24
    6f38:	af02      	add	r7, sp, #8
    6f3a:	60f8      	str	r0, [r7, #12]
    6f3c:	60b9      	str	r1, [r7, #8]
    6f3e:	607a      	str	r2, [r7, #4]
    6f40:	603b      	str	r3, [r7, #0]
/home/qemu-sgx/devel/optee/optee_os/lib/libutils/ext/snprintk.c:131
    6f42:	f04f 0301 	mov.w	r3, #1
    6f46:	9300      	str	r3, [sp, #0]
    6f48:	683b      	ldr	r3, [r7, #0]
    6f4a:	687a      	ldr	r2, [r7, #4]
    6f4c:	68b9      	ldr	r1, [r7, #8]
    6f4e:	68f8      	ldr	r0, [r7, #12]
    6f50:	f7fc ea5a 	blx	3408 <__vsnprintf@plt>
    6f54:	4603      	mov	r3, r0
/home/qemu-sgx/devel/optee/optee_os/lib/libutils/ext/snprintk.c:132
    6f56:	4618      	mov	r0, r3
    6f58:	f107 0710 	add.w	r7, r7, #16
    6f5c:	46bd      	mov	sp, r7
    6f5e:	bd80      	pop	{r7, pc}

00006f60 <__vsnprintf>:
__vsnprintf():
/home/qemu-sgx/devel/optee/optee_os/lib/libutils/ext/snprintk.c:138
    6f60:	e96d 7e02 	strd	r7, lr, [sp, #-8]!
    6f64:	b088      	sub	sp, #32
    6f66:	af02      	add	r7, sp, #8
    6f68:	60f8      	str	r0, [r7, #12]
    6f6a:	60b9      	str	r1, [r7, #8]
    6f6c:	607a      	str	r2, [r7, #4]
    6f6e:	603b      	str	r3, [r7, #0]
/home/qemu-sgx/devel/optee/optee_os/lib/libutils/ext/snprintk.c:142
    6f70:	68fa      	ldr	r2, [r7, #12]
    6f72:	68bb      	ldr	r3, [r7, #8]
    6f74:	4413      	add	r3, r2
    6f76:	613b      	str	r3, [r7, #16]
/home/qemu-sgx/devel/optee/optee_os/lib/libutils/ext/snprintk.c:143
    6f78:	f107 0210 	add.w	r2, r7, #16
    6f7c:	f897 3020 	ldrb.w	r3, [r7, #32]
    6f80:	9301      	str	r3, [sp, #4]
    6f82:	683b      	ldr	r3, [r7, #0]
    6f84:	9300      	str	r3, [sp, #0]
    6f86:	68fb      	ldr	r3, [r7, #12]
    6f88:	f04f 0108 	mov.w	r1, #8
    6f8c:	6878      	ldr	r0, [r7, #4]
    6f8e:	f000 f889 	bl	70a4 <kprintf>
    6f92:	6178      	str	r0, [r7, #20]
/home/qemu-sgx/devel/optee/optee_os/lib/libutils/ext/snprintk.c:144
    6f94:	68fb      	ldr	r3, [r7, #12]
    6f96:	2b00      	cmp	r3, #0
    6f98:	d015      	beq.n	6fc6 <__vsnprintf+0x66>
/home/qemu-sgx/devel/optee/optee_os/lib/libutils/ext/snprintk.c:144 (discriminator 1)
    6f9a:	68bb      	ldr	r3, [r7, #8]
    6f9c:	2b00      	cmp	r3, #0
    6f9e:	d012      	beq.n	6fc6 <__vsnprintf+0x66>
/home/qemu-sgx/devel/optee/optee_os/lib/libutils/ext/snprintk.c:146
    6fa0:	697b      	ldr	r3, [r7, #20]
    6fa2:	68ba      	ldr	r2, [r7, #8]
    6fa4:	429a      	cmp	r2, r3
    6fa6:	d808      	bhi.n	6fba <__vsnprintf+0x5a>
/home/qemu-sgx/devel/optee/optee_os/lib/libutils/ext/snprintk.c:147
    6fa8:	68bb      	ldr	r3, [r7, #8]
    6faa:	f103 33ff 	add.w	r3, r3, #4294967295	; 0xffffffff
    6fae:	68fa      	ldr	r2, [r7, #12]
    6fb0:	4413      	add	r3, r2
    6fb2:	f04f 0200 	mov.w	r2, #0
    6fb6:	701a      	strb	r2, [r3, #0]
    6fb8:	e005      	b.n	6fc6 <__vsnprintf+0x66>
/home/qemu-sgx/devel/optee/optee_os/lib/libutils/ext/snprintk.c:149
    6fba:	697b      	ldr	r3, [r7, #20]
    6fbc:	68fa      	ldr	r2, [r7, #12]
    6fbe:	4413      	add	r3, r2
    6fc0:	f04f 0200 	mov.w	r2, #0
    6fc4:	701a      	strb	r2, [r3, #0]
/home/qemu-sgx/devel/optee/optee_os/lib/libutils/ext/snprintk.c:151
    6fc6:	697b      	ldr	r3, [r7, #20]
/home/qemu-sgx/devel/optee/optee_os/lib/libutils/ext/snprintk.c:152
    6fc8:	4618      	mov	r0, r3
    6fca:	f107 0718 	add.w	r7, r7, #24
    6fce:	46bd      	mov	sp, r7
    6fd0:	bd80      	pop	{r7, pc}

00006fd2 <__vsprintf>:
__vsprintf():
/home/qemu-sgx/devel/optee/optee_os/lib/libutils/ext/snprintk.c:155
    6fd2:	e96d 7e02 	strd	r7, lr, [sp, #-8]!
    6fd6:	b086      	sub	sp, #24
    6fd8:	af02      	add	r7, sp, #8
    6fda:	60f8      	str	r0, [r7, #12]
    6fdc:	60b9      	str	r1, [r7, #8]
    6fde:	607a      	str	r2, [r7, #4]
/home/qemu-sgx/devel/optee/optee_os/lib/libutils/ext/snprintk.c:156
    6fe0:	f04f 0300 	mov.w	r3, #0
    6fe4:	9301      	str	r3, [sp, #4]
    6fe6:	687b      	ldr	r3, [r7, #4]
    6fe8:	9300      	str	r3, [sp, #0]
    6fea:	68fb      	ldr	r3, [r7, #12]
    6fec:	f04f 0200 	mov.w	r2, #0
    6ff0:	f04f 0108 	mov.w	r1, #8
    6ff4:	68b8      	ldr	r0, [r7, #8]
    6ff6:	f000 f855 	bl	70a4 <kprintf>
    6ffa:	4603      	mov	r3, r0
/home/qemu-sgx/devel/optee/optee_os/lib/libutils/ext/snprintk.c:157
    6ffc:	4618      	mov	r0, r3
    6ffe:	f107 0710 	add.w	r7, r7, #16
    7002:	46bd      	mov	sp, r7
    7004:	bd80      	pop	{r7, pc}

00007006 <uuid2str>:
uuid2str():
/home/qemu-sgx/devel/optee/optee_os/lib/libutils/ext/snprintk.c:221
    7006:	f84d 4d14 	str.w	r4, [sp, #-20]!
    700a:	e9cd 5601 	strd	r5, r6, [sp, #4]
    700e:	e9cd 7e03 	strd	r7, lr, [sp, #12]
    7012:	b095      	sub	sp, #84	; 0x54
    7014:	af0a      	add	r7, sp, #40	; 0x28
    7016:	61f8      	str	r0, [r7, #28]
    7018:	61b9      	str	r1, [r7, #24]
    701a:	617a      	str	r2, [r7, #20]
/home/qemu-sgx/devel/optee/optee_os/lib/libutils/ext/snprintk.c:227
    701c:	697b      	ldr	r3, [r7, #20]
    701e:	627b      	str	r3, [r7, #36]	; 0x24
/home/qemu-sgx/devel/optee/optee_os/lib/libutils/ext/snprintk.c:229
    7020:	6a7b      	ldr	r3, [r7, #36]	; 0x24
    7022:	681a      	ldr	r2, [r3, #0]
/home/qemu-sgx/devel/optee/optee_os/lib/libutils/ext/snprintk.c:231
    7024:	6a7b      	ldr	r3, [r7, #36]	; 0x24
    7026:	889b      	ldrh	r3, [r3, #4]
/home/qemu-sgx/devel/optee/optee_os/lib/libutils/ext/snprintk.c:229
    7028:	4619      	mov	r1, r3
/home/qemu-sgx/devel/optee/optee_os/lib/libutils/ext/snprintk.c:231
    702a:	6a7b      	ldr	r3, [r7, #36]	; 0x24
    702c:	88db      	ldrh	r3, [r3, #6]
/home/qemu-sgx/devel/optee/optee_os/lib/libutils/ext/snprintk.c:229
    702e:	4618      	mov	r0, r3
/home/qemu-sgx/devel/optee/optee_os/lib/libutils/ext/snprintk.c:232
    7030:	6a7b      	ldr	r3, [r7, #36]	; 0x24
    7032:	7a1b      	ldrb	r3, [r3, #8]
/home/qemu-sgx/devel/optee/optee_os/lib/libutils/ext/snprintk.c:229
    7034:	461c      	mov	r4, r3
/home/qemu-sgx/devel/optee/optee_os/lib/libutils/ext/snprintk.c:232
    7036:	6a7b      	ldr	r3, [r7, #36]	; 0x24
    7038:	7a5b      	ldrb	r3, [r3, #9]
/home/qemu-sgx/devel/optee/optee_os/lib/libutils/ext/snprintk.c:229
    703a:	461d      	mov	r5, r3
/home/qemu-sgx/devel/optee/optee_os/lib/libutils/ext/snprintk.c:233
    703c:	6a7b      	ldr	r3, [r7, #36]	; 0x24
    703e:	7a9b      	ldrb	r3, [r3, #10]
/home/qemu-sgx/devel/optee/optee_os/lib/libutils/ext/snprintk.c:229
    7040:	461e      	mov	r6, r3
/home/qemu-sgx/devel/optee/optee_os/lib/libutils/ext/snprintk.c:233
    7042:	6a7b      	ldr	r3, [r7, #36]	; 0x24
    7044:	7adb      	ldrb	r3, [r3, #11]
/home/qemu-sgx/devel/optee/optee_os/lib/libutils/ext/snprintk.c:229
    7046:	613b      	str	r3, [r7, #16]
/home/qemu-sgx/devel/optee/optee_os/lib/libutils/ext/snprintk.c:234
    7048:	6a7b      	ldr	r3, [r7, #36]	; 0x24
    704a:	7b1b      	ldrb	r3, [r3, #12]
/home/qemu-sgx/devel/optee/optee_os/lib/libutils/ext/snprintk.c:229
    704c:	60fb      	str	r3, [r7, #12]
/home/qemu-sgx/devel/optee/optee_os/lib/libutils/ext/snprintk.c:234
    704e:	6a7b      	ldr	r3, [r7, #36]	; 0x24
    7050:	7b5b      	ldrb	r3, [r3, #13]
/home/qemu-sgx/devel/optee/optee_os/lib/libutils/ext/snprintk.c:229
    7052:	60bb      	str	r3, [r7, #8]
/home/qemu-sgx/devel/optee/optee_os/lib/libutils/ext/snprintk.c:235
    7054:	6a7b      	ldr	r3, [r7, #36]	; 0x24
    7056:	7b9b      	ldrb	r3, [r3, #14]
/home/qemu-sgx/devel/optee/optee_os/lib/libutils/ext/snprintk.c:229
    7058:	607b      	str	r3, [r7, #4]
/home/qemu-sgx/devel/optee/optee_os/lib/libutils/ext/snprintk.c:235
    705a:	6a7b      	ldr	r3, [r7, #36]	; 0x24
    705c:	7bdb      	ldrb	r3, [r3, #15]
/home/qemu-sgx/devel/optee/optee_os/lib/libutils/ext/snprintk.c:229
    705e:	9309      	str	r3, [sp, #36]	; 0x24
    7060:	687b      	ldr	r3, [r7, #4]
    7062:	9308      	str	r3, [sp, #32]
    7064:	68bb      	ldr	r3, [r7, #8]
    7066:	9307      	str	r3, [sp, #28]
    7068:	68fb      	ldr	r3, [r7, #12]
    706a:	9306      	str	r3, [sp, #24]
    706c:	693b      	ldr	r3, [r7, #16]
    706e:	9305      	str	r3, [sp, #20]
    7070:	9604      	str	r6, [sp, #16]
    7072:	9503      	str	r5, [sp, #12]
    7074:	9402      	str	r4, [sp, #8]
    7076:	9001      	str	r0, [sp, #4]
    7078:	9100      	str	r1, [sp, #0]
    707a:	4613      	mov	r3, r2
    707c:	4a08      	ldr	r2, [pc, #32]	; (70a0 <uuid2str+0x9a>)
    707e:	447a      	add	r2, pc
    7080:	69b9      	ldr	r1, [r7, #24]
    7082:	69f8      	ldr	r0, [r7, #28]
    7084:	f7fc e97e 	blx	3384 <snprintk@plt>
    7088:	4603      	mov	r3, r0
/home/qemu-sgx/devel/optee/optee_os/lib/libutils/ext/snprintk.c:236
    708a:	4618      	mov	r0, r3
    708c:	f107 072c 	add.w	r7, r7, #44	; 0x2c
    7090:	46bd      	mov	sp, r7
    7092:	e9dd 4500 	ldrd	r4, r5, [sp]
    7096:	e9dd 6702 	ldrd	r6, r7, [sp, #8]
    709a:	b004      	add	sp, #16
    709c:	f85d fb04 	ldr.w	pc, [sp], #4
    70a0:	000067a6 	.word	0x000067a6

000070a4 <kprintf>:
kprintf():
/home/qemu-sgx/devel/optee/optee_os/lib/libutils/ext/snprintk.c:244
    70a4:	e96d 4508 	strd	r4, r5, [sp, #-32]!
    70a8:	e9cd 7802 	strd	r7, r8, [sp, #8]
    70ac:	e9cd 9a04 	strd	r9, sl, [sp, #16]
    70b0:	e9cd be06 	strd	fp, lr, [sp, #24]
    70b4:	b0ac      	sub	sp, #176	; 0xb0
    70b6:	af00      	add	r7, sp, #0
    70b8:	6378      	str	r0, [r7, #52]	; 0x34
    70ba:	6339      	str	r1, [r7, #48]	; 0x30
    70bc:	62fa      	str	r2, [r7, #44]	; 0x2c
    70be:	62bb      	str	r3, [r7, #40]	; 0x28
/home/qemu-sgx/devel/optee/optee_os/lib/libutils/ext/snprintk.c:264
    70c0:	6b3b      	ldr	r3, [r7, #48]	; 0x30
    70c2:	2b08      	cmp	r3, #8
    70c4:	d106      	bne.n	70d4 <kprintf+0x30>
/home/qemu-sgx/devel/optee/optee_os/lib/libutils/ext/snprintk.c:264 (discriminator 1)
    70c6:	6afb      	ldr	r3, [r7, #44]	; 0x2c
    70c8:	2b00      	cmp	r3, #0
    70ca:	d003      	beq.n	70d4 <kprintf+0x30>
/home/qemu-sgx/devel/optee/optee_os/lib/libutils/ext/snprintk.c:265
    70cc:	6afb      	ldr	r3, [r7, #44]	; 0x2c
    70ce:	681b      	ldr	r3, [r3, #0]
    70d0:	66bb      	str	r3, [r7, #104]	; 0x68
    70d2:	e002      	b.n	70da <kprintf+0x36>
/home/qemu-sgx/devel/optee/optee_os/lib/libutils/ext/snprintk.c:267
    70d4:	f04f 0300 	mov.w	r3, #0
    70d8:	66bb      	str	r3, [r7, #104]	; 0x68
/home/qemu-sgx/devel/optee/optee_os/lib/libutils/ext/snprintk.c:269
    70da:	f04f 0300 	mov.w	r3, #0
    70de:	f8c7 30a0 	str.w	r3, [r7, #160]	; 0xa0
/home/qemu-sgx/devel/optee/optee_os/lib/libutils/ext/snprintk.c:270
    70e2:	f04f 0300 	mov.w	r3, #0
    70e6:	673b      	str	r3, [r7, #112]	; 0x70
/home/qemu-sgx/devel/optee/optee_os/lib/libutils/ext/snprintk.c:272
    70e8:	6b7b      	ldr	r3, [r7, #52]	; 0x34
    70ea:	f8c7 30ac 	str.w	r3, [r7, #172]	; 0xac
/home/qemu-sgx/devel/optee/optee_os/lib/libutils/ext/snprintk.c:273
    70ee:	f04f 0300 	mov.w	r3, #0
    70f2:	f8c7 3098 	str.w	r3, [r7, #152]	; 0x98
/home/qemu-sgx/devel/optee/optee_os/lib/libutils/ext/snprintk.c:275
    70f6:	f04f 0300 	mov.w	r3, #0
    70fa:	66fb      	str	r3, [r7, #108]	; 0x6c
/home/qemu-sgx/devel/optee/optee_os/lib/libutils/ext/snprintk.c:281
    70fc:	e020      	b.n	7140 <kprintf+0x9c>
/home/qemu-sgx/devel/optee/optee_os/lib/libutils/ext/snprintk.c:282
    70fe:	f8d7 3098 	ldr.w	r3, [r7, #152]	; 0x98
    7102:	f103 0301 	add.w	r3, r3, #1
    7106:	f8c7 3098 	str.w	r3, [r7, #152]	; 0x98
/home/qemu-sgx/devel/optee/optee_os/lib/libutils/ext/snprintk.c:283
    710a:	6b3b      	ldr	r3, [r7, #48]	; 0x30
    710c:	2b08      	cmp	r3, #8
    710e:	d111      	bne.n	7134 <kprintf+0x90>
/home/qemu-sgx/devel/optee/optee_os/lib/libutils/ext/snprintk.c:283 (discriminator 1)
    7110:	6abb      	ldr	r3, [r7, #40]	; 0x28
    7112:	2b00      	cmp	r3, #0
    7114:	d00e      	beq.n	7134 <kprintf+0x90>
/home/qemu-sgx/devel/optee/optee_os/lib/libutils/ext/snprintk.c:283 (discriminator 2)
    7116:	6afb      	ldr	r3, [r7, #44]	; 0x2c
    7118:	2b00      	cmp	r3, #0
    711a:	d003      	beq.n	7124 <kprintf+0x80>
/home/qemu-sgx/devel/optee/optee_os/lib/libutils/ext/snprintk.c:283 (discriminator 4)
    711c:	6aba      	ldr	r2, [r7, #40]	; 0x28
    711e:	6ebb      	ldr	r3, [r7, #104]	; 0x68
    7120:	429a      	cmp	r2, r3
    7122:	d207      	bcs.n	7134 <kprintf+0x90>
/home/qemu-sgx/devel/optee/optee_os/lib/libutils/ext/snprintk.c:283 (discriminator 5)
    7124:	6aba      	ldr	r2, [r7, #40]	; 0x28
    7126:	f102 0301 	add.w	r3, r2, #1
    712a:	62bb      	str	r3, [r7, #40]	; 0x28
    712c:	f8d7 30ac 	ldr.w	r3, [r7, #172]	; 0xac
    7130:	781b      	ldrb	r3, [r3, #0]
    7132:	7013      	strb	r3, [r2, #0]
/home/qemu-sgx/devel/optee/optee_os/lib/libutils/ext/snprintk.c:281
    7134:	f8d7 30ac 	ldr.w	r3, [r7, #172]	; 0xac
    7138:	f103 0301 	add.w	r3, r3, #1
    713c:	f8c7 30ac 	str.w	r3, [r7, #172]	; 0xac
/home/qemu-sgx/devel/optee/optee_os/lib/libutils/ext/snprintk.c:281 (discriminator 1)
    7140:	f8d7 30ac 	ldr.w	r3, [r7, #172]	; 0xac
    7144:	781b      	ldrb	r3, [r3, #0]
    7146:	2b25      	cmp	r3, #37	; 0x25
    7148:	d004      	beq.n	7154 <kprintf+0xb0>
/home/qemu-sgx/devel/optee/optee_os/lib/libutils/ext/snprintk.c:281 (discriminator 2)
    714a:	f8d7 30ac 	ldr.w	r3, [r7, #172]	; 0xac
    714e:	781b      	ldrb	r3, [r3, #0]
    7150:	2b00      	cmp	r3, #0
    7152:	d1d4      	bne.n	70fe <kprintf+0x5a>
/home/qemu-sgx/devel/optee/optee_os/lib/libutils/ext/snprintk.c:285
    7154:	f8d7 30ac 	ldr.w	r3, [r7, #172]	; 0xac
    7158:	781b      	ldrb	r3, [r3, #0]
    715a:	2b00      	cmp	r3, #0
    715c:	f000 876c 	beq.w	8038 <kprintf+0xf94>
/home/qemu-sgx/devel/optee/optee_os/lib/libutils/ext/snprintk.c:288
    7160:	f8d7 30ac 	ldr.w	r3, [r7, #172]	; 0xac
    7164:	f103 0301 	add.w	r3, r3, #1
    7168:	f8c7 30ac 	str.w	r3, [r7, #172]	; 0xac
/home/qemu-sgx/devel/optee/optee_os/lib/libutils/ext/snprintk.c:290
    716c:	f04f 0300 	mov.w	r3, #0
    7170:	f8c7 309c 	str.w	r3, [r7, #156]	; 0x9c
/home/qemu-sgx/devel/optee/optee_os/lib/libutils/ext/snprintk.c:291
    7174:	f04f 0300 	mov.w	r3, #0
    7178:	67bb      	str	r3, [r7, #120]	; 0x78
/home/qemu-sgx/devel/optee/optee_os/lib/libutils/ext/snprintk.c:292
    717a:	f04f 0300 	mov.w	r3, #0
    717e:	f8c7 3094 	str.w	r3, [r7, #148]	; 0x94
/home/qemu-sgx/devel/optee/optee_os/lib/libutils/ext/snprintk.c:293
    7182:	f04f 33ff 	mov.w	r3, #4294967295	; 0xffffffff
    7186:	f8c7 3090 	str.w	r3, [r7, #144]	; 0x90
/home/qemu-sgx/devel/optee/optee_os/lib/libutils/ext/snprintk.c:294
    718a:	f04f 0300 	mov.w	r3, #0
    718e:	f887 308f 	strb.w	r3, [r7, #143]	; 0x8f
/home/qemu-sgx/devel/optee/optee_os/lib/libutils/ext/snprintk.c:296
    7192:	f8d7 20ac 	ldr.w	r2, [r7, #172]	; 0xac
    7196:	f102 0301 	add.w	r3, r2, #1
    719a:	f8c7 30ac 	str.w	r3, [r7, #172]	; 0xac
    719e:	7813      	ldrb	r3, [r2, #0]
    71a0:	f8c7 30a8 	str.w	r3, [r7, #168]	; 0xa8
    71a4:	f8d7 30a8 	ldr.w	r3, [r7, #168]	; 0xa8
    71a8:	f1a3 0320 	sub.w	r3, r3, #32
    71ac:	2b5a      	cmp	r3, #90	; 0x5a
    71ae:	f200 85f5 	bhi.w	7d9c <kprintf+0xcf8>
    71b2:	a202      	add	r2, pc, #8	; (adr r2, 71bc <kprintf+0x118>)
    71b4:	f852 3023 	ldr.w	r3, [r2, r3, lsl #2]
    71b8:	441a      	add	r2, r3
    71ba:	4710      	bx	r2
    71bc:	0000016d 	.word	0x0000016d
    71c0:	00000be1 	.word	0x00000be1
    71c4:	00000be1 	.word	0x00000be1
    71c8:	00000181 	.word	0x00000181
    71cc:	00000be1 	.word	0x00000be1
    71d0:	00000be1 	.word	0x00000be1
    71d4:	00000be1 	.word	0x00000be1
    71d8:	00000be1 	.word	0x00000be1
    71dc:	00000be1 	.word	0x00000be1
    71e0:	00000be1 	.word	0x00000be1
    71e4:	0000018f 	.word	0x0000018f
    71e8:	000001c5 	.word	0x000001c5
    71ec:	00000be1 	.word	0x00000be1
    71f0:	000001b7 	.word	0x000001b7
    71f4:	000001cf 	.word	0x000001cf
    71f8:	00000be1 	.word	0x00000be1
    71fc:	0000025f 	.word	0x0000025f
    7200:	0000026d 	.word	0x0000026d
    7204:	0000026d 	.word	0x0000026d
    7208:	0000026d 	.word	0x0000026d
    720c:	0000026d 	.word	0x0000026d
    7210:	0000026d 	.word	0x0000026d
    7214:	0000026d 	.word	0x0000026d
    7218:	0000026d 	.word	0x0000026d
    721c:	0000026d 	.word	0x0000026d
    7220:	0000026d 	.word	0x0000026d
    7224:	00000be1 	.word	0x00000be1
    7228:	00000be1 	.word	0x00000be1
    722c:	00000be1 	.word	0x00000be1
    7230:	00000be1 	.word	0x00000be1
    7234:	00000be1 	.word	0x00000be1
    7238:	00000be1 	.word	0x00000be1
    723c:	00000be1 	.word	0x00000be1
    7240:	00000be1 	.word	0x00000be1
    7244:	00000be1 	.word	0x00000be1
    7248:	00000be1 	.word	0x00000be1
    724c:	00000365 	.word	0x00000365
    7250:	00000be1 	.word	0x00000be1
    7254:	00000be1 	.word	0x00000be1
    7258:	00000be1 	.word	0x00000be1
    725c:	00000be1 	.word	0x00000be1
    7260:	00000be1 	.word	0x00000be1
    7264:	00000be1 	.word	0x00000be1
    7268:	00000be1 	.word	0x00000be1
    726c:	00000be1 	.word	0x00000be1
    7270:	00000be1 	.word	0x00000be1
    7274:	00000be1 	.word	0x00000be1
    7278:	000005b7 	.word	0x000005b7
    727c:	00000be1 	.word	0x00000be1
    7280:	00000be1 	.word	0x00000be1
    7284:	00000be1 	.word	0x00000be1
    7288:	00000be1 	.word	0x00000be1
    728c:	00000be1 	.word	0x00000be1
    7290:	000007e7 	.word	0x000007e7
    7294:	00000be1 	.word	0x00000be1
    7298:	00000be1 	.word	0x00000be1
    729c:	000008f5 	.word	0x000008f5
    72a0:	00000be1 	.word	0x00000be1
    72a4:	00000be1 	.word	0x00000be1
    72a8:	00000be1 	.word	0x00000be1
    72ac:	00000be1 	.word	0x00000be1
    72b0:	00000be1 	.word	0x00000be1
    72b4:	00000be1 	.word	0x00000be1
    72b8:	00000be1 	.word	0x00000be1
    72bc:	00000be1 	.word	0x00000be1
    72c0:	00000be1 	.word	0x00000be1
    72c4:	00000be1 	.word	0x00000be1
    72c8:	00000335 	.word	0x00000335
    72cc:	00000371 	.word	0x00000371
    72d0:	00000be1 	.word	0x00000be1
    72d4:	00000be1 	.word	0x00000be1
    72d8:	00000be1 	.word	0x00000be1
    72dc:	000002bd 	.word	0x000002bd
    72e0:	00000371 	.word	0x00000371
    72e4:	000002cb 	.word	0x000002cb
    72e8:	00000be1 	.word	0x00000be1
    72ec:	000002d9 	.word	0x000002d9
    72f0:	00000be1 	.word	0x00000be1
    72f4:	000004a9 	.word	0x000004a9
    72f8:	000005c3 	.word	0x000005c3
    72fc:	000006c5 	.word	0x000006c5
    7300:	0000030b 	.word	0x0000030b
    7304:	00000be1 	.word	0x00000be1
    7308:	00000765 	.word	0x00000765
    730c:	00000319 	.word	0x00000319
    7310:	000007f3 	.word	0x000007f3
    7314:	00000be1 	.word	0x00000be1
    7318:	00000be1 	.word	0x00000be1
    731c:	000008ff 	.word	0x000008ff
    7320:	00000be1 	.word	0x00000be1
    7324:	00000327 	.word	0x00000327
/home/qemu-sgx/devel/optee/optee_os/lib/libutils/ext/snprintk.c:304
    7328:	f897 308f 	ldrb.w	r3, [r7, #143]	; 0x8f
    732c:	2b00      	cmp	r3, #0
    732e:	f47f af30 	bne.w	7192 <kprintf+0xee>
/home/qemu-sgx/devel/optee/optee_os/lib/libutils/ext/snprintk.c:305
    7332:	f04f 0320 	mov.w	r3, #32
    7336:	f887 308f 	strb.w	r3, [r7, #143]	; 0x8f
/home/qemu-sgx/devel/optee/optee_os/lib/libutils/ext/snprintk.c:306
    733a:	e72a      	b.n	7192 <kprintf+0xee>
/home/qemu-sgx/devel/optee/optee_os/lib/libutils/ext/snprintk.c:308
    733c:	f8d7 309c 	ldr.w	r3, [r7, #156]	; 0x9c
    7340:	f043 0301 	orr.w	r3, r3, #1
    7344:	f8c7 309c 	str.w	r3, [r7, #156]	; 0x9c
/home/qemu-sgx/devel/optee/optee_os/lib/libutils/ext/snprintk.c:309
    7348:	e723      	b.n	7192 <kprintf+0xee>
/home/qemu-sgx/devel/optee/optee_os/lib/libutils/ext/snprintk.c:317
    734a:	f8d7 20d0 	ldr.w	r2, [r7, #208]	; 0xd0
    734e:	f102 0304 	add.w	r3, r2, #4
    7352:	f8c7 30d0 	str.w	r3, [r7, #208]	; 0xd0
    7356:	6813      	ldr	r3, [r2, #0]
    7358:	f8c7 3094 	str.w	r3, [r7, #148]	; 0x94
    735c:	f8d7 3094 	ldr.w	r3, [r7, #148]	; 0x94
    7360:	2b00      	cmp	r3, #0
    7362:	db00      	blt.n	7366 <kprintf+0x2c2>
/home/qemu-sgx/devel/optee/optee_os/lib/libutils/ext/snprintk.c:318
    7364:	e715      	b.n	7192 <kprintf+0xee>
/home/qemu-sgx/devel/optee/optee_os/lib/libutils/ext/snprintk.c:319
    7366:	f8d7 3094 	ldr.w	r3, [r7, #148]	; 0x94
    736a:	f1c3 0300 	rsb	r3, r3, #0
    736e:	f8c7 3094 	str.w	r3, [r7, #148]	; 0x94
/home/qemu-sgx/devel/optee/optee_os/lib/libutils/ext/snprintk.c:322
    7372:	f8d7 309c 	ldr.w	r3, [r7, #156]	; 0x9c
    7376:	f043 0304 	orr.w	r3, r3, #4
    737a:	f8c7 309c 	str.w	r3, [r7, #156]	; 0x9c
/home/qemu-sgx/devel/optee/optee_os/lib/libutils/ext/snprintk.c:323
    737e:	e708      	b.n	7192 <kprintf+0xee>
/home/qemu-sgx/devel/optee/optee_os/lib/libutils/ext/snprintk.c:325
    7380:	f04f 032b 	mov.w	r3, #43	; 0x2b
    7384:	f887 308f 	strb.w	r3, [r7, #143]	; 0x8f
/home/qemu-sgx/devel/optee/optee_os/lib/libutils/ext/snprintk.c:326
    7388:	e703      	b.n	7192 <kprintf+0xee>
/home/qemu-sgx/devel/optee/optee_os/lib/libutils/ext/snprintk.c:328
    738a:	f8d7 20ac 	ldr.w	r2, [r7, #172]	; 0xac
    738e:	f102 0301 	add.w	r3, r2, #1
    7392:	f8c7 30ac 	str.w	r3, [r7, #172]	; 0xac
    7396:	7813      	ldrb	r3, [r2, #0]
    7398:	f8c7 30a8 	str.w	r3, [r7, #168]	; 0xa8
    739c:	f8d7 30a8 	ldr.w	r3, [r7, #168]	; 0xa8
    73a0:	2b2a      	cmp	r3, #42	; 0x2a
    73a2:	d10f      	bne.n	73c4 <kprintf+0x320>
/home/qemu-sgx/devel/optee/optee_os/lib/libutils/ext/snprintk.c:329
    73a4:	f8d7 20d0 	ldr.w	r2, [r7, #208]	; 0xd0
    73a8:	f102 0304 	add.w	r3, r2, #4
    73ac:	f8c7 30d0 	str.w	r3, [r7, #208]	; 0xd0
    73b0:	6813      	ldr	r3, [r2, #0]
    73b2:	f8c7 30a4 	str.w	r3, [r7, #164]	; 0xa4
/home/qemu-sgx/devel/optee/optee_os/lib/libutils/ext/snprintk.c:330
    73b6:	f8d7 30a4 	ldr.w	r3, [r7, #164]	; 0xa4
    73ba:	ea43 73e3 	orr.w	r3, r3, r3, asr #31
    73be:	f8c7 3090 	str.w	r3, [r7, #144]	; 0x90
/home/qemu-sgx/devel/optee/optee_os/lib/libutils/ext/snprintk.c:331
    73c2:	e6e6      	b.n	7192 <kprintf+0xee>
/home/qemu-sgx/devel/optee/optee_os/lib/libutils/ext/snprintk.c:333
    73c4:	f04f 0300 	mov.w	r3, #0
    73c8:	f8c7 30a4 	str.w	r3, [r7, #164]	; 0xa4
/home/qemu-sgx/devel/optee/optee_os/lib/libutils/ext/snprintk.c:334
    73cc:	e018      	b.n	7400 <kprintf+0x35c>
/home/qemu-sgx/devel/optee/optee_os/lib/libutils/ext/snprintk.c:335
    73ce:	f8d7 20a4 	ldr.w	r2, [r7, #164]	; 0xa4
    73d2:	4613      	mov	r3, r2
    73d4:	ea4f 0383 	mov.w	r3, r3, lsl #2
    73d8:	4413      	add	r3, r2
    73da:	ea4f 0343 	mov.w	r3, r3, lsl #1
    73de:	461a      	mov	r2, r3
    73e0:	f8d7 30a8 	ldr.w	r3, [r7, #168]	; 0xa8
    73e4:	f1a3 0330 	sub.w	r3, r3, #48	; 0x30
    73e8:	4413      	add	r3, r2
    73ea:	f8c7 30a4 	str.w	r3, [r7, #164]	; 0xa4
/home/qemu-sgx/devel/optee/optee_os/lib/libutils/ext/snprintk.c:336
    73ee:	f8d7 20ac 	ldr.w	r2, [r7, #172]	; 0xac
    73f2:	f102 0301 	add.w	r3, r2, #1
    73f6:	f8c7 30ac 	str.w	r3, [r7, #172]	; 0xac
    73fa:	7813      	ldrb	r3, [r2, #0]
    73fc:	f8c7 30a8 	str.w	r3, [r7, #168]	; 0xa8
/home/qemu-sgx/devel/optee/optee_os/lib/libutils/ext/snprintk.c:334
    7400:	f8d7 30a8 	ldr.w	r3, [r7, #168]	; 0xa8
    7404:	f1a3 0330 	sub.w	r3, r3, #48	; 0x30
    7408:	2b09      	cmp	r3, #9
    740a:	d9e0      	bls.n	73ce <kprintf+0x32a>
/home/qemu-sgx/devel/optee/optee_os/lib/libutils/ext/snprintk.c:338
    740c:	f8d7 30a4 	ldr.w	r3, [r7, #164]	; 0xa4
    7410:	ea43 73e3 	orr.w	r3, r3, r3, asr #31
    7414:	f8c7 3090 	str.w	r3, [r7, #144]	; 0x90
/home/qemu-sgx/devel/optee/optee_os/lib/libutils/ext/snprintk.c:339
    7418:	e6c4      	b.n	71a4 <kprintf+0x100>
/home/qemu-sgx/devel/optee/optee_os/lib/libutils/ext/snprintk.c:346
    741a:	f8d7 309c 	ldr.w	r3, [r7, #156]	; 0x9c
    741e:	f443 6380 	orr.w	r3, r3, #1024	; 0x400
    7422:	f8c7 309c 	str.w	r3, [r7, #156]	; 0x9c
/home/qemu-sgx/devel/optee/optee_os/lib/libutils/ext/snprintk.c:347
    7426:	e6b4      	b.n	7192 <kprintf+0xee>
/home/qemu-sgx/devel/optee/optee_os/lib/libutils/ext/snprintk.c:350
    7428:	f04f 0300 	mov.w	r3, #0
    742c:	f8c7 30a4 	str.w	r3, [r7, #164]	; 0xa4
/home/qemu-sgx/devel/optee/optee_os/lib/libutils/ext/snprintk.c:352 (discriminator 1)
    7430:	f8d7 20a4 	ldr.w	r2, [r7, #164]	; 0xa4
    7434:	4613      	mov	r3, r2
    7436:	ea4f 0383 	mov.w	r3, r3, lsl #2
    743a:	4413      	add	r3, r2
    743c:	ea4f 0343 	mov.w	r3, r3, lsl #1
    7440:	461a      	mov	r2, r3
    7442:	f8d7 30a8 	ldr.w	r3, [r7, #168]	; 0xa8
    7446:	f1a3 0330 	sub.w	r3, r3, #48	; 0x30
    744a:	4413      	add	r3, r2
    744c:	f8c7 30a4 	str.w	r3, [r7, #164]	; 0xa4
/home/qemu-sgx/devel/optee/optee_os/lib/libutils/ext/snprintk.c:353 (discriminator 1)
    7450:	f8d7 20ac 	ldr.w	r2, [r7, #172]	; 0xac
    7454:	f102 0301 	add.w	r3, r2, #1
    7458:	f8c7 30ac 	str.w	r3, [r7, #172]	; 0xac
    745c:	7813      	ldrb	r3, [r2, #0]
    745e:	f8c7 30a8 	str.w	r3, [r7, #168]	; 0xa8
/home/qemu-sgx/devel/optee/optee_os/lib/libutils/ext/snprintk.c:354 (discriminator 1)
    7462:	f8d7 30a8 	ldr.w	r3, [r7, #168]	; 0xa8
    7466:	f1a3 0330 	sub.w	r3, r3, #48	; 0x30
    746a:	2b09      	cmp	r3, #9
    746c:	d9e0      	bls.n	7430 <kprintf+0x38c>
/home/qemu-sgx/devel/optee/optee_os/lib/libutils/ext/snprintk.c:355
    746e:	f8d7 30a4 	ldr.w	r3, [r7, #164]	; 0xa4
    7472:	f8c7 3094 	str.w	r3, [r7, #148]	; 0x94
/home/qemu-sgx/devel/optee/optee_os/lib/libutils/ext/snprintk.c:356
    7476:	e695      	b.n	71a4 <kprintf+0x100>
/home/qemu-sgx/devel/optee/optee_os/lib/libutils/ext/snprintk.c:358
    7478:	f8d7 309c 	ldr.w	r3, [r7, #156]	; 0x9c
    747c:	f043 0340 	orr.w	r3, r3, #64	; 0x40
    7480:	f8c7 309c 	str.w	r3, [r7, #156]	; 0x9c
/home/qemu-sgx/devel/optee/optee_os/lib/libutils/ext/snprintk.c:359
    7484:	e685      	b.n	7192 <kprintf+0xee>
/home/qemu-sgx/devel/optee/optee_os/lib/libutils/ext/snprintk.c:361
    7486:	f8d7 309c 	ldr.w	r3, [r7, #156]	; 0x9c
    748a:	f043 0380 	orr.w	r3, r3, #128	; 0x80
    748e:	f8c7 309c 	str.w	r3, [r7, #156]	; 0x9c
/home/qemu-sgx/devel/optee/optee_os/lib/libutils/ext/snprintk.c:362
    7492:	e67e      	b.n	7192 <kprintf+0xee>
/home/qemu-sgx/devel/optee/optee_os/lib/libutils/ext/snprintk.c:364
    7494:	f8d7 30ac 	ldr.w	r3, [r7, #172]	; 0xac
    7498:	781b      	ldrb	r3, [r3, #0]
    749a:	2b6c      	cmp	r3, #108	; 0x6c
    749c:	d10c      	bne.n	74b8 <kprintf+0x414>
/home/qemu-sgx/devel/optee/optee_os/lib/libutils/ext/snprintk.c:365
    749e:	f8d7 30ac 	ldr.w	r3, [r7, #172]	; 0xac
    74a2:	f103 0301 	add.w	r3, r3, #1
    74a6:	f8c7 30ac 	str.w	r3, [r7, #172]	; 0xac
/home/qemu-sgx/devel/optee/optee_os/lib/libutils/ext/snprintk.c:366
    74aa:	f8d7 309c 	ldr.w	r3, [r7, #156]	; 0x9c
    74ae:	f043 0320 	orr.w	r3, r3, #32
    74b2:	f8c7 309c 	str.w	r3, [r7, #156]	; 0x9c
    74b6:	e66c      	b.n	7192 <kprintf+0xee>
/home/qemu-sgx/devel/optee/optee_os/lib/libutils/ext/snprintk.c:368
    74b8:	f8d7 309c 	ldr.w	r3, [r7, #156]	; 0x9c
    74bc:	f043 0310 	orr.w	r3, r3, #16
    74c0:	f8c7 309c 	str.w	r3, [r7, #156]	; 0x9c
/home/qemu-sgx/devel/optee/optee_os/lib/libutils/ext/snprintk.c:370
    74c4:	e665      	b.n	7192 <kprintf+0xee>
/home/qemu-sgx/devel/optee/optee_os/lib/libutils/ext/snprintk.c:372
    74c6:	f8d7 309c 	ldr.w	r3, [r7, #156]	; 0x9c
    74ca:	f043 0320 	orr.w	r3, r3, #32
    74ce:	f8c7 309c 	str.w	r3, [r7, #156]	; 0x9c
/home/qemu-sgx/devel/optee/optee_os/lib/libutils/ext/snprintk.c:373
    74d2:	e65e      	b.n	7192 <kprintf+0xee>
/home/qemu-sgx/devel/optee/optee_os/lib/libutils/ext/snprintk.c:375
    74d4:	f8d7 309c 	ldr.w	r3, [r7, #156]	; 0x9c
    74d8:	f443 7380 	orr.w	r3, r3, #256	; 0x100
    74dc:	f8c7 309c 	str.w	r3, [r7, #156]	; 0x9c
/home/qemu-sgx/devel/optee/optee_os/lib/libutils/ext/snprintk.c:376
    74e0:	e657      	b.n	7192 <kprintf+0xee>
/home/qemu-sgx/devel/optee/optee_os/lib/libutils/ext/snprintk.c:378
    74e2:	f8d7 309c 	ldr.w	r3, [r7, #156]	; 0x9c
    74e6:	f443 7300 	orr.w	r3, r3, #512	; 0x200
    74ea:	f8c7 309c 	str.w	r3, [r7, #156]	; 0x9c
/home/qemu-sgx/devel/optee/optee_os/lib/libutils/ext/snprintk.c:379
    74ee:	e650      	b.n	7192 <kprintf+0xee>
/home/qemu-sgx/devel/optee/optee_os/lib/libutils/ext/snprintk.c:381
    74f0:	f8d7 20d0 	ldr.w	r2, [r7, #208]	; 0xd0
    74f4:	f102 0304 	add.w	r3, r2, #4
    74f8:	f8c7 30d0 	str.w	r3, [r7, #208]	; 0xd0
    74fc:	6812      	ldr	r2, [r2, #0]
    74fe:	f107 033c 	add.w	r3, r7, #60	; 0x3c
    7502:	f8c7 30a0 	str.w	r3, [r7, #160]	; 0xa0
    7506:	b2d3      	uxtb	r3, r2
    7508:	f8d7 20a0 	ldr.w	r2, [r7, #160]	; 0xa0
    750c:	7013      	strb	r3, [r2, #0]
/home/qemu-sgx/devel/optee/optee_os/lib/libutils/ext/snprintk.c:382
    750e:	f04f 0301 	mov.w	r3, #1
    7512:	673b      	str	r3, [r7, #112]	; 0x70
/home/qemu-sgx/devel/optee/optee_os/lib/libutils/ext/snprintk.c:383
    7514:	f04f 0300 	mov.w	r3, #0
    7518:	f887 308f 	strb.w	r3, [r7, #143]	; 0x8f
/home/qemu-sgx/devel/optee/optee_os/lib/libutils/ext/snprintk.c:384
    751c:	f000 bc55 	b.w	7dca <kprintf+0xd26>
/home/qemu-sgx/devel/optee/optee_os/lib/libutils/ext/snprintk.c:386
    7520:	f8d7 309c 	ldr.w	r3, [r7, #156]	; 0x9c
    7524:	f043 0310 	orr.w	r3, r3, #16
    7528:	f8c7 309c 	str.w	r3, [r7, #156]	; 0x9c
/home/qemu-sgx/devel/optee/optee_os/lib/libutils/ext/snprintk.c:390
    752c:	f8d7 309c 	ldr.w	r3, [r7, #156]	; 0x9c
    7530:	f003 0380 	and.w	r3, r3, #128	; 0x80
    7534:	2b00      	cmp	r3, #0
    7536:	d00e      	beq.n	7556 <kprintf+0x4b2>
    7538:	f8d7 30d0 	ldr.w	r3, [r7, #208]	; 0xd0
    753c:	f103 0307 	add.w	r3, r3, #7
    7540:	f023 0207 	bic.w	r2, r3, #7
    7544:	f102 0308 	add.w	r3, r2, #8
    7548:	f8c7 30d0 	str.w	r3, [r7, #208]	; 0xd0
    754c:	e9d2 2300 	ldrd	r2, r3, [r2]
    7550:	e9c7 2308 	strd	r2, r3, [r7, #32]
    7554:	e069      	b.n	762a <kprintf+0x586>
/home/qemu-sgx/devel/optee/optee_os/lib/libutils/ext/snprintk.c:390 (discriminator 2)
    7556:	f8d7 309c 	ldr.w	r3, [r7, #156]	; 0x9c
    755a:	f403 7380 	and.w	r3, r3, #256	; 0x100
    755e:	2b00      	cmp	r3, #0
    7560:	d00b      	beq.n	757a <kprintf+0x4d6>
/home/qemu-sgx/devel/optee/optee_os/lib/libutils/ext/snprintk.c:390
    7562:	f8d7 20d0 	ldr.w	r2, [r7, #208]	; 0xd0
    7566:	f102 0304 	add.w	r3, r2, #4
    756a:	f8c7 30d0 	str.w	r3, [r7, #208]	; 0xd0
    756e:	6813      	ldr	r3, [r2, #0]
    7570:	ea4f 72e3 	mov.w	r2, r3, asr #31
    7574:	623b      	str	r3, [r7, #32]
    7576:	627a      	str	r2, [r7, #36]	; 0x24
    7578:	e057      	b.n	762a <kprintf+0x586>
/home/qemu-sgx/devel/optee/optee_os/lib/libutils/ext/snprintk.c:390 (discriminator 5)
    757a:	f8d7 309c 	ldr.w	r3, [r7, #156]	; 0x9c
    757e:	f403 7300 	and.w	r3, r3, #512	; 0x200
    7582:	2b00      	cmp	r3, #0
    7584:	d00b      	beq.n	759e <kprintf+0x4fa>
/home/qemu-sgx/devel/optee/optee_os/lib/libutils/ext/snprintk.c:390
    7586:	f8d7 20d0 	ldr.w	r2, [r7, #208]	; 0xd0
    758a:	f102 0304 	add.w	r3, r2, #4
    758e:	f8c7 30d0 	str.w	r3, [r7, #208]	; 0xd0
    7592:	6813      	ldr	r3, [r2, #0]
    7594:	ea4f 72e3 	mov.w	r2, r3, asr #31
    7598:	623b      	str	r3, [r7, #32]
    759a:	627a      	str	r2, [r7, #36]	; 0x24
    759c:	e045      	b.n	762a <kprintf+0x586>
/home/qemu-sgx/devel/optee/optee_os/lib/libutils/ext/snprintk.c:390 (discriminator 8)
    759e:	f8d7 309c 	ldr.w	r3, [r7, #156]	; 0x9c
    75a2:	f003 0320 	and.w	r3, r3, #32
    75a6:	2b00      	cmp	r3, #0
    75a8:	d00e      	beq.n	75c8 <kprintf+0x524>
/home/qemu-sgx/devel/optee/optee_os/lib/libutils/ext/snprintk.c:390
    75aa:	f8d7 30d0 	ldr.w	r3, [r7, #208]	; 0xd0
    75ae:	f103 0307 	add.w	r3, r3, #7
    75b2:	f023 0207 	bic.w	r2, r3, #7
    75b6:	f102 0308 	add.w	r3, r2, #8
    75ba:	f8c7 30d0 	str.w	r3, [r7, #208]	; 0xd0
    75be:	e9d2 2300 	ldrd	r2, r3, [r2]
    75c2:	e9c7 2308 	strd	r2, r3, [r7, #32]
    75c6:	e030      	b.n	762a <kprintf+0x586>
/home/qemu-sgx/devel/optee/optee_os/lib/libutils/ext/snprintk.c:390 (discriminator 11)
    75c8:	f8d7 309c 	ldr.w	r3, [r7, #156]	; 0x9c
    75cc:	f003 0310 	and.w	r3, r3, #16
    75d0:	2b00      	cmp	r3, #0
    75d2:	d00b      	beq.n	75ec <kprintf+0x548>
/home/qemu-sgx/devel/optee/optee_os/lib/libutils/ext/snprintk.c:390
    75d4:	f8d7 20d0 	ldr.w	r2, [r7, #208]	; 0xd0
    75d8:	f102 0304 	add.w	r3, r2, #4
    75dc:	f8c7 30d0 	str.w	r3, [r7, #208]	; 0xd0
    75e0:	6813      	ldr	r3, [r2, #0]
    75e2:	ea4f 72e3 	mov.w	r2, r3, asr #31
    75e6:	623b      	str	r3, [r7, #32]
    75e8:	627a      	str	r2, [r7, #36]	; 0x24
    75ea:	e01e      	b.n	762a <kprintf+0x586>
/home/qemu-sgx/devel/optee/optee_os/lib/libutils/ext/snprintk.c:390 (discriminator 14)
    75ec:	f8d7 309c 	ldr.w	r3, [r7, #156]	; 0x9c
    75f0:	f003 0340 	and.w	r3, r3, #64	; 0x40
    75f4:	2b00      	cmp	r3, #0
    75f6:	d00d      	beq.n	7614 <kprintf+0x570>
/home/qemu-sgx/devel/optee/optee_os/lib/libutils/ext/snprintk.c:390
    75f8:	f8d7 20d0 	ldr.w	r2, [r7, #208]	; 0xd0
    75fc:	f102 0304 	add.w	r3, r2, #4
    7600:	f8c7 30d0 	str.w	r3, [r7, #208]	; 0xd0
    7604:	6813      	ldr	r3, [r2, #0]
    7606:	b21b      	sxth	r3, r3
    7608:	b21b      	sxth	r3, r3
    760a:	ea4f 72e3 	mov.w	r2, r3, asr #31
    760e:	623b      	str	r3, [r7, #32]
    7610:	627a      	str	r2, [r7, #36]	; 0x24
    7612:	e00a      	b.n	762a <kprintf+0x586>
    7614:	f8d7 20d0 	ldr.w	r2, [r7, #208]	; 0xd0
    7618:	f102 0304 	add.w	r3, r2, #4
    761c:	f8c7 30d0 	str.w	r3, [r7, #208]	; 0xd0
    7620:	6813      	ldr	r3, [r2, #0]
    7622:	ea4f 72e3 	mov.w	r2, r3, asr #31
    7626:	623b      	str	r3, [r7, #32]
    7628:	627a      	str	r2, [r7, #36]	; 0x24
/home/qemu-sgx/devel/optee/optee_os/lib/libutils/ext/snprintk.c:390 (discriminator 24)
    762a:	e9d7 2308 	ldrd	r2, r3, [r7, #32]
    762e:	e9c7 2320 	strd	r2, r3, [r7, #128]	; 0x80
/home/qemu-sgx/devel/optee/optee_os/lib/libutils/ext/snprintk.c:391 (discriminator 24)
    7632:	e9d7 2320 	ldrd	r2, r3, [r7, #128]	; 0x80
    7636:	2b00      	cmp	r3, #0
    7638:	da10      	bge.n	765c <kprintf+0x5b8>
/home/qemu-sgx/devel/optee/optee_os/lib/libutils/ext/snprintk.c:392
    763a:	e9d7 2320 	ldrd	r2, r3, [r7, #128]	; 0x80
    763e:	f04f 0100 	mov.w	r1, #0
    7642:	4250      	negs	r0, r2
    7644:	60b8      	str	r0, [r7, #8]
    7646:	eb61 0303 	sbc.w	r3, r1, r3
    764a:	60fb      	str	r3, [r7, #12]
    764c:	e9d7 2302 	ldrd	r2, r3, [r7, #8]
    7650:	e9c7 2320 	strd	r2, r3, [r7, #128]	; 0x80
/home/qemu-sgx/devel/optee/optee_os/lib/libutils/ext/snprintk.c:393
    7654:	f04f 032d 	mov.w	r3, #45	; 0x2d
    7658:	f887 308f 	strb.w	r3, [r7, #143]	; 0x8f
/home/qemu-sgx/devel/optee/optee_os/lib/libutils/ext/snprintk.c:395
    765c:	f04f 0301 	mov.w	r3, #1
    7660:	67fb      	str	r3, [r7, #124]	; 0x7c
/home/qemu-sgx/devel/optee/optee_os/lib/libutils/ext/snprintk.c:396
    7662:	e2c4      	b.n	7bee <kprintf+0xb4a>
/home/qemu-sgx/devel/optee/optee_os/lib/libutils/ext/snprintk.c:398
    7664:	f8d7 309c 	ldr.w	r3, [r7, #156]	; 0x9c
    7668:	f003 0380 	and.w	r3, r3, #128	; 0x80
    766c:	2b00      	cmp	r3, #0
    766e:	d012      	beq.n	7696 <kprintf+0x5f2>
/home/qemu-sgx/devel/optee/optee_os/lib/libutils/ext/snprintk.c:399
    7670:	f8d7 20d0 	ldr.w	r2, [r7, #208]	; 0xd0
    7674:	f102 0304 	add.w	r3, r2, #4
    7678:	f8c7 30d0 	str.w	r3, [r7, #208]	; 0xd0
    767c:	6811      	ldr	r1, [r2, #0]
    767e:	f8d7 3098 	ldr.w	r3, [r7, #152]	; 0x98
    7682:	ea4f 72e3 	mov.w	r2, r3, asr #31
    7686:	61bb      	str	r3, [r7, #24]
    7688:	61fa      	str	r2, [r7, #28]
    768a:	e9d7 2306 	ldrd	r2, r3, [r7, #24]
    768e:	e9c1 2300 	strd	r2, r3, [r1]
/home/qemu-sgx/devel/optee/optee_os/lib/libutils/ext/snprintk.c:412
    7692:	f000 bccf 	b.w	8034 <kprintf+0xf90>
/home/qemu-sgx/devel/optee/optee_os/lib/libutils/ext/snprintk.c:400
    7696:	f8d7 309c 	ldr.w	r3, [r7, #156]	; 0x9c
    769a:	f403 7380 	and.w	r3, r3, #256	; 0x100
    769e:	2b00      	cmp	r3, #0
    76a0:	d00b      	beq.n	76ba <kprintf+0x616>
/home/qemu-sgx/devel/optee/optee_os/lib/libutils/ext/snprintk.c:401
    76a2:	f8d7 20d0 	ldr.w	r2, [r7, #208]	; 0xd0
    76a6:	f102 0304 	add.w	r3, r2, #4
    76aa:	f8c7 30d0 	str.w	r3, [r7, #208]	; 0xd0
    76ae:	6812      	ldr	r2, [r2, #0]
    76b0:	f8d7 3098 	ldr.w	r3, [r7, #152]	; 0x98
    76b4:	6013      	str	r3, [r2, #0]
/home/qemu-sgx/devel/optee/optee_os/lib/libutils/ext/snprintk.c:412
    76b6:	f000 bcbd 	b.w	8034 <kprintf+0xf90>
/home/qemu-sgx/devel/optee/optee_os/lib/libutils/ext/snprintk.c:402
    76ba:	f8d7 309c 	ldr.w	r3, [r7, #156]	; 0x9c
    76be:	f403 7300 	and.w	r3, r3, #512	; 0x200
    76c2:	2b00      	cmp	r3, #0
    76c4:	d00b      	beq.n	76de <kprintf+0x63a>
/home/qemu-sgx/devel/optee/optee_os/lib/libutils/ext/snprintk.c:403
    76c6:	f8d7 20d0 	ldr.w	r2, [r7, #208]	; 0xd0
    76ca:	f102 0304 	add.w	r3, r2, #4
    76ce:	f8c7 30d0 	str.w	r3, [r7, #208]	; 0xd0
    76d2:	6812      	ldr	r2, [r2, #0]
    76d4:	f8d7 3098 	ldr.w	r3, [r7, #152]	; 0x98
    76d8:	6013      	str	r3, [r2, #0]
/home/qemu-sgx/devel/optee/optee_os/lib/libutils/ext/snprintk.c:412
    76da:	f000 bcab 	b.w	8034 <kprintf+0xf90>
/home/qemu-sgx/devel/optee/optee_os/lib/libutils/ext/snprintk.c:404
    76de:	f8d7 309c 	ldr.w	r3, [r7, #156]	; 0x9c
    76e2:	f003 0320 	and.w	r3, r3, #32
    76e6:	2b00      	cmp	r3, #0
    76e8:	d012      	beq.n	7710 <kprintf+0x66c>
/home/qemu-sgx/devel/optee/optee_os/lib/libutils/ext/snprintk.c:405
    76ea:	f8d7 20d0 	ldr.w	r2, [r7, #208]	; 0xd0
    76ee:	f102 0304 	add.w	r3, r2, #4
    76f2:	f8c7 30d0 	str.w	r3, [r7, #208]	; 0xd0
    76f6:	6811      	ldr	r1, [r2, #0]
    76f8:	f8d7 3098 	ldr.w	r3, [r7, #152]	; 0x98
    76fc:	ea4f 72e3 	mov.w	r2, r3, asr #31
    7700:	613b      	str	r3, [r7, #16]
    7702:	617a      	str	r2, [r7, #20]
    7704:	e9d7 2304 	ldrd	r2, r3, [r7, #16]
    7708:	e9c1 2300 	strd	r2, r3, [r1]
/home/qemu-sgx/devel/optee/optee_os/lib/libutils/ext/snprintk.c:412
    770c:	f000 bc92 	b.w	8034 <kprintf+0xf90>
/home/qemu-sgx/devel/optee/optee_os/lib/libutils/ext/snprintk.c:406
    7710:	f8d7 309c 	ldr.w	r3, [r7, #156]	; 0x9c
    7714:	f003 0310 	and.w	r3, r3, #16
    7718:	2b00      	cmp	r3, #0
    771a:	d00b      	beq.n	7734 <kprintf+0x690>
/home/qemu-sgx/devel/optee/optee_os/lib/libutils/ext/snprintk.c:407
    771c:	f8d7 20d0 	ldr.w	r2, [r7, #208]	; 0xd0
    7720:	f102 0304 	add.w	r3, r2, #4
    7724:	f8c7 30d0 	str.w	r3, [r7, #208]	; 0xd0
    7728:	6812      	ldr	r2, [r2, #0]
    772a:	f8d7 3098 	ldr.w	r3, [r7, #152]	; 0x98
    772e:	6013      	str	r3, [r2, #0]
/home/qemu-sgx/devel/optee/optee_os/lib/libutils/ext/snprintk.c:412
    7730:	f000 bc80 	b.w	8034 <kprintf+0xf90>
/home/qemu-sgx/devel/optee/optee_os/lib/libutils/ext/snprintk.c:408
    7734:	f8d7 309c 	ldr.w	r3, [r7, #156]	; 0x9c
    7738:	f003 0340 	and.w	r3, r3, #64	; 0x40
    773c:	2b00      	cmp	r3, #0
    773e:	d00c      	beq.n	775a <kprintf+0x6b6>
/home/qemu-sgx/devel/optee/optee_os/lib/libutils/ext/snprintk.c:409
    7740:	f8d7 20d0 	ldr.w	r2, [r7, #208]	; 0xd0
    7744:	f102 0304 	add.w	r3, r2, #4
    7748:	f8c7 30d0 	str.w	r3, [r7, #208]	; 0xd0
    774c:	6812      	ldr	r2, [r2, #0]
    774e:	f8d7 3098 	ldr.w	r3, [r7, #152]	; 0x98
    7752:	b21b      	sxth	r3, r3
    7754:	8013      	strh	r3, [r2, #0]
/home/qemu-sgx/devel/optee/optee_os/lib/libutils/ext/snprintk.c:412
    7756:	f000 bc6d 	b.w	8034 <kprintf+0xf90>
/home/qemu-sgx/devel/optee/optee_os/lib/libutils/ext/snprintk.c:411
    775a:	f8d7 20d0 	ldr.w	r2, [r7, #208]	; 0xd0
    775e:	f102 0304 	add.w	r3, r2, #4
    7762:	f8c7 30d0 	str.w	r3, [r7, #208]	; 0xd0
    7766:	6812      	ldr	r2, [r2, #0]
    7768:	f8d7 3098 	ldr.w	r3, [r7, #152]	; 0x98
    776c:	6013      	str	r3, [r2, #0]
/home/qemu-sgx/devel/optee/optee_os/lib/libutils/ext/snprintk.c:412
    776e:	f000 bc61 	b.w	8034 <kprintf+0xf90>
/home/qemu-sgx/devel/optee/optee_os/lib/libutils/ext/snprintk.c:414
    7772:	f8d7 309c 	ldr.w	r3, [r7, #156]	; 0x9c
    7776:	f043 0310 	orr.w	r3, r3, #16
    777a:	f8c7 309c 	str.w	r3, [r7, #156]	; 0x9c
/home/qemu-sgx/devel/optee/optee_os/lib/libutils/ext/snprintk.c:417
    777e:	f8d7 309c 	ldr.w	r3, [r7, #156]	; 0x9c
    7782:	f003 0380 	and.w	r3, r3, #128	; 0x80
    7786:	2b00      	cmp	r3, #0
    7788:	d00c      	beq.n	77a4 <kprintf+0x700>
    778a:	f8d7 30d0 	ldr.w	r3, [r7, #208]	; 0xd0
    778e:	f103 0307 	add.w	r3, r3, #7
    7792:	f023 0207 	bic.w	r2, r3, #7
    7796:	f102 0308 	add.w	r3, r2, #8
    779a:	f8c7 30d0 	str.w	r3, [r7, #208]	; 0xd0
    779e:	e9d2 4500 	ldrd	r4, r5, [r2]
    77a2:	e067      	b.n	7874 <kprintf+0x7d0>
/home/qemu-sgx/devel/optee/optee_os/lib/libutils/ext/snprintk.c:417 (discriminator 2)
    77a4:	f8d7 309c 	ldr.w	r3, [r7, #156]	; 0x9c
    77a8:	f403 7380 	and.w	r3, r3, #256	; 0x100
    77ac:	2b00      	cmp	r3, #0
    77ae:	d00b      	beq.n	77c8 <kprintf+0x724>
/home/qemu-sgx/devel/optee/optee_os/lib/libutils/ext/snprintk.c:417
    77b0:	f8d7 20d0 	ldr.w	r2, [r7, #208]	; 0xd0
    77b4:	f102 0304 	add.w	r3, r2, #4
    77b8:	f8c7 30d0 	str.w	r3, [r7, #208]	; 0xd0
    77bc:	6813      	ldr	r3, [r2, #0]
    77be:	f04f 0200 	mov.w	r2, #0
    77c2:	461c      	mov	r4, r3
    77c4:	4615      	mov	r5, r2
    77c6:	e055      	b.n	7874 <kprintf+0x7d0>
/home/qemu-sgx/devel/optee/optee_os/lib/libutils/ext/snprintk.c:417 (discriminator 5)
    77c8:	f8d7 309c 	ldr.w	r3, [r7, #156]	; 0x9c
    77cc:	f403 7300 	and.w	r3, r3, #512	; 0x200
    77d0:	2b00      	cmp	r3, #0
    77d2:	d00b      	beq.n	77ec <kprintf+0x748>
/home/qemu-sgx/devel/optee/optee_os/lib/libutils/ext/snprintk.c:417
    77d4:	f8d7 20d0 	ldr.w	r2, [r7, #208]	; 0xd0
    77d8:	f102 0304 	add.w	r3, r2, #4
    77dc:	f8c7 30d0 	str.w	r3, [r7, #208]	; 0xd0
    77e0:	6813      	ldr	r3, [r2, #0]
    77e2:	f04f 0200 	mov.w	r2, #0
    77e6:	461c      	mov	r4, r3
    77e8:	4615      	mov	r5, r2
    77ea:	e043      	b.n	7874 <kprintf+0x7d0>
/home/qemu-sgx/devel/optee/optee_os/lib/libutils/ext/snprintk.c:417 (discriminator 8)
    77ec:	f8d7 309c 	ldr.w	r3, [r7, #156]	; 0x9c
    77f0:	f003 0320 	and.w	r3, r3, #32
    77f4:	2b00      	cmp	r3, #0
    77f6:	d00c      	beq.n	7812 <kprintf+0x76e>
/home/qemu-sgx/devel/optee/optee_os/lib/libutils/ext/snprintk.c:417
    77f8:	f8d7 30d0 	ldr.w	r3, [r7, #208]	; 0xd0
    77fc:	f103 0307 	add.w	r3, r3, #7
    7800:	f023 0207 	bic.w	r2, r3, #7
    7804:	f102 0308 	add.w	r3, r2, #8
    7808:	f8c7 30d0 	str.w	r3, [r7, #208]	; 0xd0
    780c:	e9d2 4500 	ldrd	r4, r5, [r2]
    7810:	e030      	b.n	7874 <kprintf+0x7d0>
/home/qemu-sgx/devel/optee/optee_os/lib/libutils/ext/snprintk.c:417 (discriminator 11)
    7812:	f8d7 309c 	ldr.w	r3, [r7, #156]	; 0x9c
    7816:	f003 0310 	and.w	r3, r3, #16
    781a:	2b00      	cmp	r3, #0
    781c:	d00b      	beq.n	7836 <kprintf+0x792>
/home/qemu-sgx/devel/optee/optee_os/lib/libutils/ext/snprintk.c:417
    781e:	f8d7 20d0 	ldr.w	r2, [r7, #208]	; 0xd0
    7822:	f102 0304 	add.w	r3, r2, #4
    7826:	f8c7 30d0 	str.w	r3, [r7, #208]	; 0xd0
    782a:	6813      	ldr	r3, [r2, #0]
    782c:	f04f 0200 	mov.w	r2, #0
    7830:	461c      	mov	r4, r3
    7832:	4615      	mov	r5, r2
    7834:	e01e      	b.n	7874 <kprintf+0x7d0>
/home/qemu-sgx/devel/optee/optee_os/lib/libutils/ext/snprintk.c:417 (discriminator 14)
    7836:	f8d7 309c 	ldr.w	r3, [r7, #156]	; 0x9c
    783a:	f003 0340 	and.w	r3, r3, #64	; 0x40
    783e:	2b00      	cmp	r3, #0
    7840:	d00d      	beq.n	785e <kprintf+0x7ba>
/home/qemu-sgx/devel/optee/optee_os/lib/libutils/ext/snprintk.c:417
    7842:	f8d7 20d0 	ldr.w	r2, [r7, #208]	; 0xd0
    7846:	f102 0304 	add.w	r3, r2, #4
    784a:	f8c7 30d0 	str.w	r3, [r7, #208]	; 0xd0
    784e:	6813      	ldr	r3, [r2, #0]
    7850:	b29b      	uxth	r3, r3
    7852:	b29b      	uxth	r3, r3
    7854:	f04f 0200 	mov.w	r2, #0
    7858:	461c      	mov	r4, r3
    785a:	4615      	mov	r5, r2
    785c:	e00a      	b.n	7874 <kprintf+0x7d0>
    785e:	f8d7 20d0 	ldr.w	r2, [r7, #208]	; 0xd0
    7862:	f102 0304 	add.w	r3, r2, #4
    7866:	f8c7 30d0 	str.w	r3, [r7, #208]	; 0xd0
    786a:	6813      	ldr	r3, [r2, #0]
    786c:	f04f 0200 	mov.w	r2, #0
    7870:	461c      	mov	r4, r3
    7872:	4615      	mov	r5, r2
/home/qemu-sgx/devel/optee/optee_os/lib/libutils/ext/snprintk.c:417 (discriminator 24)
    7874:	e9c7 4520 	strd	r4, r5, [r7, #128]	; 0x80
/home/qemu-sgx/devel/optee/optee_os/lib/libutils/ext/snprintk.c:418 (discriminator 24)
    7878:	f04f 0300 	mov.w	r3, #0
    787c:	67fb      	str	r3, [r7, #124]	; 0x7c
/home/qemu-sgx/devel/optee/optee_os/lib/libutils/ext/snprintk.c:419 (discriminator 24)
    787e:	e1b2      	b.n	7be6 <kprintf+0xb42>
/home/qemu-sgx/devel/optee/optee_os/lib/libutils/ext/snprintk.c:421
    7880:	f897 30d4 	ldrb.w	r3, [r7, #212]	; 0xd4
    7884:	2b00      	cmp	r3, #0
    7886:	d029      	beq.n	78dc <kprintf+0x838>
/home/qemu-sgx/devel/optee/optee_os/lib/libutils/ext/snprintk.c:421 (discriminator 1)
    7888:	f8d7 30ac 	ldr.w	r3, [r7, #172]	; 0xac
    788c:	781b      	ldrb	r3, [r3, #0]
    788e:	2b55      	cmp	r3, #85	; 0x55
    7890:	d124      	bne.n	78dc <kprintf+0x838>
/home/qemu-sgx/devel/optee/optee_os/lib/libutils/ext/snprintk.c:421 (discriminator 2)
    7892:	f8d7 30ac 	ldr.w	r3, [r7, #172]	; 0xac
    7896:	f103 0301 	add.w	r3, r3, #1
    789a:	781b      	ldrb	r3, [r3, #0]
    789c:	2b6c      	cmp	r3, #108	; 0x6c
    789e:	d11d      	bne.n	78dc <kprintf+0x838>
/home/qemu-sgx/devel/optee/optee_os/lib/libutils/ext/snprintk.c:426
    78a0:	f8d7 30ac 	ldr.w	r3, [r7, #172]	; 0xac
    78a4:	f103 0302 	add.w	r3, r3, #2
    78a8:	f8c7 30ac 	str.w	r3, [r7, #172]	; 0xac
/home/qemu-sgx/devel/optee/optee_os/lib/libutils/ext/snprintk.c:427
    78ac:	f8d7 20d0 	ldr.w	r2, [r7, #208]	; 0xd0
    78b0:	f102 0304 	add.w	r3, r2, #4
    78b4:	f8c7 30d0 	str.w	r3, [r7, #208]	; 0xd0
    78b8:	6813      	ldr	r3, [r2, #0]
    78ba:	f107 003c 	add.w	r0, r7, #60	; 0x3c
    78be:	461a      	mov	r2, r3
    78c0:	f04f 0125 	mov.w	r1, #37	; 0x25
    78c4:	f7ff fb9f 	bl	7006 <uuid2str>
    78c8:	6738      	str	r0, [r7, #112]	; 0x70
/home/qemu-sgx/devel/optee/optee_os/lib/libutils/ext/snprintk.c:429
    78ca:	f107 033c 	add.w	r3, r7, #60	; 0x3c
    78ce:	f8c7 30a0 	str.w	r3, [r7, #160]	; 0xa0
/home/qemu-sgx/devel/optee/optee_os/lib/libutils/ext/snprintk.c:430
    78d2:	f04f 0300 	mov.w	r3, #0
    78d6:	f887 308f 	strb.w	r3, [r7, #143]	; 0x8f
/home/qemu-sgx/devel/optee/optee_os/lib/libutils/ext/snprintk.c:431
    78da:	e276      	b.n	7dca <kprintf+0xd26>
/home/qemu-sgx/devel/optee/optee_os/lib/libutils/ext/snprintk.c:441
    78dc:	f8d7 20d0 	ldr.w	r2, [r7, #208]	; 0xd0
    78e0:	f102 0304 	add.w	r3, r2, #4
    78e4:	f8c7 30d0 	str.w	r3, [r7, #208]	; 0xd0
    78e8:	6813      	ldr	r3, [r2, #0]
    78ea:	461a      	mov	r2, r3
    78ec:	f04f 0300 	mov.w	r3, #0
    78f0:	603a      	str	r2, [r7, #0]
    78f2:	607b      	str	r3, [r7, #4]
    78f4:	e9d7 2300 	ldrd	r2, r3, [r7]
    78f8:	e9c7 2320 	strd	r2, r3, [r7, #128]	; 0x80
/home/qemu-sgx/devel/optee/optee_os/lib/libutils/ext/snprintk.c:442
    78fc:	f04f 0302 	mov.w	r3, #2
    7900:	67fb      	str	r3, [r7, #124]	; 0x7c
/home/qemu-sgx/devel/optee/optee_os/lib/libutils/ext/snprintk.c:443
    7902:	f8df 376c 	ldr.w	r3, [pc, #1900]	; 8070 <kprintf+0xfcc>
    7906:	447b      	add	r3, pc
    7908:	66fb      	str	r3, [r7, #108]	; 0x6c
/home/qemu-sgx/devel/optee/optee_os/lib/libutils/ext/snprintk.c:444
    790a:	f8d7 309c 	ldr.w	r3, [r7, #156]	; 0x9c
    790e:	f043 0302 	orr.w	r3, r3, #2
    7912:	f8c7 309c 	str.w	r3, [r7, #156]	; 0x9c
/home/qemu-sgx/devel/optee/optee_os/lib/libutils/ext/snprintk.c:445
    7916:	f04f 0378 	mov.w	r3, #120	; 0x78
    791a:	f8c7 30a8 	str.w	r3, [r7, #168]	; 0xa8
/home/qemu-sgx/devel/optee/optee_os/lib/libutils/ext/snprintk.c:446
    791e:	e162      	b.n	7be6 <kprintf+0xb42>
/home/qemu-sgx/devel/optee/optee_os/lib/libutils/ext/snprintk.c:448
    7920:	f8d7 20d0 	ldr.w	r2, [r7, #208]	; 0xd0
    7924:	f102 0304 	add.w	r3, r2, #4
    7928:	f8c7 30d0 	str.w	r3, [r7, #208]	; 0xd0
    792c:	6813      	ldr	r3, [r2, #0]
    792e:	f8c7 30a0 	str.w	r3, [r7, #160]	; 0xa0
    7932:	f8d7 30a0 	ldr.w	r3, [r7, #160]	; 0xa0
    7936:	2b00      	cmp	r3, #0
    7938:	d104      	bne.n	7944 <kprintf+0x8a0>
/home/qemu-sgx/devel/optee/optee_os/lib/libutils/ext/snprintk.c:450
    793a:	f8df 3738 	ldr.w	r3, [pc, #1848]	; 8074 <kprintf+0xfd0>
    793e:	447b      	add	r3, pc
    7940:	f8c7 30a0 	str.w	r3, [r7, #160]	; 0xa0
/home/qemu-sgx/devel/optee/optee_os/lib/libutils/ext/snprintk.c:451
    7944:	f8d7 3090 	ldr.w	r3, [r7, #144]	; 0x90
    7948:	2b00      	cmp	r3, #0
    794a:	db1f      	blt.n	798c <kprintf+0x8e8>
/home/qemu-sgx/devel/optee/optee_os/lib/libutils/ext/snprintk.c:457
    794c:	f8d7 3090 	ldr.w	r3, [r7, #144]	; 0x90
    7950:	461a      	mov	r2, r3
    7952:	f04f 0100 	mov.w	r1, #0
    7956:	f8d7 00a0 	ldr.w	r0, [r7, #160]	; 0xa0
    795a:	f7fb ec3c 	blx	31d4 <memchr@plt>
    795e:	6678      	str	r0, [r7, #100]	; 0x64
/home/qemu-sgx/devel/optee/optee_os/lib/libutils/ext/snprintk.c:459
    7960:	6e7b      	ldr	r3, [r7, #100]	; 0x64
    7962:	2b00      	cmp	r3, #0
    7964:	d00e      	beq.n	7984 <kprintf+0x8e0>
/home/qemu-sgx/devel/optee/optee_os/lib/libutils/ext/snprintk.c:460
    7966:	6e7a      	ldr	r2, [r7, #100]	; 0x64
    7968:	f8d7 30a0 	ldr.w	r3, [r7, #160]	; 0xa0
    796c:	eba2 0303 	sub.w	r3, r2, r3
    7970:	673b      	str	r3, [r7, #112]	; 0x70
/home/qemu-sgx/devel/optee/optee_os/lib/libutils/ext/snprintk.c:461
    7972:	6f3a      	ldr	r2, [r7, #112]	; 0x70
    7974:	f8d7 3090 	ldr.w	r3, [r7, #144]	; 0x90
    7978:	429a      	cmp	r2, r3
    797a:	dd0d      	ble.n	7998 <kprintf+0x8f4>
/home/qemu-sgx/devel/optee/optee_os/lib/libutils/ext/snprintk.c:462
    797c:	f8d7 3090 	ldr.w	r3, [r7, #144]	; 0x90
    7980:	673b      	str	r3, [r7, #112]	; 0x70
    7982:	e009      	b.n	7998 <kprintf+0x8f4>
/home/qemu-sgx/devel/optee/optee_os/lib/libutils/ext/snprintk.c:464
    7984:	f8d7 3090 	ldr.w	r3, [r7, #144]	; 0x90
    7988:	673b      	str	r3, [r7, #112]	; 0x70
    798a:	e005      	b.n	7998 <kprintf+0x8f4>
/home/qemu-sgx/devel/optee/optee_os/lib/libutils/ext/snprintk.c:466
    798c:	f8d7 00a0 	ldr.w	r0, [r7, #160]	; 0xa0
    7990:	f7fb ed6a 	blx	3468 <strlen@plt>
    7994:	4603      	mov	r3, r0
    7996:	673b      	str	r3, [r7, #112]	; 0x70
/home/qemu-sgx/devel/optee/optee_os/lib/libutils/ext/snprintk.c:467
    7998:	f04f 0300 	mov.w	r3, #0
    799c:	f887 308f 	strb.w	r3, [r7, #143]	; 0x8f
/home/qemu-sgx/devel/optee/optee_os/lib/libutils/ext/snprintk.c:468
    79a0:	e213      	b.n	7dca <kprintf+0xd26>
/home/qemu-sgx/devel/optee/optee_os/lib/libutils/ext/snprintk.c:470
    79a2:	f8d7 309c 	ldr.w	r3, [r7, #156]	; 0x9c
    79a6:	f043 0310 	orr.w	r3, r3, #16
    79aa:	f8c7 309c 	str.w	r3, [r7, #156]	; 0x9c
/home/qemu-sgx/devel/optee/optee_os/lib/libutils/ext/snprintk.c:473
    79ae:	f8d7 309c 	ldr.w	r3, [r7, #156]	; 0x9c
    79b2:	f003 0380 	and.w	r3, r3, #128	; 0x80
    79b6:	2b00      	cmp	r3, #0
    79b8:	d00c      	beq.n	79d4 <kprintf+0x930>
    79ba:	f8d7 30d0 	ldr.w	r3, [r7, #208]	; 0xd0
    79be:	f103 0307 	add.w	r3, r3, #7
    79c2:	f023 0207 	bic.w	r2, r3, #7
    79c6:	f102 0308 	add.w	r3, r2, #8
    79ca:	f8c7 30d0 	str.w	r3, [r7, #208]	; 0xd0
    79ce:	e9d2 8900 	ldrd	r8, r9, [r2]
    79d2:	e067      	b.n	7aa4 <kprintf+0xa00>
/home/qemu-sgx/devel/optee/optee_os/lib/libutils/ext/snprintk.c:473 (discriminator 2)
    79d4:	f8d7 309c 	ldr.w	r3, [r7, #156]	; 0x9c
    79d8:	f403 7380 	and.w	r3, r3, #256	; 0x100
    79dc:	2b00      	cmp	r3, #0
    79de:	d00b      	beq.n	79f8 <kprintf+0x954>
/home/qemu-sgx/devel/optee/optee_os/lib/libutils/ext/snprintk.c:473
    79e0:	f8d7 20d0 	ldr.w	r2, [r7, #208]	; 0xd0
    79e4:	f102 0304 	add.w	r3, r2, #4
    79e8:	f8c7 30d0 	str.w	r3, [r7, #208]	; 0xd0
    79ec:	6813      	ldr	r3, [r2, #0]
    79ee:	f04f 0200 	mov.w	r2, #0
    79f2:	4698      	mov	r8, r3
    79f4:	4691      	mov	r9, r2
    79f6:	e055      	b.n	7aa4 <kprintf+0xa00>
/home/qemu-sgx/devel/optee/optee_os/lib/libutils/ext/snprintk.c:473 (discriminator 5)
    79f8:	f8d7 309c 	ldr.w	r3, [r7, #156]	; 0x9c
    79fc:	f403 7300 	and.w	r3, r3, #512	; 0x200
    7a00:	2b00      	cmp	r3, #0
    7a02:	d00b      	beq.n	7a1c <kprintf+0x978>
/home/qemu-sgx/devel/optee/optee_os/lib/libutils/ext/snprintk.c:473
    7a04:	f8d7 20d0 	ldr.w	r2, [r7, #208]	; 0xd0
    7a08:	f102 0304 	add.w	r3, r2, #4
    7a0c:	f8c7 30d0 	str.w	r3, [r7, #208]	; 0xd0
    7a10:	6813      	ldr	r3, [r2, #0]
    7a12:	f04f 0200 	mov.w	r2, #0
    7a16:	4698      	mov	r8, r3
    7a18:	4691      	mov	r9, r2
    7a1a:	e043      	b.n	7aa4 <kprintf+0xa00>
/home/qemu-sgx/devel/optee/optee_os/lib/libutils/ext/snprintk.c:473 (discriminator 8)
    7a1c:	f8d7 309c 	ldr.w	r3, [r7, #156]	; 0x9c
    7a20:	f003 0320 	and.w	r3, r3, #32
    7a24:	2b00      	cmp	r3, #0
    7a26:	d00c      	beq.n	7a42 <kprintf+0x99e>
/home/qemu-sgx/devel/optee/optee_os/lib/libutils/ext/snprintk.c:473
    7a28:	f8d7 30d0 	ldr.w	r3, [r7, #208]	; 0xd0
    7a2c:	f103 0307 	add.w	r3, r3, #7
    7a30:	f023 0207 	bic.w	r2, r3, #7
    7a34:	f102 0308 	add.w	r3, r2, #8
    7a38:	f8c7 30d0 	str.w	r3, [r7, #208]	; 0xd0
    7a3c:	e9d2 8900 	ldrd	r8, r9, [r2]
    7a40:	e030      	b.n	7aa4 <kprintf+0xa00>
/home/qemu-sgx/devel/optee/optee_os/lib/libutils/ext/snprintk.c:473 (discriminator 11)
    7a42:	f8d7 309c 	ldr.w	r3, [r7, #156]	; 0x9c
    7a46:	f003 0310 	and.w	r3, r3, #16
    7a4a:	2b00      	cmp	r3, #0
    7a4c:	d00b      	beq.n	7a66 <kprintf+0x9c2>
/home/qemu-sgx/devel/optee/optee_os/lib/libutils/ext/snprintk.c:473
    7a4e:	f8d7 20d0 	ldr.w	r2, [r7, #208]	; 0xd0
    7a52:	f102 0304 	add.w	r3, r2, #4
    7a56:	f8c7 30d0 	str.w	r3, [r7, #208]	; 0xd0
    7a5a:	6813      	ldr	r3, [r2, #0]
    7a5c:	f04f 0200 	mov.w	r2, #0
    7a60:	4698      	mov	r8, r3
    7a62:	4691      	mov	r9, r2
    7a64:	e01e      	b.n	7aa4 <kprintf+0xa00>
/home/qemu-sgx/devel/optee/optee_os/lib/libutils/ext/snprintk.c:473 (discriminator 14)
    7a66:	f8d7 309c 	ldr.w	r3, [r7, #156]	; 0x9c
    7a6a:	f003 0340 	and.w	r3, r3, #64	; 0x40
    7a6e:	2b00      	cmp	r3, #0
    7a70:	d00d      	beq.n	7a8e <kprintf+0x9ea>
/home/qemu-sgx/devel/optee/optee_os/lib/libutils/ext/snprintk.c:473
    7a72:	f8d7 20d0 	ldr.w	r2, [r7, #208]	; 0xd0
    7a76:	f102 0304 	add.w	r3, r2, #4
    7a7a:	f8c7 30d0 	str.w	r3, [r7, #208]	; 0xd0
    7a7e:	6813      	ldr	r3, [r2, #0]
    7a80:	b29b      	uxth	r3, r3
    7a82:	b29b      	uxth	r3, r3
    7a84:	f04f 0200 	mov.w	r2, #0
    7a88:	4698      	mov	r8, r3
    7a8a:	4691      	mov	r9, r2
    7a8c:	e00a      	b.n	7aa4 <kprintf+0xa00>
    7a8e:	f8d7 20d0 	ldr.w	r2, [r7, #208]	; 0xd0
    7a92:	f102 0304 	add.w	r3, r2, #4
    7a96:	f8c7 30d0 	str.w	r3, [r7, #208]	; 0xd0
    7a9a:	6813      	ldr	r3, [r2, #0]
    7a9c:	f04f 0200 	mov.w	r2, #0
    7aa0:	4698      	mov	r8, r3
    7aa2:	4691      	mov	r9, r2
/home/qemu-sgx/devel/optee/optee_os/lib/libutils/ext/snprintk.c:473 (discriminator 24)
    7aa4:	e9c7 8920 	strd	r8, r9, [r7, #128]	; 0x80
/home/qemu-sgx/devel/optee/optee_os/lib/libutils/ext/snprintk.c:474 (discriminator 24)
    7aa8:	f04f 0301 	mov.w	r3, #1
    7aac:	67fb      	str	r3, [r7, #124]	; 0x7c
/home/qemu-sgx/devel/optee/optee_os/lib/libutils/ext/snprintk.c:475 (discriminator 24)
    7aae:	e09a      	b.n	7be6 <kprintf+0xb42>
/home/qemu-sgx/devel/optee/optee_os/lib/libutils/ext/snprintk.c:477
    7ab0:	f8df 35c4 	ldr.w	r3, [pc, #1476]	; 8078 <kprintf+0xfd4>
    7ab4:	447b      	add	r3, pc
    7ab6:	66fb      	str	r3, [r7, #108]	; 0x6c
/home/qemu-sgx/devel/optee/optee_os/lib/libutils/ext/snprintk.c:478
    7ab8:	e003      	b.n	7ac2 <kprintf+0xa1e>
/home/qemu-sgx/devel/optee/optee_os/lib/libutils/ext/snprintk.c:480
    7aba:	f8df 35c0 	ldr.w	r3, [pc, #1472]	; 807c <kprintf+0xfd8>
    7abe:	447b      	add	r3, pc
    7ac0:	66fb      	str	r3, [r7, #108]	; 0x6c
/home/qemu-sgx/devel/optee/optee_os/lib/libutils/ext/snprintk.c:481
    7ac2:	f8d7 309c 	ldr.w	r3, [r7, #156]	; 0x9c
    7ac6:	f003 0380 	and.w	r3, r3, #128	; 0x80
    7aca:	2b00      	cmp	r3, #0
    7acc:	d00c      	beq.n	7ae8 <kprintf+0xa44>
    7ace:	f8d7 30d0 	ldr.w	r3, [r7, #208]	; 0xd0
    7ad2:	f103 0307 	add.w	r3, r3, #7
    7ad6:	f023 0207 	bic.w	r2, r3, #7
    7ada:	f102 0308 	add.w	r3, r2, #8
    7ade:	f8c7 30d0 	str.w	r3, [r7, #208]	; 0xd0
    7ae2:	e9d2 ab00 	ldrd	sl, fp, [r2]
    7ae6:	e067      	b.n	7bb8 <kprintf+0xb14>
/home/qemu-sgx/devel/optee/optee_os/lib/libutils/ext/snprintk.c:481 (discriminator 2)
    7ae8:	f8d7 309c 	ldr.w	r3, [r7, #156]	; 0x9c
    7aec:	f403 7380 	and.w	r3, r3, #256	; 0x100
    7af0:	2b00      	cmp	r3, #0
    7af2:	d00b      	beq.n	7b0c <kprintf+0xa68>
/home/qemu-sgx/devel/optee/optee_os/lib/libutils/ext/snprintk.c:481
    7af4:	f8d7 20d0 	ldr.w	r2, [r7, #208]	; 0xd0
    7af8:	f102 0304 	add.w	r3, r2, #4
    7afc:	f8c7 30d0 	str.w	r3, [r7, #208]	; 0xd0
    7b00:	6813      	ldr	r3, [r2, #0]
    7b02:	f04f 0200 	mov.w	r2, #0
    7b06:	469a      	mov	sl, r3
    7b08:	4693      	mov	fp, r2
    7b0a:	e055      	b.n	7bb8 <kprintf+0xb14>
/home/qemu-sgx/devel/optee/optee_os/lib/libutils/ext/snprintk.c:481 (discriminator 5)
    7b0c:	f8d7 309c 	ldr.w	r3, [r7, #156]	; 0x9c
    7b10:	f403 7300 	and.w	r3, r3, #512	; 0x200
    7b14:	2b00      	cmp	r3, #0
    7b16:	d00b      	beq.n	7b30 <kprintf+0xa8c>
/home/qemu-sgx/devel/optee/optee_os/lib/libutils/ext/snprintk.c:481
    7b18:	f8d7 20d0 	ldr.w	r2, [r7, #208]	; 0xd0
    7b1c:	f102 0304 	add.w	r3, r2, #4
    7b20:	f8c7 30d0 	str.w	r3, [r7, #208]	; 0xd0
    7b24:	6813      	ldr	r3, [r2, #0]
    7b26:	f04f 0200 	mov.w	r2, #0
    7b2a:	469a      	mov	sl, r3
    7b2c:	4693      	mov	fp, r2
    7b2e:	e043      	b.n	7bb8 <kprintf+0xb14>
/home/qemu-sgx/devel/optee/optee_os/lib/libutils/ext/snprintk.c:481 (discriminator 8)
    7b30:	f8d7 309c 	ldr.w	r3, [r7, #156]	; 0x9c
    7b34:	f003 0320 	and.w	r3, r3, #32
    7b38:	2b00      	cmp	r3, #0
    7b3a:	d00c      	beq.n	7b56 <kprintf+0xab2>
/home/qemu-sgx/devel/optee/optee_os/lib/libutils/ext/snprintk.c:481
    7b3c:	f8d7 30d0 	ldr.w	r3, [r7, #208]	; 0xd0
    7b40:	f103 0307 	add.w	r3, r3, #7
    7b44:	f023 0207 	bic.w	r2, r3, #7
    7b48:	f102 0308 	add.w	r3, r2, #8
    7b4c:	f8c7 30d0 	str.w	r3, [r7, #208]	; 0xd0
    7b50:	e9d2 ab00 	ldrd	sl, fp, [r2]
    7b54:	e030      	b.n	7bb8 <kprintf+0xb14>
/home/qemu-sgx/devel/optee/optee_os/lib/libutils/ext/snprintk.c:481 (discriminator 11)
    7b56:	f8d7 309c 	ldr.w	r3, [r7, #156]	; 0x9c
    7b5a:	f003 0310 	and.w	r3, r3, #16
    7b5e:	2b00      	cmp	r3, #0
    7b60:	d00b      	beq.n	7b7a <kprintf+0xad6>
/home/qemu-sgx/devel/optee/optee_os/lib/libutils/ext/snprintk.c:481
    7b62:	f8d7 20d0 	ldr.w	r2, [r7, #208]	; 0xd0
    7b66:	f102 0304 	add.w	r3, r2, #4
    7b6a:	f8c7 30d0 	str.w	r3, [r7, #208]	; 0xd0
    7b6e:	6813      	ldr	r3, [r2, #0]
    7b70:	f04f 0200 	mov.w	r2, #0
    7b74:	469a      	mov	sl, r3
    7b76:	4693      	mov	fp, r2
    7b78:	e01e      	b.n	7bb8 <kprintf+0xb14>
/home/qemu-sgx/devel/optee/optee_os/lib/libutils/ext/snprintk.c:481 (discriminator 14)
    7b7a:	f8d7 309c 	ldr.w	r3, [r7, #156]	; 0x9c
    7b7e:	f003 0340 	and.w	r3, r3, #64	; 0x40
    7b82:	2b00      	cmp	r3, #0
    7b84:	d00d      	beq.n	7ba2 <kprintf+0xafe>
/home/qemu-sgx/devel/optee/optee_os/lib/libutils/ext/snprintk.c:481
    7b86:	f8d7 20d0 	ldr.w	r2, [r7, #208]	; 0xd0
    7b8a:	f102 0304 	add.w	r3, r2, #4
    7b8e:	f8c7 30d0 	str.w	r3, [r7, #208]	; 0xd0
    7b92:	6813      	ldr	r3, [r2, #0]
    7b94:	b29b      	uxth	r3, r3
    7b96:	b29b      	uxth	r3, r3
    7b98:	f04f 0200 	mov.w	r2, #0
    7b9c:	469a      	mov	sl, r3
    7b9e:	4693      	mov	fp, r2
    7ba0:	e00a      	b.n	7bb8 <kprintf+0xb14>
    7ba2:	f8d7 20d0 	ldr.w	r2, [r7, #208]	; 0xd0
    7ba6:	f102 0304 	add.w	r3, r2, #4
    7baa:	f8c7 30d0 	str.w	r3, [r7, #208]	; 0xd0
    7bae:	6813      	ldr	r3, [r2, #0]
    7bb0:	f04f 0200 	mov.w	r2, #0
    7bb4:	469a      	mov	sl, r3
    7bb6:	4693      	mov	fp, r2
/home/qemu-sgx/devel/optee/optee_os/lib/libutils/ext/snprintk.c:481 (discriminator 24)
    7bb8:	e9c7 ab20 	strd	sl, fp, [r7, #128]	; 0x80
/home/qemu-sgx/devel/optee/optee_os/lib/libutils/ext/snprintk.c:482 (discriminator 24)
    7bbc:	f04f 0302 	mov.w	r3, #2
    7bc0:	67fb      	str	r3, [r7, #124]	; 0x7c
/home/qemu-sgx/devel/optee/optee_os/lib/libutils/ext/snprintk.c:484 (discriminator 24)
    7bc2:	f8d7 309c 	ldr.w	r3, [r7, #156]	; 0x9c
    7bc6:	f003 0301 	and.w	r3, r3, #1
    7bca:	2b00      	cmp	r3, #0
    7bcc:	d00a      	beq.n	7be4 <kprintf+0xb40>
/home/qemu-sgx/devel/optee/optee_os/lib/libutils/ext/snprintk.c:484 (discriminator 1)
    7bce:	e9d7 2320 	ldrd	r2, r3, [r7, #128]	; 0x80
    7bd2:	4313      	orrs	r3, r2
    7bd4:	d006      	beq.n	7be4 <kprintf+0xb40>
/home/qemu-sgx/devel/optee/optee_os/lib/libutils/ext/snprintk.c:485
    7bd6:	f8d7 309c 	ldr.w	r3, [r7, #156]	; 0x9c
    7bda:	f043 0302 	orr.w	r3, r3, #2
    7bde:	f8c7 309c 	str.w	r3, [r7, #156]	; 0x9c
    7be2:	e000      	b.n	7be6 <kprintf+0xb42>
/home/qemu-sgx/devel/optee/optee_os/lib/libutils/ext/snprintk.c:488
    7be4:	bf00      	nop
    7be6:	f04f 0300 	mov.w	r3, #0
    7bea:	f887 308f 	strb.w	r3, [r7, #143]	; 0x8f
/home/qemu-sgx/devel/optee/optee_os/lib/libutils/ext/snprintk.c:494
    7bee:	f8d7 3090 	ldr.w	r3, [r7, #144]	; 0x90
    7bf2:	67bb      	str	r3, [r7, #120]	; 0x78
    7bf4:	6fbb      	ldr	r3, [r7, #120]	; 0x78
    7bf6:	2b00      	cmp	r3, #0
    7bf8:	db05      	blt.n	7c06 <kprintf+0xb62>
/home/qemu-sgx/devel/optee/optee_os/lib/libutils/ext/snprintk.c:495
    7bfa:	f8d7 309c 	ldr.w	r3, [r7, #156]	; 0x9c
    7bfe:	f423 6380 	bic.w	r3, r3, #1024	; 0x400
    7c02:	f8c7 309c 	str.w	r3, [r7, #156]	; 0x9c
/home/qemu-sgx/devel/optee/optee_os/lib/libutils/ext/snprintk.c:502
    7c06:	f107 033c 	add.w	r3, r7, #60	; 0x3c
    7c0a:	f103 0325 	add.w	r3, r3, #37	; 0x25
    7c0e:	f8c7 30a0 	str.w	r3, [r7, #160]	; 0xa0
/home/qemu-sgx/devel/optee/optee_os/lib/libutils/ext/snprintk.c:503
    7c12:	e9d7 2320 	ldrd	r2, r3, [r7, #128]	; 0x80
    7c16:	4313      	orrs	r3, r2
    7c18:	d104      	bne.n	7c24 <kprintf+0xb80>
/home/qemu-sgx/devel/optee/optee_os/lib/libutils/ext/snprintk.c:503 (discriminator 1)
    7c1a:	f8d7 3090 	ldr.w	r3, [r7, #144]	; 0x90
    7c1e:	2b00      	cmp	r3, #0
    7c20:	f000 80af 	beq.w	7d82 <kprintf+0xcde>
    7c24:	6ffb      	ldr	r3, [r7, #124]	; 0x7c
    7c26:	2b02      	cmp	r3, #2
    7c28:	d07c      	beq.n	7d24 <kprintf+0xc80>
    7c2a:	6ffb      	ldr	r3, [r7, #124]	; 0x7c
    7c2c:	2b02      	cmp	r3, #2
    7c2e:	f200 809c 	bhi.w	7d6a <kprintf+0xcc6>
    7c32:	6ffb      	ldr	r3, [r7, #124]	; 0x7c
    7c34:	2b00      	cmp	r3, #0
    7c36:	d004      	beq.n	7c42 <kprintf+0xb9e>
    7c38:	6ffb      	ldr	r3, [r7, #124]	; 0x7c
    7c3a:	2b01      	cmp	r3, #1
    7c3c:	d05c      	beq.n	7cf8 <kprintf+0xc54>
    7c3e:	e094      	b.n	7d6a <kprintf+0xcc6>
/home/qemu-sgx/devel/optee/optee_os/lib/libutils/ext/snprintk.c:510
    7c40:	bf00      	nop
/home/qemu-sgx/devel/optee/optee_os/lib/libutils/ext/snprintk.c:512 (discriminator 1)
    7c42:	f897 3080 	ldrb.w	r3, [r7, #128]	; 0x80
    7c46:	f003 0307 	and.w	r3, r3, #7
    7c4a:	b2da      	uxtb	r2, r3
    7c4c:	f8d7 30a0 	ldr.w	r3, [r7, #160]	; 0xa0
    7c50:	f103 33ff 	add.w	r3, r3, #4294967295	; 0xffffffff
    7c54:	f8c7 30a0 	str.w	r3, [r7, #160]	; 0xa0
    7c58:	f102 0330 	add.w	r3, r2, #48	; 0x30
    7c5c:	b2db      	uxtb	r3, r3
    7c5e:	f8d7 20a0 	ldr.w	r2, [r7, #160]	; 0xa0
    7c62:	7013      	strb	r3, [r2, #0]
/home/qemu-sgx/devel/optee/optee_os/lib/libutils/ext/snprintk.c:513 (discriminator 1)
    7c64:	e9d7 2320 	ldrd	r2, r3, [r7, #128]	; 0x80
    7c68:	f04f 0000 	mov.w	r0, #0
    7c6c:	f04f 0100 	mov.w	r1, #0
    7c70:	ea4f 00d2 	mov.w	r0, r2, lsr #3
    7c74:	ea40 7043 	orr.w	r0, r0, r3, lsl #29
    7c78:	ea4f 01d3 	mov.w	r1, r3, lsr #3
    7c7c:	e9c7 0120 	strd	r0, r1, [r7, #128]	; 0x80
/home/qemu-sgx/devel/optee/optee_os/lib/libutils/ext/snprintk.c:514 (discriminator 1)
    7c80:	e9d7 2320 	ldrd	r2, r3, [r7, #128]	; 0x80
    7c84:	4313      	orrs	r3, r2
    7c86:	d1db      	bne.n	7c40 <kprintf+0xb9c>
/home/qemu-sgx/devel/optee/optee_os/lib/libutils/ext/snprintk.c:516
    7c88:	f8d7 309c 	ldr.w	r3, [r7, #156]	; 0x9c
    7c8c:	f003 0301 	and.w	r3, r3, #1
    7c90:	2b00      	cmp	r3, #0
    7c92:	d078      	beq.n	7d86 <kprintf+0xce2>
/home/qemu-sgx/devel/optee/optee_os/lib/libutils/ext/snprintk.c:516 (discriminator 1)
    7c94:	f8d7 30a0 	ldr.w	r3, [r7, #160]	; 0xa0
    7c98:	781b      	ldrb	r3, [r3, #0]
    7c9a:	2b30      	cmp	r3, #48	; 0x30
    7c9c:	d073      	beq.n	7d86 <kprintf+0xce2>
/home/qemu-sgx/devel/optee/optee_os/lib/libutils/ext/snprintk.c:517
    7c9e:	f8d7 30a0 	ldr.w	r3, [r7, #160]	; 0xa0
    7ca2:	f103 33ff 	add.w	r3, r3, #4294967295	; 0xffffffff
    7ca6:	f8c7 30a0 	str.w	r3, [r7, #160]	; 0xa0
    7caa:	f8d7 20a0 	ldr.w	r2, [r7, #160]	; 0xa0
    7cae:	f04f 0330 	mov.w	r3, #48	; 0x30
    7cb2:	7013      	strb	r3, [r2, #0]
/home/qemu-sgx/devel/optee/optee_os/lib/libutils/ext/snprintk.c:518
    7cb4:	e067      	b.n	7d86 <kprintf+0xce2>
/home/qemu-sgx/devel/optee/optee_os/lib/libutils/ext/snprintk.c:523
    7cb6:	e9d7 0120 	ldrd	r0, r1, [r7, #128]	; 0x80
    7cba:	f04f 020a 	mov.w	r2, #10
    7cbe:	f04f 0300 	mov.w	r3, #0
    7cc2:	f7fb e9d4 	blx	306c <__aeabi_uldivmod@plt>
    7cc6:	b2d2      	uxtb	r2, r2
    7cc8:	f8d7 30a0 	ldr.w	r3, [r7, #160]	; 0xa0
    7ccc:	f103 33ff 	add.w	r3, r3, #4294967295	; 0xffffffff
    7cd0:	f8c7 30a0 	str.w	r3, [r7, #160]	; 0xa0
    7cd4:	f102 0330 	add.w	r3, r2, #48	; 0x30
    7cd8:	b2db      	uxtb	r3, r3
    7cda:	f8d7 20a0 	ldr.w	r2, [r7, #160]	; 0xa0
    7cde:	7013      	strb	r3, [r2, #0]
/home/qemu-sgx/devel/optee/optee_os/lib/libutils/ext/snprintk.c:524
    7ce0:	e9d7 0120 	ldrd	r0, r1, [r7, #128]	; 0x80
    7ce4:	f04f 020a 	mov.w	r2, #10
    7ce8:	f04f 0300 	mov.w	r3, #0
    7cec:	f7fb e9be 	blx	306c <__aeabi_uldivmod@plt>
    7cf0:	4602      	mov	r2, r0
    7cf2:	460b      	mov	r3, r1
    7cf4:	e9c7 2320 	strd	r2, r3, [r7, #128]	; 0x80
/home/qemu-sgx/devel/optee/optee_os/lib/libutils/ext/snprintk.c:522
    7cf8:	e9d7 2320 	ldrd	r2, r3, [r7, #128]	; 0x80
    7cfc:	2a0a      	cmp	r2, #10
    7cfe:	f173 0300 	sbcs.w	r3, r3, #0
    7d02:	d2d8      	bcs.n	7cb6 <kprintf+0xc12>
/home/qemu-sgx/devel/optee/optee_os/lib/libutils/ext/snprintk.c:526
    7d04:	f897 2080 	ldrb.w	r2, [r7, #128]	; 0x80
    7d08:	f8d7 30a0 	ldr.w	r3, [r7, #160]	; 0xa0
    7d0c:	f103 33ff 	add.w	r3, r3, #4294967295	; 0xffffffff
    7d10:	f8c7 30a0 	str.w	r3, [r7, #160]	; 0xa0
    7d14:	f102 0330 	add.w	r3, r2, #48	; 0x30
    7d18:	b2db      	uxtb	r3, r3
    7d1a:	f8d7 20a0 	ldr.w	r2, [r7, #160]	; 0xa0
    7d1e:	7013      	strb	r3, [r2, #0]
/home/qemu-sgx/devel/optee/optee_os/lib/libutils/ext/snprintk.c:527
    7d20:	e032      	b.n	7d88 <kprintf+0xce4>
/home/qemu-sgx/devel/optee/optee_os/lib/libutils/ext/snprintk.c:529
    7d22:	bf00      	nop
/home/qemu-sgx/devel/optee/optee_os/lib/libutils/ext/snprintk.c:531 (discriminator 1)
    7d24:	f8d7 3080 	ldr.w	r3, [r7, #128]	; 0x80
    7d28:	f003 020f 	and.w	r2, r3, #15
    7d2c:	6efb      	ldr	r3, [r7, #108]	; 0x6c
    7d2e:	441a      	add	r2, r3
    7d30:	f8d7 30a0 	ldr.w	r3, [r7, #160]	; 0xa0
    7d34:	f103 33ff 	add.w	r3, r3, #4294967295	; 0xffffffff
    7d38:	f8c7 30a0 	str.w	r3, [r7, #160]	; 0xa0
    7d3c:	7813      	ldrb	r3, [r2, #0]
    7d3e:	f8d7 20a0 	ldr.w	r2, [r7, #160]	; 0xa0
    7d42:	7013      	strb	r3, [r2, #0]
/home/qemu-sgx/devel/optee/optee_os/lib/libutils/ext/snprintk.c:532 (discriminator 1)
    7d44:	e9d7 2320 	ldrd	r2, r3, [r7, #128]	; 0x80
    7d48:	f04f 0000 	mov.w	r0, #0
    7d4c:	f04f 0100 	mov.w	r1, #0
    7d50:	ea4f 1012 	mov.w	r0, r2, lsr #4
    7d54:	ea40 7003 	orr.w	r0, r0, r3, lsl #28
    7d58:	ea4f 1113 	mov.w	r1, r3, lsr #4
    7d5c:	e9c7 0120 	strd	r0, r1, [r7, #128]	; 0x80
/home/qemu-sgx/devel/optee/optee_os/lib/libutils/ext/snprintk.c:533 (discriminator 1)
    7d60:	e9d7 2320 	ldrd	r2, r3, [r7, #128]	; 0x80
    7d64:	4313      	orrs	r3, r2
    7d66:	d1dc      	bne.n	7d22 <kprintf+0xc7e>
/home/qemu-sgx/devel/optee/optee_os/lib/libutils/ext/snprintk.c:534
    7d68:	e00e      	b.n	7d88 <kprintf+0xce4>
/home/qemu-sgx/devel/optee/optee_os/lib/libutils/ext/snprintk.c:538
    7d6a:	4bc5      	ldr	r3, [pc, #788]	; (8080 <kprintf+0xfdc>)
    7d6c:	447b      	add	r3, pc
    7d6e:	f8c7 30a0 	str.w	r3, [r7, #160]	; 0xa0
/home/qemu-sgx/devel/optee/optee_os/lib/libutils/ext/snprintk.c:539
    7d72:	f8d7 00a0 	ldr.w	r0, [r7, #160]	; 0xa0
    7d76:	f7fb eb78 	blx	3468 <strlen@plt>
    7d7a:	4603      	mov	r3, r0
    7d7c:	673b      	str	r3, [r7, #112]	; 0x70
/home/qemu-sgx/devel/optee/optee_os/lib/libutils/ext/snprintk.c:540
    7d7e:	bf00      	nop
/home/qemu-sgx/devel/optee/optee_os/lib/libutils/ext/snprintk.c:545
    7d80:	e023      	b.n	7dca <kprintf+0xd26>
/home/qemu-sgx/devel/optee/optee_os/lib/libutils/ext/snprintk.c:542
    7d82:	bf00      	nop
    7d84:	e000      	b.n	7d88 <kprintf+0xce4>
/home/qemu-sgx/devel/optee/optee_os/lib/libutils/ext/snprintk.c:518
    7d86:	bf00      	nop
/home/qemu-sgx/devel/optee/optee_os/lib/libutils/ext/snprintk.c:543
    7d88:	f107 023c 	add.w	r2, r7, #60	; 0x3c
    7d8c:	f102 0225 	add.w	r2, r2, #37	; 0x25
    7d90:	f8d7 30a0 	ldr.w	r3, [r7, #160]	; 0xa0
    7d94:	eba2 0303 	sub.w	r3, r2, r3
    7d98:	673b      	str	r3, [r7, #112]	; 0x70
/home/qemu-sgx/devel/optee/optee_os/lib/libutils/ext/snprintk.c:545
    7d9a:	e016      	b.n	7dca <kprintf+0xd26>
/home/qemu-sgx/devel/optee/optee_os/lib/libutils/ext/snprintk.c:547
    7d9c:	f8d7 30a8 	ldr.w	r3, [r7, #168]	; 0xa8
    7da0:	2b00      	cmp	r3, #0
    7da2:	f000 814b 	beq.w	803c <kprintf+0xf98>
/home/qemu-sgx/devel/optee/optee_os/lib/libutils/ext/snprintk.c:550
    7da6:	f107 033c 	add.w	r3, r7, #60	; 0x3c
    7daa:	f8c7 30a0 	str.w	r3, [r7, #160]	; 0xa0
/home/qemu-sgx/devel/optee/optee_os/lib/libutils/ext/snprintk.c:551
    7dae:	f8d7 30a8 	ldr.w	r3, [r7, #168]	; 0xa8
    7db2:	b2db      	uxtb	r3, r3
    7db4:	f8d7 20a0 	ldr.w	r2, [r7, #160]	; 0xa0
    7db8:	7013      	strb	r3, [r2, #0]
/home/qemu-sgx/devel/optee/optee_os/lib/libutils/ext/snprintk.c:552
    7dba:	f04f 0301 	mov.w	r3, #1
    7dbe:	673b      	str	r3, [r7, #112]	; 0x70
/home/qemu-sgx/devel/optee/optee_os/lib/libutils/ext/snprintk.c:553
    7dc0:	f04f 0300 	mov.w	r3, #0
    7dc4:	f887 308f 	strb.w	r3, [r7, #143]	; 0x8f
/home/qemu-sgx/devel/optee/optee_os/lib/libutils/ext/snprintk.c:554
    7dc8:	bf00      	nop
/home/qemu-sgx/devel/optee/optee_os/lib/libutils/ext/snprintk.c:571
    7dca:	6f3a      	ldr	r2, [r7, #112]	; 0x70
    7dcc:	6fbb      	ldr	r3, [r7, #120]	; 0x78
    7dce:	4293      	cmp	r3, r2
    7dd0:	bfb8      	it	lt
    7dd2:	4613      	movlt	r3, r2
    7dd4:	677b      	str	r3, [r7, #116]	; 0x74
/home/qemu-sgx/devel/optee/optee_os/lib/libutils/ext/snprintk.c:572
    7dd6:	f897 308f 	ldrb.w	r3, [r7, #143]	; 0x8f
    7dda:	2b00      	cmp	r3, #0
    7ddc:	d004      	beq.n	7de8 <kprintf+0xd44>
/home/qemu-sgx/devel/optee/optee_os/lib/libutils/ext/snprintk.c:573
    7dde:	6f7b      	ldr	r3, [r7, #116]	; 0x74
    7de0:	f103 0301 	add.w	r3, r3, #1
    7de4:	677b      	str	r3, [r7, #116]	; 0x74
    7de6:	e009      	b.n	7dfc <kprintf+0xd58>
/home/qemu-sgx/devel/optee/optee_os/lib/libutils/ext/snprintk.c:574
    7de8:	f8d7 309c 	ldr.w	r3, [r7, #156]	; 0x9c
    7dec:	f003 0302 	and.w	r3, r3, #2
    7df0:	2b00      	cmp	r3, #0
    7df2:	d003      	beq.n	7dfc <kprintf+0xd58>
/home/qemu-sgx/devel/optee/optee_os/lib/libutils/ext/snprintk.c:575
    7df4:	6f7b      	ldr	r3, [r7, #116]	; 0x74
    7df6:	f103 0302 	add.w	r3, r3, #2
    7dfa:	677b      	str	r3, [r7, #116]	; 0x74
/home/qemu-sgx/devel/optee/optee_os/lib/libutils/ext/snprintk.c:578
    7dfc:	6f7a      	ldr	r2, [r7, #116]	; 0x74
    7dfe:	f8d7 3094 	ldr.w	r3, [r7, #148]	; 0x94
    7e02:	429a      	cmp	r2, r3
    7e04:	bfb8      	it	lt
    7e06:	461a      	movlt	r2, r3
    7e08:	f8d7 3098 	ldr.w	r3, [r7, #152]	; 0x98
    7e0c:	4413      	add	r3, r2
    7e0e:	f8c7 3098 	str.w	r3, [r7, #152]	; 0x98
/home/qemu-sgx/devel/optee/optee_os/lib/libutils/ext/snprintk.c:581
    7e12:	f8d7 209c 	ldr.w	r2, [r7, #156]	; 0x9c
    7e16:	f240 4304 	movw	r3, #1028	; 0x404
    7e1a:	ea03 0302 	and.w	r3, r3, r2
    7e1e:	2b00      	cmp	r3, #0
    7e20:	d123      	bne.n	7e6a <kprintf+0xdc6>
/home/qemu-sgx/devel/optee/optee_os/lib/libutils/ext/snprintk.c:582
    7e22:	f8d7 2094 	ldr.w	r2, [r7, #148]	; 0x94
    7e26:	6f7b      	ldr	r3, [r7, #116]	; 0x74
    7e28:	eba2 0303 	sub.w	r3, r2, r3
    7e2c:	f8c7 30a4 	str.w	r3, [r7, #164]	; 0xa4
/home/qemu-sgx/devel/optee/optee_os/lib/libutils/ext/snprintk.c:583
    7e30:	e013      	b.n	7e5a <kprintf+0xdb6>
/home/qemu-sgx/devel/optee/optee_os/lib/libutils/ext/snprintk.c:584
    7e32:	6b3b      	ldr	r3, [r7, #48]	; 0x30
    7e34:	2b08      	cmp	r3, #8
    7e36:	d110      	bne.n	7e5a <kprintf+0xdb6>
/home/qemu-sgx/devel/optee/optee_os/lib/libutils/ext/snprintk.c:584 (discriminator 1)
    7e38:	6abb      	ldr	r3, [r7, #40]	; 0x28
    7e3a:	2b00      	cmp	r3, #0
    7e3c:	d00d      	beq.n	7e5a <kprintf+0xdb6>
/home/qemu-sgx/devel/optee/optee_os/lib/libutils/ext/snprintk.c:584 (discriminator 2)
    7e3e:	6afb      	ldr	r3, [r7, #44]	; 0x2c
    7e40:	2b00      	cmp	r3, #0
    7e42:	d003      	beq.n	7e4c <kprintf+0xda8>
/home/qemu-sgx/devel/optee/optee_os/lib/libutils/ext/snprintk.c:584 (discriminator 4)
    7e44:	6aba      	ldr	r2, [r7, #40]	; 0x28
    7e46:	6ebb      	ldr	r3, [r7, #104]	; 0x68
    7e48:	429a      	cmp	r2, r3
    7e4a:	d206      	bcs.n	7e5a <kprintf+0xdb6>
/home/qemu-sgx/devel/optee/optee_os/lib/libutils/ext/snprintk.c:584 (discriminator 5)
    7e4c:	6aba      	ldr	r2, [r7, #40]	; 0x28
    7e4e:	f102 0301 	add.w	r3, r2, #1
    7e52:	62bb      	str	r3, [r7, #40]	; 0x28
    7e54:	f04f 0320 	mov.w	r3, #32
    7e58:	7013      	strb	r3, [r2, #0]
/home/qemu-sgx/devel/optee/optee_os/lib/libutils/ext/snprintk.c:583
    7e5a:	f8d7 20a4 	ldr.w	r2, [r7, #164]	; 0xa4
    7e5e:	f102 33ff 	add.w	r3, r2, #4294967295	; 0xffffffff
    7e62:	f8c7 30a4 	str.w	r3, [r7, #164]	; 0xa4
    7e66:	2a00      	cmp	r2, #0
    7e68:	dce3      	bgt.n	7e32 <kprintf+0xd8e>
/home/qemu-sgx/devel/optee/optee_os/lib/libutils/ext/snprintk.c:588
    7e6a:	f897 308f 	ldrb.w	r3, [r7, #143]	; 0x8f
    7e6e:	2b00      	cmp	r3, #0
    7e70:	d014      	beq.n	7e9c <kprintf+0xdf8>
/home/qemu-sgx/devel/optee/optee_os/lib/libutils/ext/snprintk.c:589
    7e72:	6b3b      	ldr	r3, [r7, #48]	; 0x30
    7e74:	2b08      	cmp	r3, #8
    7e76:	d140      	bne.n	7efa <kprintf+0xe56>
/home/qemu-sgx/devel/optee/optee_os/lib/libutils/ext/snprintk.c:589 (discriminator 1)
    7e78:	6abb      	ldr	r3, [r7, #40]	; 0x28
    7e7a:	2b00      	cmp	r3, #0
    7e7c:	d03d      	beq.n	7efa <kprintf+0xe56>
/home/qemu-sgx/devel/optee/optee_os/lib/libutils/ext/snprintk.c:589 (discriminator 2)
    7e7e:	6afb      	ldr	r3, [r7, #44]	; 0x2c
    7e80:	2b00      	cmp	r3, #0
    7e82:	d003      	beq.n	7e8c <kprintf+0xde8>
/home/qemu-sgx/devel/optee/optee_os/lib/libutils/ext/snprintk.c:589 (discriminator 4)
    7e84:	6aba      	ldr	r2, [r7, #40]	; 0x28
    7e86:	6ebb      	ldr	r3, [r7, #104]	; 0x68
    7e88:	429a      	cmp	r2, r3
    7e8a:	d236      	bcs.n	7efa <kprintf+0xe56>
/home/qemu-sgx/devel/optee/optee_os/lib/libutils/ext/snprintk.c:589 (discriminator 5)
    7e8c:	6aba      	ldr	r2, [r7, #40]	; 0x28
    7e8e:	f102 0301 	add.w	r3, r2, #1
    7e92:	62bb      	str	r3, [r7, #40]	; 0x28
    7e94:	f897 308f 	ldrb.w	r3, [r7, #143]	; 0x8f
    7e98:	7013      	strb	r3, [r2, #0]
    7e9a:	e02e      	b.n	7efa <kprintf+0xe56>
/home/qemu-sgx/devel/optee/optee_os/lib/libutils/ext/snprintk.c:590
    7e9c:	f8d7 309c 	ldr.w	r3, [r7, #156]	; 0x9c
    7ea0:	f003 0302 	and.w	r3, r3, #2
    7ea4:	2b00      	cmp	r3, #0
    7ea6:	d028      	beq.n	7efa <kprintf+0xe56>
/home/qemu-sgx/devel/optee/optee_os/lib/libutils/ext/snprintk.c:591
    7ea8:	6b3b      	ldr	r3, [r7, #48]	; 0x30
    7eaa:	2b08      	cmp	r3, #8
    7eac:	d110      	bne.n	7ed0 <kprintf+0xe2c>
/home/qemu-sgx/devel/optee/optee_os/lib/libutils/ext/snprintk.c:591 (discriminator 1)
    7eae:	6abb      	ldr	r3, [r7, #40]	; 0x28
    7eb0:	2b00      	cmp	r3, #0
    7eb2:	d00d      	beq.n	7ed0 <kprintf+0xe2c>
/home/qemu-sgx/devel/optee/optee_os/lib/libutils/ext/snprintk.c:591 (discriminator 2)
    7eb4:	6afb      	ldr	r3, [r7, #44]	; 0x2c
    7eb6:	2b00      	cmp	r3, #0
    7eb8:	d003      	beq.n	7ec2 <kprintf+0xe1e>
/home/qemu-sgx/devel/optee/optee_os/lib/libutils/ext/snprintk.c:591 (discriminator 4)
    7eba:	6aba      	ldr	r2, [r7, #40]	; 0x28
    7ebc:	6ebb      	ldr	r3, [r7, #104]	; 0x68
    7ebe:	429a      	cmp	r2, r3
    7ec0:	d206      	bcs.n	7ed0 <kprintf+0xe2c>
/home/qemu-sgx/devel/optee/optee_os/lib/libutils/ext/snprintk.c:591 (discriminator 5)
    7ec2:	6aba      	ldr	r2, [r7, #40]	; 0x28
    7ec4:	f102 0301 	add.w	r3, r2, #1
    7ec8:	62bb      	str	r3, [r7, #40]	; 0x28
    7eca:	f04f 0330 	mov.w	r3, #48	; 0x30
    7ece:	7013      	strb	r3, [r2, #0]
/home/qemu-sgx/devel/optee/optee_os/lib/libutils/ext/snprintk.c:592
    7ed0:	6b3b      	ldr	r3, [r7, #48]	; 0x30
    7ed2:	2b08      	cmp	r3, #8
    7ed4:	d111      	bne.n	7efa <kprintf+0xe56>
/home/qemu-sgx/devel/optee/optee_os/lib/libutils/ext/snprintk.c:592 (discriminator 1)
    7ed6:	6abb      	ldr	r3, [r7, #40]	; 0x28
    7ed8:	2b00      	cmp	r3, #0
    7eda:	d00e      	beq.n	7efa <kprintf+0xe56>
/home/qemu-sgx/devel/optee/optee_os/lib/libutils/ext/snprintk.c:592 (discriminator 2)
    7edc:	6afb      	ldr	r3, [r7, #44]	; 0x2c
    7ede:	2b00      	cmp	r3, #0
    7ee0:	d003      	beq.n	7eea <kprintf+0xe46>
/home/qemu-sgx/devel/optee/optee_os/lib/libutils/ext/snprintk.c:592 (discriminator 4)
    7ee2:	6aba      	ldr	r2, [r7, #40]	; 0x28
    7ee4:	6ebb      	ldr	r3, [r7, #104]	; 0x68
    7ee6:	429a      	cmp	r2, r3
    7ee8:	d207      	bcs.n	7efa <kprintf+0xe56>
/home/qemu-sgx/devel/optee/optee_os/lib/libutils/ext/snprintk.c:592 (discriminator 5)
    7eea:	6aba      	ldr	r2, [r7, #40]	; 0x28
    7eec:	f102 0301 	add.w	r3, r2, #1
    7ef0:	62bb      	str	r3, [r7, #40]	; 0x28
    7ef2:	f8d7 30a8 	ldr.w	r3, [r7, #168]	; 0xa8
    7ef6:	b2db      	uxtb	r3, r3
    7ef8:	7013      	strb	r3, [r2, #0]
/home/qemu-sgx/devel/optee/optee_os/lib/libutils/ext/snprintk.c:596
    7efa:	f8d7 209c 	ldr.w	r2, [r7, #156]	; 0x9c
    7efe:	f240 4304 	movw	r3, #1028	; 0x404
    7f02:	ea03 0302 	and.w	r3, r3, r2
    7f06:	f5b3 6f80 	cmp.w	r3, #1024	; 0x400
    7f0a:	d123      	bne.n	7f54 <kprintf+0xeb0>
/home/qemu-sgx/devel/optee/optee_os/lib/libutils/ext/snprintk.c:597
    7f0c:	f8d7 2094 	ldr.w	r2, [r7, #148]	; 0x94
    7f10:	6f7b      	ldr	r3, [r7, #116]	; 0x74
    7f12:	eba2 0303 	sub.w	r3, r2, r3
    7f16:	f8c7 30a4 	str.w	r3, [r7, #164]	; 0xa4
/home/qemu-sgx/devel/optee/optee_os/lib/libutils/ext/snprintk.c:598
    7f1a:	e013      	b.n	7f44 <kprintf+0xea0>
/home/qemu-sgx/devel/optee/optee_os/lib/libutils/ext/snprintk.c:599
    7f1c:	6b3b      	ldr	r3, [r7, #48]	; 0x30
    7f1e:	2b08      	cmp	r3, #8
    7f20:	d110      	bne.n	7f44 <kprintf+0xea0>
/home/qemu-sgx/devel/optee/optee_os/lib/libutils/ext/snprintk.c:599 (discriminator 1)
    7f22:	6abb      	ldr	r3, [r7, #40]	; 0x28
    7f24:	2b00      	cmp	r3, #0
    7f26:	d00d      	beq.n	7f44 <kprintf+0xea0>
/home/qemu-sgx/devel/optee/optee_os/lib/libutils/ext/snprintk.c:599 (discriminator 2)
    7f28:	6afb      	ldr	r3, [r7, #44]	; 0x2c
    7f2a:	2b00      	cmp	r3, #0
    7f2c:	d003      	beq.n	7f36 <kprintf+0xe92>
/home/qemu-sgx/devel/optee/optee_os/lib/libutils/ext/snprintk.c:599 (discriminator 4)
    7f2e:	6aba      	ldr	r2, [r7, #40]	; 0x28
    7f30:	6ebb      	ldr	r3, [r7, #104]	; 0x68
    7f32:	429a      	cmp	r2, r3
    7f34:	d206      	bcs.n	7f44 <kprintf+0xea0>
/home/qemu-sgx/devel/optee/optee_os/lib/libutils/ext/snprintk.c:599 (discriminator 5)
    7f36:	6aba      	ldr	r2, [r7, #40]	; 0x28
    7f38:	f102 0301 	add.w	r3, r2, #1
    7f3c:	62bb      	str	r3, [r7, #40]	; 0x28
    7f3e:	f04f 0330 	mov.w	r3, #48	; 0x30
    7f42:	7013      	strb	r3, [r2, #0]
/home/qemu-sgx/devel/optee/optee_os/lib/libutils/ext/snprintk.c:598
    7f44:	f8d7 20a4 	ldr.w	r2, [r7, #164]	; 0xa4
    7f48:	f102 33ff 	add.w	r3, r2, #4294967295	; 0xffffffff
    7f4c:	f8c7 30a4 	str.w	r3, [r7, #164]	; 0xa4
    7f50:	2a00      	cmp	r2, #0
    7f52:	dce3      	bgt.n	7f1c <kprintf+0xe78>
/home/qemu-sgx/devel/optee/optee_os/lib/libutils/ext/snprintk.c:603
    7f54:	6fba      	ldr	r2, [r7, #120]	; 0x78
    7f56:	6f3b      	ldr	r3, [r7, #112]	; 0x70
    7f58:	eba2 0303 	sub.w	r3, r2, r3
    7f5c:	f8c7 30a4 	str.w	r3, [r7, #164]	; 0xa4
/home/qemu-sgx/devel/optee/optee_os/lib/libutils/ext/snprintk.c:604
    7f60:	e013      	b.n	7f8a <kprintf+0xee6>
/home/qemu-sgx/devel/optee/optee_os/lib/libutils/ext/snprintk.c:605
    7f62:	6b3b      	ldr	r3, [r7, #48]	; 0x30
    7f64:	2b08      	cmp	r3, #8
    7f66:	d110      	bne.n	7f8a <kprintf+0xee6>
/home/qemu-sgx/devel/optee/optee_os/lib/libutils/ext/snprintk.c:605 (discriminator 1)
    7f68:	6abb      	ldr	r3, [r7, #40]	; 0x28
    7f6a:	2b00      	cmp	r3, #0
    7f6c:	d00d      	beq.n	7f8a <kprintf+0xee6>
/home/qemu-sgx/devel/optee/optee_os/lib/libutils/ext/snprintk.c:605 (discriminator 2)
    7f6e:	6afb      	ldr	r3, [r7, #44]	; 0x2c
    7f70:	2b00      	cmp	r3, #0
    7f72:	d003      	beq.n	7f7c <kprintf+0xed8>
/home/qemu-sgx/devel/optee/optee_os/lib/libutils/ext/snprintk.c:605 (discriminator 4)
    7f74:	6aba      	ldr	r2, [r7, #40]	; 0x28
    7f76:	6ebb      	ldr	r3, [r7, #104]	; 0x68
    7f78:	429a      	cmp	r2, r3
    7f7a:	d206      	bcs.n	7f8a <kprintf+0xee6>
/home/qemu-sgx/devel/optee/optee_os/lib/libutils/ext/snprintk.c:605 (discriminator 5)
    7f7c:	6aba      	ldr	r2, [r7, #40]	; 0x28
    7f7e:	f102 0301 	add.w	r3, r2, #1
    7f82:	62bb      	str	r3, [r7, #40]	; 0x28
    7f84:	f04f 0330 	mov.w	r3, #48	; 0x30
    7f88:	7013      	strb	r3, [r2, #0]
/home/qemu-sgx/devel/optee/optee_os/lib/libutils/ext/snprintk.c:604
    7f8a:	f8d7 20a4 	ldr.w	r2, [r7, #164]	; 0xa4
    7f8e:	f102 33ff 	add.w	r3, r2, #4294967295	; 0xffffffff
    7f92:	f8c7 30a4 	str.w	r3, [r7, #164]	; 0xa4
    7f96:	2a00      	cmp	r2, #0
    7f98:	dce3      	bgt.n	7f62 <kprintf+0xebe>
/home/qemu-sgx/devel/optee/optee_os/lib/libutils/ext/snprintk.c:608
    7f9a:	e01a      	b.n	7fd2 <kprintf+0xf2e>
/home/qemu-sgx/devel/optee/optee_os/lib/libutils/ext/snprintk.c:609
    7f9c:	6b3b      	ldr	r3, [r7, #48]	; 0x30
    7f9e:	2b08      	cmp	r3, #8
    7fa0:	d111      	bne.n	7fc6 <kprintf+0xf22>
/home/qemu-sgx/devel/optee/optee_os/lib/libutils/ext/snprintk.c:609 (discriminator 1)
    7fa2:	6abb      	ldr	r3, [r7, #40]	; 0x28
    7fa4:	2b00      	cmp	r3, #0
    7fa6:	d00e      	beq.n	7fc6 <kprintf+0xf22>
/home/qemu-sgx/devel/optee/optee_os/lib/libutils/ext/snprintk.c:609 (discriminator 2)
    7fa8:	6afb      	ldr	r3, [r7, #44]	; 0x2c
    7faa:	2b00      	cmp	r3, #0
    7fac:	d003      	beq.n	7fb6 <kprintf+0xf12>
/home/qemu-sgx/devel/optee/optee_os/lib/libutils/ext/snprintk.c:609 (discriminator 4)
    7fae:	6aba      	ldr	r2, [r7, #40]	; 0x28
    7fb0:	6ebb      	ldr	r3, [r7, #104]	; 0x68
    7fb2:	429a      	cmp	r2, r3
    7fb4:	d207      	bcs.n	7fc6 <kprintf+0xf22>
/home/qemu-sgx/devel/optee/optee_os/lib/libutils/ext/snprintk.c:609 (discriminator 5)
    7fb6:	6aba      	ldr	r2, [r7, #40]	; 0x28
    7fb8:	f102 0301 	add.w	r3, r2, #1
    7fbc:	62bb      	str	r3, [r7, #40]	; 0x28
    7fbe:	f8d7 30a0 	ldr.w	r3, [r7, #160]	; 0xa0
    7fc2:	781b      	ldrb	r3, [r3, #0]
    7fc4:	7013      	strb	r3, [r2, #0]
/home/qemu-sgx/devel/optee/optee_os/lib/libutils/ext/snprintk.c:608
    7fc6:	f8d7 30a0 	ldr.w	r3, [r7, #160]	; 0xa0
    7fca:	f103 0301 	add.w	r3, r3, #1
    7fce:	f8c7 30a0 	str.w	r3, [r7, #160]	; 0xa0
/home/qemu-sgx/devel/optee/optee_os/lib/libutils/ext/snprintk.c:608 (discriminator 1)
    7fd2:	6f3a      	ldr	r2, [r7, #112]	; 0x70
    7fd4:	f102 33ff 	add.w	r3, r2, #4294967295	; 0xffffffff
    7fd8:	673b      	str	r3, [r7, #112]	; 0x70
    7fda:	2a00      	cmp	r2, #0
    7fdc:	d1de      	bne.n	7f9c <kprintf+0xef8>
/home/qemu-sgx/devel/optee/optee_os/lib/libutils/ext/snprintk.c:611
    7fde:	f8d7 309c 	ldr.w	r3, [r7, #156]	; 0x9c
    7fe2:	f003 0304 	and.w	r3, r3, #4
    7fe6:	2b00      	cmp	r3, #0
    7fe8:	f43f a8aa 	beq.w	7140 <kprintf+0x9c>
/home/qemu-sgx/devel/optee/optee_os/lib/libutils/ext/snprintk.c:612
    7fec:	f8d7 2094 	ldr.w	r2, [r7, #148]	; 0x94
    7ff0:	6f7b      	ldr	r3, [r7, #116]	; 0x74
    7ff2:	eba2 0303 	sub.w	r3, r2, r3
    7ff6:	f8c7 30a4 	str.w	r3, [r7, #164]	; 0xa4
/home/qemu-sgx/devel/optee/optee_os/lib/libutils/ext/snprintk.c:613
    7ffa:	e013      	b.n	8024 <kprintf+0xf80>
/home/qemu-sgx/devel/optee/optee_os/lib/libutils/ext/snprintk.c:614
    7ffc:	6b3b      	ldr	r3, [r7, #48]	; 0x30
    7ffe:	2b08      	cmp	r3, #8
    8000:	d110      	bne.n	8024 <kprintf+0xf80>
/home/qemu-sgx/devel/optee/optee_os/lib/libutils/ext/snprintk.c:614 (discriminator 1)
    8002:	6abb      	ldr	r3, [r7, #40]	; 0x28
    8004:	2b00      	cmp	r3, #0
    8006:	d00d      	beq.n	8024 <kprintf+0xf80>
/home/qemu-sgx/devel/optee/optee_os/lib/libutils/ext/snprintk.c:614 (discriminator 2)
    8008:	6afb      	ldr	r3, [r7, #44]	; 0x2c
    800a:	2b00      	cmp	r3, #0
    800c:	d003      	beq.n	8016 <kprintf+0xf72>
/home/qemu-sgx/devel/optee/optee_os/lib/libutils/ext/snprintk.c:614 (discriminator 4)
    800e:	6aba      	ldr	r2, [r7, #40]	; 0x28
    8010:	6ebb      	ldr	r3, [r7, #104]	; 0x68
    8012:	429a      	cmp	r2, r3
    8014:	d206      	bcs.n	8024 <kprintf+0xf80>
/home/qemu-sgx/devel/optee/optee_os/lib/libutils/ext/snprintk.c:614 (discriminator 5)
    8016:	6aba      	ldr	r2, [r7, #40]	; 0x28
    8018:	f102 0301 	add.w	r3, r2, #1
    801c:	62bb      	str	r3, [r7, #40]	; 0x28
    801e:	f04f 0320 	mov.w	r3, #32
    8022:	7013      	strb	r3, [r2, #0]
/home/qemu-sgx/devel/optee/optee_os/lib/libutils/ext/snprintk.c:613
    8024:	f8d7 20a4 	ldr.w	r2, [r7, #164]	; 0xa4
    8028:	f102 33ff 	add.w	r3, r2, #4294967295	; 0xffffffff
    802c:	f8c7 30a4 	str.w	r3, [r7, #164]	; 0xa4
    8030:	2a00      	cmp	r2, #0
    8032:	dce3      	bgt.n	7ffc <kprintf+0xf58>
/home/qemu-sgx/devel/optee/optee_os/lib/libutils/ext/snprintk.c:281
    8034:	f7ff b884 	b.w	7140 <kprintf+0x9c>
/home/qemu-sgx/devel/optee/optee_os/lib/libutils/ext/snprintk.c:286
    8038:	bf00      	nop
    803a:	e000      	b.n	803e <kprintf+0xf9a>
/home/qemu-sgx/devel/optee/optee_os/lib/libutils/ext/snprintk.c:548
    803c:	bf00      	nop
/home/qemu-sgx/devel/optee/optee_os/lib/libutils/ext/snprintk.c:619
    803e:	6b3b      	ldr	r3, [r7, #48]	; 0x30
    8040:	2b08      	cmp	r3, #8
    8042:	d105      	bne.n	8050 <kprintf+0xfac>
/home/qemu-sgx/devel/optee/optee_os/lib/libutils/ext/snprintk.c:619 (discriminator 1)
    8044:	6afb      	ldr	r3, [r7, #44]	; 0x2c
    8046:	2b00      	cmp	r3, #0
    8048:	d002      	beq.n	8050 <kprintf+0xfac>
/home/qemu-sgx/devel/optee/optee_os/lib/libutils/ext/snprintk.c:620
    804a:	6afb      	ldr	r3, [r7, #44]	; 0x2c
    804c:	6aba      	ldr	r2, [r7, #40]	; 0x28
    804e:	601a      	str	r2, [r3, #0]
/home/qemu-sgx/devel/optee/optee_os/lib/libutils/ext/snprintk.c:621
    8050:	f8d7 3098 	ldr.w	r3, [r7, #152]	; 0x98
/home/qemu-sgx/devel/optee/optee_os/lib/libutils/ext/snprintk.c:622
    8054:	4618      	mov	r0, r3
    8056:	f107 07b0 	add.w	r7, r7, #176	; 0xb0
    805a:	46bd      	mov	sp, r7
    805c:	e9dd 4500 	ldrd	r4, r5, [sp]
    8060:	e9dd 7802 	ldrd	r7, r8, [sp, #8]
    8064:	e9dd 9a04 	ldrd	r9, sl, [sp, #16]
    8068:	b006      	add	sp, #24
    806a:	e8bd 8800 	ldmia.w	sp!, {fp, pc}
    806e:	bf00      	nop
    8070:	00005ef6 	.word	0x00005ef6
    8074:	00005f1a 	.word	0x00005f1a
    8078:	00005d5c 	.word	0x00005d5c
    807c:	00005d3e 	.word	0x00005d3e
    8080:	00005af4 	.word	0x00005af4

00008084 <memchr>:
memchr():
/home/qemu-sgx/devel/optee/optee_os/lib/libutils/isoc/newlib/memchr.c:107
    8084:	f84d 7d04 	str.w	r7, [sp, #-4]!
    8088:	b08b      	sub	sp, #44	; 0x2c
    808a:	af00      	add	r7, sp, #0
    808c:	60f8      	str	r0, [r7, #12]
    808e:	60b9      	str	r1, [r7, #8]
    8090:	607a      	str	r2, [r7, #4]
/home/qemu-sgx/devel/optee/optee_os/lib/libutils/isoc/newlib/memchr.c:108
    8092:	68fb      	ldr	r3, [r7, #12]
    8094:	627b      	str	r3, [r7, #36]	; 0x24
/home/qemu-sgx/devel/optee/optee_os/lib/libutils/isoc/newlib/memchr.c:109
    8096:	68bb      	ldr	r3, [r7, #8]
    8098:	75fb      	strb	r3, [r7, #23]
/home/qemu-sgx/devel/optee/optee_os/lib/libutils/isoc/newlib/memchr.c:116
    809a:	e013      	b.n	80c4 <memchr+0x40>
/home/qemu-sgx/devel/optee/optee_os/lib/libutils/isoc/newlib/memchr.c:117
    809c:	687b      	ldr	r3, [r7, #4]
    809e:	f103 32ff 	add.w	r2, r3, #4294967295	; 0xffffffff
    80a2:	607a      	str	r2, [r7, #4]
    80a4:	2b00      	cmp	r3, #0
    80a6:	d102      	bne.n	80ae <memchr+0x2a>
/home/qemu-sgx/devel/optee/optee_os/lib/libutils/isoc/newlib/memchr.c:118
    80a8:	f04f 0300 	mov.w	r3, #0
    80ac:	e06d      	b.n	818a <memchr+0x106>
/home/qemu-sgx/devel/optee/optee_os/lib/libutils/isoc/newlib/memchr.c:119
    80ae:	6a7b      	ldr	r3, [r7, #36]	; 0x24
    80b0:	781b      	ldrb	r3, [r3, #0]
    80b2:	7dfa      	ldrb	r2, [r7, #23]
    80b4:	429a      	cmp	r2, r3
    80b6:	d101      	bne.n	80bc <memchr+0x38>
/home/qemu-sgx/devel/optee/optee_os/lib/libutils/isoc/newlib/memchr.c:120
    80b8:	6a7b      	ldr	r3, [r7, #36]	; 0x24
    80ba:	e066      	b.n	818a <memchr+0x106>
/home/qemu-sgx/devel/optee/optee_os/lib/libutils/isoc/newlib/memchr.c:121
    80bc:	6a7b      	ldr	r3, [r7, #36]	; 0x24
    80be:	f103 0301 	add.w	r3, r3, #1
    80c2:	627b      	str	r3, [r7, #36]	; 0x24
/home/qemu-sgx/devel/optee/optee_os/lib/libutils/isoc/newlib/memchr.c:116
    80c4:	6a7b      	ldr	r3, [r7, #36]	; 0x24
    80c6:	f003 0303 	and.w	r3, r3, #3
    80ca:	2b00      	cmp	r3, #0
    80cc:	d1e6      	bne.n	809c <memchr+0x18>
/home/qemu-sgx/devel/optee/optee_os/lib/libutils/isoc/newlib/memchr.c:124
    80ce:	687b      	ldr	r3, [r7, #4]
    80d0:	2b03      	cmp	r3, #3
    80d2:	d952      	bls.n	817a <memchr+0xf6>
/home/qemu-sgx/devel/optee/optee_os/lib/libutils/isoc/newlib/memchr.c:133
    80d4:	6a7b      	ldr	r3, [r7, #36]	; 0x24
    80d6:	623b      	str	r3, [r7, #32]
/home/qemu-sgx/devel/optee/optee_os/lib/libutils/isoc/newlib/memchr.c:134
    80d8:	7dfb      	ldrb	r3, [r7, #23]
    80da:	ea4f 2203 	mov.w	r2, r3, lsl #8
    80de:	7dfb      	ldrb	r3, [r7, #23]
    80e0:	ea43 0302 	orr.w	r3, r3, r2
    80e4:	61fb      	str	r3, [r7, #28]
/home/qemu-sgx/devel/optee/optee_os/lib/libutils/isoc/newlib/memchr.c:135
    80e6:	69fb      	ldr	r3, [r7, #28]
    80e8:	ea4f 4303 	mov.w	r3, r3, lsl #16
    80ec:	69fa      	ldr	r2, [r7, #28]
    80ee:	ea43 0302 	orr.w	r3, r3, r2
    80f2:	61fb      	str	r3, [r7, #28]
/home/qemu-sgx/devel/optee/optee_os/lib/libutils/isoc/newlib/memchr.c:136
    80f4:	f04f 0320 	mov.w	r3, #32
    80f8:	61bb      	str	r3, [r7, #24]
    80fa:	e00b      	b.n	8114 <memchr+0x90>
/home/qemu-sgx/devel/optee/optee_os/lib/libutils/isoc/newlib/memchr.c:137 (discriminator 3)
    80fc:	69fa      	ldr	r2, [r7, #28]
    80fe:	69bb      	ldr	r3, [r7, #24]
    8100:	fa02 f303 	lsl.w	r3, r2, r3
    8104:	69fa      	ldr	r2, [r7, #28]
    8106:	ea43 0302 	orr.w	r3, r3, r2
    810a:	61fb      	str	r3, [r7, #28]
/home/qemu-sgx/devel/optee/optee_os/lib/libutils/isoc/newlib/memchr.c:136 (discriminator 3)
    810c:	69bb      	ldr	r3, [r7, #24]
    810e:	ea4f 0343 	mov.w	r3, r3, lsl #1
    8112:	61bb      	str	r3, [r7, #24]
/home/qemu-sgx/devel/optee/optee_os/lib/libutils/isoc/newlib/memchr.c:136 (discriminator 1)
    8114:	69bb      	ldr	r3, [r7, #24]
    8116:	2b1f      	cmp	r3, #31
    8118:	d9f0      	bls.n	80fc <memchr+0x78>
/home/qemu-sgx/devel/optee/optee_os/lib/libutils/isoc/newlib/memchr.c:139
    811a:	e01b      	b.n	8154 <memchr+0xd0>
/home/qemu-sgx/devel/optee/optee_os/lib/libutils/isoc/newlib/memchr.c:140
    811c:	6a3b      	ldr	r3, [r7, #32]
    811e:	681a      	ldr	r2, [r3, #0]
    8120:	69fb      	ldr	r3, [r7, #28]
    8122:	ea83 0302 	eor.w	r3, r3, r2
    8126:	f1a3 3201 	sub.w	r2, r3, #16843009	; 0x1010101
    812a:	6a3b      	ldr	r3, [r7, #32]
    812c:	6819      	ldr	r1, [r3, #0]
    812e:	69fb      	ldr	r3, [r7, #28]
    8130:	ea83 0301 	eor.w	r3, r3, r1
    8134:	ea6f 0303 	mvn.w	r3, r3
    8138:	ea03 0302 	and.w	r3, r3, r2
    813c:	f003 3380 	and.w	r3, r3, #2155905152	; 0x80808080
    8140:	2b00      	cmp	r3, #0
    8142:	d10b      	bne.n	815c <memchr+0xd8>
/home/qemu-sgx/devel/optee/optee_os/lib/libutils/isoc/newlib/memchr.c:142
    8144:	687b      	ldr	r3, [r7, #4]
    8146:	f1a3 0304 	sub.w	r3, r3, #4
    814a:	607b      	str	r3, [r7, #4]
/home/qemu-sgx/devel/optee/optee_os/lib/libutils/isoc/newlib/memchr.c:143
    814c:	6a3b      	ldr	r3, [r7, #32]
    814e:	f103 0304 	add.w	r3, r3, #4
    8152:	623b      	str	r3, [r7, #32]
/home/qemu-sgx/devel/optee/optee_os/lib/libutils/isoc/newlib/memchr.c:139
    8154:	687b      	ldr	r3, [r7, #4]
    8156:	2b03      	cmp	r3, #3
    8158:	d8e0      	bhi.n	811c <memchr+0x98>
    815a:	e000      	b.n	815e <memchr+0xda>
/home/qemu-sgx/devel/optee/optee_os/lib/libutils/isoc/newlib/memchr.c:141
    815c:	bf00      	nop
/home/qemu-sgx/devel/optee/optee_os/lib/libutils/isoc/newlib/memchr.c:149
    815e:	6a3b      	ldr	r3, [r7, #32]
    8160:	627b      	str	r3, [r7, #36]	; 0x24
/home/qemu-sgx/devel/optee/optee_os/lib/libutils/isoc/newlib/memchr.c:153
    8162:	e00a      	b.n	817a <memchr+0xf6>
/home/qemu-sgx/devel/optee/optee_os/lib/libutils/isoc/newlib/memchr.c:154
    8164:	6a7b      	ldr	r3, [r7, #36]	; 0x24
    8166:	781b      	ldrb	r3, [r3, #0]
    8168:	7dfa      	ldrb	r2, [r7, #23]
    816a:	429a      	cmp	r2, r3
    816c:	d101      	bne.n	8172 <memchr+0xee>
/home/qemu-sgx/devel/optee/optee_os/lib/libutils/isoc/newlib/memchr.c:155
    816e:	6a7b      	ldr	r3, [r7, #36]	; 0x24
    8170:	e00b      	b.n	818a <memchr+0x106>
/home/qemu-sgx/devel/optee/optee_os/lib/libutils/isoc/newlib/memchr.c:156
    8172:	6a7b      	ldr	r3, [r7, #36]	; 0x24
    8174:	f103 0301 	add.w	r3, r3, #1
    8178:	627b      	str	r3, [r7, #36]	; 0x24
/home/qemu-sgx/devel/optee/optee_os/lib/libutils/isoc/newlib/memchr.c:153
    817a:	687b      	ldr	r3, [r7, #4]
    817c:	f103 32ff 	add.w	r2, r3, #4294967295	; 0xffffffff
    8180:	607a      	str	r2, [r7, #4]
    8182:	2b00      	cmp	r3, #0
    8184:	d1ee      	bne.n	8164 <memchr+0xe0>
/home/qemu-sgx/devel/optee/optee_os/lib/libutils/isoc/newlib/memchr.c:159
    8186:	f04f 0300 	mov.w	r3, #0
/home/qemu-sgx/devel/optee/optee_os/lib/libutils/isoc/newlib/memchr.c:160
    818a:	4618      	mov	r0, r3
    818c:	f107 072c 	add.w	r7, r7, #44	; 0x2c
    8190:	46bd      	mov	sp, r7
    8192:	f85d 7b04 	ldr.w	r7, [sp], #4
    8196:	4770      	bx	lr

00008198 <__aeabi_ldivmod>:
__aeabi_ldivmod():
/home/qemu-sgx/devel/optee/optee_os/lib/libutils/isoc/arch/arm/arm32_aeabi_ldivmod_a32.S:12
    8198:	e92d5000 	push	{ip, lr}
/home/qemu-sgx/devel/optee/optee_os/lib/libutils/isoc/arch/arm/arm32_aeabi_ldivmod_a32.S:14
    819c:	e92d000f 	push	{r0, r1, r2, r3}
/home/qemu-sgx/devel/optee/optee_os/lib/libutils/isoc/arch/arm/arm32_aeabi_ldivmod_a32.S:16
    81a0:	e1a0000d 	mov	r0, sp
/home/qemu-sgx/devel/optee/optee_os/lib/libutils/isoc/arch/arm/arm32_aeabi_ldivmod_a32.S:17
    81a4:	ebffeb77 	bl	2f88 <__l_divmod@plt>
/home/qemu-sgx/devel/optee/optee_os/lib/libutils/isoc/arch/arm/arm32_aeabi_ldivmod_a32.S:18
    81a8:	e8bd000f 	pop	{r0, r1, r2, r3}
/home/qemu-sgx/devel/optee/optee_os/lib/libutils/isoc/arch/arm/arm32_aeabi_ldivmod_a32.S:19
    81ac:	e8bd9000 	pop	{ip, pc}

000081b0 <__aeabi_uldivmod>:
__aeabi_uldivmod():
/home/qemu-sgx/devel/optee/optee_os/lib/libutils/isoc/arch/arm/arm32_aeabi_ldivmod_a32.S:27
    81b0:	e92d5000 	push	{ip, lr}
/home/qemu-sgx/devel/optee/optee_os/lib/libutils/isoc/arch/arm/arm32_aeabi_ldivmod_a32.S:29
    81b4:	e92d000f 	push	{r0, r1, r2, r3}
/home/qemu-sgx/devel/optee/optee_os/lib/libutils/isoc/arch/arm/arm32_aeabi_ldivmod_a32.S:31
    81b8:	e1a0000d 	mov	r0, sp
/home/qemu-sgx/devel/optee/optee_os/lib/libutils/isoc/arch/arm/arm32_aeabi_ldivmod_a32.S:32
    81bc:	ebffebf2 	bl	318c <__ul_divmod@plt>
/home/qemu-sgx/devel/optee/optee_os/lib/libutils/isoc/arch/arm/arm32_aeabi_ldivmod_a32.S:33
    81c0:	e8bd000f 	pop	{r0, r1, r2, r3}
/home/qemu-sgx/devel/optee/optee_os/lib/libutils/isoc/arch/arm/arm32_aeabi_ldivmod_a32.S:34
    81c4:	e8bd9000 	pop	{ip, pc}

000081c8 <division_lqr>:
division_lqr():
/home/qemu-sgx/devel/optee/optee_os/lib/libutils/isoc/arch/arm/arm32_aeabi_ldivmod.c:20
    81c8:	f84d 4d1c 	str.w	r4, [sp, #-28]!
    81cc:	e9cd 5701 	strd	r5, r7, [sp, #4]
    81d0:	e9cd 8903 	strd	r8, r9, [sp, #12]
    81d4:	e9cd ab05 	strd	sl, fp, [sp, #20]
    81d8:	b08d      	sub	sp, #52	; 0x34
    81da:	af00      	add	r7, sp, #0
    81dc:	e9c7 0106 	strd	r0, r1, [r7, #24]
    81e0:	e9c7 2304 	strd	r2, r3, [r7, #16]
/home/qemu-sgx/devel/optee/optee_os/lib/libutils/isoc/arch/arm/arm32_aeabi_ldivmod.c:21
    81e4:	f04f 0201 	mov.w	r2, #1
    81e8:	f04f 0300 	mov.w	r3, #0
    81ec:	e9c7 230a 	strd	r2, r3, [r7, #40]	; 0x28
    81f0:	efc0 0010 	vmov.i32	d16, #0	; 0x00000000
    81f4:	edc7 0b08 	vstr	d16, [r7, #32]
/home/qemu-sgx/devel/optee/optee_os/lib/libutils/isoc/arch/arm/arm32_aeabi_ldivmod.c:22
    81f8:	e9d7 2304 	ldrd	r2, r3, [r7, #16]
    81fc:	4313      	orrs	r3, r2
    81fe:	d11b      	bne.n	8238 <division_lqr+0x70>
/home/qemu-sgx/devel/optee/optee_os/lib/libutils/isoc/arch/arm/arm32_aeabi_ldivmod.c:23
    8200:	6d3b      	ldr	r3, [r7, #80]	; 0x50
    8202:	ffc7 0e1f 	vmov.i8	d16, #255	; 0xff
    8206:	edc3 0b02 	vstr	d16, [r3, #8]
/home/qemu-sgx/devel/optee/optee_os/lib/libutils/isoc/arch/arm/arm32_aeabi_ldivmod.c:24
    820a:	e065      	b.n	82d8 <division_lqr+0x110>
/home/qemu-sgx/devel/optee/optee_os/lib/libutils/isoc/arch/arm/arm32_aeabi_ldivmod.c:28
    820c:	e9d7 230a 	ldrd	r2, r3, [r7, #40]	; 0x28
    8210:	1891      	adds	r1, r2, r2
    8212:	60b9      	str	r1, [r7, #8]
    8214:	eb43 0303 	adc.w	r3, r3, r3
    8218:	60fb      	str	r3, [r7, #12]
    821a:	e9d7 2302 	ldrd	r2, r3, [r7, #8]
    821e:	e9c7 230a 	strd	r2, r3, [r7, #40]	; 0x28
/home/qemu-sgx/devel/optee/optee_os/lib/libutils/isoc/arch/arm/arm32_aeabi_ldivmod.c:29
    8222:	e9d7 2304 	ldrd	r2, r3, [r7, #16]
    8226:	1891      	adds	r1, r2, r2
    8228:	6039      	str	r1, [r7, #0]
    822a:	eb43 0303 	adc.w	r3, r3, r3
    822e:	607b      	str	r3, [r7, #4]
    8230:	e9d7 2300 	ldrd	r2, r3, [r7]
    8234:	e9c7 2304 	strd	r2, r3, [r7, #16]
/home/qemu-sgx/devel/optee/optee_os/lib/libutils/isoc/arch/arm/arm32_aeabi_ldivmod.c:27
    8238:	e9d7 2304 	ldrd	r2, r3, [r7, #16]
    823c:	2b00      	cmp	r3, #0
    823e:	dae5      	bge.n	820c <division_lqr+0x44>
/home/qemu-sgx/devel/optee/optee_os/lib/libutils/isoc/arch/arm/arm32_aeabi_ldivmod.c:32
    8240:	e03c      	b.n	82bc <division_lqr+0xf4>
/home/qemu-sgx/devel/optee/optee_os/lib/libutils/isoc/arch/arm/arm32_aeabi_ldivmod.c:33
    8242:	e9d7 2308 	ldrd	r2, r3, [r7, #32]
    8246:	1894      	adds	r4, r2, r2
    8248:	eb43 0503 	adc.w	r5, r3, r3
    824c:	e9c7 4508 	strd	r4, r5, [r7, #32]
/home/qemu-sgx/devel/optee/optee_os/lib/libutils/isoc/arch/arm/arm32_aeabi_ldivmod.c:34
    8250:	e9d7 0106 	ldrd	r0, r1, [r7, #24]
    8254:	e9d7 2304 	ldrd	r2, r3, [r7, #16]
    8258:	4290      	cmp	r0, r2
    825a:	eb71 0303 	sbcs.w	r3, r1, r3
    825e:	d311      	bcc.n	8284 <division_lqr+0xbc>
/home/qemu-sgx/devel/optee/optee_os/lib/libutils/isoc/arch/arm/arm32_aeabi_ldivmod.c:35
    8260:	e9d7 0106 	ldrd	r0, r1, [r7, #24]
    8264:	e9d7 2304 	ldrd	r2, r3, [r7, #16]
    8268:	ebb0 0802 	subs.w	r8, r0, r2
    826c:	eb61 0903 	sbc.w	r9, r1, r3
    8270:	e9c7 8906 	strd	r8, r9, [r7, #24]
/home/qemu-sgx/devel/optee/optee_os/lib/libutils/isoc/arch/arm/arm32_aeabi_ldivmod.c:36
    8274:	e9d7 2308 	ldrd	r2, r3, [r7, #32]
    8278:	f112 0a01 	adds.w	sl, r2, #1
    827c:	f143 0b00 	adc.w	fp, r3, #0
    8280:	e9c7 ab08 	strd	sl, fp, [r7, #32]
/home/qemu-sgx/devel/optee/optee_os/lib/libutils/isoc/arch/arm/arm32_aeabi_ldivmod.c:38
    8284:	e9d7 0104 	ldrd	r0, r1, [r7, #16]
    8288:	f04f 0200 	mov.w	r2, #0
    828c:	f04f 0300 	mov.w	r3, #0
    8290:	ea4f 0250 	mov.w	r2, r0, lsr #1
    8294:	ea42 72c1 	orr.w	r2, r2, r1, lsl #31
    8298:	ea4f 0351 	mov.w	r3, r1, lsr #1
    829c:	e9c7 2304 	strd	r2, r3, [r7, #16]
/home/qemu-sgx/devel/optee/optee_os/lib/libutils/isoc/arch/arm/arm32_aeabi_ldivmod.c:39
    82a0:	e9d7 010a 	ldrd	r0, r1, [r7, #40]	; 0x28
    82a4:	f04f 0200 	mov.w	r2, #0
    82a8:	f04f 0300 	mov.w	r3, #0
    82ac:	ea4f 0250 	mov.w	r2, r0, lsr #1
    82b0:	ea42 72c1 	orr.w	r2, r2, r1, lsl #31
    82b4:	ea4f 0351 	mov.w	r3, r1, lsr #1
    82b8:	e9c7 230a 	strd	r2, r3, [r7, #40]	; 0x28
/home/qemu-sgx/devel/optee/optee_os/lib/libutils/isoc/arch/arm/arm32_aeabi_ldivmod.c:32
    82bc:	e9d7 230a 	ldrd	r2, r3, [r7, #40]	; 0x28
    82c0:	4313      	orrs	r3, r2
    82c2:	d1be      	bne.n	8242 <division_lqr+0x7a>
/home/qemu-sgx/devel/optee/optee_os/lib/libutils/isoc/arch/arm/arm32_aeabi_ldivmod.c:41
    82c4:	6d39      	ldr	r1, [r7, #80]	; 0x50
    82c6:	e9d7 2306 	ldrd	r2, r3, [r7, #24]
    82ca:	e9c1 2302 	strd	r2, r3, [r1, #8]
/home/qemu-sgx/devel/optee/optee_os/lib/libutils/isoc/arch/arm/arm32_aeabi_ldivmod.c:42
    82ce:	6d39      	ldr	r1, [r7, #80]	; 0x50
    82d0:	e9d7 2308 	ldrd	r2, r3, [r7, #32]
    82d4:	e9c1 2300 	strd	r2, r3, [r1]
/home/qemu-sgx/devel/optee/optee_os/lib/libutils/isoc/arch/arm/arm32_aeabi_ldivmod.c:43
    82d8:	f107 0734 	add.w	r7, r7, #52	; 0x34
    82dc:	46bd      	mov	sp, r7
    82de:	e9dd 4500 	ldrd	r4, r5, [sp]
    82e2:	e9dd 7802 	ldrd	r7, r8, [sp, #8]
    82e6:	e9dd 9a04 	ldrd	r9, sl, [sp, #16]
    82ea:	b006      	add	sp, #24
    82ec:	f85d bb04 	ldr.w	fp, [sp], #4
    82f0:	4770      	bx	lr

000082f2 <ul_div_qr>:
ul_div_qr():
/home/qemu-sgx/devel/optee/optee_os/lib/libutils/isoc/arch/arm/arm32_aeabi_ldivmod.c:47
    82f2:	e96d 4506 	strd	r4, r5, [sp, #-24]!
    82f6:	e9cd 7802 	strd	r7, r8, [sp, #8]
    82fa:	e9cd 9e04 	strd	r9, lr, [sp, #16]
    82fe:	b086      	sub	sp, #24
    8300:	af02      	add	r7, sp, #8
    8302:	e9c7 0102 	strd	r0, r1, [r7, #8]
    8306:	e9c7 2300 	strd	r2, r3, [r7]
/home/qemu-sgx/devel/optee/optee_os/lib/libutils/isoc/arch/arm/arm32_aeabi_ldivmod.c:49
    830a:	6abb      	ldr	r3, [r7, #40]	; 0x28
    830c:	9300      	str	r3, [sp, #0]
    830e:	e9d7 2300 	ldrd	r2, r3, [r7]
    8312:	e9d7 0102 	ldrd	r0, r1, [r7, #8]
    8316:	f7ff ff57 	bl	81c8 <division_lqr>
/home/qemu-sgx/devel/optee/optee_os/lib/libutils/isoc/arch/arm/arm32_aeabi_ldivmod.c:52
    831a:	6abb      	ldr	r3, [r7, #40]	; 0x28
    831c:	691b      	ldr	r3, [r3, #16]
    831e:	2b00      	cmp	r3, #0
    8320:	d00b      	beq.n	833a <ul_div_qr+0x48>
/home/qemu-sgx/devel/optee/optee_os/lib/libutils/isoc/arch/arm/arm32_aeabi_ldivmod.c:53
    8322:	6abb      	ldr	r3, [r7, #40]	; 0x28
    8324:	e9d3 2300 	ldrd	r2, r3, [r3]
    8328:	f04f 0100 	mov.w	r1, #0
    832c:	f1d2 0800 	rsbs	r8, r2, #0
    8330:	eb61 0903 	sbc.w	r9, r1, r3
    8334:	6abb      	ldr	r3, [r7, #40]	; 0x28
    8336:	e9c3 8900 	strd	r8, r9, [r3]
/home/qemu-sgx/devel/optee/optee_os/lib/libutils/isoc/arch/arm/arm32_aeabi_ldivmod.c:54
    833a:	6abb      	ldr	r3, [r7, #40]	; 0x28
    833c:	695b      	ldr	r3, [r3, #20]
    833e:	2b00      	cmp	r3, #0
    8340:	d00a      	beq.n	8358 <ul_div_qr+0x66>
/home/qemu-sgx/devel/optee/optee_os/lib/libutils/isoc/arch/arm/arm32_aeabi_ldivmod.c:55
    8342:	6abb      	ldr	r3, [r7, #40]	; 0x28
    8344:	e9d3 2302 	ldrd	r2, r3, [r3, #8]
    8348:	f04f 0100 	mov.w	r1, #0
    834c:	4254      	negs	r4, r2
    834e:	eb61 0503 	sbc.w	r5, r1, r3
    8352:	6abb      	ldr	r3, [r7, #40]	; 0x28
    8354:	e9c3 4502 	strd	r4, r5, [r3, #8]
/home/qemu-sgx/devel/optee/optee_os/lib/libutils/isoc/arch/arm/arm32_aeabi_ldivmod.c:56
    8358:	bf00      	nop
    835a:	f107 0710 	add.w	r7, r7, #16
    835e:	46bd      	mov	sp, r7
    8360:	e9dd 4500 	ldrd	r4, r5, [sp]
    8364:	e9dd 7802 	ldrd	r7, r8, [sp, #8]
    8368:	b004      	add	sp, #16
    836a:	e8bd 8200 	ldmia.w	sp!, {r9, pc}

0000836e <__ul_divmod>:
__ul_divmod():
/home/qemu-sgx/devel/optee/optee_os/lib/libutils/isoc/arch/arm/arm32_aeabi_ldivmod.c:66
    836e:	e96d 7e02 	strd	r7, lr, [sp, #-8]!
    8372:	b08e      	sub	sp, #56	; 0x38
    8374:	af02      	add	r7, sp, #8
    8376:	6078      	str	r0, [r7, #4]
/home/qemu-sgx/devel/optee/optee_os/lib/libutils/isoc/arch/arm/arm32_aeabi_ldivmod.c:67
    8378:	687b      	ldr	r3, [r7, #4]
    837a:	e9d3 2300 	ldrd	r2, r3, [r3]
    837e:	e9c7 230a 	strd	r2, r3, [r7, #40]	; 0x28
/home/qemu-sgx/devel/optee/optee_os/lib/libutils/isoc/arch/arm/arm32_aeabi_ldivmod.c:68
    8382:	687b      	ldr	r3, [r7, #4]
    8384:	e9d3 2302 	ldrd	r2, r3, [r3, #8]
    8388:	e9c7 2308 	strd	r2, r3, [r7, #32]
/home/qemu-sgx/devel/optee/optee_os/lib/libutils/isoc/arch/arm/arm32_aeabi_ldivmod.c:69
    838c:	f107 0308 	add.w	r3, r7, #8
    8390:	efc0 0010 	vmov.i32	d16, #0	; 0x00000000
    8394:	edc3 0b00 	vstr	d16, [r3]
    8398:	edc3 0b02 	vstr	d16, [r3, #8]
    839c:	edc3 0b04 	vstr	d16, [r3, #16]
/home/qemu-sgx/devel/optee/optee_os/lib/libutils/isoc/arch/arm/arm32_aeabi_ldivmod.c:71
    83a0:	f107 0308 	add.w	r3, r7, #8
    83a4:	9300      	str	r3, [sp, #0]
    83a6:	e9d7 2308 	ldrd	r2, r3, [r7, #32]
    83aa:	e9d7 010a 	ldrd	r0, r1, [r7, #40]	; 0x28
    83ae:	f7ff ffa0 	bl	82f2 <ul_div_qr>
/home/qemu-sgx/devel/optee/optee_os/lib/libutils/isoc/arch/arm/arm32_aeabi_ldivmod.c:73
    83b2:	e9d7 2302 	ldrd	r2, r3, [r7, #8]
    83b6:	6879      	ldr	r1, [r7, #4]
    83b8:	e9c1 2300 	strd	r2, r3, [r1]
/home/qemu-sgx/devel/optee/optee_os/lib/libutils/isoc/arch/arm/arm32_aeabi_ldivmod.c:74
    83bc:	e9d7 2304 	ldrd	r2, r3, [r7, #16]
    83c0:	6879      	ldr	r1, [r7, #4]
    83c2:	e9c1 2302 	strd	r2, r3, [r1, #8]
/home/qemu-sgx/devel/optee/optee_os/lib/libutils/isoc/arch/arm/arm32_aeabi_ldivmod.c:75
    83c6:	bf00      	nop
    83c8:	f107 0730 	add.w	r7, r7, #48	; 0x30
    83cc:	46bd      	mov	sp, r7
    83ce:	bd80      	pop	{r7, pc}

000083d0 <__l_divmod>:
__l_divmod():
/home/qemu-sgx/devel/optee/optee_os/lib/libutils/isoc/arch/arm/arm32_aeabi_ldivmod.c:85
    83d0:	e96d 4506 	strd	r4, r5, [sp, #-24]!
    83d4:	e9cd 7802 	strd	r7, r8, [sp, #8]
    83d8:	e9cd 9e04 	strd	r9, lr, [sp, #16]
    83dc:	b08e      	sub	sp, #56	; 0x38
    83de:	af02      	add	r7, sp, #8
    83e0:	6078      	str	r0, [r7, #4]
/home/qemu-sgx/devel/optee/optee_os/lib/libutils/isoc/arch/arm/arm32_aeabi_ldivmod.c:86
    83e2:	687b      	ldr	r3, [r7, #4]
    83e4:	e9d3 2300 	ldrd	r2, r3, [r3]
    83e8:	e9c7 230a 	strd	r2, r3, [r7, #40]	; 0x28
/home/qemu-sgx/devel/optee/optee_os/lib/libutils/isoc/arch/arm/arm32_aeabi_ldivmod.c:87
    83ec:	687b      	ldr	r3, [r7, #4]
    83ee:	e9d3 2302 	ldrd	r2, r3, [r3, #8]
    83f2:	e9c7 2308 	strd	r2, r3, [r7, #32]
/home/qemu-sgx/devel/optee/optee_os/lib/libutils/isoc/arch/arm/arm32_aeabi_ldivmod.c:88
    83f6:	f107 0308 	add.w	r3, r7, #8
    83fa:	efc0 0010 	vmov.i32	d16, #0	; 0x00000000
    83fe:	edc3 0b00 	vstr	d16, [r3]
    8402:	edc3 0b02 	vstr	d16, [r3, #8]
    8406:	edc3 0b04 	vstr	d16, [r3, #16]
/home/qemu-sgx/devel/optee/optee_os/lib/libutils/isoc/arch/arm/arm32_aeabi_ldivmod.c:90
    840a:	e9d7 230a 	ldrd	r2, r3, [r7, #40]	; 0x28
    840e:	2b00      	cmp	r3, #0
    8410:	da05      	bge.n	841e <__l_divmod+0x4e>
/home/qemu-sgx/devel/optee/optee_os/lib/libutils/isoc/arch/arm/arm32_aeabi_ldivmod.c:90 (discriminator 1)
    8412:	e9d7 2308 	ldrd	r2, r3, [r7, #32]
    8416:	2a01      	cmp	r2, #1
    8418:	f173 0300 	sbcs.w	r3, r3, #0
    841c:	da09      	bge.n	8432 <__l_divmod+0x62>
/home/qemu-sgx/devel/optee/optee_os/lib/libutils/isoc/arch/arm/arm32_aeabi_ldivmod.c:90 (discriminator 3)
    841e:	e9d7 230a 	ldrd	r2, r3, [r7, #40]	; 0x28
    8422:	2a01      	cmp	r2, #1
    8424:	f173 0300 	sbcs.w	r3, r3, #0
    8428:	db06      	blt.n	8438 <__l_divmod+0x68>
/home/qemu-sgx/devel/optee/optee_os/lib/libutils/isoc/arch/arm/arm32_aeabi_ldivmod.c:91
    842a:	e9d7 2308 	ldrd	r2, r3, [r7, #32]
    842e:	2b00      	cmp	r3, #0
    8430:	da02      	bge.n	8438 <__l_divmod+0x68>
/home/qemu-sgx/devel/optee/optee_os/lib/libutils/isoc/arch/arm/arm32_aeabi_ldivmod.c:92
    8432:	f04f 0301 	mov.w	r3, #1
    8436:	61bb      	str	r3, [r7, #24]
/home/qemu-sgx/devel/optee/optee_os/lib/libutils/isoc/arch/arm/arm32_aeabi_ldivmod.c:93
    8438:	e9d7 230a 	ldrd	r2, r3, [r7, #40]	; 0x28
    843c:	2b00      	cmp	r3, #0
    843e:	da0c      	bge.n	845a <__l_divmod+0x8a>
/home/qemu-sgx/devel/optee/optee_os/lib/libutils/isoc/arch/arm/arm32_aeabi_ldivmod.c:94
    8440:	e9d7 230a 	ldrd	r2, r3, [r7, #40]	; 0x28
    8444:	f04f 0100 	mov.w	r1, #0
    8448:	f1d2 0800 	rsbs	r8, r2, #0
    844c:	eb61 0903 	sbc.w	r9, r1, r3
    8450:	e9c7 890a 	strd	r8, r9, [r7, #40]	; 0x28
/home/qemu-sgx/devel/optee/optee_os/lib/libutils/isoc/arch/arm/arm32_aeabi_ldivmod.c:95
    8454:	f04f 0301 	mov.w	r3, #1
    8458:	61fb      	str	r3, [r7, #28]
/home/qemu-sgx/devel/optee/optee_os/lib/libutils/isoc/arch/arm/arm32_aeabi_ldivmod.c:97
    845a:	e9d7 2308 	ldrd	r2, r3, [r7, #32]
    845e:	2b00      	cmp	r3, #0
    8460:	da08      	bge.n	8474 <__l_divmod+0xa4>
/home/qemu-sgx/devel/optee/optee_os/lib/libutils/isoc/arch/arm/arm32_aeabi_ldivmod.c:98
    8462:	e9d7 2308 	ldrd	r2, r3, [r7, #32]
    8466:	f04f 0100 	mov.w	r1, #0
    846a:	4254      	negs	r4, r2
    846c:	eb61 0503 	sbc.w	r5, r1, r3
    8470:	e9c7 4508 	strd	r4, r5, [r7, #32]
/home/qemu-sgx/devel/optee/optee_os/lib/libutils/isoc/arch/arm/arm32_aeabi_ldivmod.c:100
    8474:	e9d7 010a 	ldrd	r0, r1, [r7, #40]	; 0x28
    8478:	e9d7 2308 	ldrd	r2, r3, [r7, #32]
    847c:	f107 0408 	add.w	r4, r7, #8
    8480:	9400      	str	r4, [sp, #0]
    8482:	f7ff ff36 	bl	82f2 <ul_div_qr>
/home/qemu-sgx/devel/optee/optee_os/lib/libutils/isoc/arch/arm/arm32_aeabi_ldivmod.c:102
    8486:	e9d7 2302 	ldrd	r2, r3, [r7, #8]
    848a:	6879      	ldr	r1, [r7, #4]
    848c:	e9c1 2300 	strd	r2, r3, [r1]
/home/qemu-sgx/devel/optee/optee_os/lib/libutils/isoc/arch/arm/arm32_aeabi_ldivmod.c:103
    8490:	e9d7 2304 	ldrd	r2, r3, [r7, #16]
    8494:	6879      	ldr	r1, [r7, #4]
    8496:	e9c1 2302 	strd	r2, r3, [r1, #8]
/home/qemu-sgx/devel/optee/optee_os/lib/libutils/isoc/arch/arm/arm32_aeabi_ldivmod.c:104
    849a:	bf00      	nop
    849c:	f107 0730 	add.w	r7, r7, #48	; 0x30
    84a0:	46bd      	mov	sp, r7
    84a2:	e9dd 4500 	ldrd	r4, r5, [sp]
    84a6:	e9dd 7802 	ldrd	r7, r8, [sp, #8]
    84aa:	b004      	add	sp, #16
    84ac:	e8bd 8200 	ldmia.w	sp!, {r9, pc}

000084b0 <_assert_log>:
_assert_log():
/home/qemu-sgx/devel/optee/optee_os/lib/libutee/assert.c:17
    84b0:	e96d 7e02 	strd	r7, lr, [sp, #-8]!
    84b4:	b08a      	sub	sp, #40	; 0x28
    84b6:	af06      	add	r7, sp, #24
    84b8:	60f8      	str	r0, [r7, #12]
    84ba:	60b9      	str	r1, [r7, #8]
    84bc:	607a      	str	r2, [r7, #4]
    84be:	603b      	str	r3, [r7, #0]
/home/qemu-sgx/devel/optee/optee_os/lib/libutee/assert.c:18
    84c0:	683b      	ldr	r3, [r7, #0]
    84c2:	9304      	str	r3, [sp, #16]
    84c4:	687b      	ldr	r3, [r7, #4]
    84c6:	9303      	str	r3, [sp, #12]
    84c8:	68bb      	ldr	r3, [r7, #8]
    84ca:	9302      	str	r3, [sp, #8]
    84cc:	68fb      	ldr	r3, [r7, #12]
    84ce:	9301      	str	r3, [sp, #4]
    84d0:	4b08      	ldr	r3, [pc, #32]	; (84f4 <_assert_log+0x44>)
    84d2:	447b      	add	r3, pc
    84d4:	9300      	str	r3, [sp, #0]
    84d6:	f04f 0301 	mov.w	r3, #1
    84da:	f04f 0201 	mov.w	r2, #1
    84de:	f04f 0100 	mov.w	r1, #0
    84e2:	f04f 0000 	mov.w	r0, #0
    84e6:	f7fa edaa 	blx	303c <trace_printf@plt>
/home/qemu-sgx/devel/optee/optee_os/lib/libutee/assert.c:20
    84ea:	bf00      	nop
    84ec:	f107 0710 	add.w	r7, r7, #16
    84f0:	46bd      	mov	sp, r7
    84f2:	bd80      	pop	{r7, pc}
    84f4:	000053aa 	.word	0x000053aa

000084f8 <_assert_break>:
_assert_break():
/home/qemu-sgx/devel/optee/optee_os/lib/libutee/assert.c:23
    84f8:	e96d 7e02 	strd	r7, lr, [sp, #-8]!
    84fc:	af00      	add	r7, sp, #0
/home/qemu-sgx/devel/optee/optee_os/lib/libutee/assert.c:24
    84fe:	f04f 0000 	mov.w	r0, #0
    8502:	f6cf 70ff 	movt	r0, #65535	; 0xffff
    8506:	f7fa ee18 	blx	3138 <_utee_panic@plt>
/home/qemu-sgx/devel/optee/optee_os/lib/libutee/assert.c:26 (discriminator 1)
    850a:	e7fe      	b.n	850a <_assert_break+0x12>

0000850c <trace_ext_puts>:
trace_ext_puts():
/home/qemu-sgx/devel/optee/optee_os/lib/libutee/trace_ext.c:22
    850c:	e96d 7e02 	strd	r7, lr, [sp, #-8]!
    8510:	b082      	sub	sp, #8
    8512:	af00      	add	r7, sp, #0
    8514:	6078      	str	r0, [r7, #4]
/home/qemu-sgx/devel/optee/optee_os/lib/libutee/trace_ext.c:26
    8516:	6878      	ldr	r0, [r7, #4]
    8518:	f7fa efa6 	blx	3468 <strlen@plt>
    851c:	4603      	mov	r3, r0
    851e:	4619      	mov	r1, r3
    8520:	6878      	ldr	r0, [r7, #4]
    8522:	f7fa ed4a 	blx	2fb8 <_utee_log@plt>
/home/qemu-sgx/devel/optee/optee_os/lib/libutee/trace_ext.c:28
    8526:	bf00      	nop
    8528:	f107 0708 	add.w	r7, r7, #8
    852c:	46bd      	mov	sp, r7
    852e:	bd80      	pop	{r7, pc}

00008530 <trace_ext_get_thread_id>:
trace_ext_get_thread_id():
/home/qemu-sgx/devel/optee/optee_os/lib/libutee/trace_ext.c:31
    8530:	f84d 7d04 	str.w	r7, [sp, #-4]!
    8534:	af00      	add	r7, sp, #0
/home/qemu-sgx/devel/optee/optee_os/lib/libutee/trace_ext.c:32
    8536:	f04f 33ff 	mov.w	r3, #4294967295	; 0xffffffff
/home/qemu-sgx/devel/optee/optee_os/lib/libutee/trace_ext.c:33
    853a:	4618      	mov	r0, r3
    853c:	46bd      	mov	sp, r7
    853e:	f85d 7b04 	ldr.w	r7, [sp], #4
    8542:	4770      	bx	lr

00008544 <printf>:
printf():
/home/qemu-sgx/devel/optee/optee_os/lib/libutee/trace_ext.c:41
    8544:	b40f      	push	{r0, r1, r2, r3}
    8546:	e96d 7e02 	strd	r7, lr, [sp, #-8]!
    854a:	b0c2      	sub	sp, #264	; 0x108
    854c:	af00      	add	r7, sp, #0
/home/qemu-sgx/devel/optee/optee_os/lib/libutee/trace_ext.c:46
    854e:	f7fa eea2 	blx	3294 <trace_get_level@plt>
    8552:	4603      	mov	r3, r0
    8554:	2b00      	cmp	r3, #0
    8556:	dc02      	bgt.n	855e <printf+0x1a>
/home/qemu-sgx/devel/optee/optee_os/lib/libutee/trace_ext.c:47
    8558:	f04f 0300 	mov.w	r3, #0
    855c:	e023      	b.n	85a6 <printf+0x62>
/home/qemu-sgx/devel/optee/optee_os/lib/libutee/trace_ext.c:49
    855e:	f507 728a 	add.w	r2, r7, #276	; 0x114
    8562:	f507 7384 	add.w	r3, r7, #264	; 0x108
    8566:	f5a3 7384 	sub.w	r3, r3, #264	; 0x108
    856a:	601a      	str	r2, [r3, #0]
/home/qemu-sgx/devel/optee/optee_os/lib/libutee/trace_ext.c:50
    856c:	f507 7384 	add.w	r3, r7, #264	; 0x108
    8570:	f5a3 7384 	sub.w	r3, r3, #264	; 0x108
    8574:	f107 0004 	add.w	r0, r7, #4
    8578:	681b      	ldr	r3, [r3, #0]
    857a:	f8d7 2110 	ldr.w	r2, [r7, #272]	; 0x110
    857e:	f44f 7180 	mov.w	r1, #256	; 0x100
    8582:	f7fa ed80 	blx	3084 <vsnprintf@plt>
    8586:	f8c7 0104 	str.w	r0, [r7, #260]	; 0x104
/home/qemu-sgx/devel/optee/optee_os/lib/libutee/trace_ext.c:53
    858a:	f8d7 3104 	ldr.w	r3, [r7, #260]	; 0x104
    858e:	2b00      	cmp	r3, #0
    8590:	da02      	bge.n	8598 <printf+0x54>
/home/qemu-sgx/devel/optee/optee_os/lib/libutee/trace_ext.c:54
    8592:	f8d7 3104 	ldr.w	r3, [r7, #260]	; 0x104
    8596:	e006      	b.n	85a6 <printf+0x62>
/home/qemu-sgx/devel/optee/optee_os/lib/libutee/trace_ext.c:56
    8598:	f107 0304 	add.w	r3, r7, #4
    859c:	4618      	mov	r0, r3
    859e:	f7fa ef40 	blx	3420 <trace_ext_puts@plt>
/home/qemu-sgx/devel/optee/optee_os/lib/libutee/trace_ext.c:58
    85a2:	f8d7 3104 	ldr.w	r3, [r7, #260]	; 0x104
/home/qemu-sgx/devel/optee/optee_os/lib/libutee/trace_ext.c:59 (discriminator 1)
    85a6:	4618      	mov	r0, r3
    85a8:	f507 7784 	add.w	r7, r7, #264	; 0x108
    85ac:	46bd      	mov	sp, r7
    85ae:	e9dd 7e00 	ldrd	r7, lr, [sp]
    85b2:	b002      	add	sp, #8
    85b4:	b004      	add	sp, #16
    85b6:	4770      	bx	lr

000085b8 <puts>:
puts():
/home/qemu-sgx/devel/optee/optee_os/lib/libutee/trace_ext.c:62
    85b8:	e96d 7e02 	strd	r7, lr, [sp, #-8]!
    85bc:	b082      	sub	sp, #8
    85be:	af00      	add	r7, sp, #0
    85c0:	6078      	str	r0, [r7, #4]
/home/qemu-sgx/devel/optee/optee_os/lib/libutee/trace_ext.c:63
    85c2:	f7fa ee68 	blx	3294 <trace_get_level@plt>
    85c6:	4603      	mov	r3, r0
    85c8:	2b00      	cmp	r3, #0
    85ca:	dd07      	ble.n	85dc <puts+0x24>
/home/qemu-sgx/devel/optee/optee_os/lib/libutee/trace_ext.c:64
    85cc:	6878      	ldr	r0, [r7, #4]
    85ce:	f7fa ef28 	blx	3420 <trace_ext_puts@plt>
/home/qemu-sgx/devel/optee/optee_os/lib/libutee/trace_ext.c:65
    85d2:	4b06      	ldr	r3, [pc, #24]	; (85ec <puts+0x34>)
    85d4:	447b      	add	r3, pc
    85d6:	4618      	mov	r0, r3
    85d8:	f7fa ef22 	blx	3420 <trace_ext_puts@plt>
/home/qemu-sgx/devel/optee/optee_os/lib/libutee/trace_ext.c:67
    85dc:	f04f 0301 	mov.w	r3, #1
/home/qemu-sgx/devel/optee/optee_os/lib/libutee/trace_ext.c:68
    85e0:	4618      	mov	r0, r3
    85e2:	f107 0708 	add.w	r7, r7, #8
    85e6:	46bd      	mov	sp, r7
    85e8:	bd80      	pop	{r7, pc}
    85ea:	bf00      	nop
    85ec:	000052d0 	.word	0x000052d0

000085f0 <putchar>:
putchar():
/home/qemu-sgx/devel/optee/optee_os/lib/libutee/trace_ext.c:71
    85f0:	e96d 7e02 	strd	r7, lr, [sp, #-8]!
    85f4:	b084      	sub	sp, #16
    85f6:	af00      	add	r7, sp, #0
    85f8:	6078      	str	r0, [r7, #4]
/home/qemu-sgx/devel/optee/optee_os/lib/libutee/trace_ext.c:72
    85fa:	687b      	ldr	r3, [r7, #4]
    85fc:	b2db      	uxtb	r3, r3
    85fe:	733b      	strb	r3, [r7, #12]
    8600:	f04f 0300 	mov.w	r3, #0
    8604:	737b      	strb	r3, [r7, #13]
/home/qemu-sgx/devel/optee/optee_os/lib/libutee/trace_ext.c:74
    8606:	f7fa ee46 	blx	3294 <trace_get_level@plt>
    860a:	4603      	mov	r3, r0
    860c:	2b00      	cmp	r3, #0
    860e:	dd04      	ble.n	861a <putchar+0x2a>
/home/qemu-sgx/devel/optee/optee_os/lib/libutee/trace_ext.c:75
    8610:	f107 030c 	add.w	r3, r7, #12
    8614:	4618      	mov	r0, r3
    8616:	f7fa ef04 	blx	3420 <trace_ext_puts@plt>
/home/qemu-sgx/devel/optee/optee_os/lib/libutee/trace_ext.c:81
    861a:	687b      	ldr	r3, [r7, #4]
    861c:	b2db      	uxtb	r3, r3
/home/qemu-sgx/devel/optee/optee_os/lib/libutee/trace_ext.c:82
    861e:	4618      	mov	r0, r3
    8620:	f107 0710 	add.w	r7, r7, #16
    8624:	46bd      	mov	sp, r7
    8626:	bd80      	pop	{r7, pc}

00008628 <__tee_alg_get_class>:
__tee_alg_get_class():
/home/qemu-sgx/devel/optee/optee_os/lib/libutee/include/utee_defines.h:56
    8628:	f84d 7d04 	str.w	r7, [sp, #-4]!
    862c:	b083      	sub	sp, #12
    862e:	af00      	add	r7, sp, #0
    8630:	6078      	str	r0, [r7, #4]
/home/qemu-sgx/devel/optee/optee_os/lib/libutee/include/utee_defines.h:57
    8632:	687a      	ldr	r2, [r7, #4]
    8634:	f04f 0345 	mov.w	r3, #69	; 0x45
    8638:	f2c8 0300 	movt	r3, #32768	; 0x8000
    863c:	429a      	cmp	r2, r3
    863e:	d102      	bne.n	8646 <__tee_alg_get_class+0x1e>
/home/qemu-sgx/devel/optee/optee_os/lib/libutee/include/utee_defines.h:58
    8640:	f04f 0306 	mov.w	r3, #6
    8644:	e020      	b.n	8688 <__tee_alg_get_class+0x60>
/home/qemu-sgx/devel/optee/optee_os/lib/libutee/include/utee_defines.h:59
    8646:	687a      	ldr	r2, [r7, #4]
    8648:	f04f 0345 	mov.w	r3, #69	; 0x45
    864c:	f2c6 0300 	movt	r3, #24576	; 0x6000
    8650:	429a      	cmp	r2, r3
    8652:	d102      	bne.n	865a <__tee_alg_get_class+0x32>
/home/qemu-sgx/devel/optee/optee_os/lib/libutee/include/utee_defines.h:60
    8654:	f04f 0308 	mov.w	r3, #8
    8658:	e016      	b.n	8688 <__tee_alg_get_class+0x60>
/home/qemu-sgx/devel/optee/optee_os/lib/libutee/include/utee_defines.h:61
    865a:	687a      	ldr	r2, [r7, #4]
    865c:	f44f 6303 	mov.w	r3, #2096	; 0x830
    8660:	f2cf 0300 	movt	r3, #61440	; 0xf000
    8664:	429a      	cmp	r2, r3
    8666:	d102      	bne.n	866e <__tee_alg_get_class+0x46>
/home/qemu-sgx/devel/optee/optee_os/lib/libutee/include/utee_defines.h:62
    8668:	f04f 0307 	mov.w	r3, #7
    866c:	e00c      	b.n	8688 <__tee_alg_get_class+0x60>
/home/qemu-sgx/devel/optee/optee_os/lib/libutee/include/utee_defines.h:63
    866e:	687a      	ldr	r2, [r7, #4]
    8670:	f240 6313 	movw	r3, #1555	; 0x613
    8674:	f2cf 0300 	movt	r3, #61440	; 0xf000
    8678:	429a      	cmp	r2, r3
    867a:	d102      	bne.n	8682 <__tee_alg_get_class+0x5a>
/home/qemu-sgx/devel/optee/optee_os/lib/libutee/include/utee_defines.h:64
    867c:	f04f 0303 	mov.w	r3, #3
    8680:	e002      	b.n	8688 <__tee_alg_get_class+0x60>
/home/qemu-sgx/devel/optee/optee_os/lib/libutee/include/utee_defines.h:66
    8682:	687b      	ldr	r3, [r7, #4]
    8684:	ea4f 7313 	mov.w	r3, r3, lsr #28
/home/qemu-sgx/devel/optee/optee_os/lib/libutee/include/utee_defines.h:67
    8688:	4618      	mov	r0, r3
    868a:	f107 070c 	add.w	r7, r7, #12
    868e:	46bd      	mov	sp, r7
    8690:	f85d 7b04 	ldr.w	r7, [sp], #4
    8694:	4770      	bx	lr

00008696 <__tee_alg_get_main_alg>:
__tee_alg_get_main_alg():
/home/qemu-sgx/devel/optee/optee_os/lib/libutee/include/utee_defines.h:72
    8696:	f84d 7d04 	str.w	r7, [sp, #-4]!
    869a:	b083      	sub	sp, #12
    869c:	af00      	add	r7, sp, #0
    869e:	6078      	str	r0, [r7, #4]
/home/qemu-sgx/devel/optee/optee_os/lib/libutee/include/utee_defines.h:73
    86a0:	687a      	ldr	r2, [r7, #4]
    86a2:	f04f 0345 	mov.w	r3, #69	; 0x45
    86a6:	f2c6 0300 	movt	r3, #24576	; 0x6000
    86aa:	429a      	cmp	r2, r3
    86ac:	d009      	beq.n	86c2 <__tee_alg_get_main_alg+0x2c>
    86ae:	687a      	ldr	r2, [r7, #4]
    86b0:	f04f 0345 	mov.w	r3, #69	; 0x45
    86b4:	f2c8 0300 	movt	r3, #32768	; 0x8000
    86b8:	429a      	cmp	r2, r3
    86ba:	d105      	bne.n	86c8 <__tee_alg_get_main_alg+0x32>
/home/qemu-sgx/devel/optee/optee_os/lib/libutee/include/utee_defines.h:75
    86bc:	f04f 0347 	mov.w	r3, #71	; 0x47
    86c0:	e005      	b.n	86ce <__tee_alg_get_main_alg+0x38>
/home/qemu-sgx/devel/optee/optee_os/lib/libutee/include/utee_defines.h:77
    86c2:	f04f 0346 	mov.w	r3, #70	; 0x46
    86c6:	e002      	b.n	86ce <__tee_alg_get_main_alg+0x38>
/home/qemu-sgx/devel/optee/optee_os/lib/libutee/include/utee_defines.h:79
    86c8:	bf00      	nop
/home/qemu-sgx/devel/optee/optee_os/lib/libutee/include/utee_defines.h:82
    86ca:	687b      	ldr	r3, [r7, #4]
    86cc:	b2db      	uxtb	r3, r3
/home/qemu-sgx/devel/optee/optee_os/lib/libutee/include/utee_defines.h:83
    86ce:	4618      	mov	r0, r3
    86d0:	f107 070c 	add.w	r7, r7, #12
    86d4:	46bd      	mov	sp, r7
    86d6:	f85d 7b04 	ldr.w	r7, [sp], #4
    86da:	4770      	bx	lr

000086dc <__tee_alg_get_key_type>:
__tee_alg_get_key_type():
/home/qemu-sgx/devel/optee/optee_os/lib/libutee/include/utee_defines.h:113
    86dc:	e96d 7e02 	strd	r7, lr, [sp, #-8]!
    86e0:	b084      	sub	sp, #16
    86e2:	af00      	add	r7, sp, #0
    86e4:	6078      	str	r0, [r7, #4]
    86e6:	460b      	mov	r3, r1
    86e8:	70fb      	strb	r3, [r7, #3]
/home/qemu-sgx/devel/optee/optee_os/lib/libutee/include/utee_defines.h:114
    86ea:	6878      	ldr	r0, [r7, #4]
    86ec:	f7ff ffd3 	bl	8696 <__tee_alg_get_main_alg>
    86f0:	4603      	mov	r3, r0
    86f2:	f043 4320 	orr.w	r3, r3, #2684354560	; 0xa0000000
    86f6:	60fb      	str	r3, [r7, #12]
/home/qemu-sgx/devel/optee/optee_os/lib/libutee/include/utee_defines.h:116
    86f8:	78fb      	ldrb	r3, [r7, #3]
    86fa:	2b00      	cmp	r3, #0
    86fc:	d003      	beq.n	8706 <__tee_alg_get_key_type+0x2a>
/home/qemu-sgx/devel/optee/optee_os/lib/libutee/include/utee_defines.h:117
    86fe:	68fb      	ldr	r3, [r7, #12]
    8700:	f043 7380 	orr.w	r3, r3, #16777216	; 0x1000000
    8704:	60fb      	str	r3, [r7, #12]
/home/qemu-sgx/devel/optee/optee_os/lib/libutee/include/utee_defines.h:119
    8706:	68fb      	ldr	r3, [r7, #12]
/home/qemu-sgx/devel/optee/optee_os/lib/libutee/include/utee_defines.h:120
    8708:	4618      	mov	r0, r3
    870a:	f107 0710 	add.w	r7, r7, #16
    870e:	46bd      	mov	sp, r7
    8710:	bd80      	pop	{r7, pc}

00008712 <__tee_alg_get_digest_size>:
__tee_alg_get_digest_size():
/home/qemu-sgx/devel/optee/optee_os/lib/libutee/include/utee_defines.h:175
    8712:	f84d 7d04 	str.w	r7, [sp, #-4]!
    8716:	b083      	sub	sp, #12
    8718:	af00      	add	r7, sp, #0
    871a:	6078      	str	r0, [r7, #4]
/home/qemu-sgx/devel/optee/optee_os/lib/libutee/include/utee_defines.h:176
    871c:	687a      	ldr	r2, [r7, #4]
    871e:	f240 6313 	movw	r3, #1555	; 0x613
    8722:	f2cf 0300 	movt	r3, #61440	; 0xf000
    8726:	429a      	cmp	r2, r3
    8728:	f000 80fe 	beq.w	8928 <__tee_alg_get_digest_size+0x216>
    872c:	687a      	ldr	r2, [r7, #4]
    872e:	f240 6313 	movw	r3, #1555	; 0x613
    8732:	f2cf 0300 	movt	r3, #61440	; 0xf000
    8736:	429a      	cmp	r2, r3
    8738:	f200 80f9 	bhi.w	892e <__tee_alg_get_digest_size+0x21c>
    873c:	687a      	ldr	r2, [r7, #4]
    873e:	f244 1331 	movw	r3, #16689	; 0x4131
    8742:	f2c7 0300 	movt	r3, #28672	; 0x7000
    8746:	429a      	cmp	r2, r3
    8748:	f000 80df 	beq.w	890a <__tee_alg_get_digest_size+0x1f8>
    874c:	687a      	ldr	r2, [r7, #4]
    874e:	f244 1331 	movw	r3, #16689	; 0x4131
    8752:	f2c7 0300 	movt	r3, #28672	; 0x7000
    8756:	429a      	cmp	r2, r3
    8758:	f200 80e9 	bhi.w	892e <__tee_alg_get_digest_size+0x21c>
    875c:	687a      	ldr	r2, [r7, #4]
    875e:	f243 1331 	movw	r3, #12593	; 0x3131
    8762:	f2c7 0300 	movt	r3, #28672	; 0x7000
    8766:	429a      	cmp	r2, r3
    8768:	f000 80cc 	beq.w	8904 <__tee_alg_get_digest_size+0x1f2>
    876c:	687a      	ldr	r2, [r7, #4]
    876e:	f243 1331 	movw	r3, #12593	; 0x3131
    8772:	f2c7 0300 	movt	r3, #28672	; 0x7000
    8776:	429a      	cmp	r2, r3
    8778:	f200 80d9 	bhi.w	892e <__tee_alg_get_digest_size+0x21c>
    877c:	687a      	ldr	r2, [r7, #4]
    877e:	f242 1331 	movw	r3, #8497	; 0x2131
    8782:	f2c7 0300 	movt	r3, #28672	; 0x7000
    8786:	429a      	cmp	r2, r3
    8788:	f000 80b9 	beq.w	88fe <__tee_alg_get_digest_size+0x1ec>
    878c:	687a      	ldr	r2, [r7, #4]
    878e:	f242 1331 	movw	r3, #8497	; 0x2131
    8792:	f2c7 0300 	movt	r3, #28672	; 0x7000
    8796:	429a      	cmp	r2, r3
    8798:	f200 80c9 	bhi.w	892e <__tee_alg_get_digest_size+0x21c>
    879c:	687a      	ldr	r2, [r7, #4]
    879e:	f04f 0307 	mov.w	r3, #7
    87a2:	f2c5 0300 	movt	r3, #20480	; 0x5000
    87a6:	429a      	cmp	r2, r3
    87a8:	f200 80c1 	bhi.w	892e <__tee_alg_get_digest_size+0x21c>
    87ac:	687b      	ldr	r3, [r7, #4]
    87ae:	f1b3 4fa0 	cmp.w	r3, #1342177280	; 0x50000000
    87b2:	d865      	bhi.n	8880 <__tee_alg_get_digest_size+0x16e>
    87b4:	687a      	ldr	r2, [r7, #4]
    87b6:	f44f 63c2 	mov.w	r3, #1552	; 0x610
    87ba:	f2c3 0300 	movt	r3, #12288	; 0x3000
    87be:	429a      	cmp	r2, r3
    87c0:	f000 80af 	beq.w	8922 <__tee_alg_get_digest_size+0x210>
    87c4:	687a      	ldr	r2, [r7, #4]
    87c6:	f44f 63c2 	mov.w	r3, #1552	; 0x610
    87ca:	f2c3 0300 	movt	r3, #12288	; 0x3000
    87ce:	429a      	cmp	r2, r3
    87d0:	f200 80ad 	bhi.w	892e <__tee_alg_get_digest_size+0x21c>
    87d4:	687a      	ldr	r2, [r7, #4]
    87d6:	f240 5313 	movw	r3, #1299	; 0x513
    87da:	f2c3 0300 	movt	r3, #12288	; 0x3000
    87de:	429a      	cmp	r2, r3
    87e0:	f000 80a2 	beq.w	8928 <__tee_alg_get_digest_size+0x216>
    87e4:	687a      	ldr	r2, [r7, #4]
    87e6:	f240 5313 	movw	r3, #1299	; 0x513
    87ea:	f2c3 0300 	movt	r3, #12288	; 0x3000
    87ee:	429a      	cmp	r2, r3
    87f0:	f200 809d 	bhi.w	892e <__tee_alg_get_digest_size+0x21c>
    87f4:	687a      	ldr	r2, [r7, #4]
    87f6:	f240 5311 	movw	r3, #1297	; 0x511
    87fa:	f2c3 0300 	movt	r3, #12288	; 0x3000
    87fe:	429a      	cmp	r2, r3
    8800:	f000 8092 	beq.w	8928 <__tee_alg_get_digest_size+0x216>
    8804:	687a      	ldr	r2, [r7, #4]
    8806:	f240 5311 	movw	r3, #1297	; 0x511
    880a:	f2c3 0300 	movt	r3, #12288	; 0x3000
    880e:	429a      	cmp	r2, r3
    8810:	f200 808d 	bhi.w	892e <__tee_alg_get_digest_size+0x21c>
    8814:	687a      	ldr	r2, [r7, #4]
    8816:	f44f 63a2 	mov.w	r3, #1296	; 0x510
    881a:	f2c3 0300 	movt	r3, #12288	; 0x3000
    881e:	429a      	cmp	r2, r3
    8820:	d07f      	beq.n	8922 <__tee_alg_get_digest_size+0x210>
    8822:	687a      	ldr	r2, [r7, #4]
    8824:	f44f 63a2 	mov.w	r3, #1296	; 0x510
    8828:	f2c3 0300 	movt	r3, #12288	; 0x3000
    882c:	429a      	cmp	r2, r3
    882e:	d87e      	bhi.n	892e <__tee_alg_get_digest_size+0x21c>
    8830:	687a      	ldr	r2, [r7, #4]
    8832:	f240 1313 	movw	r3, #275	; 0x113
    8836:	f2c3 0300 	movt	r3, #12288	; 0x3000
    883a:	429a      	cmp	r2, r3
    883c:	d074      	beq.n	8928 <__tee_alg_get_digest_size+0x216>
    883e:	687a      	ldr	r2, [r7, #4]
    8840:	f240 1313 	movw	r3, #275	; 0x113
    8844:	f2c3 0300 	movt	r3, #12288	; 0x3000
    8848:	429a      	cmp	r2, r3
    884a:	d870      	bhi.n	892e <__tee_alg_get_digest_size+0x21c>
    884c:	687a      	ldr	r2, [r7, #4]
    884e:	f240 1311 	movw	r3, #273	; 0x111
    8852:	f2c3 0300 	movt	r3, #12288	; 0x3000
    8856:	429a      	cmp	r2, r3
    8858:	d066      	beq.n	8928 <__tee_alg_get_digest_size+0x216>
    885a:	687a      	ldr	r2, [r7, #4]
    885c:	f240 1311 	movw	r3, #273	; 0x111
    8860:	f2c3 0300 	movt	r3, #12288	; 0x3000
    8864:	429a      	cmp	r2, r3
    8866:	d862      	bhi.n	892e <__tee_alg_get_digest_size+0x21c>
    8868:	687a      	ldr	r2, [r7, #4]
    886a:	f04f 0307 	mov.w	r3, #7
    886e:	f2c3 0300 	movt	r3, #12288	; 0x3000
    8872:	429a      	cmp	r2, r3
    8874:	d838      	bhi.n	88e8 <__tee_alg_get_digest_size+0x1d6>
    8876:	687b      	ldr	r3, [r7, #4]
    8878:	f1b3 5f40 	cmp.w	r3, #805306368	; 0x30000000
    887c:	d81a      	bhi.n	88b4 <__tee_alg_get_digest_size+0x1a2>
    887e:	e056      	b.n	892e <__tee_alg_get_digest_size+0x21c>
    8880:	687b      	ldr	r3, [r7, #4]
    8882:	f103 4330 	add.w	r3, r3, #2952790016	; 0xb0000000
    8886:	f103 33ff 	add.w	r3, r3, #4294967295	; 0xffffffff
    888a:	2b06      	cmp	r3, #6
    888c:	d84f      	bhi.n	892e <__tee_alg_get_digest_size+0x21c>
    888e:	a202      	add	r2, pc, #8	; (adr r2, 8898 <__tee_alg_get_digest_size+0x186>)
    8890:	f852 3023 	ldr.w	r3, [r2, r3, lsl #2]
    8894:	441a      	add	r2, r3
    8896:	4710      	bx	r2
    8898:	00000061 	.word	0x00000061
    889c:	00000067 	.word	0x00000067
    88a0:	0000006d 	.word	0x0000006d
    88a4:	00000073 	.word	0x00000073
    88a8:	00000079 	.word	0x00000079
    88ac:	0000007f 	.word	0x0000007f
    88b0:	00000085 	.word	0x00000085
    88b4:	687b      	ldr	r3, [r7, #4]
    88b6:	f103 4350 	add.w	r3, r3, #3489660928	; 0xd0000000
    88ba:	f103 33ff 	add.w	r3, r3, #4294967295	; 0xffffffff
    88be:	2b06      	cmp	r3, #6
    88c0:	d835      	bhi.n	892e <__tee_alg_get_digest_size+0x21c>
    88c2:	a202      	add	r2, pc, #8	; (adr r2, 88cc <__tee_alg_get_digest_size+0x1ba>)
    88c4:	f852 3023 	ldr.w	r3, [r2, r3, lsl #2]
    88c8:	441a      	add	r2, r3
    88ca:	4710      	bx	r2
    88cc:	0000002d 	.word	0x0000002d
    88d0:	00000033 	.word	0x00000033
    88d4:	00000039 	.word	0x00000039
    88d8:	0000003f 	.word	0x0000003f
    88dc:	00000045 	.word	0x00000045
    88e0:	0000004b 	.word	0x0000004b
    88e4:	00000051 	.word	0x00000051
    88e8:	687a      	ldr	r2, [r7, #4]
    88ea:	f44f 7388 	mov.w	r3, #272	; 0x110
    88ee:	f2c3 0300 	movt	r3, #12288	; 0x3000
    88f2:	429a      	cmp	r2, r3
    88f4:	d015      	beq.n	8922 <__tee_alg_get_digest_size+0x210>
    88f6:	e01a      	b.n	892e <__tee_alg_get_digest_size+0x21c>
/home/qemu-sgx/devel/optee/optee_os/lib/libutee/include/utee_defines.h:179
    88f8:	f04f 0310 	mov.w	r3, #16
    88fc:	e019      	b.n	8932 <__tee_alg_get_digest_size+0x220>
/home/qemu-sgx/devel/optee/optee_os/lib/libutee/include/utee_defines.h:183
    88fe:	f04f 0314 	mov.w	r3, #20
    8902:	e016      	b.n	8932 <__tee_alg_get_digest_size+0x220>
/home/qemu-sgx/devel/optee/optee_os/lib/libutee/include/utee_defines.h:187
    8904:	f04f 031c 	mov.w	r3, #28
    8908:	e013      	b.n	8932 <__tee_alg_get_digest_size+0x220>
/home/qemu-sgx/devel/optee/optee_os/lib/libutee/include/utee_defines.h:191
    890a:	f04f 0320 	mov.w	r3, #32
    890e:	e010      	b.n	8932 <__tee_alg_get_digest_size+0x220>
/home/qemu-sgx/devel/optee/optee_os/lib/libutee/include/utee_defines.h:194
    8910:	f04f 0330 	mov.w	r3, #48	; 0x30
    8914:	e00d      	b.n	8932 <__tee_alg_get_digest_size+0x220>
/home/qemu-sgx/devel/optee/optee_os/lib/libutee/include/utee_defines.h:197
    8916:	f04f 0340 	mov.w	r3, #64	; 0x40
    891a:	e00a      	b.n	8932 <__tee_alg_get_digest_size+0x220>
/home/qemu-sgx/devel/optee/optee_os/lib/libutee/include/utee_defines.h:200
    891c:	f04f 0320 	mov.w	r3, #32
    8920:	e007      	b.n	8932 <__tee_alg_get_digest_size+0x220>
/home/qemu-sgx/devel/optee/optee_os/lib/libutee/include/utee_defines.h:204
    8922:	f04f 0310 	mov.w	r3, #16
    8926:	e004      	b.n	8932 <__tee_alg_get_digest_size+0x220>
/home/qemu-sgx/devel/optee/optee_os/lib/libutee/include/utee_defines.h:210
    8928:	f04f 0308 	mov.w	r3, #8
    892c:	e001      	b.n	8932 <__tee_alg_get_digest_size+0x220>
/home/qemu-sgx/devel/optee/optee_os/lib/libutee/include/utee_defines.h:212
    892e:	f04f 0300 	mov.w	r3, #0
/home/qemu-sgx/devel/optee/optee_os/lib/libutee/include/utee_defines.h:214
    8932:	4618      	mov	r0, r3
    8934:	f107 070c 	add.w	r7, r7, #12
    8938:	46bd      	mov	sp, r7
    893a:	f85d 7b04 	ldr.w	r7, [sp], #4
    893e:	4770      	bx	lr

00008940 <TEE_AllocateOperation>:
TEE_AllocateOperation():
/home/qemu-sgx/devel/optee/optee_os/lib/libutee/tee_api_operations.c:35
    8940:	e96d 7e02 	strd	r7, lr, [sp, #-8]!
    8944:	b090      	sub	sp, #64	; 0x40
    8946:	af02      	add	r7, sp, #8
    8948:	60f8      	str	r0, [r7, #12]
    894a:	60b9      	str	r1, [r7, #8]
    894c:	607a      	str	r2, [r7, #4]
    894e:	603b      	str	r3, [r7, #0]
/home/qemu-sgx/devel/optee/optee_os/lib/libutee/tee_api_operations.c:37
    8950:	f04f 0300 	mov.w	r3, #0
    8954:	61bb      	str	r3, [r7, #24]
/home/qemu-sgx/devel/optee/optee_os/lib/libutee/tee_api_operations.c:38
    8956:	f04f 0300 	mov.w	r3, #0
    895a:	633b      	str	r3, [r7, #48]	; 0x30
/home/qemu-sgx/devel/optee/optee_os/lib/libutee/tee_api_operations.c:39
    895c:	f04f 0301 	mov.w	r3, #1
    8960:	62fb      	str	r3, [r7, #44]	; 0x2c
/home/qemu-sgx/devel/optee/optee_os/lib/libutee/tee_api_operations.c:41
    8962:	f04f 0300 	mov.w	r3, #0
    8966:	f887 3027 	strb.w	r3, [r7, #39]	; 0x27
/home/qemu-sgx/devel/optee/optee_os/lib/libutee/tee_api_operations.c:42
    896a:	f04f 0300 	mov.w	r3, #0
    896e:	f887 3026 	strb.w	r3, [r7, #38]	; 0x26
/home/qemu-sgx/devel/optee/optee_os/lib/libutee/tee_api_operations.c:44
    8972:	68fb      	ldr	r3, [r7, #12]
    8974:	2b00      	cmp	r3, #0
    8976:	d103      	bne.n	8980 <TEE_AllocateOperation+0x40>
/home/qemu-sgx/devel/optee/optee_os/lib/libutee/tee_api_operations.c:45
    8978:	f04f 0000 	mov.w	r0, #0
    897c:	f7fa eb70 	blx	3060 <TEE_Panic@plt>
/home/qemu-sgx/devel/optee/optee_os/lib/libutee/tee_api_operations.c:47
    8980:	68ba      	ldr	r2, [r7, #8]
    8982:	f44f 6382 	mov.w	r3, #1040	; 0x410
    8986:	f2c1 0300 	movt	r3, #4096	; 0x1000
    898a:	429a      	cmp	r2, r3
    898c:	d006      	beq.n	899c <TEE_AllocateOperation+0x5c>
/home/qemu-sgx/devel/optee/optee_os/lib/libutee/tee_api_operations.c:47 (discriminator 1)
    898e:	68ba      	ldr	r2, [r7, #8]
    8990:	f04f 0345 	mov.w	r3, #69	; 0x45
    8994:	f2c6 0300 	movt	r3, #24576	; 0x6000
    8998:	429a      	cmp	r2, r3
    899a:	d102      	bne.n	89a2 <TEE_AllocateOperation+0x62>
/home/qemu-sgx/devel/optee/optee_os/lib/libutee/tee_api_operations.c:48
    899c:	f44f 2300 	mov.w	r3, #524288	; 0x80000
    89a0:	633b      	str	r3, [r7, #48]	; 0x30
/home/qemu-sgx/devel/optee/optee_os/lib/libutee/tee_api_operations.c:51
    89a2:	68ba      	ldr	r2, [r7, #8]
    89a4:	f245 0342 	movw	r3, #20546	; 0x5042
    89a8:	f2c8 0300 	movt	r3, #32768	; 0x8000
    89ac:	429a      	cmp	r2, r3
    89ae:	f000 814a 	beq.w	8c46 <TEE_AllocateOperation+0x306>
    89b2:	68ba      	ldr	r2, [r7, #8]
    89b4:	f245 0342 	movw	r3, #20546	; 0x5042
    89b8:	f2c8 0300 	movt	r3, #32768	; 0x8000
    89bc:	429a      	cmp	r2, r3
    89be:	f200 814d 	bhi.w	8c5c <TEE_AllocateOperation+0x31c>
    89c2:	68ba      	ldr	r2, [r7, #8]
    89c4:	f244 0342 	movw	r3, #16450	; 0x4042
    89c8:	f2c8 0300 	movt	r3, #32768	; 0x8000
    89cc:	429a      	cmp	r2, r3
    89ce:	f000 8130 	beq.w	8c32 <TEE_AllocateOperation+0x2f2>
    89d2:	68ba      	ldr	r2, [r7, #8]
    89d4:	f244 0342 	movw	r3, #16450	; 0x4042
    89d8:	f2c8 0300 	movt	r3, #32768	; 0x8000
    89dc:	429a      	cmp	r2, r3
    89de:	f200 813d 	bhi.w	8c5c <TEE_AllocateOperation+0x31c>
    89e2:	68ba      	ldr	r2, [r7, #8]
    89e4:	f243 0342 	movw	r3, #12354	; 0x3042
    89e8:	f2c8 0300 	movt	r3, #32768	; 0x8000
    89ec:	429a      	cmp	r2, r3
    89ee:	f000 810c 	beq.w	8c0a <TEE_AllocateOperation+0x2ca>
    89f2:	68ba      	ldr	r2, [r7, #8]
    89f4:	f243 0342 	movw	r3, #12354	; 0x3042
    89f8:	f2c8 0300 	movt	r3, #32768	; 0x8000
    89fc:	429a      	cmp	r2, r3
    89fe:	f200 812d 	bhi.w	8c5c <TEE_AllocateOperation+0x31c>
    8a02:	68ba      	ldr	r2, [r7, #8]
    8a04:	f242 0342 	movw	r3, #8258	; 0x2042
    8a08:	f2c8 0300 	movt	r3, #32768	; 0x8000
    8a0c:	429a      	cmp	r2, r3
    8a0e:	f000 80f3 	beq.w	8bf8 <TEE_AllocateOperation+0x2b8>
    8a12:	68ba      	ldr	r2, [r7, #8]
    8a14:	f242 0342 	movw	r3, #8258	; 0x2042
    8a18:	f2c8 0300 	movt	r3, #32768	; 0x8000
    8a1c:	429a      	cmp	r2, r3
    8a1e:	f200 811d 	bhi.w	8c5c <TEE_AllocateOperation+0x31c>
    8a22:	68ba      	ldr	r2, [r7, #8]
    8a24:	f241 0342 	movw	r3, #4162	; 0x1042
    8a28:	f2c8 0300 	movt	r3, #32768	; 0x8000
    8a2c:	429a      	cmp	r2, r3
    8a2e:	f000 80da 	beq.w	8be6 <TEE_AllocateOperation+0x2a6>
    8a32:	68ba      	ldr	r2, [r7, #8]
    8a34:	f241 0342 	movw	r3, #4162	; 0x1042
    8a38:	f2c8 0300 	movt	r3, #32768	; 0x8000
    8a3c:	429a      	cmp	r2, r3
    8a3e:	f200 810d 	bhi.w	8c5c <TEE_AllocateOperation+0x31c>
    8a42:	68ba      	ldr	r2, [r7, #8]
    8a44:	f04f 0345 	mov.w	r3, #69	; 0x45
    8a48:	f2c8 0300 	movt	r3, #32768	; 0x8000
    8a4c:	429a      	cmp	r2, r3
    8a4e:	f000 80dc 	beq.w	8c0a <TEE_AllocateOperation+0x2ca>
    8a52:	68ba      	ldr	r2, [r7, #8]
    8a54:	f04f 0345 	mov.w	r3, #69	; 0x45
    8a58:	f2c8 0300 	movt	r3, #32768	; 0x8000
    8a5c:	429a      	cmp	r2, r3
    8a5e:	f200 80fd 	bhi.w	8c5c <TEE_AllocateOperation+0x31c>
    8a62:	68ba      	ldr	r2, [r7, #8]
    8a64:	f246 0345 	movw	r3, #24645	; 0x6045
    8a68:	f2c7 0300 	movt	r3, #28672	; 0x7000
    8a6c:	429a      	cmp	r2, r3
    8a6e:	f000 80cc 	beq.w	8c0a <TEE_AllocateOperation+0x2ca>
    8a72:	68ba      	ldr	r2, [r7, #8]
    8a74:	f246 0345 	movw	r3, #24645	; 0x6045
    8a78:	f2c7 0300 	movt	r3, #28672	; 0x7000
    8a7c:	429a      	cmp	r2, r3
    8a7e:	f200 80ed 	bhi.w	8c5c <TEE_AllocateOperation+0x31c>
    8a82:	68ba      	ldr	r2, [r7, #8]
    8a84:	f245 0341 	movw	r3, #20545	; 0x5041
    8a88:	f2c7 0300 	movt	r3, #28672	; 0x7000
    8a8c:	429a      	cmp	r2, r3
    8a8e:	f000 80da 	beq.w	8c46 <TEE_AllocateOperation+0x306>
    8a92:	68ba      	ldr	r2, [r7, #8]
    8a94:	f245 0341 	movw	r3, #20545	; 0x5041
    8a98:	f2c7 0300 	movt	r3, #28672	; 0x7000
    8a9c:	429a      	cmp	r2, r3
    8a9e:	f200 80dd 	bhi.w	8c5c <TEE_AllocateOperation+0x31c>
    8aa2:	68ba      	ldr	r2, [r7, #8]
    8aa4:	f244 1331 	movw	r3, #16689	; 0x4131
    8aa8:	f2c7 0300 	movt	r3, #28672	; 0x7000
    8aac:	429a      	cmp	r2, r3
    8aae:	f000 808c 	beq.w	8bca <TEE_AllocateOperation+0x28a>
    8ab2:	68ba      	ldr	r2, [r7, #8]
    8ab4:	f244 1331 	movw	r3, #16689	; 0x4131
    8ab8:	f2c7 0300 	movt	r3, #28672	; 0x7000
    8abc:	429a      	cmp	r2, r3
    8abe:	f200 80cd 	bhi.w	8c5c <TEE_AllocateOperation+0x31c>
    8ac2:	68ba      	ldr	r2, [r7, #8]
    8ac4:	f244 0341 	movw	r3, #16449	; 0x4041
    8ac8:	f2c7 0300 	movt	r3, #28672	; 0x7000
    8acc:	429a      	cmp	r2, r3
    8ace:	f000 80b0 	beq.w	8c32 <TEE_AllocateOperation+0x2f2>
    8ad2:	68ba      	ldr	r2, [r7, #8]
    8ad4:	f244 0341 	movw	r3, #16449	; 0x4041
    8ad8:	f2c7 0300 	movt	r3, #28672	; 0x7000
    8adc:	429a      	cmp	r2, r3
    8ade:	f200 80bd 	bhi.w	8c5c <TEE_AllocateOperation+0x31c>
    8ae2:	68ba      	ldr	r2, [r7, #8]
    8ae4:	f243 1331 	movw	r3, #12593	; 0x3131
    8ae8:	f2c7 0300 	movt	r3, #28672	; 0x7000
    8aec:	429a      	cmp	r2, r3
    8aee:	d062      	beq.n	8bb6 <TEE_AllocateOperation+0x276>
    8af0:	68ba      	ldr	r2, [r7, #8]
    8af2:	f243 1331 	movw	r3, #12593	; 0x3131
    8af6:	f2c7 0300 	movt	r3, #28672	; 0x7000
    8afa:	429a      	cmp	r2, r3
    8afc:	f200 80ae 	bhi.w	8c5c <TEE_AllocateOperation+0x31c>
    8b00:	68ba      	ldr	r2, [r7, #8]
    8b02:	f243 0341 	movw	r3, #12353	; 0x3041
    8b06:	f2c7 0300 	movt	r3, #28672	; 0x7000
    8b0a:	429a      	cmp	r2, r3
    8b0c:	d07d      	beq.n	8c0a <TEE_AllocateOperation+0x2ca>
    8b0e:	68ba      	ldr	r2, [r7, #8]
    8b10:	f243 0341 	movw	r3, #12353	; 0x3041
    8b14:	f2c7 0300 	movt	r3, #28672	; 0x7000
    8b18:	429a      	cmp	r2, r3
    8b1a:	f200 809f 	bhi.w	8c5c <TEE_AllocateOperation+0x31c>
    8b1e:	68ba      	ldr	r2, [r7, #8]
    8b20:	f242 1331 	movw	r3, #8497	; 0x2131
    8b24:	f2c7 0300 	movt	r3, #28672	; 0x7000
    8b28:	429a      	cmp	r2, r3
    8b2a:	d025      	beq.n	8b78 <TEE_AllocateOperation+0x238>
    8b2c:	68ba      	ldr	r2, [r7, #8]
    8b2e:	f242 1331 	movw	r3, #8497	; 0x2131
    8b32:	f2c7 0300 	movt	r3, #28672	; 0x7000
    8b36:	429a      	cmp	r2, r3
    8b38:	f200 8090 	bhi.w	8c5c <TEE_AllocateOperation+0x31c>
    8b3c:	68ba      	ldr	r2, [r7, #8]
    8b3e:	f242 0341 	movw	r3, #8257	; 0x2041
    8b42:	f2c7 0300 	movt	r3, #28672	; 0x7000
    8b46:	429a      	cmp	r2, r3
    8b48:	d056      	beq.n	8bf8 <TEE_AllocateOperation+0x2b8>
    8b4a:	68ba      	ldr	r2, [r7, #8]
    8b4c:	f242 0341 	movw	r3, #8257	; 0x2041
    8b50:	f2c7 0300 	movt	r3, #28672	; 0x7000
    8b54:	429a      	cmp	r2, r3
    8b56:	f200 8081 	bhi.w	8c5c <TEE_AllocateOperation+0x31c>
    8b5a:	68ba      	ldr	r2, [r7, #8]
    8b5c:	f04f 0345 	mov.w	r3, #69	; 0x45
    8b60:	f2c6 0300 	movt	r3, #24576	; 0x6000
    8b64:	429a      	cmp	r2, r3
    8b66:	d05a      	beq.n	8c1e <TEE_AllocateOperation+0x2de>
    8b68:	68ba      	ldr	r2, [r7, #8]
    8b6a:	f241 0341 	movw	r3, #4161	; 0x1041
    8b6e:	f2c7 0300 	movt	r3, #28672	; 0x7000
    8b72:	429a      	cmp	r2, r3
    8b74:	d037      	beq.n	8be6 <TEE_AllocateOperation+0x2a6>
/home/qemu-sgx/devel/optee/optee_os/lib/libutee/tee_api_operations.c:110
    8b76:	e071      	b.n	8c5c <TEE_AllocateOperation+0x31c>
/home/qemu-sgx/devel/optee/optee_os/lib/libutee/tee_api_operations.c:53
    8b78:	683b      	ldr	r3, [r7, #0]
    8b7a:	f5b3 7f00 	cmp.w	r3, #512	; 0x200
    8b7e:	d205      	bcs.n	8b8c <TEE_AllocateOperation+0x24c>
/home/qemu-sgx/devel/optee/optee_os/lib/libutee/tee_api_operations.c:54
    8b80:	f04f 030a 	mov.w	r3, #10
    8b84:	f6cf 73ff 	movt	r3, #65535	; 0xffff
    8b88:	f000 bdd3 	b.w	9732 <TEE_AllocateOperation+0xdf2>
/home/qemu-sgx/devel/optee/optee_os/lib/libutee/tee_api_operations.c:55
    8b8c:	683b      	ldr	r3, [r7, #0]
    8b8e:	f5b3 6f80 	cmp.w	r3, #1024	; 0x400
    8b92:	d905      	bls.n	8ba0 <TEE_AllocateOperation+0x260>
/home/qemu-sgx/devel/optee/optee_os/lib/libutee/tee_api_operations.c:56
    8b94:	f04f 030a 	mov.w	r3, #10
    8b98:	f6cf 73ff 	movt	r3, #65535	; 0xffff
    8b9c:	f000 bdc9 	b.w	9732 <TEE_AllocateOperation+0xdf2>
/home/qemu-sgx/devel/optee/optee_os/lib/libutee/tee_api_operations.c:57
    8ba0:	683b      	ldr	r3, [r7, #0]
    8ba2:	f003 033f 	and.w	r3, r3, #63	; 0x3f
    8ba6:	2b00      	cmp	r3, #0
    8ba8:	d05a      	beq.n	8c60 <TEE_AllocateOperation+0x320>
/home/qemu-sgx/devel/optee/optee_os/lib/libutee/tee_api_operations.c:58
    8baa:	f04f 030a 	mov.w	r3, #10
    8bae:	f6cf 73ff 	movt	r3, #65535	; 0xffff
    8bb2:	f000 bdbe 	b.w	9732 <TEE_AllocateOperation+0xdf2>
/home/qemu-sgx/devel/optee/optee_os/lib/libutee/tee_api_operations.c:62
    8bb6:	683b      	ldr	r3, [r7, #0]
    8bb8:	f5b3 6f00 	cmp.w	r3, #2048	; 0x800
    8bbc:	d052      	beq.n	8c64 <TEE_AllocateOperation+0x324>
/home/qemu-sgx/devel/optee/optee_os/lib/libutee/tee_api_operations.c:63
    8bbe:	f04f 030a 	mov.w	r3, #10
    8bc2:	f6cf 73ff 	movt	r3, #65535	; 0xffff
    8bc6:	f000 bdb4 	b.w	9732 <TEE_AllocateOperation+0xdf2>
/home/qemu-sgx/devel/optee/optee_os/lib/libutee/tee_api_operations.c:67
    8bca:	683b      	ldr	r3, [r7, #0]
    8bcc:	f5b3 6f00 	cmp.w	r3, #2048	; 0x800
    8bd0:	d04a      	beq.n	8c68 <TEE_AllocateOperation+0x328>
/home/qemu-sgx/devel/optee/optee_os/lib/libutee/tee_api_operations.c:67 (discriminator 1)
    8bd2:	683b      	ldr	r3, [r7, #0]
    8bd4:	f5b3 6f40 	cmp.w	r3, #3072	; 0xc00
    8bd8:	d046      	beq.n	8c68 <TEE_AllocateOperation+0x328>
/home/qemu-sgx/devel/optee/optee_os/lib/libutee/tee_api_operations.c:68
    8bda:	f04f 030a 	mov.w	r3, #10
    8bde:	f6cf 73ff 	movt	r3, #65535	; 0xffff
    8be2:	f000 bda6 	b.w	9732 <TEE_AllocateOperation+0xdf2>
/home/qemu-sgx/devel/optee/optee_os/lib/libutee/tee_api_operations.c:73
    8be6:	683b      	ldr	r3, [r7, #0]
    8be8:	2bc0      	cmp	r3, #192	; 0xc0
    8bea:	d03f      	beq.n	8c6c <TEE_AllocateOperation+0x32c>
/home/qemu-sgx/devel/optee/optee_os/lib/libutee/tee_api_operations.c:74
    8bec:	f04f 030a 	mov.w	r3, #10
    8bf0:	f6cf 73ff 	movt	r3, #65535	; 0xffff
    8bf4:	f000 bd9d 	b.w	9732 <TEE_AllocateOperation+0xdf2>
/home/qemu-sgx/devel/optee/optee_os/lib/libutee/tee_api_operations.c:79
    8bf8:	683b      	ldr	r3, [r7, #0]
    8bfa:	2be0      	cmp	r3, #224	; 0xe0
    8bfc:	d038      	beq.n	8c70 <TEE_AllocateOperation+0x330>
/home/qemu-sgx/devel/optee/optee_os/lib/libutee/tee_api_operations.c:80
    8bfe:	f04f 030a 	mov.w	r3, #10
    8c02:	f6cf 73ff 	movt	r3, #65535	; 0xffff
    8c06:	f000 bd94 	b.w	9732 <TEE_AllocateOperation+0xdf2>
/home/qemu-sgx/devel/optee/optee_os/lib/libutee/tee_api_operations.c:87
    8c0a:	683b      	ldr	r3, [r7, #0]
    8c0c:	f5b3 7f80 	cmp.w	r3, #256	; 0x100
    8c10:	d030      	beq.n	8c74 <TEE_AllocateOperation+0x334>
/home/qemu-sgx/devel/optee/optee_os/lib/libutee/tee_api_operations.c:88
    8c12:	f04f 030a 	mov.w	r3, #10
    8c16:	f6cf 73ff 	movt	r3, #65535	; 0xffff
    8c1a:	f000 bd8a 	b.w	9732 <TEE_AllocateOperation+0xdf2>
/home/qemu-sgx/devel/optee/optee_os/lib/libutee/tee_api_operations.c:93
    8c1e:	683b      	ldr	r3, [r7, #0]
    8c20:	f5b3 7f00 	cmp.w	r3, #512	; 0x200
    8c24:	d028      	beq.n	8c78 <TEE_AllocateOperation+0x338>
/home/qemu-sgx/devel/optee/optee_os/lib/libutee/tee_api_operations.c:94
    8c26:	f04f 030a 	mov.w	r3, #10
    8c2a:	f6cf 73ff 	movt	r3, #65535	; 0xffff
    8c2e:	f000 bd80 	b.w	9732 <TEE_AllocateOperation+0xdf2>
/home/qemu-sgx/devel/optee/optee_os/lib/libutee/tee_api_operations.c:99
    8c32:	683b      	ldr	r3, [r7, #0]
    8c34:	f5b3 7fc0 	cmp.w	r3, #384	; 0x180
    8c38:	d020      	beq.n	8c7c <TEE_AllocateOperation+0x33c>
/home/qemu-sgx/devel/optee/optee_os/lib/libutee/tee_api_operations.c:100
    8c3a:	f04f 030a 	mov.w	r3, #10
    8c3e:	f6cf 73ff 	movt	r3, #65535	; 0xffff
    8c42:	f000 bd76 	b.w	9732 <TEE_AllocateOperation+0xdf2>
/home/qemu-sgx/devel/optee/optee_os/lib/libutee/tee_api_operations.c:105
    8c46:	683b      	ldr	r3, [r7, #0]
    8c48:	f240 2209 	movw	r2, #521	; 0x209
    8c4c:	4293      	cmp	r3, r2
    8c4e:	d017      	beq.n	8c80 <TEE_AllocateOperation+0x340>
/home/qemu-sgx/devel/optee/optee_os/lib/libutee/tee_api_operations.c:106
    8c50:	f04f 030a 	mov.w	r3, #10
    8c54:	f6cf 73ff 	movt	r3, #65535	; 0xffff
    8c58:	f000 bd6b 	b.w	9732 <TEE_AllocateOperation+0xdf2>
/home/qemu-sgx/devel/optee/optee_os/lib/libutee/tee_api_operations.c:110
    8c5c:	bf00      	nop
    8c5e:	e010      	b.n	8c82 <TEE_AllocateOperation+0x342>
/home/qemu-sgx/devel/optee/optee_os/lib/libutee/tee_api_operations.c:59
    8c60:	bf00      	nop
    8c62:	e00e      	b.n	8c82 <TEE_AllocateOperation+0x342>
/home/qemu-sgx/devel/optee/optee_os/lib/libutee/tee_api_operations.c:64
    8c64:	bf00      	nop
    8c66:	e00c      	b.n	8c82 <TEE_AllocateOperation+0x342>
/home/qemu-sgx/devel/optee/optee_os/lib/libutee/tee_api_operations.c:69
    8c68:	bf00      	nop
    8c6a:	e00a      	b.n	8c82 <TEE_AllocateOperation+0x342>
/home/qemu-sgx/devel/optee/optee_os/lib/libutee/tee_api_operations.c:75
    8c6c:	bf00      	nop
    8c6e:	e008      	b.n	8c82 <TEE_AllocateOperation+0x342>
/home/qemu-sgx/devel/optee/optee_os/lib/libutee/tee_api_operations.c:81
    8c70:	bf00      	nop
    8c72:	e006      	b.n	8c82 <TEE_AllocateOperation+0x342>
/home/qemu-sgx/devel/optee/optee_os/lib/libutee/tee_api_operations.c:89
    8c74:	bf00      	nop
    8c76:	e004      	b.n	8c82 <TEE_AllocateOperation+0x342>
/home/qemu-sgx/devel/optee/optee_os/lib/libutee/tee_api_operations.c:95
    8c78:	bf00      	nop
    8c7a:	e002      	b.n	8c82 <TEE_AllocateOperation+0x342>
/home/qemu-sgx/devel/optee/optee_os/lib/libutee/tee_api_operations.c:101
    8c7c:	bf00      	nop
    8c7e:	e000      	b.n	8c82 <TEE_AllocateOperation+0x342>
/home/qemu-sgx/devel/optee/optee_os/lib/libutee/tee_api_operations.c:107
    8c80:	bf00      	nop
/home/qemu-sgx/devel/optee/optee_os/lib/libutee/tee_api_operations.c:114
    8c82:	68ba      	ldr	r2, [r7, #8]
    8c84:	f44f 6303 	mov.w	r3, #2096	; 0x830
    8c88:	f2cf 0300 	movt	r3, #61440	; 0xf000
    8c8c:	429a      	cmp	r2, r3
    8c8e:	f000 83d2 	beq.w	9436 <TEE_AllocateOperation+0xaf6>
    8c92:	68ba      	ldr	r2, [r7, #8]
    8c94:	f44f 6303 	mov.w	r3, #2096	; 0x830
    8c98:	f2cf 0300 	movt	r3, #61440	; 0xf000
    8c9c:	429a      	cmp	r2, r3
    8c9e:	f200 8443 	bhi.w	9528 <TEE_AllocateOperation+0xbe8>
    8ca2:	68ba      	ldr	r2, [r7, #8]
    8ca4:	f240 6313 	movw	r3, #1555	; 0x613
    8ca8:	f2cf 0300 	movt	r3, #61440	; 0xf000
    8cac:	429a      	cmp	r2, r3
    8cae:	f000 842f 	beq.w	9510 <TEE_AllocateOperation+0xbd0>
    8cb2:	68ba      	ldr	r2, [r7, #8]
    8cb4:	f240 6313 	movw	r3, #1555	; 0x613
    8cb8:	f2cf 0300 	movt	r3, #61440	; 0xf000
    8cbc:	429a      	cmp	r2, r3
    8cbe:	f200 8433 	bhi.w	9528 <TEE_AllocateOperation+0xbe8>
    8cc2:	68ba      	ldr	r2, [r7, #8]
    8cc4:	f246 03c1 	movw	r3, #24769	; 0x60c1
    8cc8:	f2c8 0300 	movt	r3, #32768	; 0x8000
    8ccc:	429a      	cmp	r2, r3
    8cce:	f200 842b 	bhi.w	9528 <TEE_AllocateOperation+0xbe8>
    8cd2:	68ba      	ldr	r2, [r7, #8]
    8cd4:	f246 03c0 	movw	r3, #24768	; 0x60c0
    8cd8:	f2c8 0300 	movt	r3, #32768	; 0x8000
    8cdc:	429a      	cmp	r2, r3
    8cde:	f080 83ef 	bcs.w	94c0 <TEE_AllocateOperation+0xb80>
    8ce2:	68ba      	ldr	r2, [r7, #8]
    8ce4:	f245 03c1 	movw	r3, #20673	; 0x50c1
    8ce8:	f2c8 0300 	movt	r3, #32768	; 0x8000
    8cec:	429a      	cmp	r2, r3
    8cee:	f200 841b 	bhi.w	9528 <TEE_AllocateOperation+0xbe8>
    8cf2:	68ba      	ldr	r2, [r7, #8]
    8cf4:	f245 03c0 	movw	r3, #20672	; 0x50c0
    8cf8:	f2c8 0300 	movt	r3, #32768	; 0x8000
    8cfc:	429a      	cmp	r2, r3
    8cfe:	f080 83df 	bcs.w	94c0 <TEE_AllocateOperation+0xb80>
    8d02:	68ba      	ldr	r2, [r7, #8]
    8d04:	f245 0342 	movw	r3, #20546	; 0x5042
    8d08:	f2c8 0300 	movt	r3, #32768	; 0x8000
    8d0c:	429a      	cmp	r2, r3
    8d0e:	f000 83d7 	beq.w	94c0 <TEE_AllocateOperation+0xb80>
    8d12:	68ba      	ldr	r2, [r7, #8]
    8d14:	f245 0342 	movw	r3, #20546	; 0x5042
    8d18:	f2c8 0300 	movt	r3, #32768	; 0x8000
    8d1c:	429a      	cmp	r2, r3
    8d1e:	f200 8403 	bhi.w	9528 <TEE_AllocateOperation+0xbe8>
    8d22:	68ba      	ldr	r2, [r7, #8]
    8d24:	f244 03c1 	movw	r3, #16577	; 0x40c1
    8d28:	f2c8 0300 	movt	r3, #32768	; 0x8000
    8d2c:	429a      	cmp	r2, r3
    8d2e:	f200 83fb 	bhi.w	9528 <TEE_AllocateOperation+0xbe8>
    8d32:	68ba      	ldr	r2, [r7, #8]
    8d34:	f244 03c0 	movw	r3, #16576	; 0x40c0
    8d38:	f2c8 0300 	movt	r3, #32768	; 0x8000
    8d3c:	429a      	cmp	r2, r3
    8d3e:	f080 83bf 	bcs.w	94c0 <TEE_AllocateOperation+0xb80>
    8d42:	68ba      	ldr	r2, [r7, #8]
    8d44:	f244 0342 	movw	r3, #16450	; 0x4042
    8d48:	f2c8 0300 	movt	r3, #32768	; 0x8000
    8d4c:	429a      	cmp	r2, r3
    8d4e:	f000 83b7 	beq.w	94c0 <TEE_AllocateOperation+0xb80>
    8d52:	68ba      	ldr	r2, [r7, #8]
    8d54:	f244 0342 	movw	r3, #16450	; 0x4042
    8d58:	f2c8 0300 	movt	r3, #32768	; 0x8000
    8d5c:	429a      	cmp	r2, r3
    8d5e:	f200 83e3 	bhi.w	9528 <TEE_AllocateOperation+0xbe8>
    8d62:	68ba      	ldr	r2, [r7, #8]
    8d64:	f243 03c1 	movw	r3, #12481	; 0x30c1
    8d68:	f2c8 0300 	movt	r3, #32768	; 0x8000
    8d6c:	429a      	cmp	r2, r3
    8d6e:	f200 83db 	bhi.w	9528 <TEE_AllocateOperation+0xbe8>
    8d72:	68ba      	ldr	r2, [r7, #8]
    8d74:	f44f 5343 	mov.w	r3, #12480	; 0x30c0
    8d78:	f2c8 0300 	movt	r3, #32768	; 0x8000
    8d7c:	429a      	cmp	r2, r3
    8d7e:	f080 839f 	bcs.w	94c0 <TEE_AllocateOperation+0xb80>
    8d82:	68ba      	ldr	r2, [r7, #8]
    8d84:	f243 0342 	movw	r3, #12354	; 0x3042
    8d88:	f2c8 0300 	movt	r3, #32768	; 0x8000
    8d8c:	429a      	cmp	r2, r3
    8d8e:	f000 8397 	beq.w	94c0 <TEE_AllocateOperation+0xb80>
    8d92:	68ba      	ldr	r2, [r7, #8]
    8d94:	f243 0342 	movw	r3, #12354	; 0x3042
    8d98:	f2c8 0300 	movt	r3, #32768	; 0x8000
    8d9c:	429a      	cmp	r2, r3
    8d9e:	f200 83c3 	bhi.w	9528 <TEE_AllocateOperation+0xbe8>
    8da2:	68ba      	ldr	r2, [r7, #8]
    8da4:	f242 03c2 	movw	r3, #8386	; 0x20c2
    8da8:	f2c8 0300 	movt	r3, #32768	; 0x8000
    8dac:	429a      	cmp	r2, r3
    8dae:	f200 83bb 	bhi.w	9528 <TEE_AllocateOperation+0xbe8>
    8db2:	68ba      	ldr	r2, [r7, #8]
    8db4:	f44f 5303 	mov.w	r3, #8384	; 0x20c0
    8db8:	f2c8 0300 	movt	r3, #32768	; 0x8000
    8dbc:	429a      	cmp	r2, r3
    8dbe:	f080 837f 	bcs.w	94c0 <TEE_AllocateOperation+0xb80>
    8dc2:	68ba      	ldr	r2, [r7, #8]
    8dc4:	f242 0342 	movw	r3, #8258	; 0x2042
    8dc8:	f2c8 0300 	movt	r3, #32768	; 0x8000
    8dcc:	429a      	cmp	r2, r3
    8dce:	f000 8377 	beq.w	94c0 <TEE_AllocateOperation+0xb80>
    8dd2:	68ba      	ldr	r2, [r7, #8]
    8dd4:	f242 0342 	movw	r3, #8258	; 0x2042
    8dd8:	f2c8 0300 	movt	r3, #32768	; 0x8000
    8ddc:	429a      	cmp	r2, r3
    8dde:	f200 83a3 	bhi.w	9528 <TEE_AllocateOperation+0xbe8>
    8de2:	68ba      	ldr	r2, [r7, #8]
    8de4:	f44f 5386 	mov.w	r3, #4288	; 0x10c0
    8de8:	f2c8 0300 	movt	r3, #32768	; 0x8000
    8dec:	429a      	cmp	r2, r3
    8dee:	f000 8367 	beq.w	94c0 <TEE_AllocateOperation+0xb80>
    8df2:	68ba      	ldr	r2, [r7, #8]
    8df4:	f44f 5386 	mov.w	r3, #4288	; 0x10c0
    8df8:	f2c8 0300 	movt	r3, #32768	; 0x8000
    8dfc:	429a      	cmp	r2, r3
    8dfe:	f200 8393 	bhi.w	9528 <TEE_AllocateOperation+0xbe8>
    8e02:	68ba      	ldr	r2, [r7, #8]
    8e04:	f241 0342 	movw	r3, #4162	; 0x1042
    8e08:	f2c8 0300 	movt	r3, #32768	; 0x8000
    8e0c:	429a      	cmp	r2, r3
    8e0e:	f000 8357 	beq.w	94c0 <TEE_AllocateOperation+0xb80>
    8e12:	68ba      	ldr	r2, [r7, #8]
    8e14:	f241 0342 	movw	r3, #4162	; 0x1042
    8e18:	f2c8 0300 	movt	r3, #32768	; 0x8000
    8e1c:	429a      	cmp	r2, r3
    8e1e:	f200 8383 	bhi.w	9528 <TEE_AllocateOperation+0xbe8>
    8e22:	68ba      	ldr	r2, [r7, #8]
    8e24:	f04f 0345 	mov.w	r3, #69	; 0x45
    8e28:	f2c8 0300 	movt	r3, #32768	; 0x8000
    8e2c:	429a      	cmp	r2, r3
    8e2e:	f000 8319 	beq.w	9464 <TEE_AllocateOperation+0xb24>
    8e32:	68ba      	ldr	r2, [r7, #8]
    8e34:	f04f 0345 	mov.w	r3, #69	; 0x45
    8e38:	f2c8 0300 	movt	r3, #32768	; 0x8000
    8e3c:	429a      	cmp	r2, r3
    8e3e:	f200 8373 	bhi.w	9528 <TEE_AllocateOperation+0xbe8>
    8e42:	68ba      	ldr	r2, [r7, #8]
    8e44:	f04f 0332 	mov.w	r3, #50	; 0x32
    8e48:	f2c8 0300 	movt	r3, #32768	; 0x8000
    8e4c:	429a      	cmp	r2, r3
    8e4e:	f000 8337 	beq.w	94c0 <TEE_AllocateOperation+0xb80>
    8e52:	68ba      	ldr	r2, [r7, #8]
    8e54:	f04f 0332 	mov.w	r3, #50	; 0x32
    8e58:	f2c8 0300 	movt	r3, #32768	; 0x8000
    8e5c:	429a      	cmp	r2, r3
    8e5e:	f200 8363 	bhi.w	9528 <TEE_AllocateOperation+0xbe8>
    8e62:	68ba      	ldr	r2, [r7, #8]
    8e64:	f646 1330 	movw	r3, #26928	; 0x6930
    8e68:	f2c7 0361 	movt	r3, #28769	; 0x7061
    8e6c:	429a      	cmp	r2, r3
    8e6e:	f000 82e2 	beq.w	9436 <TEE_AllocateOperation+0xaf6>
    8e72:	68ba      	ldr	r2, [r7, #8]
    8e74:	f646 1330 	movw	r3, #26928	; 0x6930
    8e78:	f2c7 0361 	movt	r3, #28769	; 0x7061
    8e7c:	429a      	cmp	r2, r3
    8e7e:	f200 8353 	bhi.w	9528 <TEE_AllocateOperation+0xbe8>
    8e82:	68ba      	ldr	r2, [r7, #8]
    8e84:	f645 1330 	movw	r3, #22832	; 0x5930
    8e88:	f2c7 0351 	movt	r3, #28753	; 0x7051
    8e8c:	429a      	cmp	r2, r3
    8e8e:	f000 82d2 	beq.w	9436 <TEE_AllocateOperation+0xaf6>
    8e92:	68ba      	ldr	r2, [r7, #8]
    8e94:	f645 1330 	movw	r3, #22832	; 0x5930
    8e98:	f2c7 0351 	movt	r3, #28753	; 0x7051
    8e9c:	429a      	cmp	r2, r3
    8e9e:	f200 8343 	bhi.w	9528 <TEE_AllocateOperation+0xbe8>
    8ea2:	68ba      	ldr	r2, [r7, #8]
    8ea4:	f644 1330 	movw	r3, #18736	; 0x4930
    8ea8:	f2c7 0341 	movt	r3, #28737	; 0x7041
    8eac:	429a      	cmp	r2, r3
    8eae:	f000 82c2 	beq.w	9436 <TEE_AllocateOperation+0xaf6>
    8eb2:	68ba      	ldr	r2, [r7, #8]
    8eb4:	f644 1330 	movw	r3, #18736	; 0x4930
    8eb8:	f2c7 0341 	movt	r3, #28737	; 0x7041
    8ebc:	429a      	cmp	r2, r3
    8ebe:	f200 8333 	bhi.w	9528 <TEE_AllocateOperation+0xbe8>
    8ec2:	68ba      	ldr	r2, [r7, #8]
    8ec4:	f643 1330 	movw	r3, #14640	; 0x3930
    8ec8:	f2c7 0331 	movt	r3, #28721	; 0x7031
    8ecc:	429a      	cmp	r2, r3
    8ece:	f000 82b2 	beq.w	9436 <TEE_AllocateOperation+0xaf6>
    8ed2:	68ba      	ldr	r2, [r7, #8]
    8ed4:	f643 1330 	movw	r3, #14640	; 0x3930
    8ed8:	f2c7 0331 	movt	r3, #28721	; 0x7031
    8edc:	429a      	cmp	r2, r3
    8ede:	f200 8323 	bhi.w	9528 <TEE_AllocateOperation+0xbe8>
    8ee2:	68ba      	ldr	r2, [r7, #8]
    8ee4:	f642 1330 	movw	r3, #10544	; 0x2930
    8ee8:	f2c7 0321 	movt	r3, #28705	; 0x7021
    8eec:	429a      	cmp	r2, r3
    8eee:	f000 82a2 	beq.w	9436 <TEE_AllocateOperation+0xaf6>
    8ef2:	68ba      	ldr	r2, [r7, #8]
    8ef4:	f642 1330 	movw	r3, #10544	; 0x2930
    8ef8:	f2c7 0321 	movt	r3, #28705	; 0x7021
    8efc:	429a      	cmp	r2, r3
    8efe:	f200 8313 	bhi.w	9528 <TEE_AllocateOperation+0xbe8>
    8f02:	68ba      	ldr	r2, [r7, #8]
    8f04:	f646 0330 	movw	r3, #26672	; 0x6830
    8f08:	f2c7 0300 	movt	r3, #28672	; 0x7000
    8f0c:	429a      	cmp	r2, r3
    8f0e:	f000 8292 	beq.w	9436 <TEE_AllocateOperation+0xaf6>
    8f12:	68ba      	ldr	r2, [r7, #8]
    8f14:	f646 0330 	movw	r3, #26672	; 0x6830
    8f18:	f2c7 0300 	movt	r3, #28672	; 0x7000
    8f1c:	429a      	cmp	r2, r3
    8f1e:	f200 8303 	bhi.w	9528 <TEE_AllocateOperation+0xbe8>
    8f22:	68ba      	ldr	r2, [r7, #8]
    8f24:	f246 0345 	movw	r3, #24645	; 0x6045
    8f28:	f2c7 0300 	movt	r3, #28672	; 0x7000
    8f2c:	429a      	cmp	r2, r3
    8f2e:	f000 8282 	beq.w	9436 <TEE_AllocateOperation+0xaf6>
    8f32:	68ba      	ldr	r2, [r7, #8]
    8f34:	f246 0345 	movw	r3, #24645	; 0x6045
    8f38:	f2c7 0300 	movt	r3, #28672	; 0x7000
    8f3c:	429a      	cmp	r2, r3
    8f3e:	f200 82f3 	bhi.w	9528 <TEE_AllocateOperation+0xbe8>
    8f42:	68ba      	ldr	r2, [r7, #8]
    8f44:	f645 0330 	movw	r3, #22576	; 0x5830
    8f48:	f2c7 0300 	movt	r3, #28672	; 0x7000
    8f4c:	429a      	cmp	r2, r3
    8f4e:	f000 8272 	beq.w	9436 <TEE_AllocateOperation+0xaf6>
    8f52:	68ba      	ldr	r2, [r7, #8]
    8f54:	f645 0330 	movw	r3, #22576	; 0x5830
    8f58:	f2c7 0300 	movt	r3, #28672	; 0x7000
    8f5c:	429a      	cmp	r2, r3
    8f5e:	f200 82e3 	bhi.w	9528 <TEE_AllocateOperation+0xbe8>
    8f62:	68ba      	ldr	r2, [r7, #8]
    8f64:	f245 0341 	movw	r3, #20545	; 0x5041
    8f68:	f2c7 0300 	movt	r3, #28672	; 0x7000
    8f6c:	429a      	cmp	r2, r3
    8f6e:	f000 8262 	beq.w	9436 <TEE_AllocateOperation+0xaf6>
    8f72:	68ba      	ldr	r2, [r7, #8]
    8f74:	f245 0341 	movw	r3, #20545	; 0x5041
    8f78:	f2c7 0300 	movt	r3, #28672	; 0x7000
    8f7c:	429a      	cmp	r2, r3
    8f7e:	f200 82d3 	bhi.w	9528 <TEE_AllocateOperation+0xbe8>
    8f82:	68ba      	ldr	r2, [r7, #8]
    8f84:	f644 0330 	movw	r3, #18480	; 0x4830
    8f88:	f2c7 0300 	movt	r3, #28672	; 0x7000
    8f8c:	429a      	cmp	r2, r3
    8f8e:	f000 8252 	beq.w	9436 <TEE_AllocateOperation+0xaf6>
    8f92:	68ba      	ldr	r2, [r7, #8]
    8f94:	f644 0330 	movw	r3, #18480	; 0x4830
    8f98:	f2c7 0300 	movt	r3, #28672	; 0x7000
    8f9c:	429a      	cmp	r2, r3
    8f9e:	f200 82c3 	bhi.w	9528 <TEE_AllocateOperation+0xbe8>
    8fa2:	68ba      	ldr	r2, [r7, #8]
    8fa4:	f244 1331 	movw	r3, #16689	; 0x4131
    8fa8:	f2c7 0300 	movt	r3, #28672	; 0x7000
    8fac:	429a      	cmp	r2, r3
    8fae:	f000 8242 	beq.w	9436 <TEE_AllocateOperation+0xaf6>
    8fb2:	68ba      	ldr	r2, [r7, #8]
    8fb4:	f244 1331 	movw	r3, #16689	; 0x4131
    8fb8:	f2c7 0300 	movt	r3, #28672	; 0x7000
    8fbc:	429a      	cmp	r2, r3
    8fbe:	f200 82b3 	bhi.w	9528 <TEE_AllocateOperation+0xbe8>
    8fc2:	68ba      	ldr	r2, [r7, #8]
    8fc4:	f244 0341 	movw	r3, #16449	; 0x4041
    8fc8:	f2c7 0300 	movt	r3, #28672	; 0x7000
    8fcc:	429a      	cmp	r2, r3
    8fce:	f000 8232 	beq.w	9436 <TEE_AllocateOperation+0xaf6>
    8fd2:	68ba      	ldr	r2, [r7, #8]
    8fd4:	f244 0341 	movw	r3, #16449	; 0x4041
    8fd8:	f2c7 0300 	movt	r3, #28672	; 0x7000
    8fdc:	429a      	cmp	r2, r3
    8fde:	f200 82a3 	bhi.w	9528 <TEE_AllocateOperation+0xbe8>
    8fe2:	68ba      	ldr	r2, [r7, #8]
    8fe4:	f643 0330 	movw	r3, #14384	; 0x3830
    8fe8:	f2c7 0300 	movt	r3, #28672	; 0x7000
    8fec:	429a      	cmp	r2, r3
    8fee:	f000 8222 	beq.w	9436 <TEE_AllocateOperation+0xaf6>
    8ff2:	68ba      	ldr	r2, [r7, #8]
    8ff4:	f643 0330 	movw	r3, #14384	; 0x3830
    8ff8:	f2c7 0300 	movt	r3, #28672	; 0x7000
    8ffc:	429a      	cmp	r2, r3
    8ffe:	f200 8293 	bhi.w	9528 <TEE_AllocateOperation+0xbe8>
    9002:	68ba      	ldr	r2, [r7, #8]
    9004:	f243 1331 	movw	r3, #12593	; 0x3131
    9008:	f2c7 0300 	movt	r3, #28672	; 0x7000
    900c:	429a      	cmp	r2, r3
    900e:	f000 8212 	beq.w	9436 <TEE_AllocateOperation+0xaf6>
    9012:	68ba      	ldr	r2, [r7, #8]
    9014:	f243 1331 	movw	r3, #12593	; 0x3131
    9018:	f2c7 0300 	movt	r3, #28672	; 0x7000
    901c:	429a      	cmp	r2, r3
    901e:	f200 8283 	bhi.w	9528 <TEE_AllocateOperation+0xbe8>
    9022:	68ba      	ldr	r2, [r7, #8]
    9024:	f243 0341 	movw	r3, #12353	; 0x3041
    9028:	f2c7 0300 	movt	r3, #28672	; 0x7000
    902c:	429a      	cmp	r2, r3
    902e:	f000 8202 	beq.w	9436 <TEE_AllocateOperation+0xaf6>
    9032:	68ba      	ldr	r2, [r7, #8]
    9034:	f243 0341 	movw	r3, #12353	; 0x3041
    9038:	f2c7 0300 	movt	r3, #28672	; 0x7000
    903c:	429a      	cmp	r2, r3
    903e:	f200 8273 	bhi.w	9528 <TEE_AllocateOperation+0xbe8>
    9042:	68ba      	ldr	r2, [r7, #8]
    9044:	f642 0330 	movw	r3, #10288	; 0x2830
    9048:	f2c7 0300 	movt	r3, #28672	; 0x7000
    904c:	429a      	cmp	r2, r3
    904e:	f000 81f2 	beq.w	9436 <TEE_AllocateOperation+0xaf6>
    9052:	68ba      	ldr	r2, [r7, #8]
    9054:	f642 0330 	movw	r3, #10288	; 0x2830
    9058:	f2c7 0300 	movt	r3, #28672	; 0x7000
    905c:	429a      	cmp	r2, r3
    905e:	f200 8263 	bhi.w	9528 <TEE_AllocateOperation+0xbe8>
    9062:	68ba      	ldr	r2, [r7, #8]
    9064:	f242 1331 	movw	r3, #8497	; 0x2131
    9068:	f2c7 0300 	movt	r3, #28672	; 0x7000
    906c:	429a      	cmp	r2, r3
    906e:	f000 81e2 	beq.w	9436 <TEE_AllocateOperation+0xaf6>
    9072:	68ba      	ldr	r2, [r7, #8]
    9074:	f242 1331 	movw	r3, #8497	; 0x2131
    9078:	f2c7 0300 	movt	r3, #28672	; 0x7000
    907c:	429a      	cmp	r2, r3
    907e:	f200 8253 	bhi.w	9528 <TEE_AllocateOperation+0xbe8>
    9082:	68ba      	ldr	r2, [r7, #8]
    9084:	f242 0341 	movw	r3, #8257	; 0x2041
    9088:	f2c7 0300 	movt	r3, #28672	; 0x7000
    908c:	429a      	cmp	r2, r3
    908e:	f000 81d2 	beq.w	9436 <TEE_AllocateOperation+0xaf6>
    9092:	68ba      	ldr	r2, [r7, #8]
    9094:	f242 0341 	movw	r3, #8257	; 0x2041
    9098:	f2c7 0300 	movt	r3, #28672	; 0x7000
    909c:	429a      	cmp	r2, r3
    909e:	f200 8243 	bhi.w	9528 <TEE_AllocateOperation+0xbe8>
    90a2:	68ba      	ldr	r2, [r7, #8]
    90a4:	f641 0330 	movw	r3, #6192	; 0x1830
    90a8:	f2c7 0300 	movt	r3, #28672	; 0x7000
    90ac:	429a      	cmp	r2, r3
    90ae:	f000 81c2 	beq.w	9436 <TEE_AllocateOperation+0xaf6>
    90b2:	68ba      	ldr	r2, [r7, #8]
    90b4:	f641 0330 	movw	r3, #6192	; 0x1830
    90b8:	f2c7 0300 	movt	r3, #28672	; 0x7000
    90bc:	429a      	cmp	r2, r3
    90be:	f200 8233 	bhi.w	9528 <TEE_AllocateOperation+0xbe8>
    90c2:	68ba      	ldr	r2, [r7, #8]
    90c4:	f241 0341 	movw	r3, #4161	; 0x1041
    90c8:	f2c7 0300 	movt	r3, #28672	; 0x7000
    90cc:	429a      	cmp	r2, r3
    90ce:	f000 81b2 	beq.w	9436 <TEE_AllocateOperation+0xaf6>
    90d2:	68ba      	ldr	r2, [r7, #8]
    90d4:	f241 0341 	movw	r3, #4161	; 0x1041
    90d8:	f2c7 0300 	movt	r3, #28672	; 0x7000
    90dc:	429a      	cmp	r2, r3
    90de:	f200 8223 	bhi.w	9528 <TEE_AllocateOperation+0xbe8>
    90e2:	68ba      	ldr	r2, [r7, #8]
    90e4:	f44f 730c 	mov.w	r3, #560	; 0x230
    90e8:	f2c6 0361 	movt	r3, #24673	; 0x6061
    90ec:	429a      	cmp	r2, r3
    90ee:	f000 81b9 	beq.w	9464 <TEE_AllocateOperation+0xb24>
    90f2:	68ba      	ldr	r2, [r7, #8]
    90f4:	f44f 730c 	mov.w	r3, #560	; 0x230
    90f8:	f2c6 0361 	movt	r3, #24673	; 0x6061
    90fc:	429a      	cmp	r2, r3
    90fe:	f200 8213 	bhi.w	9528 <TEE_AllocateOperation+0xbe8>
    9102:	68ba      	ldr	r2, [r7, #8]
    9104:	f44f 730c 	mov.w	r3, #560	; 0x230
    9108:	f2c6 0351 	movt	r3, #24657	; 0x6051
    910c:	429a      	cmp	r2, r3
    910e:	f000 81a9 	beq.w	9464 <TEE_AllocateOperation+0xb24>
    9112:	68ba      	ldr	r2, [r7, #8]
    9114:	f44f 730c 	mov.w	r3, #560	; 0x230
    9118:	f2c6 0351 	movt	r3, #24657	; 0x6051
    911c:	429a      	cmp	r2, r3
    911e:	f200 8203 	bhi.w	9528 <TEE_AllocateOperation+0xbe8>
    9122:	68ba      	ldr	r2, [r7, #8]
    9124:	f44f 730c 	mov.w	r3, #560	; 0x230
    9128:	f2c6 0341 	movt	r3, #24641	; 0x6041
    912c:	429a      	cmp	r2, r3
    912e:	f000 8199 	beq.w	9464 <TEE_AllocateOperation+0xb24>
    9132:	68ba      	ldr	r2, [r7, #8]
    9134:	f44f 730c 	mov.w	r3, #560	; 0x230
    9138:	f2c6 0341 	movt	r3, #24641	; 0x6041
    913c:	429a      	cmp	r2, r3
    913e:	f200 81f3 	bhi.w	9528 <TEE_AllocateOperation+0xbe8>
    9142:	68ba      	ldr	r2, [r7, #8]
    9144:	f44f 730c 	mov.w	r3, #560	; 0x230
    9148:	f2c6 0331 	movt	r3, #24625	; 0x6031
    914c:	429a      	cmp	r2, r3
    914e:	f000 8189 	beq.w	9464 <TEE_AllocateOperation+0xb24>
    9152:	68ba      	ldr	r2, [r7, #8]
    9154:	f44f 730c 	mov.w	r3, #560	; 0x230
    9158:	f2c6 0331 	movt	r3, #24625	; 0x6031
    915c:	429a      	cmp	r2, r3
    915e:	f200 81e3 	bhi.w	9528 <TEE_AllocateOperation+0xbe8>
    9162:	68ba      	ldr	r2, [r7, #8]
    9164:	f44f 730c 	mov.w	r3, #560	; 0x230
    9168:	f2c6 0321 	movt	r3, #24609	; 0x6021
    916c:	429a      	cmp	r2, r3
    916e:	f000 8179 	beq.w	9464 <TEE_AllocateOperation+0xb24>
    9172:	68ba      	ldr	r2, [r7, #8]
    9174:	f44f 730c 	mov.w	r3, #560	; 0x230
    9178:	f2c6 0321 	movt	r3, #24609	; 0x6021
    917c:	429a      	cmp	r2, r3
    917e:	f200 81d3 	bhi.w	9528 <TEE_AllocateOperation+0xbe8>
    9182:	68ba      	ldr	r2, [r7, #8]
    9184:	f44f 7398 	mov.w	r3, #304	; 0x130
    9188:	f2c6 0300 	movt	r3, #24576	; 0x6000
    918c:	429a      	cmp	r2, r3
    918e:	f000 8169 	beq.w	9464 <TEE_AllocateOperation+0xb24>
    9192:	68ba      	ldr	r2, [r7, #8]
    9194:	f44f 7398 	mov.w	r3, #304	; 0x130
    9198:	f2c6 0300 	movt	r3, #24576	; 0x6000
    919c:	429a      	cmp	r2, r3
    919e:	f200 81c3 	bhi.w	9528 <TEE_AllocateOperation+0xbe8>
    91a2:	68ba      	ldr	r2, [r7, #8]
    91a4:	f04f 0345 	mov.w	r3, #69	; 0x45
    91a8:	f2c6 0300 	movt	r3, #24576	; 0x6000
    91ac:	429a      	cmp	r2, r3
    91ae:	f000 8187 	beq.w	94c0 <TEE_AllocateOperation+0xb80>
    91b2:	68ba      	ldr	r2, [r7, #8]
    91b4:	f04f 0345 	mov.w	r3, #69	; 0x45
    91b8:	f2c6 0300 	movt	r3, #24576	; 0x6000
    91bc:	429a      	cmp	r2, r3
    91be:	f200 81b3 	bhi.w	9528 <TEE_AllocateOperation+0xbe8>
    91c2:	68ba      	ldr	r2, [r7, #8]
    91c4:	f04f 0330 	mov.w	r3, #48	; 0x30
    91c8:	f2c6 0300 	movt	r3, #24576	; 0x6000
    91cc:	429a      	cmp	r2, r3
    91ce:	f000 8160 	beq.w	9492 <TEE_AllocateOperation+0xb52>
    91d2:	68ba      	ldr	r2, [r7, #8]
    91d4:	f04f 0330 	mov.w	r3, #48	; 0x30
    91d8:	f2c6 0300 	movt	r3, #24576	; 0x6000
    91dc:	429a      	cmp	r2, r3
    91de:	f200 81a3 	bhi.w	9528 <TEE_AllocateOperation+0xbe8>
    91e2:	68ba      	ldr	r2, [r7, #8]
    91e4:	f04f 0307 	mov.w	r3, #7
    91e8:	f2c5 0300 	movt	r3, #20480	; 0x5000
    91ec:	429a      	cmp	r2, r3
    91ee:	f200 819b 	bhi.w	9528 <TEE_AllocateOperation+0xbe8>
    91f2:	68bb      	ldr	r3, [r7, #8]
    91f4:	f1b3 4fa0 	cmp.w	r3, #1342177280	; 0x50000000
    91f8:	f200 8172 	bhi.w	94e0 <TEE_AllocateOperation+0xba0>
    91fc:	68ba      	ldr	r2, [r7, #8]
    91fe:	f44f 6301 	mov.w	r3, #2064	; 0x810
    9202:	f2c4 0300 	movt	r3, #16384	; 0x4000
    9206:	429a      	cmp	r2, r3
    9208:	f000 8102 	beq.w	9410 <TEE_AllocateOperation+0xad0>
    920c:	68ba      	ldr	r2, [r7, #8]
    920e:	f44f 6301 	mov.w	r3, #2064	; 0x810
    9212:	f2c4 0300 	movt	r3, #16384	; 0x4000
    9216:	429a      	cmp	r2, r3
    9218:	f200 8186 	bhi.w	9528 <TEE_AllocateOperation+0xbe8>
    921c:	68ba      	ldr	r2, [r7, #8]
    921e:	f44f 63e2 	mov.w	r3, #1808	; 0x710
    9222:	f2c4 0300 	movt	r3, #16384	; 0x4000
    9226:	429a      	cmp	r2, r3
    9228:	f000 80db 	beq.w	93e2 <TEE_AllocateOperation+0xaa2>
    922c:	68ba      	ldr	r2, [r7, #8]
    922e:	f44f 63e2 	mov.w	r3, #1808	; 0x710
    9232:	f2c4 0300 	movt	r3, #16384	; 0x4000
    9236:	429a      	cmp	r2, r3
    9238:	f200 8176 	bhi.w	9528 <TEE_AllocateOperation+0xbe8>
    923c:	68ba      	ldr	r2, [r7, #8]
    923e:	f44f 63c2 	mov.w	r3, #1552	; 0x610
    9242:	f2c3 0300 	movt	r3, #12288	; 0x3000
    9246:	429a      	cmp	r2, r3
    9248:	f000 8162 	beq.w	9510 <TEE_AllocateOperation+0xbd0>
    924c:	68ba      	ldr	r2, [r7, #8]
    924e:	f44f 63c2 	mov.w	r3, #1552	; 0x610
    9252:	f2c3 0300 	movt	r3, #12288	; 0x3000
    9256:	429a      	cmp	r2, r3
    9258:	f200 8166 	bhi.w	9528 <TEE_AllocateOperation+0xbe8>
    925c:	68ba      	ldr	r2, [r7, #8]
    925e:	f240 5313 	movw	r3, #1299	; 0x513
    9262:	f2c3 0300 	movt	r3, #12288	; 0x3000
    9266:	429a      	cmp	r2, r3
    9268:	f000 8152 	beq.w	9510 <TEE_AllocateOperation+0xbd0>
    926c:	68ba      	ldr	r2, [r7, #8]
    926e:	f240 5313 	movw	r3, #1299	; 0x513
    9272:	f2c3 0300 	movt	r3, #12288	; 0x3000
    9276:	429a      	cmp	r2, r3
    9278:	f200 8156 	bhi.w	9528 <TEE_AllocateOperation+0xbe8>
    927c:	68ba      	ldr	r2, [r7, #8]
    927e:	f240 5311 	movw	r3, #1297	; 0x511
    9282:	f2c3 0300 	movt	r3, #12288	; 0x3000
    9286:	429a      	cmp	r2, r3
    9288:	f200 814e 	bhi.w	9528 <TEE_AllocateOperation+0xbe8>
    928c:	68ba      	ldr	r2, [r7, #8]
    928e:	f44f 63a2 	mov.w	r3, #1296	; 0x510
    9292:	f2c3 0300 	movt	r3, #12288	; 0x3000
    9296:	429a      	cmp	r2, r3
    9298:	f080 813a 	bcs.w	9510 <TEE_AllocateOperation+0xbd0>
    929c:	68ba      	ldr	r2, [r7, #8]
    929e:	f240 1313 	movw	r3, #275	; 0x113
    92a2:	f2c3 0300 	movt	r3, #12288	; 0x3000
    92a6:	429a      	cmp	r2, r3
    92a8:	f000 8132 	beq.w	9510 <TEE_AllocateOperation+0xbd0>
    92ac:	68ba      	ldr	r2, [r7, #8]
    92ae:	f240 1313 	movw	r3, #275	; 0x113
    92b2:	f2c3 0300 	movt	r3, #12288	; 0x3000
    92b6:	429a      	cmp	r2, r3
    92b8:	f200 8136 	bhi.w	9528 <TEE_AllocateOperation+0xbe8>
    92bc:	68ba      	ldr	r2, [r7, #8]
    92be:	f240 1311 	movw	r3, #273	; 0x111
    92c2:	f2c3 0300 	movt	r3, #12288	; 0x3000
    92c6:	429a      	cmp	r2, r3
    92c8:	f200 812e 	bhi.w	9528 <TEE_AllocateOperation+0xbe8>
    92cc:	68ba      	ldr	r2, [r7, #8]
    92ce:	f44f 7388 	mov.w	r3, #272	; 0x110
    92d2:	f2c3 0300 	movt	r3, #12288	; 0x3000
    92d6:	429a      	cmp	r2, r3
    92d8:	f080 811a 	bcs.w	9510 <TEE_AllocateOperation+0xbd0>
    92dc:	68ba      	ldr	r2, [r7, #8]
    92de:	f04f 0307 	mov.w	r3, #7
    92e2:	f2c3 0300 	movt	r3, #12288	; 0x3000
    92e6:	429a      	cmp	r2, r3
    92e8:	f200 811e 	bhi.w	9528 <TEE_AllocateOperation+0xbe8>
    92ec:	68bb      	ldr	r3, [r7, #8]
    92ee:	f1b3 5f40 	cmp.w	r3, #805306368	; 0x30000000
    92f2:	f200 810d 	bhi.w	9510 <TEE_AllocateOperation+0xbd0>
    92f6:	68ba      	ldr	r2, [r7, #8]
    92f8:	f44f 6382 	mov.w	r3, #1040	; 0x410
    92fc:	f2c1 0300 	movt	r3, #4096	; 0x1000
    9300:	429a      	cmp	r2, r3
    9302:	d06a      	beq.n	93da <TEE_AllocateOperation+0xa9a>
    9304:	68ba      	ldr	r2, [r7, #8]
    9306:	f44f 6382 	mov.w	r3, #1040	; 0x410
    930a:	f2c1 0300 	movt	r3, #4096	; 0x1000
    930e:	429a      	cmp	r2, r3
    9310:	f200 810a 	bhi.w	9528 <TEE_AllocateOperation+0xbe8>
    9314:	68ba      	ldr	r2, [r7, #8]
    9316:	f44f 7344 	mov.w	r3, #784	; 0x310
    931a:	f2c1 0300 	movt	r3, #4096	; 0x1000
    931e:	429a      	cmp	r2, r3
    9320:	d05b      	beq.n	93da <TEE_AllocateOperation+0xa9a>
    9322:	68ba      	ldr	r2, [r7, #8]
    9324:	f44f 7344 	mov.w	r3, #784	; 0x310
    9328:	f2c1 0300 	movt	r3, #4096	; 0x1000
    932c:	429a      	cmp	r2, r3
    932e:	f200 80fb 	bhi.w	9528 <TEE_AllocateOperation+0xbe8>
    9332:	68ba      	ldr	r2, [r7, #8]
    9334:	f44f 7305 	mov.w	r3, #532	; 0x214
    9338:	f2c1 0300 	movt	r3, #4096	; 0x1000
    933c:	429a      	cmp	r2, r3
    933e:	d050      	beq.n	93e2 <TEE_AllocateOperation+0xaa2>
    9340:	68ba      	ldr	r2, [r7, #8]
    9342:	f44f 7305 	mov.w	r3, #532	; 0x214
    9346:	f2c1 0300 	movt	r3, #4096	; 0x1000
    934a:	429a      	cmp	r2, r3
    934c:	f200 80ec 	bhi.w	9528 <TEE_AllocateOperation+0xbe8>
    9350:	68ba      	ldr	r2, [r7, #8]
    9352:	f44f 7304 	mov.w	r3, #528	; 0x210
    9356:	f2c1 0300 	movt	r3, #4096	; 0x1000
    935a:	429a      	cmp	r2, r3
    935c:	d058      	beq.n	9410 <TEE_AllocateOperation+0xad0>
    935e:	68ba      	ldr	r2, [r7, #8]
    9360:	f44f 7304 	mov.w	r3, #528	; 0x210
    9364:	f2c1 0300 	movt	r3, #4096	; 0x1000
    9368:	429a      	cmp	r2, r3
    936a:	f200 80dd 	bhi.w	9528 <TEE_AllocateOperation+0xbe8>
    936e:	68ba      	ldr	r2, [r7, #8]
    9370:	f44f 738a 	mov.w	r3, #276	; 0x114
    9374:	f2c1 0300 	movt	r3, #4096	; 0x1000
    9378:	429a      	cmp	r2, r3
    937a:	f200 80d5 	bhi.w	9528 <TEE_AllocateOperation+0xbe8>
    937e:	68ba      	ldr	r2, [r7, #8]
    9380:	f240 1313 	movw	r3, #275	; 0x113
    9384:	f2c1 0300 	movt	r3, #4096	; 0x1000
    9388:	429a      	cmp	r2, r3
    938a:	d22a      	bcs.n	93e2 <TEE_AllocateOperation+0xaa2>
    938c:	68ba      	ldr	r2, [r7, #8]
    938e:	f240 1311 	movw	r3, #273	; 0x111
    9392:	f2c1 0300 	movt	r3, #4096	; 0x1000
    9396:	429a      	cmp	r2, r3
    9398:	f200 80c6 	bhi.w	9528 <TEE_AllocateOperation+0xbe8>
    939c:	68ba      	ldr	r2, [r7, #8]
    939e:	f44f 7388 	mov.w	r3, #272	; 0x110
    93a2:	f2c1 0300 	movt	r3, #4096	; 0x1000
    93a6:	429a      	cmp	r2, r3
    93a8:	d21b      	bcs.n	93e2 <TEE_AllocateOperation+0xaa2>
    93aa:	68ba      	ldr	r2, [r7, #8]
    93ac:	f04f 0311 	mov.w	r3, #17
    93b0:	f2c1 0300 	movt	r3, #4096	; 0x1000
    93b4:	429a      	cmp	r2, r3
    93b6:	d807      	bhi.n	93c8 <TEE_AllocateOperation+0xa88>
    93b8:	68ba      	ldr	r2, [r7, #8]
    93ba:	f04f 0310 	mov.w	r3, #16
    93be:	f2c1 0300 	movt	r3, #4096	; 0x1000
    93c2:	429a      	cmp	r2, r3
    93c4:	d20d      	bcs.n	93e2 <TEE_AllocateOperation+0xaa2>
    93c6:	e0af      	b.n	9528 <TEE_AllocateOperation+0xbe8>
    93c8:	68bb      	ldr	r3, [r7, #8]
    93ca:	f103 4370 	add.w	r3, r3, #4026531840	; 0xf0000000
    93ce:	f1a3 0313 	sub.w	r3, r3, #19
    93d2:	2b01      	cmp	r3, #1
    93d4:	f200 80a8 	bhi.w	9528 <TEE_AllocateOperation+0xbe8>
    93d8:	e003      	b.n	93e2 <TEE_AllocateOperation+0xaa2>
/home/qemu-sgx/devel/optee/optee_os/lib/libutee/tee_api_operations.c:117
    93da:	f04f 0301 	mov.w	r3, #1
    93de:	f887 3026 	strb.w	r3, [r7, #38]	; 0x26
/home/qemu-sgx/devel/optee/optee_os/lib/libutee/tee_api_operations.c:129
    93e2:	68b8      	ldr	r0, [r7, #8]
    93e4:	f7ff f957 	bl	8696 <__tee_alg_get_main_alg>
    93e8:	4603      	mov	r3, r0
    93ea:	2b10      	cmp	r3, #16
    93ec:	d103      	bne.n	93f6 <TEE_AllocateOperation+0xab6>
/home/qemu-sgx/devel/optee/optee_os/lib/libutee/tee_api_operations.c:130
    93ee:	f04f 0310 	mov.w	r3, #16
    93f2:	62fb      	str	r3, [r7, #44]	; 0x2c
    93f4:	e00c      	b.n	9410 <TEE_AllocateOperation+0xad0>
/home/qemu-sgx/devel/optee/optee_os/lib/libutee/tee_api_operations.c:131
    93f6:	68b8      	ldr	r0, [r7, #8]
    93f8:	f7ff f94d 	bl	8696 <__tee_alg_get_main_alg>
    93fc:	4603      	mov	r3, r0
    93fe:	2b14      	cmp	r3, #20
    9400:	d103      	bne.n	940a <TEE_AllocateOperation+0xaca>
/home/qemu-sgx/devel/optee/optee_os/lib/libutee/tee_api_operations.c:132
    9402:	f04f 0310 	mov.w	r3, #16
    9406:	62fb      	str	r3, [r7, #44]	; 0x2c
    9408:	e002      	b.n	9410 <TEE_AllocateOperation+0xad0>
/home/qemu-sgx/devel/optee/optee_os/lib/libutee/tee_api_operations.c:134
    940a:	f04f 0308 	mov.w	r3, #8
    940e:	62fb      	str	r3, [r7, #44]	; 0x2c
/home/qemu-sgx/devel/optee/optee_os/lib/libutee/tee_api_operations.c:138
    9410:	687b      	ldr	r3, [r7, #4]
    9412:	2b00      	cmp	r3, #0
    9414:	d103      	bne.n	941e <TEE_AllocateOperation+0xade>
/home/qemu-sgx/devel/optee/optee_os/lib/libutee/tee_api_operations.c:139
    9416:	f04f 0302 	mov.w	r3, #2
    941a:	62bb      	str	r3, [r7, #40]	; 0x28
/home/qemu-sgx/devel/optee/optee_os/lib/libutee/tee_api_operations.c:144
    941c:	e089      	b.n	9532 <TEE_AllocateOperation+0xbf2>
/home/qemu-sgx/devel/optee/optee_os/lib/libutee/tee_api_operations.c:140
    941e:	687b      	ldr	r3, [r7, #4]
    9420:	2b01      	cmp	r3, #1
    9422:	d103      	bne.n	942c <TEE_AllocateOperation+0xaec>
/home/qemu-sgx/devel/optee/optee_os/lib/libutee/tee_api_operations.c:141
    9424:	f04f 0304 	mov.w	r3, #4
    9428:	62bb      	str	r3, [r7, #40]	; 0x28
/home/qemu-sgx/devel/optee/optee_os/lib/libutee/tee_api_operations.c:144
    942a:	e082      	b.n	9532 <TEE_AllocateOperation+0xbf2>
/home/qemu-sgx/devel/optee/optee_os/lib/libutee/tee_api_operations.c:143
    942c:	f04f 030a 	mov.w	r3, #10
    9430:	f6cf 73ff 	movt	r3, #65535	; 0xffff
    9434:	e17d      	b.n	9732 <TEE_AllocateOperation+0xdf2>
/home/qemu-sgx/devel/optee/optee_os/lib/libutee/tee_api_operations.c:169
    9436:	687b      	ldr	r3, [r7, #4]
    9438:	2b02      	cmp	r3, #2
    943a:	d107      	bne.n	944c <TEE_AllocateOperation+0xb0c>
/home/qemu-sgx/devel/optee/optee_os/lib/libutee/tee_api_operations.c:170
    943c:	f04f 0301 	mov.w	r3, #1
    9440:	f887 3027 	strb.w	r3, [r7, #39]	; 0x27
/home/qemu-sgx/devel/optee/optee_os/lib/libutee/tee_api_operations.c:171
    9444:	f04f 0310 	mov.w	r3, #16
    9448:	62bb      	str	r3, [r7, #40]	; 0x28
/home/qemu-sgx/devel/optee/optee_os/lib/libutee/tee_api_operations.c:177
    944a:	e072      	b.n	9532 <TEE_AllocateOperation+0xbf2>
/home/qemu-sgx/devel/optee/optee_os/lib/libutee/tee_api_operations.c:172
    944c:	687b      	ldr	r3, [r7, #4]
    944e:	2b03      	cmp	r3, #3
    9450:	d103      	bne.n	945a <TEE_AllocateOperation+0xb1a>
/home/qemu-sgx/devel/optee/optee_os/lib/libutee/tee_api_operations.c:173
    9452:	f04f 0320 	mov.w	r3, #32
    9456:	62bb      	str	r3, [r7, #40]	; 0x28
/home/qemu-sgx/devel/optee/optee_os/lib/libutee/tee_api_operations.c:177
    9458:	e06b      	b.n	9532 <TEE_AllocateOperation+0xbf2>
/home/qemu-sgx/devel/optee/optee_os/lib/libutee/tee_api_operations.c:175
    945a:	f04f 030a 	mov.w	r3, #10
    945e:	f6cf 73ff 	movt	r3, #65535	; 0xffff
    9462:	e166      	b.n	9732 <TEE_AllocateOperation+0xdf2>
/home/qemu-sgx/devel/optee/optee_os/lib/libutee/tee_api_operations.c:186
    9464:	687b      	ldr	r3, [r7, #4]
    9466:	2b00      	cmp	r3, #0
    9468:	d103      	bne.n	9472 <TEE_AllocateOperation+0xb32>
/home/qemu-sgx/devel/optee/optee_os/lib/libutee/tee_api_operations.c:187
    946a:	f04f 0302 	mov.w	r3, #2
    946e:	62bb      	str	r3, [r7, #40]	; 0x28
/home/qemu-sgx/devel/optee/optee_os/lib/libutee/tee_api_operations.c:194
    9470:	e05f      	b.n	9532 <TEE_AllocateOperation+0xbf2>
/home/qemu-sgx/devel/optee/optee_os/lib/libutee/tee_api_operations.c:188
    9472:	687b      	ldr	r3, [r7, #4]
    9474:	2b01      	cmp	r3, #1
    9476:	d107      	bne.n	9488 <TEE_AllocateOperation+0xb48>
/home/qemu-sgx/devel/optee/optee_os/lib/libutee/tee_api_operations.c:189
    9478:	f04f 0301 	mov.w	r3, #1
    947c:	f887 3027 	strb.w	r3, [r7, #39]	; 0x27
/home/qemu-sgx/devel/optee/optee_os/lib/libutee/tee_api_operations.c:190
    9480:	f04f 0304 	mov.w	r3, #4
    9484:	62bb      	str	r3, [r7, #40]	; 0x28
/home/qemu-sgx/devel/optee/optee_os/lib/libutee/tee_api_operations.c:194
    9486:	e054      	b.n	9532 <TEE_AllocateOperation+0xbf2>
/home/qemu-sgx/devel/optee/optee_os/lib/libutee/tee_api_operations.c:192
    9488:	f04f 030a 	mov.w	r3, #10
    948c:	f6cf 73ff 	movt	r3, #65535	; 0xffff
    9490:	e14f      	b.n	9732 <TEE_AllocateOperation+0xdf2>
/home/qemu-sgx/devel/optee/optee_os/lib/libutee/tee_api_operations.c:197
    9492:	687b      	ldr	r3, [r7, #4]
    9494:	2b00      	cmp	r3, #0
    9496:	d103      	bne.n	94a0 <TEE_AllocateOperation+0xb60>
/home/qemu-sgx/devel/optee/optee_os/lib/libutee/tee_api_operations.c:198
    9498:	f04f 0322 	mov.w	r3, #34	; 0x22
    949c:	62bb      	str	r3, [r7, #40]	; 0x28
/home/qemu-sgx/devel/optee/optee_os/lib/libutee/tee_api_operations.c:205
    949e:	e048      	b.n	9532 <TEE_AllocateOperation+0xbf2>
/home/qemu-sgx/devel/optee/optee_os/lib/libutee/tee_api_operations.c:199
    94a0:	687b      	ldr	r3, [r7, #4]
    94a2:	2b01      	cmp	r3, #1
    94a4:	d107      	bne.n	94b6 <TEE_AllocateOperation+0xb76>
/home/qemu-sgx/devel/optee/optee_os/lib/libutee/tee_api_operations.c:200
    94a6:	f04f 0301 	mov.w	r3, #1
    94aa:	f887 3027 	strb.w	r3, [r7, #39]	; 0x27
/home/qemu-sgx/devel/optee/optee_os/lib/libutee/tee_api_operations.c:201
    94ae:	f04f 0314 	mov.w	r3, #20
    94b2:	62bb      	str	r3, [r7, #40]	; 0x28
/home/qemu-sgx/devel/optee/optee_os/lib/libutee/tee_api_operations.c:205
    94b4:	e03d      	b.n	9532 <TEE_AllocateOperation+0xbf2>
/home/qemu-sgx/devel/optee/optee_os/lib/libutee/tee_api_operations.c:203
    94b6:	f04f 030a 	mov.w	r3, #10
    94ba:	f6cf 73ff 	movt	r3, #65535	; 0xffff
    94be:	e138      	b.n	9732 <TEE_AllocateOperation+0xdf2>
/home/qemu-sgx/devel/optee/optee_os/lib/libutee/tee_api_operations.c:226
    94c0:	687b      	ldr	r3, [r7, #4]
    94c2:	2b06      	cmp	r3, #6
    94c4:	d004      	beq.n	94d0 <TEE_AllocateOperation+0xb90>
/home/qemu-sgx/devel/optee/optee_os/lib/libutee/tee_api_operations.c:227
    94c6:	f04f 030a 	mov.w	r3, #10
    94ca:	f6cf 73ff 	movt	r3, #65535	; 0xffff
    94ce:	e130      	b.n	9732 <TEE_AllocateOperation+0xdf2>
/home/qemu-sgx/devel/optee/optee_os/lib/libutee/tee_api_operations.c:228
    94d0:	f04f 0301 	mov.w	r3, #1
    94d4:	f887 3027 	strb.w	r3, [r7, #39]	; 0x27
/home/qemu-sgx/devel/optee/optee_os/lib/libutee/tee_api_operations.c:229
    94d8:	f04f 0340 	mov.w	r3, #64	; 0x40
    94dc:	62bb      	str	r3, [r7, #40]	; 0x28
/home/qemu-sgx/devel/optee/optee_os/lib/libutee/tee_api_operations.c:230
    94de:	e028      	b.n	9532 <TEE_AllocateOperation+0xbf2>
/home/qemu-sgx/devel/optee/optee_os/lib/libutee/tee_api_operations.c:239
    94e0:	687b      	ldr	r3, [r7, #4]
    94e2:	2b05      	cmp	r3, #5
    94e4:	d004      	beq.n	94f0 <TEE_AllocateOperation+0xbb0>
/home/qemu-sgx/devel/optee/optee_os/lib/libutee/tee_api_operations.c:240
    94e6:	f04f 030a 	mov.w	r3, #10
    94ea:	f6cf 73ff 	movt	r3, #65535	; 0xffff
    94ee:	e120      	b.n	9732 <TEE_AllocateOperation+0xdf2>
/home/qemu-sgx/devel/optee/optee_os/lib/libutee/tee_api_operations.c:241
    94f0:	683b      	ldr	r3, [r7, #0]
    94f2:	2b00      	cmp	r3, #0
    94f4:	d004      	beq.n	9500 <TEE_AllocateOperation+0xbc0>
/home/qemu-sgx/devel/optee/optee_os/lib/libutee/tee_api_operations.c:242
    94f6:	f04f 030a 	mov.w	r3, #10
    94fa:	f6cf 73ff 	movt	r3, #65535	; 0xffff
    94fe:	e118      	b.n	9732 <TEE_AllocateOperation+0xdf2>
/home/qemu-sgx/devel/optee/optee_os/lib/libutee/tee_api_operations.c:244
    9500:	6b3b      	ldr	r3, [r7, #48]	; 0x30
    9502:	f443 2380 	orr.w	r3, r3, #262144	; 0x40000
    9506:	633b      	str	r3, [r7, #48]	; 0x30
/home/qemu-sgx/devel/optee/optee_os/lib/libutee/tee_api_operations.c:245
    9508:	f04f 0300 	mov.w	r3, #0
    950c:	62bb      	str	r3, [r7, #40]	; 0x28
/home/qemu-sgx/devel/optee/optee_os/lib/libutee/tee_api_operations.c:246
    950e:	e010      	b.n	9532 <TEE_AllocateOperation+0xbf2>
/home/qemu-sgx/devel/optee/optee_os/lib/libutee/tee_api_operations.c:263
    9510:	687b      	ldr	r3, [r7, #4]
    9512:	2b04      	cmp	r3, #4
    9514:	d004      	beq.n	9520 <TEE_AllocateOperation+0xbe0>
/home/qemu-sgx/devel/optee/optee_os/lib/libutee/tee_api_operations.c:264
    9516:	f04f 030a 	mov.w	r3, #10
    951a:	f6cf 73ff 	movt	r3, #65535	; 0xffff
    951e:	e108      	b.n	9732 <TEE_AllocateOperation+0xdf2>
/home/qemu-sgx/devel/optee/optee_os/lib/libutee/tee_api_operations.c:265
    9520:	f04f 0308 	mov.w	r3, #8
    9524:	62bb      	str	r3, [r7, #40]	; 0x28
/home/qemu-sgx/devel/optee/optee_os/lib/libutee/tee_api_operations.c:266
    9526:	e004      	b.n	9532 <TEE_AllocateOperation+0xbf2>
/home/qemu-sgx/devel/optee/optee_os/lib/libutee/tee_api_operations.c:269
    9528:	f04f 030a 	mov.w	r3, #10
    952c:	f6cf 73ff 	movt	r3, #65535	; 0xffff
    9530:	e0ff      	b.n	9732 <TEE_AllocateOperation+0xdf2>
/home/qemu-sgx/devel/optee/optee_os/lib/libutee/tee_api_operations.c:272
    9532:	f04f 0100 	mov.w	r1, #0
    9536:	f04f 0040 	mov.w	r0, #64	; 0x40
    953a:	f7f9 ee1c 	blx	3174 <TEE_Malloc@plt>
    953e:	61b8      	str	r0, [r7, #24]
/home/qemu-sgx/devel/optee/optee_os/lib/libutee/tee_api_operations.c:273
    9540:	69bb      	ldr	r3, [r7, #24]
    9542:	2b00      	cmp	r3, #0
    9544:	d104      	bne.n	9550 <TEE_AllocateOperation+0xc10>
/home/qemu-sgx/devel/optee/optee_os/lib/libutee/tee_api_operations.c:274
    9546:	f04f 030c 	mov.w	r3, #12
    954a:	f6cf 73ff 	movt	r3, #65535	; 0xffff
    954e:	e0f0      	b.n	9732 <TEE_AllocateOperation+0xdf2>
/home/qemu-sgx/devel/optee/optee_os/lib/libutee/tee_api_operations.c:276
    9550:	69bb      	ldr	r3, [r7, #24]
    9552:	68ba      	ldr	r2, [r7, #8]
    9554:	601a      	str	r2, [r3, #0]
/home/qemu-sgx/devel/optee/optee_os/lib/libutee/tee_api_operations.c:277
    9556:	68b8      	ldr	r0, [r7, #8]
    9558:	f7ff f866 	bl	8628 <__tee_alg_get_class>
    955c:	4602      	mov	r2, r0
    955e:	69bb      	ldr	r3, [r7, #24]
    9560:	605a      	str	r2, [r3, #4]
/home/qemu-sgx/devel/optee/optee_os/lib/libutee/tee_api_operations.c:279
    9562:	68ba      	ldr	r2, [r7, #8]
    9564:	f44f 6303 	mov.w	r3, #2096	; 0x830
    9568:	f2cf 0300 	movt	r3, #61440	; 0xf000
    956c:	429a      	cmp	r2, r3
    956e:	d103      	bne.n	9578 <TEE_AllocateOperation+0xc38>
/home/qemu-sgx/devel/optee/optee_os/lib/libutee/tee_api_operations.c:280
    9570:	69bb      	ldr	r3, [r7, #24]
    9572:	f04f 0207 	mov.w	r2, #7
    9576:	605a      	str	r2, [r3, #4]
/home/qemu-sgx/devel/optee/optee_os/lib/libutee/tee_api_operations.c:282
    9578:	69bb      	ldr	r3, [r7, #24]
    957a:	687a      	ldr	r2, [r7, #4]
    957c:	609a      	str	r2, [r3, #8]
/home/qemu-sgx/devel/optee/optee_os/lib/libutee/tee_api_operations.c:283
    957e:	68b8      	ldr	r0, [r7, #8]
    9580:	f7ff f8c7 	bl	8712 <__tee_alg_get_digest_size>
    9584:	4602      	mov	r2, r0
    9586:	69bb      	ldr	r3, [r7, #24]
    9588:	60da      	str	r2, [r3, #12]
/home/qemu-sgx/devel/optee/optee_os/lib/libutee/tee_api_operations.c:284
    958a:	69bb      	ldr	r3, [r7, #24]
    958c:	683a      	ldr	r2, [r7, #0]
    958e:	611a      	str	r2, [r3, #16]
/home/qemu-sgx/devel/optee/optee_os/lib/libutee/tee_api_operations.c:285
    9590:	69bb      	ldr	r3, [r7, #24]
    9592:	6aba      	ldr	r2, [r7, #40]	; 0x28
    9594:	619a      	str	r2, [r3, #24]
/home/qemu-sgx/devel/optee/optee_os/lib/libutee/tee_api_operations.c:286
    9596:	69bb      	ldr	r3, [r7, #24]
    9598:	6b3a      	ldr	r2, [r7, #48]	; 0x30
    959a:	61da      	str	r2, [r3, #28]
/home/qemu-sgx/devel/optee/optee_os/lib/libutee/tee_api_operations.c:288
    959c:	6afb      	ldr	r3, [r7, #44]	; 0x2c
    959e:	2b01      	cmp	r3, #1
    95a0:	d91b      	bls.n	95da <TEE_AllocateOperation+0xc9a>
/home/qemu-sgx/devel/optee/optee_os/lib/libutee/tee_api_operations.c:289
    95a2:	6afb      	ldr	r3, [r7, #44]	; 0x2c
    95a4:	623b      	str	r3, [r7, #32]
/home/qemu-sgx/devel/optee/optee_os/lib/libutee/tee_api_operations.c:291
    95a6:	f897 3026 	ldrb.w	r3, [r7, #38]	; 0x26
    95aa:	2b00      	cmp	r3, #0
    95ac:	d003      	beq.n	95b6 <TEE_AllocateOperation+0xc76>
/home/qemu-sgx/devel/optee/optee_os/lib/libutee/tee_api_operations.c:292
    95ae:	6a3b      	ldr	r3, [r7, #32]
    95b0:	ea4f 0343 	mov.w	r3, r3, lsl #1
    95b4:	623b      	str	r3, [r7, #32]
/home/qemu-sgx/devel/optee/optee_os/lib/libutee/tee_api_operations.c:294
    95b6:	f04f 4100 	mov.w	r1, #2147483648	; 0x80000000
    95ba:	6a38      	ldr	r0, [r7, #32]
    95bc:	f7f9 edda 	blx	3174 <TEE_Malloc@plt>
    95c0:	4602      	mov	r2, r0
    95c2:	69bb      	ldr	r3, [r7, #24]
    95c4:	62da      	str	r2, [r3, #44]	; 0x2c
/home/qemu-sgx/devel/optee/optee_os/lib/libutee/tee_api_operations.c:296
    95c6:	69bb      	ldr	r3, [r7, #24]
    95c8:	6adb      	ldr	r3, [r3, #44]	; 0x2c
    95ca:	2b00      	cmp	r3, #0
    95cc:	d105      	bne.n	95da <TEE_AllocateOperation+0xc9a>
/home/qemu-sgx/devel/optee/optee_os/lib/libutee/tee_api_operations.c:297
    95ce:	f04f 030c 	mov.w	r3, #12
    95d2:	f6cf 73ff 	movt	r3, #65535	; 0xffff
    95d6:	637b      	str	r3, [r7, #52]	; 0x34
/home/qemu-sgx/devel/optee/optee_os/lib/libutee/tee_api_operations.c:298
    95d8:	e079      	b.n	96ce <TEE_AllocateOperation+0xd8e>
/home/qemu-sgx/devel/optee/optee_os/lib/libutee/tee_api_operations.c:301
    95da:	69bb      	ldr	r3, [r7, #24]
    95dc:	6afa      	ldr	r2, [r7, #44]	; 0x2c
    95de:	635a      	str	r2, [r3, #52]	; 0x34
/home/qemu-sgx/devel/optee/optee_os/lib/libutee/tee_api_operations.c:302
    95e0:	69bb      	ldr	r3, [r7, #24]
    95e2:	f897 2026 	ldrb.w	r2, [r7, #38]	; 0x26
    95e6:	f883 2030 	strb.w	r2, [r3, #48]	; 0x30
/home/qemu-sgx/devel/optee/optee_os/lib/libutee/tee_api_operations.c:304
    95ea:	68b8      	ldr	r0, [r7, #8]
    95ec:	f7ff f81c 	bl	8628 <__tee_alg_get_class>
    95f0:	4603      	mov	r3, r0
    95f2:	2b05      	cmp	r3, #5
    95f4:	d030      	beq.n	9658 <TEE_AllocateOperation+0xd18>
/home/qemu-sgx/devel/optee/optee_os/lib/libutee/tee_api_operations.c:305
    95f6:	683b      	ldr	r3, [r7, #0]
    95f8:	61fb      	str	r3, [r7, #28]
/home/qemu-sgx/devel/optee/optee_os/lib/libutee/tee_api_operations.c:306
    95fa:	f897 3027 	ldrb.w	r3, [r7, #39]	; 0x27
    95fe:	4619      	mov	r1, r3
    9600:	68b8      	ldr	r0, [r7, #8]
    9602:	f7ff f86b 	bl	86dc <__tee_alg_get_key_type>
    9606:	6178      	str	r0, [r7, #20]
/home/qemu-sgx/devel/optee/optee_os/lib/libutee/tee_api_operations.c:313
    9608:	69bb      	ldr	r3, [r7, #24]
    960a:	69db      	ldr	r3, [r3, #28]
    960c:	f403 2300 	and.w	r3, r3, #524288	; 0x80000
    9610:	2b00      	cmp	r3, #0
    9612:	d003      	beq.n	961c <TEE_AllocateOperation+0xcdc>
/home/qemu-sgx/devel/optee/optee_os/lib/libutee/tee_api_operations.c:314
    9614:	69fb      	ldr	r3, [r7, #28]
    9616:	ea4f 0353 	mov.w	r3, r3, lsr #1
    961a:	61fb      	str	r3, [r7, #28]
/home/qemu-sgx/devel/optee/optee_os/lib/libutee/tee_api_operations.c:316
    961c:	69bb      	ldr	r3, [r7, #24]
    961e:	f103 0320 	add.w	r3, r3, #32
    9622:	461a      	mov	r2, r3
    9624:	69f9      	ldr	r1, [r7, #28]
    9626:	6978      	ldr	r0, [r7, #20]
    9628:	f7f9 eebe 	blx	33a8 <TEE_AllocateTransientObject@plt>
    962c:	6378      	str	r0, [r7, #52]	; 0x34
/home/qemu-sgx/devel/optee/optee_os/lib/libutee/tee_api_operations.c:317
    962e:	6b7b      	ldr	r3, [r7, #52]	; 0x34
    9630:	2b00      	cmp	r3, #0
    9632:	d145      	bne.n	96c0 <TEE_AllocateOperation+0xd80>
/home/qemu-sgx/devel/optee/optee_os/lib/libutee/tee_api_operations.c:320
    9634:	69bb      	ldr	r3, [r7, #24]
    9636:	69db      	ldr	r3, [r3, #28]
    9638:	f403 2300 	and.w	r3, r3, #524288	; 0x80000
    963c:	2b00      	cmp	r3, #0
    963e:	d00b      	beq.n	9658 <TEE_AllocateOperation+0xd18>
/home/qemu-sgx/devel/optee/optee_os/lib/libutee/tee_api_operations.c:321
    9640:	69bb      	ldr	r3, [r7, #24]
    9642:	f103 0324 	add.w	r3, r3, #36	; 0x24
    9646:	461a      	mov	r2, r3
    9648:	69f9      	ldr	r1, [r7, #28]
    964a:	6978      	ldr	r0, [r7, #20]
    964c:	f7f9 eeac 	blx	33a8 <TEE_AllocateTransientObject@plt>
    9650:	6378      	str	r0, [r7, #52]	; 0x34
/home/qemu-sgx/devel/optee/optee_os/lib/libutee/tee_api_operations.c:323
    9652:	6b7b      	ldr	r3, [r7, #52]	; 0x34
    9654:	2b00      	cmp	r3, #0
    9656:	d135      	bne.n	96c4 <TEE_AllocateOperation+0xd84>
/home/qemu-sgx/devel/optee/optee_os/lib/libutee/tee_api_operations.c:328
    9658:	69bb      	ldr	r3, [r7, #24]
    965a:	6a1b      	ldr	r3, [r3, #32]
    965c:	461a      	mov	r2, r3
/home/qemu-sgx/devel/optee/optee_os/lib/libutee/tee_api_operations.c:329
    965e:	69bb      	ldr	r3, [r7, #24]
    9660:	6a5b      	ldr	r3, [r3, #36]	; 0x24
/home/qemu-sgx/devel/optee/optee_os/lib/libutee/tee_api_operations.c:328
    9662:	4619      	mov	r1, r3
    9664:	69bb      	ldr	r3, [r7, #24]
    9666:	f103 033c 	add.w	r3, r3, #60	; 0x3c
    966a:	9300      	str	r3, [sp, #0]
    966c:	460b      	mov	r3, r1
    966e:	6879      	ldr	r1, [r7, #4]
    9670:	68b8      	ldr	r0, [r7, #8]
    9672:	f7f9 ee28 	blx	32c4 <_utee_cryp_state_alloc@plt>
    9676:	6378      	str	r0, [r7, #52]	; 0x34
/home/qemu-sgx/devel/optee/optee_os/lib/libutee/tee_api_operations.c:330
    9678:	6b7b      	ldr	r3, [r7, #52]	; 0x34
    967a:	2b00      	cmp	r3, #0
    967c:	d124      	bne.n	96c8 <TEE_AllocateOperation+0xd88>
/home/qemu-sgx/devel/optee/optee_os/lib/libutee/tee_api_operations.c:338
    967e:	68b8      	ldr	r0, [r7, #8]
    9680:	f7fe ffd2 	bl	8628 <__tee_alg_get_class>
    9684:	4603      	mov	r3, r0
    9686:	2b05      	cmp	r3, #5
    9688:	d112      	bne.n	96b0 <TEE_AllocateOperation+0xd70>
/home/qemu-sgx/devel/optee/optee_os/lib/libutee/tee_api_operations.c:339
    968a:	69bb      	ldr	r3, [r7, #24]
    968c:	6bdb      	ldr	r3, [r3, #60]	; 0x3c
    968e:	f04f 0200 	mov.w	r2, #0
    9692:	f04f 0100 	mov.w	r1, #0
    9696:	4618      	mov	r0, r3
    9698:	f7f9 ecca 	blx	3030 <_utee_hash_init@plt>
    969c:	6378      	str	r0, [r7, #52]	; 0x34
/home/qemu-sgx/devel/optee/optee_os/lib/libutee/tee_api_operations.c:340
    969e:	6b7b      	ldr	r3, [r7, #52]	; 0x34
    96a0:	2b00      	cmp	r3, #0
    96a2:	d113      	bne.n	96cc <TEE_AllocateOperation+0xd8c>
/home/qemu-sgx/devel/optee/optee_os/lib/libutee/tee_api_operations.c:343
    96a4:	69bb      	ldr	r3, [r7, #24]
    96a6:	69db      	ldr	r3, [r3, #28]
    96a8:	f443 3200 	orr.w	r2, r3, #131072	; 0x20000
    96ac:	69bb      	ldr	r3, [r7, #24]
    96ae:	61da      	str	r2, [r3, #28]
/home/qemu-sgx/devel/optee/optee_os/lib/libutee/tee_api_operations.c:346
    96b0:	69bb      	ldr	r3, [r7, #24]
    96b2:	f04f 0200 	mov.w	r2, #0
    96b6:	629a      	str	r2, [r3, #40]	; 0x28
/home/qemu-sgx/devel/optee/optee_os/lib/libutee/tee_api_operations.c:348
    96b8:	68fb      	ldr	r3, [r7, #12]
    96ba:	69ba      	ldr	r2, [r7, #24]
    96bc:	601a      	str	r2, [r3, #0]
    96be:	e006      	b.n	96ce <TEE_AllocateOperation+0xd8e>
/home/qemu-sgx/devel/optee/optee_os/lib/libutee/tee_api_operations.c:318
    96c0:	bf00      	nop
    96c2:	e004      	b.n	96ce <TEE_AllocateOperation+0xd8e>
/home/qemu-sgx/devel/optee/optee_os/lib/libutee/tee_api_operations.c:324
    96c4:	bf00      	nop
    96c6:	e002      	b.n	96ce <TEE_AllocateOperation+0xd8e>
/home/qemu-sgx/devel/optee/optee_os/lib/libutee/tee_api_operations.c:331
    96c8:	bf00      	nop
    96ca:	e000      	b.n	96ce <TEE_AllocateOperation+0xd8e>
/home/qemu-sgx/devel/optee/optee_os/lib/libutee/tee_api_operations.c:341
    96cc:	bf00      	nop
/home/qemu-sgx/devel/optee/optee_os/lib/libutee/tee_api_operations.c:351
    96ce:	6b7b      	ldr	r3, [r7, #52]	; 0x34
    96d0:	2b00      	cmp	r3, #0
    96d2:	d02d      	beq.n	9730 <TEE_AllocateOperation+0xdf0>
/home/qemu-sgx/devel/optee/optee_os/lib/libutee/tee_api_operations.c:352
    96d4:	6b7a      	ldr	r2, [r7, #52]	; 0x34
    96d6:	f04f 030c 	mov.w	r3, #12
    96da:	f6cf 73ff 	movt	r3, #65535	; 0xffff
    96de:	429a      	cmp	r2, r3
    96e0:	d009      	beq.n	96f6 <TEE_AllocateOperation+0xdb6>
/home/qemu-sgx/devel/optee/optee_os/lib/libutee/tee_api_operations.c:352 (discriminator 1)
    96e2:	6b7a      	ldr	r2, [r7, #52]	; 0x34
    96e4:	f04f 030a 	mov.w	r3, #10
    96e8:	f6cf 73ff 	movt	r3, #65535	; 0xffff
    96ec:	429a      	cmp	r2, r3
    96ee:	d002      	beq.n	96f6 <TEE_AllocateOperation+0xdb6>
/home/qemu-sgx/devel/optee/optee_os/lib/libutee/tee_api_operations.c:354
    96f0:	6b78      	ldr	r0, [r7, #52]	; 0x34
    96f2:	f7f9 ecb6 	blx	3060 <TEE_Panic@plt>
/home/qemu-sgx/devel/optee/optee_os/lib/libutee/tee_api_operations.c:355
    96f6:	69bb      	ldr	r3, [r7, #24]
    96f8:	2b00      	cmp	r3, #0
    96fa:	d019      	beq.n	9730 <TEE_AllocateOperation+0xdf0>
/home/qemu-sgx/devel/optee/optee_os/lib/libutee/tee_api_operations.c:356
    96fc:	69bb      	ldr	r3, [r7, #24]
    96fe:	6bdb      	ldr	r3, [r3, #60]	; 0x3c
    9700:	2b00      	cmp	r3, #0
    9702:	d003      	beq.n	970c <TEE_AllocateOperation+0xdcc>
/home/qemu-sgx/devel/optee/optee_os/lib/libutee/tee_api_operations.c:357
    9704:	69b8      	ldr	r0, [r7, #24]
    9706:	f7f9 ed48 	blx	3198 <TEE_FreeOperation@plt>
    970a:	e011      	b.n	9730 <TEE_AllocateOperation+0xdf0>
/home/qemu-sgx/devel/optee/optee_os/lib/libutee/tee_api_operations.c:359
    970c:	69bb      	ldr	r3, [r7, #24]
    970e:	6adb      	ldr	r3, [r3, #44]	; 0x2c
    9710:	4618      	mov	r0, r3
    9712:	f7f9 ee56 	blx	33c0 <TEE_Free@plt>
/home/qemu-sgx/devel/optee/optee_os/lib/libutee/tee_api_operations.c:360
    9716:	69bb      	ldr	r3, [r7, #24]
    9718:	6a1b      	ldr	r3, [r3, #32]
    971a:	4618      	mov	r0, r3
    971c:	f7f9 ed66 	blx	31ec <TEE_FreeTransientObject@plt>
/home/qemu-sgx/devel/optee/optee_os/lib/libutee/tee_api_operations.c:361
    9720:	69bb      	ldr	r3, [r7, #24]
    9722:	6a5b      	ldr	r3, [r3, #36]	; 0x24
    9724:	4618      	mov	r0, r3
    9726:	f7f9 ed62 	blx	31ec <TEE_FreeTransientObject@plt>
/home/qemu-sgx/devel/optee/optee_os/lib/libutee/tee_api_operations.c:362
    972a:	69b8      	ldr	r0, [r7, #24]
    972c:	f7f9 ee48 	blx	33c0 <TEE_Free@plt>
/home/qemu-sgx/devel/optee/optee_os/lib/libutee/tee_api_operations.c:367
    9730:	6b7b      	ldr	r3, [r7, #52]	; 0x34
/home/qemu-sgx/devel/optee/optee_os/lib/libutee/tee_api_operations.c:368
    9732:	4618      	mov	r0, r3
    9734:	f107 0738 	add.w	r7, r7, #56	; 0x38
    9738:	46bd      	mov	sp, r7
    973a:	bd80      	pop	{r7, pc}

0000973c <TEE_FreeOperation>:
TEE_FreeOperation():
/home/qemu-sgx/devel/optee/optee_os/lib/libutee/tee_api_operations.c:371
    973c:	e96d 7e02 	strd	r7, lr, [sp, #-8]!
    9740:	b084      	sub	sp, #16
    9742:	af00      	add	r7, sp, #0
    9744:	6078      	str	r0, [r7, #4]
/home/qemu-sgx/devel/optee/optee_os/lib/libutee/tee_api_operations.c:374
    9746:	687b      	ldr	r3, [r7, #4]
    9748:	2b00      	cmp	r3, #0
    974a:	d103      	bne.n	9754 <TEE_FreeOperation+0x18>
/home/qemu-sgx/devel/optee/optee_os/lib/libutee/tee_api_operations.c:375
    974c:	f04f 0000 	mov.w	r0, #0
    9750:	f7f9 ec86 	blx	3060 <TEE_Panic@plt>
/home/qemu-sgx/devel/optee/optee_os/lib/libutee/tee_api_operations.c:382
    9754:	687b      	ldr	r3, [r7, #4]
    9756:	6bdb      	ldr	r3, [r3, #60]	; 0x3c
    9758:	4618      	mov	r0, r3
    975a:	f7f9 edd8 	blx	330c <_utee_cryp_state_free@plt>
    975e:	60f8      	str	r0, [r7, #12]
/home/qemu-sgx/devel/optee/optee_os/lib/libutee/tee_api_operations.c:383
    9760:	68fb      	ldr	r3, [r7, #12]
    9762:	2b00      	cmp	r3, #0
    9764:	d002      	beq.n	976c <TEE_FreeOperation+0x30>
/home/qemu-sgx/devel/optee/optee_os/lib/libutee/tee_api_operations.c:384
    9766:	68f8      	ldr	r0, [r7, #12]
    9768:	f7f9 ec7a 	blx	3060 <TEE_Panic@plt>
/home/qemu-sgx/devel/optee/optee_os/lib/libutee/tee_api_operations.c:386
    976c:	687b      	ldr	r3, [r7, #4]
    976e:	6adb      	ldr	r3, [r3, #44]	; 0x2c
    9770:	4618      	mov	r0, r3
    9772:	f7f9 ee26 	blx	33c0 <TEE_Free@plt>
/home/qemu-sgx/devel/optee/optee_os/lib/libutee/tee_api_operations.c:387
    9776:	6878      	ldr	r0, [r7, #4]
    9778:	f7f9 ee22 	blx	33c0 <TEE_Free@plt>
/home/qemu-sgx/devel/optee/optee_os/lib/libutee/tee_api_operations.c:388
    977c:	bf00      	nop
    977e:	f107 0710 	add.w	r7, r7, #16
    9782:	46bd      	mov	sp, r7
    9784:	bd80      	pop	{r7, pc}

00009786 <TEE_GetOperationInfo>:
TEE_GetOperationInfo():
/home/qemu-sgx/devel/optee/optee_os/lib/libutee/tee_api_operations.c:392
    9786:	e96d 7e02 	strd	r7, lr, [sp, #-8]!
    978a:	b082      	sub	sp, #8
    978c:	af00      	add	r7, sp, #0
    978e:	6078      	str	r0, [r7, #4]
    9790:	6039      	str	r1, [r7, #0]
/home/qemu-sgx/devel/optee/optee_os/lib/libutee/tee_api_operations.c:393
    9792:	687b      	ldr	r3, [r7, #4]
    9794:	2b00      	cmp	r3, #0
    9796:	d103      	bne.n	97a0 <TEE_GetOperationInfo+0x1a>
/home/qemu-sgx/devel/optee/optee_os/lib/libutee/tee_api_operations.c:394
    9798:	f04f 0000 	mov.w	r0, #0
    979c:	f7f9 ec60 	blx	3060 <TEE_Panic@plt>
/home/qemu-sgx/devel/optee/optee_os/lib/libutee/tee_api_operations.c:396
    97a0:	f04f 0120 	mov.w	r1, #32
    97a4:	6838      	ldr	r0, [r7, #0]
    97a6:	f7f9 ecb0 	blx	3108 <__utee_check_out_annotation@plt>
/home/qemu-sgx/devel/optee/optee_os/lib/libutee/tee_api_operations.c:398
    97aa:	683b      	ldr	r3, [r7, #0]
    97ac:	687a      	ldr	r2, [r7, #4]
    97ae:	e9d2 0100 	ldrd	r0, r1, [r2]
    97b2:	e9c3 0100 	strd	r0, r1, [r3]
    97b6:	e9d2 0102 	ldrd	r0, r1, [r2, #8]
    97ba:	e9c3 0102 	strd	r0, r1, [r3, #8]
    97be:	e9d2 0104 	ldrd	r0, r1, [r2, #16]
    97c2:	e9c3 0104 	strd	r0, r1, [r3, #16]
    97c6:	e9d2 0106 	ldrd	r0, r1, [r2, #24]
    97ca:	e9c3 0106 	strd	r0, r1, [r3, #24]
/home/qemu-sgx/devel/optee/optee_os/lib/libutee/tee_api_operations.c:399
    97ce:	683b      	ldr	r3, [r7, #0]
    97d0:	69db      	ldr	r3, [r3, #28]
    97d2:	f403 2300 	and.w	r3, r3, #524288	; 0x80000
    97d6:	2b00      	cmp	r3, #0
    97d8:	d007      	beq.n	97ea <TEE_GetOperationInfo+0x64>
/home/qemu-sgx/devel/optee/optee_os/lib/libutee/tee_api_operations.c:400
    97da:	683b      	ldr	r3, [r7, #0]
    97dc:	f04f 0200 	mov.w	r2, #0
    97e0:	615a      	str	r2, [r3, #20]
/home/qemu-sgx/devel/optee/optee_os/lib/libutee/tee_api_operations.c:401
    97e2:	683b      	ldr	r3, [r7, #0]
    97e4:	f04f 0200 	mov.w	r2, #0
    97e8:	619a      	str	r2, [r3, #24]
/home/qemu-sgx/devel/optee/optee_os/lib/libutee/tee_api_operations.c:403
    97ea:	bf00      	nop
    97ec:	f107 0708 	add.w	r7, r7, #8
    97f0:	46bd      	mov	sp, r7
    97f2:	bd80      	pop	{r7, pc}

000097f4 <TEE_GetOperationInfoMultiple>:
TEE_GetOperationInfoMultiple():
/home/qemu-sgx/devel/optee/optee_os/lib/libutee/tee_api_operations.c:408
    97f4:	e96d 7e02 	strd	r7, lr, [sp, #-8]!
    97f8:	b08e      	sub	sp, #56	; 0x38
    97fa:	af00      	add	r7, sp, #0
    97fc:	60f8      	str	r0, [r7, #12]
    97fe:	60b9      	str	r1, [r7, #8]
    9800:	607a      	str	r2, [r7, #4]
/home/qemu-sgx/devel/optee/optee_os/lib/libutee/tee_api_operations.c:409
    9802:	f04f 0300 	mov.w	r3, #0
    9806:	637b      	str	r3, [r7, #52]	; 0x34
/home/qemu-sgx/devel/optee/optee_os/lib/libutee/tee_api_operations.c:410
    9808:	f107 0310 	add.w	r3, r7, #16
    980c:	efc0 0010 	vmov.i32	d16, #0	; 0x00000000
    9810:	edc3 0b00 	vstr	d16, [r3]
    9814:	edc3 0b02 	vstr	d16, [r3, #8]
    9818:	edc3 0b04 	vstr	d16, [r3, #16]
    981c:	edc3 0b05 	vstr	d16, [r3, #20]
/home/qemu-sgx/devel/optee/optee_os/lib/libutee/tee_api_operations.c:411
    9820:	f04f 0300 	mov.w	r3, #0
    9824:	633b      	str	r3, [r7, #48]	; 0x30
/home/qemu-sgx/devel/optee/optee_os/lib/libutee/tee_api_operations.c:412
    9826:	f04f 0300 	mov.w	r3, #0
    982a:	f887 302f 	strb.w	r3, [r7, #47]	; 0x2f
/home/qemu-sgx/devel/optee/optee_os/lib/libutee/tee_api_operations.c:414
    982e:	68fb      	ldr	r3, [r7, #12]
    9830:	2b00      	cmp	r3, #0
    9832:	d105      	bne.n	9840 <TEE_GetOperationInfoMultiple+0x4c>
/home/qemu-sgx/devel/optee/optee_os/lib/libutee/tee_api_operations.c:415
    9834:	f04f 0306 	mov.w	r3, #6
    9838:	f6cf 73ff 	movt	r3, #65535	; 0xffff
    983c:	637b      	str	r3, [r7, #52]	; 0x34
/home/qemu-sgx/devel/optee/optee_os/lib/libutee/tee_api_operations.c:416
    983e:	e0ac      	b.n	999a <TEE_GetOperationInfoMultiple+0x1a6>
/home/qemu-sgx/devel/optee/optee_os/lib/libutee/tee_api_operations.c:419
    9840:	6879      	ldr	r1, [r7, #4]
    9842:	68b8      	ldr	r0, [r7, #8]
    9844:	f7f9 ebc4 	blx	2fd0 <__utee_check_outbuf_annotation@plt>
/home/qemu-sgx/devel/optee/optee_os/lib/libutee/tee_api_operations.c:421
    9848:	687b      	ldr	r3, [r7, #4]
    984a:	681b      	ldr	r3, [r3, #0]
    984c:	2b1f      	cmp	r3, #31
    984e:	d805      	bhi.n	985c <TEE_GetOperationInfoMultiple+0x68>
/home/qemu-sgx/devel/optee/optee_os/lib/libutee/tee_api_operations.c:422
    9850:	f04f 0306 	mov.w	r3, #6
    9854:	f6cf 73ff 	movt	r3, #65535	; 0xffff
    9858:	637b      	str	r3, [r7, #52]	; 0x34
/home/qemu-sgx/devel/optee/optee_os/lib/libutee/tee_api_operations.c:423
    985a:	e09e      	b.n	999a <TEE_GetOperationInfoMultiple+0x1a6>
/home/qemu-sgx/devel/optee/optee_os/lib/libutee/tee_api_operations.c:425
    985c:	687b      	ldr	r3, [r7, #4]
    985e:	681b      	ldr	r3, [r3, #0]
    9860:	f1a3 0320 	sub.w	r3, r3, #32
    9864:	ea4f 03d3 	mov.w	r3, r3, lsr #3
    9868:	633b      	str	r3, [r7, #48]	; 0x30
/home/qemu-sgx/devel/optee/optee_os/lib/libutee/tee_api_operations.c:428
    986a:	687b      	ldr	r3, [r7, #4]
    986c:	681b      	ldr	r3, [r3, #0]
    986e:	461a      	mov	r2, r3
    9870:	f04f 0100 	mov.w	r1, #0
    9874:	68b8      	ldr	r0, [r7, #8]
    9876:	f7f9 ed02 	blx	327c <TEE_MemFill@plt>
/home/qemu-sgx/devel/optee/optee_os/lib/libutee/tee_api_operations.c:431
    987a:	68fb      	ldr	r3, [r7, #12]
    987c:	69db      	ldr	r3, [r3, #28]
    987e:	f403 2300 	and.w	r3, r3, #524288	; 0x80000
    9882:	2b00      	cmp	r3, #0
    9884:	bf14      	ite	ne
    9886:	2301      	movne	r3, #1
    9888:	2300      	moveq	r3, #0
    988a:	f887 302f 	strb.w	r3, [r7, #47]	; 0x2f
/home/qemu-sgx/devel/optee/optee_os/lib/libutee/tee_api_operations.c:433
    988e:	68fb      	ldr	r3, [r7, #12]
    9890:	689b      	ldr	r3, [r3, #8]
    9892:	2b05      	cmp	r3, #5
    9894:	d104      	bne.n	98a0 <TEE_GetOperationInfoMultiple+0xac>
/home/qemu-sgx/devel/optee/optee_os/lib/libutee/tee_api_operations.c:434
    9896:	68bb      	ldr	r3, [r7, #8]
    9898:	f04f 0200 	mov.w	r2, #0
    989c:	61da      	str	r2, [r3, #28]
    989e:	e05a      	b.n	9956 <TEE_GetOperationInfoMultiple+0x162>
/home/qemu-sgx/devel/optee/optee_os/lib/libutee/tee_api_operations.c:435
    98a0:	f897 302f 	ldrb.w	r3, [r7, #47]	; 0x2f
    98a4:	f083 0301 	eor.w	r3, r3, #1
    98a8:	b2db      	uxtb	r3, r3
    98aa:	2b00      	cmp	r3, #0
    98ac:	d020      	beq.n	98f0 <TEE_GetOperationInfoMultiple+0xfc>
/home/qemu-sgx/devel/optee/optee_os/lib/libutee/tee_api_operations.c:436
    98ae:	6b3b      	ldr	r3, [r7, #48]	; 0x30
    98b0:	2b00      	cmp	r3, #0
    98b2:	d105      	bne.n	98c0 <TEE_GetOperationInfoMultiple+0xcc>
/home/qemu-sgx/devel/optee/optee_os/lib/libutee/tee_api_operations.c:437
    98b4:	f04f 0310 	mov.w	r3, #16
    98b8:	f6cf 73ff 	movt	r3, #65535	; 0xffff
    98bc:	637b      	str	r3, [r7, #52]	; 0x34
/home/qemu-sgx/devel/optee/optee_os/lib/libutee/tee_api_operations.c:438
    98be:	e06c      	b.n	999a <TEE_GetOperationInfoMultiple+0x1a6>
/home/qemu-sgx/devel/optee/optee_os/lib/libutee/tee_api_operations.c:441
    98c0:	68fb      	ldr	r3, [r7, #12]
    98c2:	6a1b      	ldr	r3, [r3, #32]
    98c4:	f107 0210 	add.w	r2, r7, #16
    98c8:	4611      	mov	r1, r2
    98ca:	4618      	mov	r0, r3
    98cc:	f7f9 ed0c 	blx	32e8 <TEE_GetObjectInfo1@plt>
    98d0:	6378      	str	r0, [r7, #52]	; 0x34
/home/qemu-sgx/devel/optee/optee_os/lib/libutee/tee_api_operations.c:443
    98d2:	6b7b      	ldr	r3, [r7, #52]	; 0x34
    98d4:	2b00      	cmp	r3, #0
    98d6:	d15b      	bne.n	9990 <TEE_GetOperationInfoMultiple+0x19c>
/home/qemu-sgx/devel/optee/optee_os/lib/libutee/tee_api_operations.c:446
    98d8:	697a      	ldr	r2, [r7, #20]
    98da:	68bb      	ldr	r3, [r7, #8]
    98dc:	621a      	str	r2, [r3, #32]
/home/qemu-sgx/devel/optee/optee_os/lib/libutee/tee_api_operations.c:448
    98de:	68fb      	ldr	r3, [r7, #12]
    98e0:	699a      	ldr	r2, [r3, #24]
/home/qemu-sgx/devel/optee/optee_os/lib/libutee/tee_api_operations.c:447
    98e2:	68bb      	ldr	r3, [r7, #8]
    98e4:	625a      	str	r2, [r3, #36]	; 0x24
/home/qemu-sgx/devel/optee/optee_os/lib/libutee/tee_api_operations.c:449
    98e6:	68bb      	ldr	r3, [r7, #8]
    98e8:	f04f 0201 	mov.w	r2, #1
    98ec:	61da      	str	r2, [r3, #28]
    98ee:	e032      	b.n	9956 <TEE_GetOperationInfoMultiple+0x162>
/home/qemu-sgx/devel/optee/optee_os/lib/libutee/tee_api_operations.c:451
    98f0:	6b3b      	ldr	r3, [r7, #48]	; 0x30
    98f2:	2b01      	cmp	r3, #1
    98f4:	d805      	bhi.n	9902 <TEE_GetOperationInfoMultiple+0x10e>
/home/qemu-sgx/devel/optee/optee_os/lib/libutee/tee_api_operations.c:452
    98f6:	f04f 0310 	mov.w	r3, #16
    98fa:	f6cf 73ff 	movt	r3, #65535	; 0xffff
    98fe:	637b      	str	r3, [r7, #52]	; 0x34
/home/qemu-sgx/devel/optee/optee_os/lib/libutee/tee_api_operations.c:453
    9900:	e04b      	b.n	999a <TEE_GetOperationInfoMultiple+0x1a6>
/home/qemu-sgx/devel/optee/optee_os/lib/libutee/tee_api_operations.c:456
    9902:	68fb      	ldr	r3, [r7, #12]
    9904:	6a1b      	ldr	r3, [r3, #32]
    9906:	f107 0210 	add.w	r2, r7, #16
    990a:	4611      	mov	r1, r2
    990c:	4618      	mov	r0, r3
    990e:	f7f9 ecec 	blx	32e8 <TEE_GetObjectInfo1@plt>
    9912:	6378      	str	r0, [r7, #52]	; 0x34
/home/qemu-sgx/devel/optee/optee_os/lib/libutee/tee_api_operations.c:458
    9914:	6b7b      	ldr	r3, [r7, #52]	; 0x34
    9916:	2b00      	cmp	r3, #0
    9918:	d13c      	bne.n	9994 <TEE_GetOperationInfoMultiple+0x1a0>
/home/qemu-sgx/devel/optee/optee_os/lib/libutee/tee_api_operations.c:461
    991a:	697a      	ldr	r2, [r7, #20]
    991c:	68bb      	ldr	r3, [r7, #8]
    991e:	621a      	str	r2, [r3, #32]
/home/qemu-sgx/devel/optee/optee_os/lib/libutee/tee_api_operations.c:463
    9920:	68fb      	ldr	r3, [r7, #12]
    9922:	699a      	ldr	r2, [r3, #24]
/home/qemu-sgx/devel/optee/optee_os/lib/libutee/tee_api_operations.c:462
    9924:	68bb      	ldr	r3, [r7, #8]
    9926:	625a      	str	r2, [r3, #36]	; 0x24
/home/qemu-sgx/devel/optee/optee_os/lib/libutee/tee_api_operations.c:465
    9928:	68fb      	ldr	r3, [r7, #12]
    992a:	6a5b      	ldr	r3, [r3, #36]	; 0x24
    992c:	f107 0210 	add.w	r2, r7, #16
    9930:	4611      	mov	r1, r2
    9932:	4618      	mov	r0, r3
    9934:	f7f9 ecd8 	blx	32e8 <TEE_GetObjectInfo1@plt>
    9938:	6378      	str	r0, [r7, #52]	; 0x34
/home/qemu-sgx/devel/optee/optee_os/lib/libutee/tee_api_operations.c:467
    993a:	6b7b      	ldr	r3, [r7, #52]	; 0x34
    993c:	2b00      	cmp	r3, #0
    993e:	d12b      	bne.n	9998 <TEE_GetOperationInfoMultiple+0x1a4>
/home/qemu-sgx/devel/optee/optee_os/lib/libutee/tee_api_operations.c:470
    9940:	697a      	ldr	r2, [r7, #20]
    9942:	68bb      	ldr	r3, [r7, #8]
    9944:	629a      	str	r2, [r3, #40]	; 0x28
/home/qemu-sgx/devel/optee/optee_os/lib/libutee/tee_api_operations.c:472
    9946:	68fb      	ldr	r3, [r7, #12]
    9948:	699a      	ldr	r2, [r3, #24]
/home/qemu-sgx/devel/optee/optee_os/lib/libutee/tee_api_operations.c:471
    994a:	68bb      	ldr	r3, [r7, #8]
    994c:	62da      	str	r2, [r3, #44]	; 0x2c
/home/qemu-sgx/devel/optee/optee_os/lib/libutee/tee_api_operations.c:474
    994e:	68bb      	ldr	r3, [r7, #8]
    9950:	f04f 0202 	mov.w	r2, #2
    9954:	61da      	str	r2, [r3, #28]
/home/qemu-sgx/devel/optee/optee_os/lib/libutee/tee_api_operations.c:477
    9956:	68fb      	ldr	r3, [r7, #12]
    9958:	681a      	ldr	r2, [r3, #0]
    995a:	68bb      	ldr	r3, [r7, #8]
    995c:	601a      	str	r2, [r3, #0]
/home/qemu-sgx/devel/optee/optee_os/lib/libutee/tee_api_operations.c:478
    995e:	68fb      	ldr	r3, [r7, #12]
    9960:	685a      	ldr	r2, [r3, #4]
    9962:	68bb      	ldr	r3, [r7, #8]
    9964:	605a      	str	r2, [r3, #4]
/home/qemu-sgx/devel/optee/optee_os/lib/libutee/tee_api_operations.c:479
    9966:	68fb      	ldr	r3, [r7, #12]
    9968:	689a      	ldr	r2, [r3, #8]
    996a:	68bb      	ldr	r3, [r7, #8]
    996c:	609a      	str	r2, [r3, #8]
/home/qemu-sgx/devel/optee/optee_os/lib/libutee/tee_api_operations.c:480
    996e:	68fb      	ldr	r3, [r7, #12]
    9970:	68da      	ldr	r2, [r3, #12]
    9972:	68bb      	ldr	r3, [r7, #8]
    9974:	60da      	str	r2, [r3, #12]
/home/qemu-sgx/devel/optee/optee_os/lib/libutee/tee_api_operations.c:481
    9976:	68fb      	ldr	r3, [r7, #12]
    9978:	691a      	ldr	r2, [r3, #16]
    997a:	68bb      	ldr	r3, [r7, #8]
    997c:	611a      	str	r2, [r3, #16]
/home/qemu-sgx/devel/optee/optee_os/lib/libutee/tee_api_operations.c:482
    997e:	68fb      	ldr	r3, [r7, #12]
    9980:	69da      	ldr	r2, [r3, #28]
    9982:	68bb      	ldr	r3, [r7, #8]
    9984:	615a      	str	r2, [r3, #20]
/home/qemu-sgx/devel/optee/optee_os/lib/libutee/tee_api_operations.c:483
    9986:	68fb      	ldr	r3, [r7, #12]
    9988:	6a9a      	ldr	r2, [r3, #40]	; 0x28
    998a:	68bb      	ldr	r3, [r7, #8]
    998c:	619a      	str	r2, [r3, #24]
    998e:	e004      	b.n	999a <TEE_GetOperationInfoMultiple+0x1a6>
/home/qemu-sgx/devel/optee/optee_os/lib/libutee/tee_api_operations.c:444
    9990:	bf00      	nop
    9992:	e002      	b.n	999a <TEE_GetOperationInfoMultiple+0x1a6>
/home/qemu-sgx/devel/optee/optee_os/lib/libutee/tee_api_operations.c:459
    9994:	bf00      	nop
    9996:	e000      	b.n	999a <TEE_GetOperationInfoMultiple+0x1a6>
/home/qemu-sgx/devel/optee/optee_os/lib/libutee/tee_api_operations.c:468
    9998:	bf00      	nop
/home/qemu-sgx/devel/optee/optee_os/lib/libutee/tee_api_operations.c:486
    999a:	6b7b      	ldr	r3, [r7, #52]	; 0x34
    999c:	2b00      	cmp	r3, #0
    999e:	d009      	beq.n	99b4 <TEE_GetOperationInfoMultiple+0x1c0>
/home/qemu-sgx/devel/optee/optee_os/lib/libutee/tee_api_operations.c:486 (discriminator 1)
    99a0:	6b7a      	ldr	r2, [r7, #52]	; 0x34
    99a2:	f04f 0310 	mov.w	r3, #16
    99a6:	f6cf 73ff 	movt	r3, #65535	; 0xffff
    99aa:	429a      	cmp	r2, r3
    99ac:	d002      	beq.n	99b4 <TEE_GetOperationInfoMultiple+0x1c0>
/home/qemu-sgx/devel/optee/optee_os/lib/libutee/tee_api_operations.c:488
    99ae:	6b78      	ldr	r0, [r7, #52]	; 0x34
    99b0:	f7f9 eb56 	blx	3060 <TEE_Panic@plt>
/home/qemu-sgx/devel/optee/optee_os/lib/libutee/tee_api_operations.c:490
    99b4:	6b7b      	ldr	r3, [r7, #52]	; 0x34
/home/qemu-sgx/devel/optee/optee_os/lib/libutee/tee_api_operations.c:491
    99b6:	4618      	mov	r0, r3
    99b8:	f107 0738 	add.w	r7, r7, #56	; 0x38
    99bc:	46bd      	mov	sp, r7
    99be:	bd80      	pop	{r7, pc}

000099c0 <TEE_ResetOperation>:
TEE_ResetOperation():
/home/qemu-sgx/devel/optee/optee_os/lib/libutee/tee_api_operations.c:494
    99c0:	e96d 7e02 	strd	r7, lr, [sp, #-8]!
    99c4:	b084      	sub	sp, #16
    99c6:	af00      	add	r7, sp, #0
    99c8:	6078      	str	r0, [r7, #4]
/home/qemu-sgx/devel/optee/optee_os/lib/libutee/tee_api_operations.c:497
    99ca:	687b      	ldr	r3, [r7, #4]
    99cc:	2b00      	cmp	r3, #0
    99ce:	d103      	bne.n	99d8 <TEE_ResetOperation+0x18>
/home/qemu-sgx/devel/optee/optee_os/lib/libutee/tee_api_operations.c:498
    99d0:	f04f 0000 	mov.w	r0, #0
    99d4:	f7f9 eb44 	blx	3060 <TEE_Panic@plt>
/home/qemu-sgx/devel/optee/optee_os/lib/libutee/tee_api_operations.c:500
    99d8:	687b      	ldr	r3, [r7, #4]
    99da:	69db      	ldr	r3, [r3, #28]
    99dc:	f403 2380 	and.w	r3, r3, #262144	; 0x40000
    99e0:	2b00      	cmp	r3, #0
    99e2:	d103      	bne.n	99ec <TEE_ResetOperation+0x2c>
/home/qemu-sgx/devel/optee/optee_os/lib/libutee/tee_api_operations.c:501
    99e4:	f04f 0000 	mov.w	r0, #0
    99e8:	f7f9 eb3a 	blx	3060 <TEE_Panic@plt>
/home/qemu-sgx/devel/optee/optee_os/lib/libutee/tee_api_operations.c:503
    99ec:	687b      	ldr	r3, [r7, #4]
    99ee:	f04f 0200 	mov.w	r2, #0
    99f2:	629a      	str	r2, [r3, #40]	; 0x28
/home/qemu-sgx/devel/optee/optee_os/lib/libutee/tee_api_operations.c:505
    99f4:	687b      	ldr	r3, [r7, #4]
    99f6:	685b      	ldr	r3, [r3, #4]
    99f8:	2b05      	cmp	r3, #5
    99fa:	d116      	bne.n	9a2a <TEE_ResetOperation+0x6a>
/home/qemu-sgx/devel/optee/optee_os/lib/libutee/tee_api_operations.c:506
    99fc:	687b      	ldr	r3, [r7, #4]
    99fe:	6bdb      	ldr	r3, [r3, #60]	; 0x3c
    9a00:	f04f 0200 	mov.w	r2, #0
    9a04:	f04f 0100 	mov.w	r1, #0
    9a08:	4618      	mov	r0, r3
    9a0a:	f7f9 eb12 	blx	3030 <_utee_hash_init@plt>
    9a0e:	60f8      	str	r0, [r7, #12]
/home/qemu-sgx/devel/optee/optee_os/lib/libutee/tee_api_operations.c:507
    9a10:	68fb      	ldr	r3, [r7, #12]
    9a12:	2b00      	cmp	r3, #0
    9a14:	d002      	beq.n	9a1c <TEE_ResetOperation+0x5c>
/home/qemu-sgx/devel/optee/optee_os/lib/libutee/tee_api_operations.c:508
    9a16:	68f8      	ldr	r0, [r7, #12]
    9a18:	f7f9 eb22 	blx	3060 <TEE_Panic@plt>
/home/qemu-sgx/devel/optee/optee_os/lib/libutee/tee_api_operations.c:509
    9a1c:	687b      	ldr	r3, [r7, #4]
    9a1e:	69db      	ldr	r3, [r3, #28]
    9a20:	f443 3200 	orr.w	r2, r3, #131072	; 0x20000
    9a24:	687b      	ldr	r3, [r7, #4]
    9a26:	61da      	str	r2, [r3, #28]
/home/qemu-sgx/devel/optee/optee_os/lib/libutee/tee_api_operations.c:513
    9a28:	e005      	b.n	9a36 <TEE_ResetOperation+0x76>
/home/qemu-sgx/devel/optee/optee_os/lib/libutee/tee_api_operations.c:511
    9a2a:	687b      	ldr	r3, [r7, #4]
    9a2c:	69db      	ldr	r3, [r3, #28]
    9a2e:	f423 3200 	bic.w	r2, r3, #131072	; 0x20000
    9a32:	687b      	ldr	r3, [r7, #4]
    9a34:	61da      	str	r2, [r3, #28]
/home/qemu-sgx/devel/optee/optee_os/lib/libutee/tee_api_operations.c:513
    9a36:	bf00      	nop
    9a38:	f107 0710 	add.w	r7, r7, #16
    9a3c:	46bd      	mov	sp, r7
    9a3e:	bd80      	pop	{r7, pc}

00009a40 <TEE_SetOperationKey>:
TEE_SetOperationKey():
/home/qemu-sgx/devel/optee/optee_os/lib/libutee/tee_api_operations.c:517
    9a40:	e96d 7e02 	strd	r7, lr, [sp, #-8]!
    9a44:	b08c      	sub	sp, #48	; 0x30
    9a46:	af00      	add	r7, sp, #0
    9a48:	6078      	str	r0, [r7, #4]
    9a4a:	6039      	str	r1, [r7, #0]
/home/qemu-sgx/devel/optee/optee_os/lib/libutee/tee_api_operations.c:519
    9a4c:	f04f 0300 	mov.w	r3, #0
    9a50:	62bb      	str	r3, [r7, #40]	; 0x28
/home/qemu-sgx/devel/optee/optee_os/lib/libutee/tee_api_operations.c:522
    9a52:	687b      	ldr	r3, [r7, #4]
    9a54:	2b00      	cmp	r3, #0
    9a56:	d105      	bne.n	9a64 <TEE_SetOperationKey+0x24>
/home/qemu-sgx/devel/optee/optee_os/lib/libutee/tee_api_operations.c:523
    9a58:	f04f 0306 	mov.w	r3, #6
    9a5c:	f6cf 73ff 	movt	r3, #65535	; 0xffff
    9a60:	62fb      	str	r3, [r7, #44]	; 0x2c
/home/qemu-sgx/devel/optee/optee_os/lib/libutee/tee_api_operations.c:524
    9a62:	e078      	b.n	9b56 <TEE_SetOperationKey+0x116>
/home/qemu-sgx/devel/optee/optee_os/lib/libutee/tee_api_operations.c:527
    9a64:	687b      	ldr	r3, [r7, #4]
    9a66:	6a9b      	ldr	r3, [r3, #40]	; 0x28
    9a68:	2b00      	cmp	r3, #0
    9a6a:	d005      	beq.n	9a78 <TEE_SetOperationKey+0x38>
/home/qemu-sgx/devel/optee/optee_os/lib/libutee/tee_api_operations.c:528
    9a6c:	f04f 0306 	mov.w	r3, #6
    9a70:	f6cf 73ff 	movt	r3, #65535	; 0xffff
    9a74:	62fb      	str	r3, [r7, #44]	; 0x2c
/home/qemu-sgx/devel/optee/optee_os/lib/libutee/tee_api_operations.c:529
    9a76:	e06e      	b.n	9b56 <TEE_SetOperationKey+0x116>
/home/qemu-sgx/devel/optee/optee_os/lib/libutee/tee_api_operations.c:532
    9a78:	683b      	ldr	r3, [r7, #0]
    9a7a:	2b00      	cmp	r3, #0
    9a7c:	d10d      	bne.n	9a9a <TEE_SetOperationKey+0x5a>
/home/qemu-sgx/devel/optee/optee_os/lib/libutee/tee_api_operations.c:534
    9a7e:	687b      	ldr	r3, [r7, #4]
    9a80:	6a1b      	ldr	r3, [r3, #32]
    9a82:	4618      	mov	r0, r3
    9a84:	f7f9 eac2 	blx	300c <TEE_ResetTransientObject@plt>
/home/qemu-sgx/devel/optee/optee_os/lib/libutee/tee_api_operations.c:535
    9a88:	687b      	ldr	r3, [r7, #4]
    9a8a:	69db      	ldr	r3, [r3, #28]
    9a8c:	f423 2280 	bic.w	r2, r3, #262144	; 0x40000
    9a90:	687b      	ldr	r3, [r7, #4]
    9a92:	61da      	str	r2, [r3, #28]
/home/qemu-sgx/devel/optee/optee_os/lib/libutee/tee_api_operations.c:536
    9a94:	f04f 0300 	mov.w	r3, #0
    9a98:	e072      	b.n	9b80 <TEE_SetOperationKey+0x140>
/home/qemu-sgx/devel/optee/optee_os/lib/libutee/tee_api_operations.c:540
    9a9a:	687b      	ldr	r3, [r7, #4]
    9a9c:	685b      	ldr	r3, [r3, #4]
    9a9e:	2b05      	cmp	r3, #5
    9aa0:	d105      	bne.n	9aae <TEE_SetOperationKey+0x6e>
/home/qemu-sgx/devel/optee/optee_os/lib/libutee/tee_api_operations.c:541
    9aa2:	f04f 0306 	mov.w	r3, #6
    9aa6:	f6cf 73ff 	movt	r3, #65535	; 0xffff
    9aaa:	62fb      	str	r3, [r7, #44]	; 0x2c
/home/qemu-sgx/devel/optee/optee_os/lib/libutee/tee_api_operations.c:542
    9aac:	e053      	b.n	9b56 <TEE_SetOperationKey+0x116>
/home/qemu-sgx/devel/optee/optee_os/lib/libutee/tee_api_operations.c:546
    9aae:	687b      	ldr	r3, [r7, #4]
    9ab0:	69db      	ldr	r3, [r3, #28]
    9ab2:	f403 2300 	and.w	r3, r3, #524288	; 0x80000
    9ab6:	2b00      	cmp	r3, #0
    9ab8:	d005      	beq.n	9ac6 <TEE_SetOperationKey+0x86>
/home/qemu-sgx/devel/optee/optee_os/lib/libutee/tee_api_operations.c:548
    9aba:	f04f 0306 	mov.w	r3, #6
    9abe:	f6cf 73ff 	movt	r3, #65535	; 0xffff
    9ac2:	62fb      	str	r3, [r7, #44]	; 0x2c
/home/qemu-sgx/devel/optee/optee_os/lib/libutee/tee_api_operations.c:549
    9ac4:	e047      	b.n	9b56 <TEE_SetOperationKey+0x116>
/home/qemu-sgx/devel/optee/optee_os/lib/libutee/tee_api_operations.c:552
    9ac6:	f107 030c 	add.w	r3, r7, #12
    9aca:	4619      	mov	r1, r3
    9acc:	6838      	ldr	r0, [r7, #0]
    9ace:	f7f9 ec0c 	blx	32e8 <TEE_GetObjectInfo1@plt>
    9ad2:	62f8      	str	r0, [r7, #44]	; 0x2c
/home/qemu-sgx/devel/optee/optee_os/lib/libutee/tee_api_operations.c:554
    9ad4:	6afb      	ldr	r3, [r7, #44]	; 0x2c
    9ad6:	2b00      	cmp	r3, #0
    9ad8:	d13a      	bne.n	9b50 <TEE_SetOperationKey+0x110>
/home/qemu-sgx/devel/optee/optee_os/lib/libutee/tee_api_operations.c:558
    9ada:	69ba      	ldr	r2, [r7, #24]
    9adc:	687b      	ldr	r3, [r7, #4]
    9ade:	699b      	ldr	r3, [r3, #24]
    9ae0:	ea02 0203 	and.w	r2, r2, r3
/home/qemu-sgx/devel/optee/optee_os/lib/libutee/tee_api_operations.c:559
    9ae4:	687b      	ldr	r3, [r7, #4]
    9ae6:	699b      	ldr	r3, [r3, #24]
/home/qemu-sgx/devel/optee/optee_os/lib/libutee/tee_api_operations.c:558
    9ae8:	429a      	cmp	r2, r3
    9aea:	d005      	beq.n	9af8 <TEE_SetOperationKey+0xb8>
/home/qemu-sgx/devel/optee/optee_os/lib/libutee/tee_api_operations.c:560
    9aec:	f04f 0306 	mov.w	r3, #6
    9af0:	f6cf 73ff 	movt	r3, #65535	; 0xffff
    9af4:	62fb      	str	r3, [r7, #44]	; 0x2c
/home/qemu-sgx/devel/optee/optee_os/lib/libutee/tee_api_operations.c:561
    9af6:	e02e      	b.n	9b56 <TEE_SetOperationKey+0x116>
/home/qemu-sgx/devel/optee/optee_os/lib/libutee/tee_api_operations.c:564
    9af8:	687b      	ldr	r3, [r7, #4]
    9afa:	691a      	ldr	r2, [r3, #16]
    9afc:	693b      	ldr	r3, [r7, #16]
    9afe:	429a      	cmp	r2, r3
    9b00:	d205      	bcs.n	9b0e <TEE_SetOperationKey+0xce>
/home/qemu-sgx/devel/optee/optee_os/lib/libutee/tee_api_operations.c:565
    9b02:	f04f 0306 	mov.w	r3, #6
    9b06:	f6cf 73ff 	movt	r3, #65535	; 0xffff
    9b0a:	62fb      	str	r3, [r7, #44]	; 0x2c
/home/qemu-sgx/devel/optee/optee_os/lib/libutee/tee_api_operations.c:566
    9b0c:	e023      	b.n	9b56 <TEE_SetOperationKey+0x116>
/home/qemu-sgx/devel/optee/optee_os/lib/libutee/tee_api_operations.c:569
    9b0e:	693b      	ldr	r3, [r7, #16]
    9b10:	62bb      	str	r3, [r7, #40]	; 0x28
/home/qemu-sgx/devel/optee/optee_os/lib/libutee/tee_api_operations.c:571
    9b12:	687b      	ldr	r3, [r7, #4]
    9b14:	6a1b      	ldr	r3, [r3, #32]
    9b16:	4618      	mov	r0, r3
    9b18:	f7f9 ea78 	blx	300c <TEE_ResetTransientObject@plt>
/home/qemu-sgx/devel/optee/optee_os/lib/libutee/tee_api_operations.c:572
    9b1c:	687b      	ldr	r3, [r7, #4]
    9b1e:	69db      	ldr	r3, [r3, #28]
    9b20:	f423 2280 	bic.w	r2, r3, #262144	; 0x40000
    9b24:	687b      	ldr	r3, [r7, #4]
    9b26:	61da      	str	r2, [r3, #28]
/home/qemu-sgx/devel/optee/optee_os/lib/libutee/tee_api_operations.c:574
    9b28:	687b      	ldr	r3, [r7, #4]
    9b2a:	6a1b      	ldr	r3, [r3, #32]
    9b2c:	6839      	ldr	r1, [r7, #0]
    9b2e:	4618      	mov	r0, r3
    9b30:	f7f9 ec94 	blx	345c <TEE_CopyObjectAttributes1@plt>
    9b34:	62f8      	str	r0, [r7, #44]	; 0x2c
/home/qemu-sgx/devel/optee/optee_os/lib/libutee/tee_api_operations.c:575
    9b36:	6afb      	ldr	r3, [r7, #44]	; 0x2c
    9b38:	2b00      	cmp	r3, #0
    9b3a:	d10b      	bne.n	9b54 <TEE_SetOperationKey+0x114>
/home/qemu-sgx/devel/optee/optee_os/lib/libutee/tee_api_operations.c:578
    9b3c:	687b      	ldr	r3, [r7, #4]
    9b3e:	69db      	ldr	r3, [r3, #28]
    9b40:	f443 2280 	orr.w	r2, r3, #262144	; 0x40000
    9b44:	687b      	ldr	r3, [r7, #4]
    9b46:	61da      	str	r2, [r3, #28]
/home/qemu-sgx/devel/optee/optee_os/lib/libutee/tee_api_operations.c:580
    9b48:	687b      	ldr	r3, [r7, #4]
    9b4a:	6aba      	ldr	r2, [r7, #40]	; 0x28
    9b4c:	615a      	str	r2, [r3, #20]
    9b4e:	e002      	b.n	9b56 <TEE_SetOperationKey+0x116>
/home/qemu-sgx/devel/optee/optee_os/lib/libutee/tee_api_operations.c:555
    9b50:	bf00      	nop
    9b52:	e000      	b.n	9b56 <TEE_SetOperationKey+0x116>
/home/qemu-sgx/devel/optee/optee_os/lib/libutee/tee_api_operations.c:576
    9b54:	bf00      	nop
/home/qemu-sgx/devel/optee/optee_os/lib/libutee/tee_api_operations.c:583
    9b56:	6afb      	ldr	r3, [r7, #44]	; 0x2c
    9b58:	2b00      	cmp	r3, #0
    9b5a:	d010      	beq.n	9b7e <TEE_SetOperationKey+0x13e>
/home/qemu-sgx/devel/optee/optee_os/lib/libutee/tee_api_operations.c:583 (discriminator 1)
    9b5c:	6afa      	ldr	r2, [r7, #44]	; 0x2c
    9b5e:	f04f 0301 	mov.w	r3, #1
    9b62:	f2cf 0310 	movt	r3, #61456	; 0xf010
    9b66:	429a      	cmp	r2, r3
    9b68:	d009      	beq.n	9b7e <TEE_SetOperationKey+0x13e>
/home/qemu-sgx/devel/optee/optee_os/lib/libutee/tee_api_operations.c:584
    9b6a:	6afa      	ldr	r2, [r7, #44]	; 0x2c
    9b6c:	f04f 0303 	mov.w	r3, #3
    9b70:	f2cf 0310 	movt	r3, #61456	; 0xf010
    9b74:	429a      	cmp	r2, r3
    9b76:	d002      	beq.n	9b7e <TEE_SetOperationKey+0x13e>
/home/qemu-sgx/devel/optee/optee_os/lib/libutee/tee_api_operations.c:586
    9b78:	6af8      	ldr	r0, [r7, #44]	; 0x2c
    9b7a:	f7f9 ea72 	blx	3060 <TEE_Panic@plt>
/home/qemu-sgx/devel/optee/optee_os/lib/libutee/tee_api_operations.c:588
    9b7e:	6afb      	ldr	r3, [r7, #44]	; 0x2c
/home/qemu-sgx/devel/optee/optee_os/lib/libutee/tee_api_operations.c:589 (discriminator 1)
    9b80:	4618      	mov	r0, r3
    9b82:	f107 0730 	add.w	r7, r7, #48	; 0x30
    9b86:	46bd      	mov	sp, r7
    9b88:	bd80      	pop	{r7, pc}

00009b8a <TEE_SetOperationKey2>:
TEE_SetOperationKey2():
/home/qemu-sgx/devel/optee/optee_os/lib/libutee/tee_api_operations.c:593
    9b8a:	e96d 7e02 	strd	r7, lr, [sp, #-8]!
    9b8e:	b094      	sub	sp, #80	; 0x50
    9b90:	af00      	add	r7, sp, #0
    9b92:	60f8      	str	r0, [r7, #12]
    9b94:	60b9      	str	r1, [r7, #8]
    9b96:	607a      	str	r2, [r7, #4]
/home/qemu-sgx/devel/optee/optee_os/lib/libutee/tee_api_operations.c:595
    9b98:	f04f 0300 	mov.w	r3, #0
    9b9c:	64bb      	str	r3, [r7, #72]	; 0x48
/home/qemu-sgx/devel/optee/optee_os/lib/libutee/tee_api_operations.c:599
    9b9e:	68fb      	ldr	r3, [r7, #12]
    9ba0:	2b00      	cmp	r3, #0
    9ba2:	d105      	bne.n	9bb0 <TEE_SetOperationKey2+0x26>
/home/qemu-sgx/devel/optee/optee_os/lib/libutee/tee_api_operations.c:600
    9ba4:	f04f 0306 	mov.w	r3, #6
    9ba8:	f6cf 73ff 	movt	r3, #65535	; 0xffff
    9bac:	64fb      	str	r3, [r7, #76]	; 0x4c
/home/qemu-sgx/devel/optee/optee_os/lib/libutee/tee_api_operations.c:601
    9bae:	e0dd      	b.n	9d6c <TEE_SetOperationKey2+0x1e2>
/home/qemu-sgx/devel/optee/optee_os/lib/libutee/tee_api_operations.c:604
    9bb0:	68fb      	ldr	r3, [r7, #12]
    9bb2:	6a9b      	ldr	r3, [r3, #40]	; 0x28
    9bb4:	2b00      	cmp	r3, #0
    9bb6:	d005      	beq.n	9bc4 <TEE_SetOperationKey2+0x3a>
/home/qemu-sgx/devel/optee/optee_os/lib/libutee/tee_api_operations.c:605
    9bb8:	f04f 0306 	mov.w	r3, #6
    9bbc:	f6cf 73ff 	movt	r3, #65535	; 0xffff
    9bc0:	64fb      	str	r3, [r7, #76]	; 0x4c
/home/qemu-sgx/devel/optee/optee_os/lib/libutee/tee_api_operations.c:606
    9bc2:	e0d3      	b.n	9d6c <TEE_SetOperationKey2+0x1e2>
/home/qemu-sgx/devel/optee/optee_os/lib/libutee/tee_api_operations.c:613
    9bc4:	68bb      	ldr	r3, [r7, #8]
    9bc6:	2b00      	cmp	r3, #0
    9bc8:	d115      	bne.n	9bf6 <TEE_SetOperationKey2+0x6c>
/home/qemu-sgx/devel/optee/optee_os/lib/libutee/tee_api_operations.c:613 (discriminator 1)
    9bca:	687b      	ldr	r3, [r7, #4]
    9bcc:	2b00      	cmp	r3, #0
    9bce:	d112      	bne.n	9bf6 <TEE_SetOperationKey2+0x6c>
/home/qemu-sgx/devel/optee/optee_os/lib/libutee/tee_api_operations.c:615
    9bd0:	68fb      	ldr	r3, [r7, #12]
    9bd2:	6a1b      	ldr	r3, [r3, #32]
    9bd4:	4618      	mov	r0, r3
    9bd6:	f7f9 ea1a 	blx	300c <TEE_ResetTransientObject@plt>
/home/qemu-sgx/devel/optee/optee_os/lib/libutee/tee_api_operations.c:616
    9bda:	68fb      	ldr	r3, [r7, #12]
    9bdc:	6a5b      	ldr	r3, [r3, #36]	; 0x24
    9bde:	4618      	mov	r0, r3
    9be0:	f7f9 ea14 	blx	300c <TEE_ResetTransientObject@plt>
/home/qemu-sgx/devel/optee/optee_os/lib/libutee/tee_api_operations.c:617
    9be4:	68fb      	ldr	r3, [r7, #12]
    9be6:	69db      	ldr	r3, [r3, #28]
    9be8:	f423 2280 	bic.w	r2, r3, #262144	; 0x40000
    9bec:	68fb      	ldr	r3, [r7, #12]
    9bee:	61da      	str	r2, [r3, #28]
/home/qemu-sgx/devel/optee/optee_os/lib/libutee/tee_api_operations.c:618
    9bf0:	f04f 0300 	mov.w	r3, #0
    9bf4:	e0dd      	b.n	9db2 <TEE_SetOperationKey2+0x228>
/home/qemu-sgx/devel/optee/optee_os/lib/libutee/tee_api_operations.c:619
    9bf6:	68bb      	ldr	r3, [r7, #8]
    9bf8:	2b00      	cmp	r3, #0
    9bfa:	d002      	beq.n	9c02 <TEE_SetOperationKey2+0x78>
/home/qemu-sgx/devel/optee/optee_os/lib/libutee/tee_api_operations.c:619 (discriminator 1)
    9bfc:	687b      	ldr	r3, [r7, #4]
    9bfe:	2b00      	cmp	r3, #0
    9c00:	d105      	bne.n	9c0e <TEE_SetOperationKey2+0x84>
/home/qemu-sgx/devel/optee/optee_os/lib/libutee/tee_api_operations.c:621
    9c02:	f04f 0306 	mov.w	r3, #6
    9c06:	f6cf 73ff 	movt	r3, #65535	; 0xffff
    9c0a:	64fb      	str	r3, [r7, #76]	; 0x4c
/home/qemu-sgx/devel/optee/optee_os/lib/libutee/tee_api_operations.c:622
    9c0c:	e0ae      	b.n	9d6c <TEE_SetOperationKey2+0x1e2>
/home/qemu-sgx/devel/optee/optee_os/lib/libutee/tee_api_operations.c:626
    9c0e:	68fb      	ldr	r3, [r7, #12]
    9c10:	685b      	ldr	r3, [r3, #4]
    9c12:	2b05      	cmp	r3, #5
    9c14:	d105      	bne.n	9c22 <TEE_SetOperationKey2+0x98>
/home/qemu-sgx/devel/optee/optee_os/lib/libutee/tee_api_operations.c:627
    9c16:	f04f 0306 	mov.w	r3, #6
    9c1a:	f6cf 73ff 	movt	r3, #65535	; 0xffff
    9c1e:	64fb      	str	r3, [r7, #76]	; 0x4c
/home/qemu-sgx/devel/optee/optee_os/lib/libutee/tee_api_operations.c:628
    9c20:	e0a4      	b.n	9d6c <TEE_SetOperationKey2+0x1e2>
/home/qemu-sgx/devel/optee/optee_os/lib/libutee/tee_api_operations.c:632
    9c22:	68fb      	ldr	r3, [r7, #12]
    9c24:	69db      	ldr	r3, [r3, #28]
    9c26:	f403 2300 	and.w	r3, r3, #524288	; 0x80000
    9c2a:	2b00      	cmp	r3, #0
    9c2c:	d105      	bne.n	9c3a <TEE_SetOperationKey2+0xb0>
/home/qemu-sgx/devel/optee/optee_os/lib/libutee/tee_api_operations.c:634
    9c2e:	f04f 0306 	mov.w	r3, #6
    9c32:	f6cf 73ff 	movt	r3, #65535	; 0xffff
    9c36:	64fb      	str	r3, [r7, #76]	; 0x4c
/home/qemu-sgx/devel/optee/optee_os/lib/libutee/tee_api_operations.c:635
    9c38:	e098      	b.n	9d6c <TEE_SetOperationKey2+0x1e2>
/home/qemu-sgx/devel/optee/optee_os/lib/libutee/tee_api_operations.c:638
    9c3a:	f107 032c 	add.w	r3, r7, #44	; 0x2c
    9c3e:	4619      	mov	r1, r3
    9c40:	68b8      	ldr	r0, [r7, #8]
    9c42:	f7f9 eb52 	blx	32e8 <TEE_GetObjectInfo1@plt>
    9c46:	64f8      	str	r0, [r7, #76]	; 0x4c
/home/qemu-sgx/devel/optee/optee_os/lib/libutee/tee_api_operations.c:640
    9c48:	6cfb      	ldr	r3, [r7, #76]	; 0x4c
    9c4a:	2b00      	cmp	r3, #0
    9c4c:	f040 8087 	bne.w	9d5e <TEE_SetOperationKey2+0x1d4>
/home/qemu-sgx/devel/optee/optee_os/lib/libutee/tee_api_operations.c:644
    9c50:	6bba      	ldr	r2, [r7, #56]	; 0x38
    9c52:	68fb      	ldr	r3, [r7, #12]
    9c54:	699b      	ldr	r3, [r3, #24]
    9c56:	ea02 0203 	and.w	r2, r2, r3
/home/qemu-sgx/devel/optee/optee_os/lib/libutee/tee_api_operations.c:645
    9c5a:	68fb      	ldr	r3, [r7, #12]
    9c5c:	699b      	ldr	r3, [r3, #24]
/home/qemu-sgx/devel/optee/optee_os/lib/libutee/tee_api_operations.c:644
    9c5e:	429a      	cmp	r2, r3
    9c60:	d005      	beq.n	9c6e <TEE_SetOperationKey2+0xe4>
/home/qemu-sgx/devel/optee/optee_os/lib/libutee/tee_api_operations.c:646
    9c62:	f04f 0306 	mov.w	r3, #6
    9c66:	f6cf 73ff 	movt	r3, #65535	; 0xffff
    9c6a:	64fb      	str	r3, [r7, #76]	; 0x4c
/home/qemu-sgx/devel/optee/optee_os/lib/libutee/tee_api_operations.c:647
    9c6c:	e07e      	b.n	9d6c <TEE_SetOperationKey2+0x1e2>
/home/qemu-sgx/devel/optee/optee_os/lib/libutee/tee_api_operations.c:650
    9c6e:	f107 0310 	add.w	r3, r7, #16
    9c72:	4619      	mov	r1, r3
    9c74:	6878      	ldr	r0, [r7, #4]
    9c76:	f7f9 eb38 	blx	32e8 <TEE_GetObjectInfo1@plt>
    9c7a:	64f8      	str	r0, [r7, #76]	; 0x4c
/home/qemu-sgx/devel/optee/optee_os/lib/libutee/tee_api_operations.c:652
    9c7c:	6cfb      	ldr	r3, [r7, #76]	; 0x4c
    9c7e:	2b00      	cmp	r3, #0
    9c80:	d00c      	beq.n	9c9c <TEE_SetOperationKey2+0x112>
/home/qemu-sgx/devel/optee/optee_os/lib/libutee/tee_api_operations.c:653
    9c82:	6cfa      	ldr	r2, [r7, #76]	; 0x4c
    9c84:	f04f 0301 	mov.w	r3, #1
    9c88:	f2cf 0310 	movt	r3, #61456	; 0xf010
    9c8c:	429a      	cmp	r2, r3
    9c8e:	d168      	bne.n	9d62 <TEE_SetOperationKey2+0x1d8>
/home/qemu-sgx/devel/optee/optee_os/lib/libutee/tee_api_operations.c:654
    9c90:	f04f 0302 	mov.w	r3, #2
    9c94:	f2cf 0310 	movt	r3, #61456	; 0xf010
    9c98:	64fb      	str	r3, [r7, #76]	; 0x4c
/home/qemu-sgx/devel/optee/optee_os/lib/libutee/tee_api_operations.c:655
    9c9a:	e062      	b.n	9d62 <TEE_SetOperationKey2+0x1d8>
/home/qemu-sgx/devel/optee/optee_os/lib/libutee/tee_api_operations.c:659
    9c9c:	69fa      	ldr	r2, [r7, #28]
    9c9e:	68fb      	ldr	r3, [r7, #12]
    9ca0:	699b      	ldr	r3, [r3, #24]
    9ca2:	ea02 0203 	and.w	r2, r2, r3
/home/qemu-sgx/devel/optee/optee_os/lib/libutee/tee_api_operations.c:660
    9ca6:	68fb      	ldr	r3, [r7, #12]
    9ca8:	699b      	ldr	r3, [r3, #24]
/home/qemu-sgx/devel/optee/optee_os/lib/libutee/tee_api_operations.c:659
    9caa:	429a      	cmp	r2, r3
    9cac:	d005      	beq.n	9cba <TEE_SetOperationKey2+0x130>
/home/qemu-sgx/devel/optee/optee_os/lib/libutee/tee_api_operations.c:661
    9cae:	f04f 0306 	mov.w	r3, #6
    9cb2:	f6cf 73ff 	movt	r3, #65535	; 0xffff
    9cb6:	64fb      	str	r3, [r7, #76]	; 0x4c
/home/qemu-sgx/devel/optee/optee_os/lib/libutee/tee_api_operations.c:662
    9cb8:	e058      	b.n	9d6c <TEE_SetOperationKey2+0x1e2>
/home/qemu-sgx/devel/optee/optee_os/lib/libutee/tee_api_operations.c:669
    9cba:	6b3a      	ldr	r2, [r7, #48]	; 0x30
    9cbc:	697b      	ldr	r3, [r7, #20]
    9cbe:	429a      	cmp	r2, r3
    9cc0:	d005      	beq.n	9cce <TEE_SetOperationKey2+0x144>
/home/qemu-sgx/devel/optee/optee_os/lib/libutee/tee_api_operations.c:670
    9cc2:	f04f 0306 	mov.w	r3, #6
    9cc6:	f6cf 73ff 	movt	r3, #65535	; 0xffff
    9cca:	64fb      	str	r3, [r7, #76]	; 0x4c
/home/qemu-sgx/devel/optee/optee_os/lib/libutee/tee_api_operations.c:671
    9ccc:	e04e      	b.n	9d6c <TEE_SetOperationKey2+0x1e2>
/home/qemu-sgx/devel/optee/optee_os/lib/libutee/tee_api_operations.c:675
    9cce:	68fb      	ldr	r3, [r7, #12]
    9cd0:	691a      	ldr	r2, [r3, #16]
    9cd2:	6b3b      	ldr	r3, [r7, #48]	; 0x30
    9cd4:	429a      	cmp	r2, r3
    9cd6:	d205      	bcs.n	9ce4 <TEE_SetOperationKey2+0x15a>
/home/qemu-sgx/devel/optee/optee_os/lib/libutee/tee_api_operations.c:676
    9cd8:	f04f 0306 	mov.w	r3, #6
    9cdc:	f6cf 73ff 	movt	r3, #65535	; 0xffff
    9ce0:	64fb      	str	r3, [r7, #76]	; 0x4c
/home/qemu-sgx/devel/optee/optee_os/lib/libutee/tee_api_operations.c:677
    9ce2:	e043      	b.n	9d6c <TEE_SetOperationKey2+0x1e2>
/home/qemu-sgx/devel/optee/optee_os/lib/libutee/tee_api_operations.c:684
    9ce4:	6b3b      	ldr	r3, [r7, #48]	; 0x30
    9ce6:	64bb      	str	r3, [r7, #72]	; 0x48
/home/qemu-sgx/devel/optee/optee_os/lib/libutee/tee_api_operations.c:686
    9ce8:	68fb      	ldr	r3, [r7, #12]
    9cea:	6a1b      	ldr	r3, [r3, #32]
    9cec:	4618      	mov	r0, r3
    9cee:	f7f9 e98e 	blx	300c <TEE_ResetTransientObject@plt>
/home/qemu-sgx/devel/optee/optee_os/lib/libutee/tee_api_operations.c:687
    9cf2:	68fb      	ldr	r3, [r7, #12]
    9cf4:	6a5b      	ldr	r3, [r3, #36]	; 0x24
    9cf6:	4618      	mov	r0, r3
    9cf8:	f7f9 e988 	blx	300c <TEE_ResetTransientObject@plt>
/home/qemu-sgx/devel/optee/optee_os/lib/libutee/tee_api_operations.c:688
    9cfc:	68fb      	ldr	r3, [r7, #12]
    9cfe:	69db      	ldr	r3, [r3, #28]
    9d00:	f423 2280 	bic.w	r2, r3, #262144	; 0x40000
    9d04:	68fb      	ldr	r3, [r7, #12]
    9d06:	61da      	str	r2, [r3, #28]
/home/qemu-sgx/devel/optee/optee_os/lib/libutee/tee_api_operations.c:690
    9d08:	68fb      	ldr	r3, [r7, #12]
    9d0a:	6a1b      	ldr	r3, [r3, #32]
    9d0c:	68b9      	ldr	r1, [r7, #8]
    9d0e:	4618      	mov	r0, r3
    9d10:	f7f9 eba4 	blx	345c <TEE_CopyObjectAttributes1@plt>
    9d14:	64f8      	str	r0, [r7, #76]	; 0x4c
/home/qemu-sgx/devel/optee/optee_os/lib/libutee/tee_api_operations.c:691
    9d16:	6cfb      	ldr	r3, [r7, #76]	; 0x4c
    9d18:	2b00      	cmp	r3, #0
    9d1a:	d124      	bne.n	9d66 <TEE_SetOperationKey2+0x1dc>
/home/qemu-sgx/devel/optee/optee_os/lib/libutee/tee_api_operations.c:693
    9d1c:	68fb      	ldr	r3, [r7, #12]
    9d1e:	6a5b      	ldr	r3, [r3, #36]	; 0x24
    9d20:	6879      	ldr	r1, [r7, #4]
    9d22:	4618      	mov	r0, r3
    9d24:	f7f9 eb9a 	blx	345c <TEE_CopyObjectAttributes1@plt>
    9d28:	64f8      	str	r0, [r7, #76]	; 0x4c
/home/qemu-sgx/devel/optee/optee_os/lib/libutee/tee_api_operations.c:694
    9d2a:	6cfb      	ldr	r3, [r7, #76]	; 0x4c
    9d2c:	2b00      	cmp	r3, #0
    9d2e:	d00c      	beq.n	9d4a <TEE_SetOperationKey2+0x1c0>
/home/qemu-sgx/devel/optee/optee_os/lib/libutee/tee_api_operations.c:695
    9d30:	6cfa      	ldr	r2, [r7, #76]	; 0x4c
    9d32:	f04f 0301 	mov.w	r3, #1
    9d36:	f2cf 0310 	movt	r3, #61456	; 0xf010
    9d3a:	429a      	cmp	r2, r3
    9d3c:	d115      	bne.n	9d6a <TEE_SetOperationKey2+0x1e0>
/home/qemu-sgx/devel/optee/optee_os/lib/libutee/tee_api_operations.c:696
    9d3e:	f04f 0302 	mov.w	r3, #2
    9d42:	f2cf 0310 	movt	r3, #61456	; 0xf010
    9d46:	64fb      	str	r3, [r7, #76]	; 0x4c
/home/qemu-sgx/devel/optee/optee_os/lib/libutee/tee_api_operations.c:697
    9d48:	e00f      	b.n	9d6a <TEE_SetOperationKey2+0x1e0>
/home/qemu-sgx/devel/optee/optee_os/lib/libutee/tee_api_operations.c:700
    9d4a:	68fb      	ldr	r3, [r7, #12]
    9d4c:	69db      	ldr	r3, [r3, #28]
    9d4e:	f443 2280 	orr.w	r2, r3, #262144	; 0x40000
    9d52:	68fb      	ldr	r3, [r7, #12]
    9d54:	61da      	str	r2, [r3, #28]
/home/qemu-sgx/devel/optee/optee_os/lib/libutee/tee_api_operations.c:702
    9d56:	68fb      	ldr	r3, [r7, #12]
    9d58:	6cba      	ldr	r2, [r7, #72]	; 0x48
    9d5a:	615a      	str	r2, [r3, #20]
    9d5c:	e006      	b.n	9d6c <TEE_SetOperationKey2+0x1e2>
/home/qemu-sgx/devel/optee/optee_os/lib/libutee/tee_api_operations.c:641
    9d5e:	bf00      	nop
    9d60:	e004      	b.n	9d6c <TEE_SetOperationKey2+0x1e2>
/home/qemu-sgx/devel/optee/optee_os/lib/libutee/tee_api_operations.c:655
    9d62:	bf00      	nop
    9d64:	e002      	b.n	9d6c <TEE_SetOperationKey2+0x1e2>
/home/qemu-sgx/devel/optee/optee_os/lib/libutee/tee_api_operations.c:692
    9d66:	bf00      	nop
    9d68:	e000      	b.n	9d6c <TEE_SetOperationKey2+0x1e2>
/home/qemu-sgx/devel/optee/optee_os/lib/libutee/tee_api_operations.c:697
    9d6a:	bf00      	nop
/home/qemu-sgx/devel/optee/optee_os/lib/libutee/tee_api_operations.c:705
    9d6c:	6cfb      	ldr	r3, [r7, #76]	; 0x4c
    9d6e:	2b00      	cmp	r3, #0
    9d70:	d01e      	beq.n	9db0 <TEE_SetOperationKey2+0x226>
/home/qemu-sgx/devel/optee/optee_os/lib/libutee/tee_api_operations.c:705 (discriminator 1)
    9d72:	6cfa      	ldr	r2, [r7, #76]	; 0x4c
    9d74:	f04f 0301 	mov.w	r3, #1
    9d78:	f2cf 0310 	movt	r3, #61456	; 0xf010
    9d7c:	429a      	cmp	r2, r3
    9d7e:	d017      	beq.n	9db0 <TEE_SetOperationKey2+0x226>
/home/qemu-sgx/devel/optee/optee_os/lib/libutee/tee_api_operations.c:706
    9d80:	6cfa      	ldr	r2, [r7, #76]	; 0x4c
    9d82:	f04f 0302 	mov.w	r3, #2
    9d86:	f2cf 0310 	movt	r3, #61456	; 0xf010
    9d8a:	429a      	cmp	r2, r3
    9d8c:	d010      	beq.n	9db0 <TEE_SetOperationKey2+0x226>
/home/qemu-sgx/devel/optee/optee_os/lib/libutee/tee_api_operations.c:707
    9d8e:	6cfa      	ldr	r2, [r7, #76]	; 0x4c
    9d90:	f04f 0303 	mov.w	r3, #3
    9d94:	f2cf 0310 	movt	r3, #61456	; 0xf010
    9d98:	429a      	cmp	r2, r3
    9d9a:	d009      	beq.n	9db0 <TEE_SetOperationKey2+0x226>
/home/qemu-sgx/devel/optee/optee_os/lib/libutee/tee_api_operations.c:708
    9d9c:	6cfa      	ldr	r2, [r7, #76]	; 0x4c
    9d9e:	f04f 0304 	mov.w	r3, #4
    9da2:	f2cf 0310 	movt	r3, #61456	; 0xf010
    9da6:	429a      	cmp	r2, r3
    9da8:	d002      	beq.n	9db0 <TEE_SetOperationKey2+0x226>
/home/qemu-sgx/devel/optee/optee_os/lib/libutee/tee_api_operations.c:710
    9daa:	6cf8      	ldr	r0, [r7, #76]	; 0x4c
    9dac:	f7f9 e958 	blx	3060 <TEE_Panic@plt>
/home/qemu-sgx/devel/optee/optee_os/lib/libutee/tee_api_operations.c:712
    9db0:	6cfb      	ldr	r3, [r7, #76]	; 0x4c
/home/qemu-sgx/devel/optee/optee_os/lib/libutee/tee_api_operations.c:713 (discriminator 1)
    9db2:	4618      	mov	r0, r3
    9db4:	f107 0750 	add.w	r7, r7, #80	; 0x50
    9db8:	46bd      	mov	sp, r7
    9dba:	bd80      	pop	{r7, pc}

00009dbc <TEE_CopyOperation>:
TEE_CopyOperation():
/home/qemu-sgx/devel/optee/optee_os/lib/libutee/tee_api_operations.c:716
    9dbc:	e96d 7e02 	strd	r7, lr, [sp, #-8]!
    9dc0:	b086      	sub	sp, #24
    9dc2:	af00      	add	r7, sp, #0
    9dc4:	6078      	str	r0, [r7, #4]
    9dc6:	6039      	str	r1, [r7, #0]
/home/qemu-sgx/devel/optee/optee_os/lib/libutee/tee_api_operations.c:719
    9dc8:	687b      	ldr	r3, [r7, #4]
    9dca:	2b00      	cmp	r3, #0
    9dcc:	d002      	beq.n	9dd4 <TEE_CopyOperation+0x18>
/home/qemu-sgx/devel/optee/optee_os/lib/libutee/tee_api_operations.c:719 (discriminator 1)
    9dce:	683b      	ldr	r3, [r7, #0]
    9dd0:	2b00      	cmp	r3, #0
    9dd2:	d103      	bne.n	9ddc <TEE_CopyOperation+0x20>
/home/qemu-sgx/devel/optee/optee_os/lib/libutee/tee_api_operations.c:720
    9dd4:	f04f 0000 	mov.w	r0, #0
    9dd8:	f7f9 e942 	blx	3060 <TEE_Panic@plt>
/home/qemu-sgx/devel/optee/optee_os/lib/libutee/tee_api_operations.c:721
    9ddc:	687b      	ldr	r3, [r7, #4]
    9dde:	681a      	ldr	r2, [r3, #0]
    9de0:	683b      	ldr	r3, [r7, #0]
    9de2:	681b      	ldr	r3, [r3, #0]
    9de4:	429a      	cmp	r2, r3
    9de6:	d003      	beq.n	9df0 <TEE_CopyOperation+0x34>
/home/qemu-sgx/devel/optee/optee_os/lib/libutee/tee_api_operations.c:722
    9de8:	f04f 0000 	mov.w	r0, #0
    9dec:	f7f9 e938 	blx	3060 <TEE_Panic@plt>
/home/qemu-sgx/devel/optee/optee_os/lib/libutee/tee_api_operations.c:723
    9df0:	687b      	ldr	r3, [r7, #4]
    9df2:	689a      	ldr	r2, [r3, #8]
    9df4:	683b      	ldr	r3, [r7, #0]
    9df6:	689b      	ldr	r3, [r3, #8]
    9df8:	429a      	cmp	r2, r3
    9dfa:	d003      	beq.n	9e04 <TEE_CopyOperation+0x48>
/home/qemu-sgx/devel/optee/optee_os/lib/libutee/tee_api_operations.c:724
    9dfc:	f04f 0000 	mov.w	r0, #0
    9e00:	f7f9 e92e 	blx	3060 <TEE_Panic@plt>
/home/qemu-sgx/devel/optee/optee_os/lib/libutee/tee_api_operations.c:725
    9e04:	683b      	ldr	r3, [r7, #0]
    9e06:	685b      	ldr	r3, [r3, #4]
    9e08:	2b05      	cmp	r3, #5
    9e0a:	d021      	beq.n	9e50 <TEE_CopyOperation+0x94>
/home/qemu-sgx/devel/optee/optee_os/lib/libutee/tee_api_operations.c:726
    9e0c:	f04f 0300 	mov.w	r3, #0
    9e10:	617b      	str	r3, [r7, #20]
/home/qemu-sgx/devel/optee/optee_os/lib/libutee/tee_api_operations.c:727
    9e12:	f04f 0300 	mov.w	r3, #0
    9e16:	613b      	str	r3, [r7, #16]
/home/qemu-sgx/devel/optee/optee_os/lib/libutee/tee_api_operations.c:729
    9e18:	683b      	ldr	r3, [r7, #0]
    9e1a:	69db      	ldr	r3, [r3, #28]
    9e1c:	f403 2380 	and.w	r3, r3, #262144	; 0x40000
    9e20:	2b00      	cmp	r3, #0
    9e22:	d005      	beq.n	9e30 <TEE_CopyOperation+0x74>
/home/qemu-sgx/devel/optee/optee_os/lib/libutee/tee_api_operations.c:730
    9e24:	683b      	ldr	r3, [r7, #0]
    9e26:	6a1b      	ldr	r3, [r3, #32]
    9e28:	617b      	str	r3, [r7, #20]
/home/qemu-sgx/devel/optee/optee_os/lib/libutee/tee_api_operations.c:731
    9e2a:	683b      	ldr	r3, [r7, #0]
    9e2c:	6a5b      	ldr	r3, [r3, #36]	; 0x24
    9e2e:	613b      	str	r3, [r7, #16]
/home/qemu-sgx/devel/optee/optee_os/lib/libutee/tee_api_operations.c:734
    9e30:	683b      	ldr	r3, [r7, #0]
    9e32:	69db      	ldr	r3, [r3, #28]
    9e34:	f403 2300 	and.w	r3, r3, #524288	; 0x80000
    9e38:	2b00      	cmp	r3, #0
    9e3a:	d104      	bne.n	9e46 <TEE_CopyOperation+0x8a>
/home/qemu-sgx/devel/optee/optee_os/lib/libutee/tee_api_operations.c:736
    9e3c:	6979      	ldr	r1, [r7, #20]
    9e3e:	6878      	ldr	r0, [r7, #4]
    9e40:	f7f9 ea5e 	blx	3300 <TEE_SetOperationKey@plt>
    9e44:	e004      	b.n	9e50 <TEE_CopyOperation+0x94>
/home/qemu-sgx/devel/optee/optee_os/lib/libutee/tee_api_operations.c:738
    9e46:	693a      	ldr	r2, [r7, #16]
    9e48:	6979      	ldr	r1, [r7, #20]
    9e4a:	6878      	ldr	r0, [r7, #4]
    9e4c:	f7f9 e8a2 	blx	2f94 <TEE_SetOperationKey2@plt>
/home/qemu-sgx/devel/optee/optee_os/lib/libutee/tee_api_operations.c:741
    9e50:	683b      	ldr	r3, [r7, #0]
    9e52:	69da      	ldr	r2, [r3, #28]
    9e54:	687b      	ldr	r3, [r7, #4]
    9e56:	61da      	str	r2, [r3, #28]
/home/qemu-sgx/devel/optee/optee_os/lib/libutee/tee_api_operations.c:742
    9e58:	683b      	ldr	r3, [r7, #0]
    9e5a:	695a      	ldr	r2, [r3, #20]
    9e5c:	687b      	ldr	r3, [r7, #4]
    9e5e:	615a      	str	r2, [r3, #20]
/home/qemu-sgx/devel/optee/optee_os/lib/libutee/tee_api_operations.c:743
    9e60:	683b      	ldr	r3, [r7, #0]
    9e62:	68da      	ldr	r2, [r3, #12]
    9e64:	687b      	ldr	r3, [r7, #4]
    9e66:	60da      	str	r2, [r3, #12]
/home/qemu-sgx/devel/optee/optee_os/lib/libutee/tee_api_operations.c:744
    9e68:	683b      	ldr	r3, [r7, #0]
    9e6a:	6a9a      	ldr	r2, [r3, #40]	; 0x28
    9e6c:	687b      	ldr	r3, [r7, #4]
    9e6e:	629a      	str	r2, [r3, #40]	; 0x28
/home/qemu-sgx/devel/optee/optee_os/lib/libutee/tee_api_operations.c:746
    9e70:	687b      	ldr	r3, [r7, #4]
    9e72:	f893 2030 	ldrb.w	r2, [r3, #48]	; 0x30
    9e76:	683b      	ldr	r3, [r7, #0]
    9e78:	f893 3030 	ldrb.w	r3, [r3, #48]	; 0x30
    9e7c:	429a      	cmp	r2, r3
    9e7e:	d105      	bne.n	9e8c <TEE_CopyOperation+0xd0>
/home/qemu-sgx/devel/optee/optee_os/lib/libutee/tee_api_operations.c:747 (discriminator 1)
    9e80:	687b      	ldr	r3, [r7, #4]
    9e82:	6b5a      	ldr	r2, [r3, #52]	; 0x34
    9e84:	683b      	ldr	r3, [r7, #0]
    9e86:	6b5b      	ldr	r3, [r3, #52]	; 0x34
/home/qemu-sgx/devel/optee/optee_os/lib/libutee/tee_api_operations.c:746 (discriminator 1)
    9e88:	429a      	cmp	r2, r3
    9e8a:	d003      	beq.n	9e94 <TEE_CopyOperation+0xd8>
/home/qemu-sgx/devel/optee/optee_os/lib/libutee/tee_api_operations.c:748
    9e8c:	f04f 0000 	mov.w	r0, #0
    9e90:	f7f9 e8e6 	blx	3060 <TEE_Panic@plt>
/home/qemu-sgx/devel/optee/optee_os/lib/libutee/tee_api_operations.c:750
    9e94:	687b      	ldr	r3, [r7, #4]
    9e96:	6adb      	ldr	r3, [r3, #44]	; 0x2c
    9e98:	2b00      	cmp	r3, #0
    9e9a:	d015      	beq.n	9ec8 <TEE_CopyOperation+0x10c>
/home/qemu-sgx/devel/optee/optee_os/lib/libutee/tee_api_operations.c:751
    9e9c:	683b      	ldr	r3, [r7, #0]
    9e9e:	6adb      	ldr	r3, [r3, #44]	; 0x2c
    9ea0:	2b00      	cmp	r3, #0
    9ea2:	d103      	bne.n	9eac <TEE_CopyOperation+0xf0>
/home/qemu-sgx/devel/optee/optee_os/lib/libutee/tee_api_operations.c:752
    9ea4:	f04f 0000 	mov.w	r0, #0
    9ea8:	f7f9 e8da 	blx	3060 <TEE_Panic@plt>
/home/qemu-sgx/devel/optee/optee_os/lib/libutee/tee_api_operations.c:754
    9eac:	687b      	ldr	r3, [r7, #4]
    9eae:	6ad8      	ldr	r0, [r3, #44]	; 0x2c
    9eb0:	683b      	ldr	r3, [r7, #0]
    9eb2:	6ad9      	ldr	r1, [r3, #44]	; 0x2c
    9eb4:	683b      	ldr	r3, [r7, #0]
    9eb6:	6b9b      	ldr	r3, [r3, #56]	; 0x38
    9eb8:	461a      	mov	r2, r3
    9eba:	f7f9 e8cc 	blx	3054 <memcpy@plt>
/home/qemu-sgx/devel/optee/optee_os/lib/libutee/tee_api_operations.c:755
    9ebe:	683b      	ldr	r3, [r7, #0]
    9ec0:	6b9a      	ldr	r2, [r3, #56]	; 0x38
    9ec2:	687b      	ldr	r3, [r7, #4]
    9ec4:	639a      	str	r2, [r3, #56]	; 0x38
    9ec6:	e007      	b.n	9ed8 <TEE_CopyOperation+0x11c>
/home/qemu-sgx/devel/optee/optee_os/lib/libutee/tee_api_operations.c:756
    9ec8:	683b      	ldr	r3, [r7, #0]
    9eca:	6adb      	ldr	r3, [r3, #44]	; 0x2c
    9ecc:	2b00      	cmp	r3, #0
    9ece:	d003      	beq.n	9ed8 <TEE_CopyOperation+0x11c>
/home/qemu-sgx/devel/optee/optee_os/lib/libutee/tee_api_operations.c:757
    9ed0:	f04f 0000 	mov.w	r0, #0
    9ed4:	f7f9 e8c4 	blx	3060 <TEE_Panic@plt>
/home/qemu-sgx/devel/optee/optee_os/lib/libutee/tee_api_operations.c:760
    9ed8:	687b      	ldr	r3, [r7, #4]
    9eda:	6bda      	ldr	r2, [r3, #60]	; 0x3c
    9edc:	683b      	ldr	r3, [r7, #0]
    9ede:	6bdb      	ldr	r3, [r3, #60]	; 0x3c
    9ee0:	4619      	mov	r1, r3
    9ee2:	4610      	mov	r0, r2
    9ee4:	f7f9 e904 	blx	30f0 <_utee_cryp_state_copy@plt>
    9ee8:	60f8      	str	r0, [r7, #12]
/home/qemu-sgx/devel/optee/optee_os/lib/libutee/tee_api_operations.c:761
    9eea:	68fb      	ldr	r3, [r7, #12]
    9eec:	2b00      	cmp	r3, #0
    9eee:	d002      	beq.n	9ef6 <TEE_CopyOperation+0x13a>
/home/qemu-sgx/devel/optee/optee_os/lib/libutee/tee_api_operations.c:762
    9ef0:	68f8      	ldr	r0, [r7, #12]
    9ef2:	f7f9 e8b6 	blx	3060 <TEE_Panic@plt>
/home/qemu-sgx/devel/optee/optee_os/lib/libutee/tee_api_operations.c:763
    9ef6:	bf00      	nop
    9ef8:	f107 0718 	add.w	r7, r7, #24
    9efc:	46bd      	mov	sp, r7
    9efe:	bd80      	pop	{r7, pc}

00009f00 <init_hash_operation>:
init_hash_operation():
/home/qemu-sgx/devel/optee/optee_os/lib/libutee/tee_api_operations.c:769
    9f00:	e96d 7e02 	strd	r7, lr, [sp, #-8]!
    9f04:	b086      	sub	sp, #24
    9f06:	af00      	add	r7, sp, #0
    9f08:	60f8      	str	r0, [r7, #12]
    9f0a:	60b9      	str	r1, [r7, #8]
    9f0c:	607a      	str	r2, [r7, #4]
/home/qemu-sgx/devel/optee/optee_os/lib/libutee/tee_api_operations.c:776
    9f0e:	68fb      	ldr	r3, [r7, #12]
    9f10:	6bdb      	ldr	r3, [r3, #60]	; 0x3c
    9f12:	687a      	ldr	r2, [r7, #4]
    9f14:	68b9      	ldr	r1, [r7, #8]
    9f16:	4618      	mov	r0, r3
    9f18:	f7f9 e88a 	blx	3030 <_utee_hash_init@plt>
    9f1c:	6178      	str	r0, [r7, #20]
/home/qemu-sgx/devel/optee/optee_os/lib/libutee/tee_api_operations.c:777
    9f1e:	697b      	ldr	r3, [r7, #20]
    9f20:	2b00      	cmp	r3, #0
    9f22:	d002      	beq.n	9f2a <init_hash_operation+0x2a>
/home/qemu-sgx/devel/optee/optee_os/lib/libutee/tee_api_operations.c:778
    9f24:	6978      	ldr	r0, [r7, #20]
    9f26:	f7f9 e89c 	blx	3060 <TEE_Panic@plt>
/home/qemu-sgx/devel/optee/optee_os/lib/libutee/tee_api_operations.c:779
    9f2a:	68fb      	ldr	r3, [r7, #12]
    9f2c:	f04f 0200 	mov.w	r2, #0
    9f30:	639a      	str	r2, [r3, #56]	; 0x38
/home/qemu-sgx/devel/optee/optee_os/lib/libutee/tee_api_operations.c:780
    9f32:	68fb      	ldr	r3, [r7, #12]
    9f34:	69db      	ldr	r3, [r3, #28]
    9f36:	f443 3200 	orr.w	r2, r3, #131072	; 0x20000
    9f3a:	68fb      	ldr	r3, [r7, #12]
    9f3c:	61da      	str	r2, [r3, #28]
/home/qemu-sgx/devel/optee/optee_os/lib/libutee/tee_api_operations.c:781
    9f3e:	bf00      	nop
    9f40:	f107 0718 	add.w	r7, r7, #24
    9f44:	46bd      	mov	sp, r7
    9f46:	bd80      	pop	{r7, pc}

00009f48 <TEE_DigestUpdate>:
TEE_DigestUpdate():
/home/qemu-sgx/devel/optee/optee_os/lib/libutee/tee_api_operations.c:785
    9f48:	e96d 7e02 	strd	r7, lr, [sp, #-8]!
    9f4c:	b086      	sub	sp, #24
    9f4e:	af00      	add	r7, sp, #0
    9f50:	60f8      	str	r0, [r7, #12]
    9f52:	60b9      	str	r1, [r7, #8]
    9f54:	607a      	str	r2, [r7, #4]
/home/qemu-sgx/devel/optee/optee_os/lib/libutee/tee_api_operations.c:786
    9f56:	f04f 0300 	mov.w	r3, #0
    9f5a:	f6cf 73ff 	movt	r3, #65535	; 0xffff
    9f5e:	617b      	str	r3, [r7, #20]
/home/qemu-sgx/devel/optee/optee_os/lib/libutee/tee_api_operations.c:788
    9f60:	68fb      	ldr	r3, [r7, #12]
    9f62:	2b00      	cmp	r3, #0
    9f64:	d003      	beq.n	9f6e <TEE_DigestUpdate+0x26>
/home/qemu-sgx/devel/optee/optee_os/lib/libutee/tee_api_operations.c:789 (discriminator 1)
    9f66:	68fb      	ldr	r3, [r7, #12]
    9f68:	685b      	ldr	r3, [r3, #4]
/home/qemu-sgx/devel/optee/optee_os/lib/libutee/tee_api_operations.c:788 (discriminator 1)
    9f6a:	2b05      	cmp	r3, #5
    9f6c:	d003      	beq.n	9f76 <TEE_DigestUpdate+0x2e>
/home/qemu-sgx/devel/optee/optee_os/lib/libutee/tee_api_operations.c:790
    9f6e:	f04f 0000 	mov.w	r0, #0
    9f72:	f7f9 e876 	blx	3060 <TEE_Panic@plt>
/home/qemu-sgx/devel/optee/optee_os/lib/libutee/tee_api_operations.c:792
    9f76:	68fb      	ldr	r3, [r7, #12]
    9f78:	f04f 0201 	mov.w	r2, #1
    9f7c:	629a      	str	r2, [r3, #40]	; 0x28
/home/qemu-sgx/devel/optee/optee_os/lib/libutee/tee_api_operations.c:794
    9f7e:	68fb      	ldr	r3, [r7, #12]
    9f80:	6bdb      	ldr	r3, [r3, #60]	; 0x3c
    9f82:	687a      	ldr	r2, [r7, #4]
    9f84:	68b9      	ldr	r1, [r7, #8]
    9f86:	4618      	mov	r0, r3
    9f88:	f7f9 e88e 	blx	30a8 <_utee_hash_update@plt>
    9f8c:	6178      	str	r0, [r7, #20]
/home/qemu-sgx/devel/optee/optee_os/lib/libutee/tee_api_operations.c:795
    9f8e:	697b      	ldr	r3, [r7, #20]
    9f90:	2b00      	cmp	r3, #0
    9f92:	d002      	beq.n	9f9a <TEE_DigestUpdate+0x52>
/home/qemu-sgx/devel/optee/optee_os/lib/libutee/tee_api_operations.c:796
    9f94:	6978      	ldr	r0, [r7, #20]
    9f96:	f7f9 e864 	blx	3060 <TEE_Panic@plt>
/home/qemu-sgx/devel/optee/optee_os/lib/libutee/tee_api_operations.c:797
    9f9a:	bf00      	nop
    9f9c:	f107 0718 	add.w	r7, r7, #24
    9fa0:	46bd      	mov	sp, r7
    9fa2:	bd80      	pop	{r7, pc}

00009fa4 <TEE_DigestDoFinal>:
TEE_DigestDoFinal():
/home/qemu-sgx/devel/optee/optee_os/lib/libutee/tee_api_operations.c:801
    9fa4:	e96d 4504 	strd	r4, r5, [sp, #-16]!
    9fa8:	e9cd 7e02 	strd	r7, lr, [sp, #8]
    9fac:	b08a      	sub	sp, #40	; 0x28
    9fae:	af02      	add	r7, sp, #8
    9fb0:	60f8      	str	r0, [r7, #12]
    9fb2:	60b9      	str	r1, [r7, #8]
    9fb4:	607a      	str	r2, [r7, #4]
    9fb6:	603b      	str	r3, [r7, #0]
/home/qemu-sgx/devel/optee/optee_os/lib/libutee/tee_api_operations.c:805
    9fb8:	68fb      	ldr	r3, [r7, #12]
    9fba:	2b00      	cmp	r3, #0
    9fbc:	d009      	beq.n	9fd2 <TEE_DigestDoFinal+0x2e>
/home/qemu-sgx/devel/optee/optee_os/lib/libutee/tee_api_operations.c:805 (discriminator 1)
    9fbe:	68bb      	ldr	r3, [r7, #8]
    9fc0:	2b00      	cmp	r3, #0
    9fc2:	d102      	bne.n	9fca <TEE_DigestDoFinal+0x26>
/home/qemu-sgx/devel/optee/optee_os/lib/libutee/tee_api_operations.c:806
    9fc4:	687b      	ldr	r3, [r7, #4]
    9fc6:	2b00      	cmp	r3, #0
    9fc8:	d103      	bne.n	9fd2 <TEE_DigestDoFinal+0x2e>
/home/qemu-sgx/devel/optee/optee_os/lib/libutee/tee_api_operations.c:807 (discriminator 1)
    9fca:	68fb      	ldr	r3, [r7, #12]
    9fcc:	685b      	ldr	r3, [r3, #4]
/home/qemu-sgx/devel/optee/optee_os/lib/libutee/tee_api_operations.c:806 (discriminator 1)
    9fce:	2b05      	cmp	r3, #5
    9fd0:	d005      	beq.n	9fde <TEE_DigestDoFinal+0x3a>
/home/qemu-sgx/devel/optee/optee_os/lib/libutee/tee_api_operations.c:808
    9fd2:	f04f 0306 	mov.w	r3, #6
    9fd6:	f6cf 73ff 	movt	r3, #65535	; 0xffff
    9fda:	61fb      	str	r3, [r7, #28]
/home/qemu-sgx/devel/optee/optee_os/lib/libutee/tee_api_operations.c:809
    9fdc:	e02b      	b.n	a036 <TEE_DigestDoFinal+0x92>
/home/qemu-sgx/devel/optee/optee_os/lib/libutee/tee_api_operations.c:811
    9fde:	f04f 0104 	mov.w	r1, #4
    9fe2:	6b38      	ldr	r0, [r7, #48]	; 0x30
    9fe4:	f7f8 efdc 	blx	2fa0 <__utee_check_inout_annotation@plt>
/home/qemu-sgx/devel/optee/optee_os/lib/libutee/tee_api_operations.c:813
    9fe8:	6b3b      	ldr	r3, [r7, #48]	; 0x30
    9fea:	681b      	ldr	r3, [r3, #0]
    9fec:	f04f 0200 	mov.w	r2, #0
    9ff0:	461c      	mov	r4, r3
    9ff2:	4615      	mov	r5, r2
    9ff4:	e9c7 4504 	strd	r4, r5, [r7, #16]
/home/qemu-sgx/devel/optee/optee_os/lib/libutee/tee_api_operations.c:814
    9ff8:	68fb      	ldr	r3, [r7, #12]
    9ffa:	6bd8      	ldr	r0, [r3, #60]	; 0x3c
    9ffc:	f107 0310 	add.w	r3, r7, #16
    a000:	9300      	str	r3, [sp, #0]
    a002:	683b      	ldr	r3, [r7, #0]
    a004:	687a      	ldr	r2, [r7, #4]
    a006:	68b9      	ldr	r1, [r7, #8]
    a008:	f7f9 ea64 	blx	34d4 <_utee_hash_final@plt>
    a00c:	61f8      	str	r0, [r7, #28]
/home/qemu-sgx/devel/optee/optee_os/lib/libutee/tee_api_operations.c:815
    a00e:	e9d7 2304 	ldrd	r2, r3, [r7, #16]
    a012:	6b3b      	ldr	r3, [r7, #48]	; 0x30
    a014:	601a      	str	r2, [r3, #0]
/home/qemu-sgx/devel/optee/optee_os/lib/libutee/tee_api_operations.c:816
    a016:	69fb      	ldr	r3, [r7, #28]
    a018:	2b00      	cmp	r3, #0
    a01a:	d10b      	bne.n	a034 <TEE_DigestDoFinal+0x90>
/home/qemu-sgx/devel/optee/optee_os/lib/libutee/tee_api_operations.c:820
    a01c:	f04f 0200 	mov.w	r2, #0
    a020:	f04f 0100 	mov.w	r1, #0
    a024:	68f8      	ldr	r0, [r7, #12]
    a026:	f7ff ff6b 	bl	9f00 <init_hash_operation>
/home/qemu-sgx/devel/optee/optee_os/lib/libutee/tee_api_operations.c:822
    a02a:	68fb      	ldr	r3, [r7, #12]
    a02c:	f04f 0200 	mov.w	r2, #0
    a030:	629a      	str	r2, [r3, #40]	; 0x28
    a032:	e000      	b.n	a036 <TEE_DigestDoFinal+0x92>
/home/qemu-sgx/devel/optee/optee_os/lib/libutee/tee_api_operations.c:817
    a034:	bf00      	nop
/home/qemu-sgx/devel/optee/optee_os/lib/libutee/tee_api_operations.c:825
    a036:	69fb      	ldr	r3, [r7, #28]
    a038:	2b00      	cmp	r3, #0
    a03a:	d009      	beq.n	a050 <TEE_DigestDoFinal+0xac>
/home/qemu-sgx/devel/optee/optee_os/lib/libutee/tee_api_operations.c:825 (discriminator 1)
    a03c:	69fa      	ldr	r2, [r7, #28]
    a03e:	f04f 0310 	mov.w	r3, #16
    a042:	f6cf 73ff 	movt	r3, #65535	; 0xffff
    a046:	429a      	cmp	r2, r3
    a048:	d002      	beq.n	a050 <TEE_DigestDoFinal+0xac>
/home/qemu-sgx/devel/optee/optee_os/lib/libutee/tee_api_operations.c:827
    a04a:	69f8      	ldr	r0, [r7, #28]
    a04c:	f7f9 e808 	blx	3060 <TEE_Panic@plt>
/home/qemu-sgx/devel/optee/optee_os/lib/libutee/tee_api_operations.c:829
    a050:	69fb      	ldr	r3, [r7, #28]
/home/qemu-sgx/devel/optee/optee_os/lib/libutee/tee_api_operations.c:830
    a052:	4618      	mov	r0, r3
    a054:	f107 0720 	add.w	r7, r7, #32
    a058:	46bd      	mov	sp, r7
    a05a:	e9dd 4500 	ldrd	r4, r5, [sp]
    a05e:	b002      	add	sp, #8
    a060:	bd80      	pop	{r7, pc}

0000a062 <TEE_CipherInit>:
TEE_CipherInit():
/home/qemu-sgx/devel/optee/optee_os/lib/libutee/tee_api_operations.c:836
    a062:	e96d 7e02 	strd	r7, lr, [sp, #-8]!
    a066:	b086      	sub	sp, #24
    a068:	af00      	add	r7, sp, #0
    a06a:	60f8      	str	r0, [r7, #12]
    a06c:	60b9      	str	r1, [r7, #8]
    a06e:	607a      	str	r2, [r7, #4]
/home/qemu-sgx/devel/optee/optee_os/lib/libutee/tee_api_operations.c:839
    a070:	68fb      	ldr	r3, [r7, #12]
    a072:	2b00      	cmp	r3, #0
    a074:	d103      	bne.n	a07e <TEE_CipherInit+0x1c>
/home/qemu-sgx/devel/optee/optee_os/lib/libutee/tee_api_operations.c:840
    a076:	f04f 0000 	mov.w	r0, #0
    a07a:	f7f8 eff2 	blx	3060 <TEE_Panic@plt>
/home/qemu-sgx/devel/optee/optee_os/lib/libutee/tee_api_operations.c:842
    a07e:	68fb      	ldr	r3, [r7, #12]
    a080:	685b      	ldr	r3, [r3, #4]
    a082:	2b01      	cmp	r3, #1
    a084:	d003      	beq.n	a08e <TEE_CipherInit+0x2c>
/home/qemu-sgx/devel/optee/optee_os/lib/libutee/tee_api_operations.c:843
    a086:	f04f 0000 	mov.w	r0, #0
    a08a:	f7f8 efea 	blx	3060 <TEE_Panic@plt>
/home/qemu-sgx/devel/optee/optee_os/lib/libutee/tee_api_operations.c:845
    a08e:	68fb      	ldr	r3, [r7, #12]
    a090:	69db      	ldr	r3, [r3, #28]
    a092:	f403 2380 	and.w	r3, r3, #262144	; 0x40000
    a096:	2b00      	cmp	r3, #0
    a098:	d003      	beq.n	a0a2 <TEE_CipherInit+0x40>
/home/qemu-sgx/devel/optee/optee_os/lib/libutee/tee_api_operations.c:846 (discriminator 1)
    a09a:	68fb      	ldr	r3, [r7, #12]
    a09c:	6a1b      	ldr	r3, [r3, #32]
/home/qemu-sgx/devel/optee/optee_os/lib/libutee/tee_api_operations.c:845 (discriminator 1)
    a09e:	2b00      	cmp	r3, #0
    a0a0:	d103      	bne.n	a0aa <TEE_CipherInit+0x48>
/home/qemu-sgx/devel/optee/optee_os/lib/libutee/tee_api_operations.c:847
    a0a2:	f04f 0000 	mov.w	r0, #0
    a0a6:	f7f8 efdc 	blx	3060 <TEE_Panic@plt>
/home/qemu-sgx/devel/optee/optee_os/lib/libutee/tee_api_operations.c:849
    a0aa:	68fb      	ldr	r3, [r7, #12]
    a0ac:	6a9b      	ldr	r3, [r3, #40]	; 0x28
    a0ae:	2b00      	cmp	r3, #0
    a0b0:	d002      	beq.n	a0b8 <TEE_CipherInit+0x56>
/home/qemu-sgx/devel/optee/optee_os/lib/libutee/tee_api_operations.c:850
    a0b2:	68f8      	ldr	r0, [r7, #12]
    a0b4:	f7f9 e8dc 	blx	3270 <TEE_ResetOperation@plt>
/home/qemu-sgx/devel/optee/optee_os/lib/libutee/tee_api_operations.c:852
    a0b8:	68fb      	ldr	r3, [r7, #12]
    a0ba:	f04f 0201 	mov.w	r2, #1
    a0be:	629a      	str	r2, [r3, #40]	; 0x28
/home/qemu-sgx/devel/optee/optee_os/lib/libutee/tee_api_operations.c:854
    a0c0:	68fb      	ldr	r3, [r7, #12]
    a0c2:	6bdb      	ldr	r3, [r3, #60]	; 0x3c
    a0c4:	687a      	ldr	r2, [r7, #4]
    a0c6:	68b9      	ldr	r1, [r7, #8]
    a0c8:	4618      	mov	r0, r3
    a0ca:	f7f9 e8ea 	blx	32a0 <_utee_cipher_init@plt>
    a0ce:	6178      	str	r0, [r7, #20]
/home/qemu-sgx/devel/optee/optee_os/lib/libutee/tee_api_operations.c:855
    a0d0:	697b      	ldr	r3, [r7, #20]
    a0d2:	2b00      	cmp	r3, #0
    a0d4:	d002      	beq.n	a0dc <TEE_CipherInit+0x7a>
/home/qemu-sgx/devel/optee/optee_os/lib/libutee/tee_api_operations.c:856
    a0d6:	6978      	ldr	r0, [r7, #20]
    a0d8:	f7f8 efc2 	blx	3060 <TEE_Panic@plt>
/home/qemu-sgx/devel/optee/optee_os/lib/libutee/tee_api_operations.c:858
    a0dc:	68fb      	ldr	r3, [r7, #12]
    a0de:	f04f 0200 	mov.w	r2, #0
    a0e2:	639a      	str	r2, [r3, #56]	; 0x38
/home/qemu-sgx/devel/optee/optee_os/lib/libutee/tee_api_operations.c:859
    a0e4:	68fb      	ldr	r3, [r7, #12]
    a0e6:	69db      	ldr	r3, [r3, #28]
    a0e8:	f443 3200 	orr.w	r2, r3, #131072	; 0x20000
    a0ec:	68fb      	ldr	r3, [r7, #12]
    a0ee:	61da      	str	r2, [r3, #28]
/home/qemu-sgx/devel/optee/optee_os/lib/libutee/tee_api_operations.c:860
    a0f0:	bf00      	nop
    a0f2:	f107 0718 	add.w	r7, r7, #24
    a0f6:	46bd      	mov	sp, r7
    a0f8:	bd80      	pop	{r7, pc}

0000a0fa <tee_buffer_update>:
tee_buffer_update():
/home/qemu-sgx/devel/optee/optee_os/lib/libutee/tee_api_operations.c:868
    a0fa:	f84d 4d24 	str.w	r4, [sp, #-36]!
    a0fe:	e9cd 5601 	strd	r5, r6, [sp, #4]
    a102:	e9cd 7803 	strd	r7, r8, [sp, #12]
    a106:	e9cd 9a05 	strd	r9, sl, [sp, #20]
    a10a:	e9cd be07 	strd	fp, lr, [sp, #28]
    a10e:	b099      	sub	sp, #100	; 0x64
    a110:	af02      	add	r7, sp, #8
    a112:	60f8      	str	r0, [r7, #12]
    a114:	60b9      	str	r1, [r7, #8]
    a116:	607a      	str	r2, [r7, #4]
    a118:	603b      	str	r3, [r7, #0]
/home/qemu-sgx/devel/optee/optee_os/lib/libutee/tee_api_operations.c:870
    a11a:	687b      	ldr	r3, [r7, #4]
    a11c:	657b      	str	r3, [r7, #84]	; 0x54
/home/qemu-sgx/devel/optee/optee_os/lib/libutee/tee_api_operations.c:871
    a11e:	683b      	ldr	r3, [r7, #0]
    a120:	653b      	str	r3, [r7, #80]	; 0x50
/home/qemu-sgx/devel/optee/optee_os/lib/libutee/tee_api_operations.c:872
    a122:	f8d7 3080 	ldr.w	r3, [r7, #128]	; 0x80
    a126:	64fb      	str	r3, [r7, #76]	; 0x4c
/home/qemu-sgx/devel/optee/optee_os/lib/libutee/tee_api_operations.c:873
    a128:	f8d7 3084 	ldr.w	r3, [r7, #132]	; 0x84
    a12c:	e9d3 2300 	ldrd	r2, r3, [r3]
    a130:	4613      	mov	r3, r2
    a132:	64bb      	str	r3, [r7, #72]	; 0x48
/home/qemu-sgx/devel/optee/optee_os/lib/libutee/tee_api_operations.c:874
    a134:	f04f 0300 	mov.w	r3, #0
    a138:	647b      	str	r3, [r7, #68]	; 0x44
/home/qemu-sgx/devel/optee/optee_os/lib/libutee/tee_api_operations.c:880
    a13a:	6d7b      	ldr	r3, [r7, #84]	; 0x54
    a13c:	2b00      	cmp	r3, #0
    a13e:	d108      	bne.n	a152 <tee_buffer_update+0x58>
/home/qemu-sgx/devel/optee/optee_os/lib/libutee/tee_api_operations.c:881
    a140:	6d3b      	ldr	r3, [r7, #80]	; 0x50
    a142:	2b00      	cmp	r3, #0
    a144:	f000 8154 	beq.w	a3f0 <tee_buffer_update+0x2f6>
/home/qemu-sgx/devel/optee/optee_os/lib/libutee/tee_api_operations.c:882
    a148:	f04f 0000 	mov.w	r0, #0
    a14c:	f7f8 ef88 	blx	3060 <TEE_Panic@plt>
/home/qemu-sgx/devel/optee/optee_os/lib/libutee/tee_api_operations.c:883
    a150:	e14e      	b.n	a3f0 <tee_buffer_update+0x2f6>
/home/qemu-sgx/devel/optee/optee_os/lib/libutee/tee_api_operations.c:886
    a152:	68fb      	ldr	r3, [r7, #12]
    a154:	f893 3030 	ldrb.w	r3, [r3, #48]	; 0x30
    a158:	2b00      	cmp	r3, #0
    a15a:	d008      	beq.n	a16e <tee_buffer_update+0x74>
/home/qemu-sgx/devel/optee/optee_os/lib/libutee/tee_api_operations.c:887
    a15c:	68fb      	ldr	r3, [r7, #12]
    a15e:	6b5b      	ldr	r3, [r3, #52]	; 0x34
    a160:	ea4f 0343 	mov.w	r3, r3, lsl #1
    a164:	63fb      	str	r3, [r7, #60]	; 0x3c
/home/qemu-sgx/devel/optee/optee_os/lib/libutee/tee_api_operations.c:888
    a166:	f04f 0301 	mov.w	r3, #1
    a16a:	63bb      	str	r3, [r7, #56]	; 0x38
    a16c:	e005      	b.n	a17a <tee_buffer_update+0x80>
/home/qemu-sgx/devel/optee/optee_os/lib/libutee/tee_api_operations.c:890
    a16e:	68fb      	ldr	r3, [r7, #12]
    a170:	6b5b      	ldr	r3, [r3, #52]	; 0x34
    a172:	63fb      	str	r3, [r7, #60]	; 0x3c
/home/qemu-sgx/devel/optee/optee_os/lib/libutee/tee_api_operations.c:891
    a174:	f04f 0300 	mov.w	r3, #0
    a178:	63bb      	str	r3, [r7, #56]	; 0x38
/home/qemu-sgx/devel/optee/optee_os/lib/libutee/tee_api_operations.c:894
    a17a:	68fb      	ldr	r3, [r7, #12]
    a17c:	6b9b      	ldr	r3, [r3, #56]	; 0x38
    a17e:	2b00      	cmp	r3, #0
    a180:	d049      	beq.n	a216 <tee_buffer_update+0x11c>
/home/qemu-sgx/devel/optee/optee_os/lib/libutee/tee_api_operations.c:896
    a182:	68fb      	ldr	r3, [r7, #12]
    a184:	6b9a      	ldr	r2, [r3, #56]	; 0x38
    a186:	68fb      	ldr	r3, [r7, #12]
    a188:	6b5b      	ldr	r3, [r3, #52]	; 0x34
    a18a:	429a      	cmp	r2, r3
    a18c:	d20f      	bcs.n	a1ae <tee_buffer_update+0xb4>
/home/qemu-sgx/devel/optee/optee_os/lib/libutee/tee_api_operations.c:897
    a18e:	6d3b      	ldr	r3, [r7, #80]	; 0x50
    a190:	62fb      	str	r3, [r7, #44]	; 0x2c
    a192:	68fb      	ldr	r3, [r7, #12]
    a194:	6b5a      	ldr	r2, [r3, #52]	; 0x34
    a196:	68fb      	ldr	r3, [r7, #12]
    a198:	6b9b      	ldr	r3, [r3, #56]	; 0x38
    a19a:	eba2 0303 	sub.w	r3, r2, r3
    a19e:	62bb      	str	r3, [r7, #40]	; 0x28
    a1a0:	6aba      	ldr	r2, [r7, #40]	; 0x28
    a1a2:	6afb      	ldr	r3, [r7, #44]	; 0x2c
    a1a4:	4293      	cmp	r3, r2
    a1a6:	bf28      	it	cs
    a1a8:	4613      	movcs	r3, r2
    a1aa:	643b      	str	r3, [r7, #64]	; 0x40
    a1ac:	e00d      	b.n	a1ca <tee_buffer_update+0xd0>
/home/qemu-sgx/devel/optee/optee_os/lib/libutee/tee_api_operations.c:899
    a1ae:	6d3b      	ldr	r3, [r7, #80]	; 0x50
    a1b0:	637b      	str	r3, [r7, #52]	; 0x34
    a1b2:	68fb      	ldr	r3, [r7, #12]
    a1b4:	6b9b      	ldr	r3, [r3, #56]	; 0x38
    a1b6:	6bfa      	ldr	r2, [r7, #60]	; 0x3c
    a1b8:	eba2 0303 	sub.w	r3, r2, r3
    a1bc:	633b      	str	r3, [r7, #48]	; 0x30
    a1be:	6b3a      	ldr	r2, [r7, #48]	; 0x30
    a1c0:	6b7b      	ldr	r3, [r7, #52]	; 0x34
    a1c2:	4293      	cmp	r3, r2
    a1c4:	bf28      	it	cs
    a1c6:	4613      	movcs	r3, r2
    a1c8:	643b      	str	r3, [r7, #64]	; 0x40
/home/qemu-sgx/devel/optee/optee_os/lib/libutee/tee_api_operations.c:900
    a1ca:	68fb      	ldr	r3, [r7, #12]
    a1cc:	6ada      	ldr	r2, [r3, #44]	; 0x2c
    a1ce:	68fb      	ldr	r3, [r7, #12]
    a1d0:	6b9b      	ldr	r3, [r3, #56]	; 0x38
    a1d2:	4413      	add	r3, r2
    a1d4:	6c3a      	ldr	r2, [r7, #64]	; 0x40
    a1d6:	6d79      	ldr	r1, [r7, #84]	; 0x54
    a1d8:	4618      	mov	r0, r3
    a1da:	f7f8 ef3c 	blx	3054 <memcpy@plt>
/home/qemu-sgx/devel/optee/optee_os/lib/libutee/tee_api_operations.c:901
    a1de:	68fb      	ldr	r3, [r7, #12]
    a1e0:	6b9a      	ldr	r2, [r3, #56]	; 0x38
    a1e2:	6c3b      	ldr	r3, [r7, #64]	; 0x40
    a1e4:	441a      	add	r2, r3
    a1e6:	68fb      	ldr	r3, [r7, #12]
    a1e8:	639a      	str	r2, [r3, #56]	; 0x38
/home/qemu-sgx/devel/optee/optee_os/lib/libutee/tee_api_operations.c:902
    a1ea:	6d7a      	ldr	r2, [r7, #84]	; 0x54
    a1ec:	6c3b      	ldr	r3, [r7, #64]	; 0x40
    a1ee:	4413      	add	r3, r2
    a1f0:	657b      	str	r3, [r7, #84]	; 0x54
/home/qemu-sgx/devel/optee/optee_os/lib/libutee/tee_api_operations.c:903
    a1f2:	6d3a      	ldr	r2, [r7, #80]	; 0x50
    a1f4:	6c3b      	ldr	r3, [r7, #64]	; 0x40
    a1f6:	eba2 0303 	sub.w	r3, r2, r3
    a1fa:	653b      	str	r3, [r7, #80]	; 0x50
/home/qemu-sgx/devel/optee/optee_os/lib/libutee/tee_api_operations.c:904
    a1fc:	68fb      	ldr	r3, [r7, #12]
    a1fe:	6b9b      	ldr	r3, [r3, #56]	; 0x38
    a200:	68fa      	ldr	r2, [r7, #12]
    a202:	6b52      	ldr	r2, [r2, #52]	; 0x34
    a204:	fbb3 f1f2 	udiv	r1, r3, r2
    a208:	fb01 f202 	mul.w	r2, r1, r2
    a20c:	eba3 0302 	sub.w	r3, r3, r2
    a210:	2b00      	cmp	r3, #0
    a212:	f040 80ef 	bne.w	a3f4 <tee_buffer_update+0x2fa>
/home/qemu-sgx/devel/optee/optee_os/lib/libutee/tee_api_operations.c:909
    a216:	68fb      	ldr	r3, [r7, #12]
    a218:	6b9b      	ldr	r3, [r3, #56]	; 0x38
    a21a:	2b00      	cmp	r3, #0
    a21c:	d079      	beq.n	a312 <tee_buffer_update+0x218>
/home/qemu-sgx/devel/optee/optee_os/lib/libutee/tee_api_operations.c:910 (discriminator 1)
    a21e:	68fb      	ldr	r3, [r7, #12]
    a220:	6b9a      	ldr	r2, [r3, #56]	; 0x38
    a222:	6d3b      	ldr	r3, [r7, #80]	; 0x50
    a224:	441a      	add	r2, r3
    a226:	6bf9      	ldr	r1, [r7, #60]	; 0x3c
    a228:	6bbb      	ldr	r3, [r7, #56]	; 0x38
    a22a:	440b      	add	r3, r1
/home/qemu-sgx/devel/optee/optee_os/lib/libutee/tee_api_operations.c:909 (discriminator 1)
    a22c:	429a      	cmp	r2, r3
    a22e:	d370      	bcc.n	a312 <tee_buffer_update+0x218>
/home/qemu-sgx/devel/optee/optee_os/lib/libutee/tee_api_operations.c:911
    a230:	68fb      	ldr	r3, [r7, #12]
    a232:	6b9a      	ldr	r2, [r3, #56]	; 0x38
    a234:	6d3b      	ldr	r3, [r7, #80]	; 0x50
    a236:	441a      	add	r2, r3
    a238:	6bfb      	ldr	r3, [r7, #60]	; 0x3c
    a23a:	eba2 0203 	sub.w	r2, r2, r3
    a23e:	68fb      	ldr	r3, [r7, #12]
    a240:	6b5b      	ldr	r3, [r3, #52]	; 0x34
    a242:	4413      	add	r3, r2
    a244:	f103 32ff 	add.w	r2, r3, #4294967295	; 0xffffffff
    a248:	68fb      	ldr	r3, [r7, #12]
    a24a:	6b5b      	ldr	r3, [r3, #52]	; 0x34
    a24c:	f1c3 0300 	rsb	r3, r3, #0
    a250:	ea03 0302 	and.w	r3, r3, r2
    a254:	643b      	str	r3, [r7, #64]	; 0x40
/home/qemu-sgx/devel/optee/optee_os/lib/libutee/tee_api_operations.c:913
    a256:	68fb      	ldr	r3, [r7, #12]
    a258:	6b9b      	ldr	r3, [r3, #56]	; 0x38
    a25a:	627b      	str	r3, [r7, #36]	; 0x24
    a25c:	6c3b      	ldr	r3, [r7, #64]	; 0x40
    a25e:	623b      	str	r3, [r7, #32]
    a260:	6a3a      	ldr	r2, [r7, #32]
    a262:	6a7b      	ldr	r3, [r7, #36]	; 0x24
    a264:	4293      	cmp	r3, r2
    a266:	bf28      	it	cs
    a268:	4613      	movcs	r3, r2
    a26a:	643b      	str	r3, [r7, #64]	; 0x40
/home/qemu-sgx/devel/optee/optee_os/lib/libutee/tee_api_operations.c:914
    a26c:	6cbb      	ldr	r3, [r7, #72]	; 0x48
    a26e:	f04f 0200 	mov.w	r2, #0
    a272:	469a      	mov	sl, r3
    a274:	4693      	mov	fp, r2
    a276:	e9c7 ab04 	strd	sl, fp, [r7, #16]
/home/qemu-sgx/devel/optee/optee_os/lib/libutee/tee_api_operations.c:915
    a27a:	68fb      	ldr	r3, [r7, #12]
    a27c:	6bd8      	ldr	r0, [r3, #60]	; 0x3c
    a27e:	68fb      	ldr	r3, [r7, #12]
    a280:	6ad9      	ldr	r1, [r3, #44]	; 0x2c
    a282:	f107 0310 	add.w	r3, r7, #16
    a286:	9300      	str	r3, [sp, #0]
    a288:	68be      	ldr	r6, [r7, #8]
    a28a:	6cfb      	ldr	r3, [r7, #76]	; 0x4c
    a28c:	6c3a      	ldr	r2, [r7, #64]	; 0x40
    a28e:	47b0      	blx	r6
    a290:	61f8      	str	r0, [r7, #28]
/home/qemu-sgx/devel/optee/optee_os/lib/libutee/tee_api_operations.c:916
    a292:	69fb      	ldr	r3, [r7, #28]
    a294:	2b00      	cmp	r3, #0
    a296:	d002      	beq.n	a29e <tee_buffer_update+0x1a4>
/home/qemu-sgx/devel/optee/optee_os/lib/libutee/tee_api_operations.c:917
    a298:	69f8      	ldr	r0, [r7, #28]
    a29a:	f7f8 eee2 	blx	3060 <TEE_Panic@plt>
/home/qemu-sgx/devel/optee/optee_os/lib/libutee/tee_api_operations.c:918
    a29e:	e9d7 2304 	ldrd	r2, r3, [r7, #16]
    a2a2:	6cfb      	ldr	r3, [r7, #76]	; 0x4c
    a2a4:	4413      	add	r3, r2
    a2a6:	64fb      	str	r3, [r7, #76]	; 0x4c
/home/qemu-sgx/devel/optee/optee_os/lib/libutee/tee_api_operations.c:919
    a2a8:	e9d7 2304 	ldrd	r2, r3, [r7, #16]
    a2ac:	6cbb      	ldr	r3, [r7, #72]	; 0x48
    a2ae:	eba3 0302 	sub.w	r3, r3, r2
    a2b2:	64bb      	str	r3, [r7, #72]	; 0x48
/home/qemu-sgx/devel/optee/optee_os/lib/libutee/tee_api_operations.c:920
    a2b4:	e9d7 2304 	ldrd	r2, r3, [r7, #16]
    a2b8:	6c7b      	ldr	r3, [r7, #68]	; 0x44
    a2ba:	4413      	add	r3, r2
    a2bc:	647b      	str	r3, [r7, #68]	; 0x44
/home/qemu-sgx/devel/optee/optee_os/lib/libutee/tee_api_operations.c:921
    a2be:	68fb      	ldr	r3, [r7, #12]
    a2c0:	6b9a      	ldr	r2, [r3, #56]	; 0x38
    a2c2:	6c3b      	ldr	r3, [r7, #64]	; 0x40
    a2c4:	eba2 0203 	sub.w	r2, r2, r3
    a2c8:	68fb      	ldr	r3, [r7, #12]
    a2ca:	639a      	str	r2, [r3, #56]	; 0x38
/home/qemu-sgx/devel/optee/optee_os/lib/libutee/tee_api_operations.c:922
    a2cc:	68fb      	ldr	r3, [r7, #12]
    a2ce:	6b9b      	ldr	r3, [r3, #56]	; 0x38
    a2d0:	2b00      	cmp	r3, #0
    a2d2:	d01e      	beq.n	a312 <tee_buffer_update+0x218>
/home/qemu-sgx/devel/optee/optee_os/lib/libutee/tee_api_operations.c:926
    a2d4:	68fb      	ldr	r3, [r7, #12]
    a2d6:	6ad8      	ldr	r0, [r3, #44]	; 0x2c
    a2d8:	68fb      	ldr	r3, [r7, #12]
    a2da:	6ada      	ldr	r2, [r3, #44]	; 0x2c
    a2dc:	6c3b      	ldr	r3, [r7, #64]	; 0x40
    a2de:	eb02 0103 	add.w	r1, r2, r3
    a2e2:	6bfa      	ldr	r2, [r7, #60]	; 0x3c
    a2e4:	6c3b      	ldr	r3, [r7, #64]	; 0x40
    a2e6:	eba2 0303 	sub.w	r3, r2, r3
    a2ea:	461a      	mov	r2, r3
    a2ec:	f7f8 eeb2 	blx	3054 <memcpy@plt>
/home/qemu-sgx/devel/optee/optee_os/lib/libutee/tee_api_operations.c:927
    a2f0:	68fb      	ldr	r3, [r7, #12]
    a2f2:	6ada      	ldr	r2, [r3, #44]	; 0x2c
    a2f4:	68fb      	ldr	r3, [r7, #12]
    a2f6:	6b9b      	ldr	r3, [r3, #56]	; 0x38
    a2f8:	4413      	add	r3, r2
    a2fa:	6d3a      	ldr	r2, [r7, #80]	; 0x50
    a2fc:	6d79      	ldr	r1, [r7, #84]	; 0x54
    a2fe:	4618      	mov	r0, r3
    a300:	f7f8 eea8 	blx	3054 <memcpy@plt>
/home/qemu-sgx/devel/optee/optee_os/lib/libutee/tee_api_operations.c:928
    a304:	68fb      	ldr	r3, [r7, #12]
    a306:	6b9a      	ldr	r2, [r3, #56]	; 0x38
    a308:	6d3b      	ldr	r3, [r7, #80]	; 0x50
    a30a:	441a      	add	r2, r3
    a30c:	68fb      	ldr	r3, [r7, #12]
    a30e:	639a      	str	r2, [r3, #56]	; 0x38
/home/qemu-sgx/devel/optee/optee_os/lib/libutee/tee_api_operations.c:929
    a310:	e071      	b.n	a3f6 <tee_buffer_update+0x2fc>
/home/qemu-sgx/devel/optee/optee_os/lib/libutee/tee_api_operations.c:933
    a312:	6bfa      	ldr	r2, [r7, #60]	; 0x3c
    a314:	6bbb      	ldr	r3, [r7, #56]	; 0x38
    a316:	4413      	add	r3, r2
    a318:	6d3a      	ldr	r2, [r7, #80]	; 0x50
    a31a:	429a      	cmp	r2, r3
    a31c:	d357      	bcc.n	a3ce <tee_buffer_update+0x2d4>
/home/qemu-sgx/devel/optee/optee_os/lib/libutee/tee_api_operations.c:935
    a31e:	68fb      	ldr	r3, [r7, #12]
    a320:	681a      	ldr	r2, [r3, #0]
    a322:	f44f 7344 	mov.w	r3, #784	; 0x310
    a326:	f2c1 0300 	movt	r3, #4096	; 0x1000
    a32a:	429a      	cmp	r2, r3
    a32c:	d110      	bne.n	a350 <tee_buffer_update+0x256>
/home/qemu-sgx/devel/optee/optee_os/lib/libutee/tee_api_operations.c:936
    a32e:	6d3a      	ldr	r2, [r7, #80]	; 0x50
    a330:	6bfb      	ldr	r3, [r7, #60]	; 0x3c
    a332:	eba2 0203 	sub.w	r2, r2, r3
    a336:	68fb      	ldr	r3, [r7, #12]
    a338:	6b5b      	ldr	r3, [r3, #52]	; 0x34
    a33a:	4413      	add	r3, r2
    a33c:	f103 32ff 	add.w	r2, r3, #4294967295	; 0xffffffff
    a340:	68fb      	ldr	r3, [r7, #12]
    a342:	6b5b      	ldr	r3, [r3, #52]	; 0x34
    a344:	f1c3 0300 	rsb	r3, r3, #0
    a348:	ea03 0302 	and.w	r3, r3, r2
    a34c:	643b      	str	r3, [r7, #64]	; 0x40
    a34e:	e00d      	b.n	a36c <tee_buffer_update+0x272>
/home/qemu-sgx/devel/optee/optee_os/lib/libutee/tee_api_operations.c:938
    a350:	6d3a      	ldr	r2, [r7, #80]	; 0x50
    a352:	6bfb      	ldr	r3, [r7, #60]	; 0x3c
    a354:	eba2 0203 	sub.w	r2, r2, r3
    a358:	68fb      	ldr	r3, [r7, #12]
    a35a:	6b5b      	ldr	r3, [r3, #52]	; 0x34
    a35c:	441a      	add	r2, r3
    a35e:	68fb      	ldr	r3, [r7, #12]
    a360:	6b5b      	ldr	r3, [r3, #52]	; 0x34
    a362:	f1c3 0300 	rsb	r3, r3, #0
    a366:	ea03 0302 	and.w	r3, r3, r2
    a36a:	643b      	str	r3, [r7, #64]	; 0x40
/home/qemu-sgx/devel/optee/optee_os/lib/libutee/tee_api_operations.c:940
    a36c:	6cbb      	ldr	r3, [r7, #72]	; 0x48
    a36e:	f04f 0200 	mov.w	r2, #0
    a372:	4698      	mov	r8, r3
    a374:	4691      	mov	r9, r2
    a376:	e9c7 8904 	strd	r8, r9, [r7, #16]
/home/qemu-sgx/devel/optee/optee_os/lib/libutee/tee_api_operations.c:941
    a37a:	68fb      	ldr	r3, [r7, #12]
    a37c:	6bd8      	ldr	r0, [r3, #60]	; 0x3c
    a37e:	f107 0310 	add.w	r3, r7, #16
    a382:	9300      	str	r3, [sp, #0]
    a384:	68be      	ldr	r6, [r7, #8]
    a386:	6cfb      	ldr	r3, [r7, #76]	; 0x4c
    a388:	6c3a      	ldr	r2, [r7, #64]	; 0x40
    a38a:	6d79      	ldr	r1, [r7, #84]	; 0x54
    a38c:	47b0      	blx	r6
    a38e:	61f8      	str	r0, [r7, #28]
/home/qemu-sgx/devel/optee/optee_os/lib/libutee/tee_api_operations.c:942
    a390:	69fb      	ldr	r3, [r7, #28]
    a392:	2b00      	cmp	r3, #0
    a394:	d002      	beq.n	a39c <tee_buffer_update+0x2a2>
/home/qemu-sgx/devel/optee/optee_os/lib/libutee/tee_api_operations.c:943
    a396:	69f8      	ldr	r0, [r7, #28]
    a398:	f7f8 ee62 	blx	3060 <TEE_Panic@plt>
/home/qemu-sgx/devel/optee/optee_os/lib/libutee/tee_api_operations.c:944
    a39c:	6d7a      	ldr	r2, [r7, #84]	; 0x54
    a39e:	6c3b      	ldr	r3, [r7, #64]	; 0x40
    a3a0:	4413      	add	r3, r2
    a3a2:	657b      	str	r3, [r7, #84]	; 0x54
/home/qemu-sgx/devel/optee/optee_os/lib/libutee/tee_api_operations.c:945
    a3a4:	6d3a      	ldr	r2, [r7, #80]	; 0x50
    a3a6:	6c3b      	ldr	r3, [r7, #64]	; 0x40
    a3a8:	eba2 0303 	sub.w	r3, r2, r3
    a3ac:	653b      	str	r3, [r7, #80]	; 0x50
/home/qemu-sgx/devel/optee/optee_os/lib/libutee/tee_api_operations.c:946
    a3ae:	e9d7 2304 	ldrd	r2, r3, [r7, #16]
    a3b2:	6cfb      	ldr	r3, [r7, #76]	; 0x4c
    a3b4:	4413      	add	r3, r2
    a3b6:	64fb      	str	r3, [r7, #76]	; 0x4c
/home/qemu-sgx/devel/optee/optee_os/lib/libutee/tee_api_operations.c:947
    a3b8:	e9d7 2304 	ldrd	r2, r3, [r7, #16]
    a3bc:	6cbb      	ldr	r3, [r7, #72]	; 0x48
    a3be:	eba3 0302 	sub.w	r3, r3, r2
    a3c2:	64bb      	str	r3, [r7, #72]	; 0x48
/home/qemu-sgx/devel/optee/optee_os/lib/libutee/tee_api_operations.c:948
    a3c4:	e9d7 2304 	ldrd	r2, r3, [r7, #16]
    a3c8:	6c7b      	ldr	r3, [r7, #68]	; 0x44
    a3ca:	4413      	add	r3, r2
    a3cc:	647b      	str	r3, [r7, #68]	; 0x44
/home/qemu-sgx/devel/optee/optee_os/lib/libutee/tee_api_operations.c:952
    a3ce:	68fb      	ldr	r3, [r7, #12]
    a3d0:	6ada      	ldr	r2, [r3, #44]	; 0x2c
    a3d2:	68fb      	ldr	r3, [r7, #12]
    a3d4:	6b9b      	ldr	r3, [r3, #56]	; 0x38
    a3d6:	4413      	add	r3, r2
    a3d8:	6d3a      	ldr	r2, [r7, #80]	; 0x50
    a3da:	6d79      	ldr	r1, [r7, #84]	; 0x54
    a3dc:	4618      	mov	r0, r3
    a3de:	f7f8 ee3a 	blx	3054 <memcpy@plt>
/home/qemu-sgx/devel/optee/optee_os/lib/libutee/tee_api_operations.c:953
    a3e2:	68fb      	ldr	r3, [r7, #12]
    a3e4:	6b9a      	ldr	r2, [r3, #56]	; 0x38
    a3e6:	6d3b      	ldr	r3, [r7, #80]	; 0x50
    a3e8:	441a      	add	r2, r3
    a3ea:	68fb      	ldr	r3, [r7, #12]
    a3ec:	639a      	str	r2, [r3, #56]	; 0x38
    a3ee:	e002      	b.n	a3f6 <tee_buffer_update+0x2fc>
/home/qemu-sgx/devel/optee/optee_os/lib/libutee/tee_api_operations.c:883
    a3f0:	bf00      	nop
    a3f2:	e000      	b.n	a3f6 <tee_buffer_update+0x2fc>
/home/qemu-sgx/devel/optee/optee_os/lib/libutee/tee_api_operations.c:905
    a3f4:	bf00      	nop
/home/qemu-sgx/devel/optee/optee_os/lib/libutee/tee_api_operations.c:956
    a3f6:	6c7b      	ldr	r3, [r7, #68]	; 0x44
    a3f8:	f04f 0200 	mov.w	r2, #0
    a3fc:	461c      	mov	r4, r3
    a3fe:	4615      	mov	r5, r2
    a400:	f8d7 3084 	ldr.w	r3, [r7, #132]	; 0x84
    a404:	e9c3 4500 	strd	r4, r5, [r3]
/home/qemu-sgx/devel/optee/optee_os/lib/libutee/tee_api_operations.c:957
    a408:	f04f 0300 	mov.w	r3, #0
/home/qemu-sgx/devel/optee/optee_os/lib/libutee/tee_api_operations.c:958
    a40c:	4618      	mov	r0, r3
    a40e:	f107 075c 	add.w	r7, r7, #92	; 0x5c
    a412:	46bd      	mov	sp, r7
    a414:	e9dd 4500 	ldrd	r4, r5, [sp]
    a418:	e9dd 6702 	ldrd	r6, r7, [sp, #8]
    a41c:	e9dd 8904 	ldrd	r8, r9, [sp, #16]
    a420:	e9dd ab06 	ldrd	sl, fp, [sp, #24]
    a424:	b008      	add	sp, #32
    a426:	f85d fb04 	ldr.w	pc, [sp], #4

0000a42a <TEE_CipherUpdate>:
TEE_CipherUpdate():
/home/qemu-sgx/devel/optee/optee_os/lib/libutee/tee_api_operations.c:962
    a42a:	f84d 4d14 	str.w	r4, [sp, #-20]!
    a42e:	e9cd 5601 	strd	r5, r6, [sp, #4]
    a432:	e9cd 7e03 	strd	r7, lr, [sp, #12]
    a436:	b08b      	sub	sp, #44	; 0x2c
    a438:	af02      	add	r7, sp, #8
    a43a:	60f8      	str	r0, [r7, #12]
    a43c:	60b9      	str	r1, [r7, #8]
    a43e:	607a      	str	r2, [r7, #4]
    a440:	603b      	str	r3, [r7, #0]
    a442:	4e65      	ldr	r6, [pc, #404]	; (a5d8 <TEE_CipherUpdate+0x1ae>)
    a444:	447e      	add	r6, pc
/home/qemu-sgx/devel/optee/optee_os/lib/libutee/tee_api_operations.c:967
    a446:	68fb      	ldr	r3, [r7, #12]
    a448:	2b00      	cmp	r3, #0
    a44a:	d005      	beq.n	a458 <TEE_CipherUpdate+0x2e>
/home/qemu-sgx/devel/optee/optee_os/lib/libutee/tee_api_operations.c:967 (discriminator 1)
    a44c:	68bb      	ldr	r3, [r7, #8]
    a44e:	2b00      	cmp	r3, #0
    a450:	d108      	bne.n	a464 <TEE_CipherUpdate+0x3a>
/home/qemu-sgx/devel/optee/optee_os/lib/libutee/tee_api_operations.c:967 (discriminator 2)
    a452:	687b      	ldr	r3, [r7, #4]
    a454:	2b00      	cmp	r3, #0
    a456:	d005      	beq.n	a464 <TEE_CipherUpdate+0x3a>
/home/qemu-sgx/devel/optee/optee_os/lib/libutee/tee_api_operations.c:968
    a458:	f04f 0306 	mov.w	r3, #6
    a45c:	f6cf 73ff 	movt	r3, #65535	; 0xffff
    a460:	61fb      	str	r3, [r7, #28]
/home/qemu-sgx/devel/optee/optee_os/lib/libutee/tee_api_operations.c:969
    a462:	e0a0      	b.n	a5a6 <TEE_CipherUpdate+0x17c>
/home/qemu-sgx/devel/optee/optee_os/lib/libutee/tee_api_operations.c:971
    a464:	f04f 0104 	mov.w	r1, #4
    a468:	6bb8      	ldr	r0, [r7, #56]	; 0x38
    a46a:	f7f8 ed9a 	blx	2fa0 <__utee_check_inout_annotation@plt>
/home/qemu-sgx/devel/optee/optee_os/lib/libutee/tee_api_operations.c:973
    a46e:	68fb      	ldr	r3, [r7, #12]
    a470:	685b      	ldr	r3, [r3, #4]
    a472:	2b01      	cmp	r3, #1
    a474:	d005      	beq.n	a482 <TEE_CipherUpdate+0x58>
/home/qemu-sgx/devel/optee/optee_os/lib/libutee/tee_api_operations.c:974
    a476:	f04f 0306 	mov.w	r3, #6
    a47a:	f6cf 73ff 	movt	r3, #65535	; 0xffff
    a47e:	61fb      	str	r3, [r7, #28]
/home/qemu-sgx/devel/optee/optee_os/lib/libutee/tee_api_operations.c:975
    a480:	e091      	b.n	a5a6 <TEE_CipherUpdate+0x17c>
/home/qemu-sgx/devel/optee/optee_os/lib/libutee/tee_api_operations.c:978
    a482:	68fb      	ldr	r3, [r7, #12]
    a484:	69db      	ldr	r3, [r3, #28]
    a486:	f403 3300 	and.w	r3, r3, #131072	; 0x20000
    a48a:	2b00      	cmp	r3, #0
    a48c:	d105      	bne.n	a49a <TEE_CipherUpdate+0x70>
/home/qemu-sgx/devel/optee/optee_os/lib/libutee/tee_api_operations.c:979
    a48e:	f04f 0306 	mov.w	r3, #6
    a492:	f6cf 73ff 	movt	r3, #65535	; 0xffff
    a496:	61fb      	str	r3, [r7, #28]
/home/qemu-sgx/devel/optee/optee_os/lib/libutee/tee_api_operations.c:980
    a498:	e085      	b.n	a5a6 <TEE_CipherUpdate+0x17c>
/home/qemu-sgx/devel/optee/optee_os/lib/libutee/tee_api_operations.c:983
    a49a:	68fb      	ldr	r3, [r7, #12]
    a49c:	6a9b      	ldr	r3, [r3, #40]	; 0x28
    a49e:	2b01      	cmp	r3, #1
    a4a0:	d005      	beq.n	a4ae <TEE_CipherUpdate+0x84>
/home/qemu-sgx/devel/optee/optee_os/lib/libutee/tee_api_operations.c:984
    a4a2:	f04f 0306 	mov.w	r3, #6
    a4a6:	f6cf 73ff 	movt	r3, #65535	; 0xffff
    a4aa:	61fb      	str	r3, [r7, #28]
/home/qemu-sgx/devel/optee/optee_os/lib/libutee/tee_api_operations.c:985
    a4ac:	e07b      	b.n	a5a6 <TEE_CipherUpdate+0x17c>
/home/qemu-sgx/devel/optee/optee_os/lib/libutee/tee_api_operations.c:988
    a4ae:	68bb      	ldr	r3, [r7, #8]
    a4b0:	2b00      	cmp	r3, #0
    a4b2:	d10a      	bne.n	a4ca <TEE_CipherUpdate+0xa0>
/home/qemu-sgx/devel/optee/optee_os/lib/libutee/tee_api_operations.c:988 (discriminator 1)
    a4b4:	687b      	ldr	r3, [r7, #4]
    a4b6:	2b00      	cmp	r3, #0
    a4b8:	d107      	bne.n	a4ca <TEE_CipherUpdate+0xa0>
/home/qemu-sgx/devel/optee/optee_os/lib/libutee/tee_api_operations.c:989
    a4ba:	6bbb      	ldr	r3, [r7, #56]	; 0x38
    a4bc:	f04f 0200 	mov.w	r2, #0
    a4c0:	601a      	str	r2, [r3, #0]
/home/qemu-sgx/devel/optee/optee_os/lib/libutee/tee_api_operations.c:990
    a4c2:	f04f 0300 	mov.w	r3, #0
    a4c6:	61fb      	str	r3, [r7, #28]
/home/qemu-sgx/devel/optee/optee_os/lib/libutee/tee_api_operations.c:991
    a4c8:	e06d      	b.n	a5a6 <TEE_CipherUpdate+0x17c>
/home/qemu-sgx/devel/optee/optee_os/lib/libutee/tee_api_operations.c:995
    a4ca:	68fb      	ldr	r3, [r7, #12]
    a4cc:	6b5b      	ldr	r3, [r3, #52]	; 0x34
    a4ce:	2b01      	cmp	r3, #1
    a4d0:	d90d      	bls.n	a4ee <TEE_CipherUpdate+0xc4>
/home/qemu-sgx/devel/optee/optee_os/lib/libutee/tee_api_operations.c:996
    a4d2:	68fb      	ldr	r3, [r7, #12]
    a4d4:	6b9a      	ldr	r2, [r3, #56]	; 0x38
    a4d6:	687b      	ldr	r3, [r7, #4]
    a4d8:	441a      	add	r2, r3
/home/qemu-sgx/devel/optee/optee_os/lib/libutee/tee_api_operations.c:997
    a4da:	68fb      	ldr	r3, [r7, #12]
    a4dc:	6b5b      	ldr	r3, [r3, #52]	; 0x34
/home/qemu-sgx/devel/optee/optee_os/lib/libutee/tee_api_operations.c:996
    a4de:	fbb2 f3f3 	udiv	r3, r2, r3
/home/qemu-sgx/devel/optee/optee_os/lib/libutee/tee_api_operations.c:997
    a4e2:	68fa      	ldr	r2, [r7, #12]
    a4e4:	6b52      	ldr	r2, [r2, #52]	; 0x34
/home/qemu-sgx/devel/optee/optee_os/lib/libutee/tee_api_operations.c:996
    a4e6:	fb02 f303 	mul.w	r3, r2, r3
    a4ea:	61bb      	str	r3, [r7, #24]
    a4ec:	e001      	b.n	a4f2 <TEE_CipherUpdate+0xc8>
/home/qemu-sgx/devel/optee/optee_os/lib/libutee/tee_api_operations.c:999
    a4ee:	687b      	ldr	r3, [r7, #4]
    a4f0:	61bb      	str	r3, [r7, #24]
/home/qemu-sgx/devel/optee/optee_os/lib/libutee/tee_api_operations.c:1001
    a4f2:	68fb      	ldr	r3, [r7, #12]
    a4f4:	f893 3030 	ldrb.w	r3, [r3, #48]	; 0x30
    a4f8:	2b00      	cmp	r3, #0
    a4fa:	d012      	beq.n	a522 <TEE_CipherUpdate+0xf8>
/home/qemu-sgx/devel/optee/optee_os/lib/libutee/tee_api_operations.c:1002
    a4fc:	68fb      	ldr	r3, [r7, #12]
    a4fe:	6b5b      	ldr	r3, [r3, #52]	; 0x34
    a500:	ea4f 0343 	mov.w	r3, r3, lsl #1
    a504:	69ba      	ldr	r2, [r7, #24]
    a506:	429a      	cmp	r2, r3
    a508:	d908      	bls.n	a51c <TEE_CipherUpdate+0xf2>
/home/qemu-sgx/devel/optee/optee_os/lib/libutee/tee_api_operations.c:1003
    a50a:	68fb      	ldr	r3, [r7, #12]
    a50c:	6b5b      	ldr	r3, [r3, #52]	; 0x34
    a50e:	ea4f 0343 	mov.w	r3, r3, lsl #1
    a512:	69ba      	ldr	r2, [r7, #24]
    a514:	eba2 0303 	sub.w	r3, r2, r3
    a518:	61bb      	str	r3, [r7, #24]
    a51a:	e002      	b.n	a522 <TEE_CipherUpdate+0xf8>
/home/qemu-sgx/devel/optee/optee_os/lib/libutee/tee_api_operations.c:1005
    a51c:	f04f 0300 	mov.w	r3, #0
    a520:	61bb      	str	r3, [r7, #24]
/home/qemu-sgx/devel/optee/optee_os/lib/libutee/tee_api_operations.c:1012
    a522:	6bbb      	ldr	r3, [r7, #56]	; 0x38
    a524:	681b      	ldr	r3, [r3, #0]
    a526:	69ba      	ldr	r2, [r7, #24]
    a528:	429a      	cmp	r2, r3
    a52a:	d908      	bls.n	a53e <TEE_CipherUpdate+0x114>
/home/qemu-sgx/devel/optee/optee_os/lib/libutee/tee_api_operations.c:1013
    a52c:	6bbb      	ldr	r3, [r7, #56]	; 0x38
    a52e:	69ba      	ldr	r2, [r7, #24]
    a530:	601a      	str	r2, [r3, #0]
/home/qemu-sgx/devel/optee/optee_os/lib/libutee/tee_api_operations.c:1014
    a532:	f04f 0310 	mov.w	r3, #16
    a536:	f6cf 73ff 	movt	r3, #65535	; 0xffff
    a53a:	61fb      	str	r3, [r7, #28]
/home/qemu-sgx/devel/optee/optee_os/lib/libutee/tee_api_operations.c:1015
    a53c:	e033      	b.n	a5a6 <TEE_CipherUpdate+0x17c>
/home/qemu-sgx/devel/optee/optee_os/lib/libutee/tee_api_operations.c:1018
    a53e:	6bbb      	ldr	r3, [r7, #56]	; 0x38
    a540:	681b      	ldr	r3, [r3, #0]
    a542:	f04f 0200 	mov.w	r2, #0
    a546:	461c      	mov	r4, r3
    a548:	4615      	mov	r5, r2
    a54a:	e9c7 4504 	strd	r4, r5, [r7, #16]
/home/qemu-sgx/devel/optee/optee_os/lib/libutee/tee_api_operations.c:1019
    a54e:	68fb      	ldr	r3, [r7, #12]
    a550:	6b5b      	ldr	r3, [r3, #52]	; 0x34
    a552:	2b01      	cmp	r3, #1
    a554:	d90d      	bls.n	a572 <TEE_CipherUpdate+0x148>
/home/qemu-sgx/devel/optee/optee_os/lib/libutee/tee_api_operations.c:1020
    a556:	f107 0310 	add.w	r3, r7, #16
    a55a:	9301      	str	r3, [sp, #4]
    a55c:	683b      	ldr	r3, [r7, #0]
    a55e:	9300      	str	r3, [sp, #0]
    a560:	687b      	ldr	r3, [r7, #4]
    a562:	68ba      	ldr	r2, [r7, #8]
    a564:	491d      	ldr	r1, [pc, #116]	; (a5dc <TEE_CipherUpdate+0x1b2>)
    a566:	5871      	ldr	r1, [r6, r1]
    a568:	68f8      	ldr	r0, [r7, #12]
    a56a:	f7ff fdc6 	bl	a0fa <tee_buffer_update>
    a56e:	61f8      	str	r0, [r7, #28]
    a570:	e015      	b.n	a59e <TEE_CipherUpdate+0x174>
/home/qemu-sgx/devel/optee/optee_os/lib/libutee/tee_api_operations.c:1023
    a572:	687b      	ldr	r3, [r7, #4]
    a574:	2b00      	cmp	r3, #0
    a576:	d00b      	beq.n	a590 <TEE_CipherUpdate+0x166>
/home/qemu-sgx/devel/optee/optee_os/lib/libutee/tee_api_operations.c:1024
    a578:	68fb      	ldr	r3, [r7, #12]
    a57a:	6bd8      	ldr	r0, [r3, #60]	; 0x3c
    a57c:	f107 0310 	add.w	r3, r7, #16
    a580:	9300      	str	r3, [sp, #0]
    a582:	683b      	ldr	r3, [r7, #0]
    a584:	687a      	ldr	r2, [r7, #4]
    a586:	68b9      	ldr	r1, [r7, #8]
    a588:	f7f8 ef38 	blx	33fc <_utee_cipher_update@plt>
    a58c:	61f8      	str	r0, [r7, #28]
    a58e:	e006      	b.n	a59e <TEE_CipherUpdate+0x174>
/home/qemu-sgx/devel/optee/optee_os/lib/libutee/tee_api_operations.c:1027
    a590:	f04f 0300 	mov.w	r3, #0
    a594:	61fb      	str	r3, [r7, #28]
/home/qemu-sgx/devel/optee/optee_os/lib/libutee/tee_api_operations.c:1028
    a596:	efc0 0010 	vmov.i32	d16, #0	; 0x00000000
    a59a:	edc7 0b04 	vstr	d16, [r7, #16]
/home/qemu-sgx/devel/optee/optee_os/lib/libutee/tee_api_operations.c:1031
    a59e:	e9d7 2304 	ldrd	r2, r3, [r7, #16]
    a5a2:	6bbb      	ldr	r3, [r7, #56]	; 0x38
    a5a4:	601a      	str	r2, [r3, #0]
/home/qemu-sgx/devel/optee/optee_os/lib/libutee/tee_api_operations.c:1034
    a5a6:	69fb      	ldr	r3, [r7, #28]
    a5a8:	2b00      	cmp	r3, #0
    a5aa:	d009      	beq.n	a5c0 <TEE_CipherUpdate+0x196>
/home/qemu-sgx/devel/optee/optee_os/lib/libutee/tee_api_operations.c:1034 (discriminator 1)
    a5ac:	69fa      	ldr	r2, [r7, #28]
    a5ae:	f04f 0310 	mov.w	r3, #16
    a5b2:	f6cf 73ff 	movt	r3, #65535	; 0xffff
    a5b6:	429a      	cmp	r2, r3
    a5b8:	d002      	beq.n	a5c0 <TEE_CipherUpdate+0x196>
/home/qemu-sgx/devel/optee/optee_os/lib/libutee/tee_api_operations.c:1036
    a5ba:	69f8      	ldr	r0, [r7, #28]
    a5bc:	f7f8 ed50 	blx	3060 <TEE_Panic@plt>
/home/qemu-sgx/devel/optee/optee_os/lib/libutee/tee_api_operations.c:1038
    a5c0:	69fb      	ldr	r3, [r7, #28]
/home/qemu-sgx/devel/optee/optee_os/lib/libutee/tee_api_operations.c:1039
    a5c2:	4618      	mov	r0, r3
    a5c4:	f107 0724 	add.w	r7, r7, #36	; 0x24
    a5c8:	46bd      	mov	sp, r7
    a5ca:	e9dd 4500 	ldrd	r4, r5, [sp]
    a5ce:	e9dd 6702 	ldrd	r6, r7, [sp, #8]
    a5d2:	b004      	add	sp, #16
    a5d4:	f85d fb04 	ldr.w	pc, [sp], #4
    a5d8:	00005bb8 	.word	0x00005bb8
    a5dc:	000001e4 	.word	0x000001e4

0000a5e0 <TEE_CipherDoFinal>:
TEE_CipherDoFinal():
/home/qemu-sgx/devel/optee/optee_os/lib/libutee/tee_api_operations.c:1044
    a5e0:	f84d 4d24 	str.w	r4, [sp, #-36]!
    a5e4:	e9cd 5601 	strd	r5, r6, [sp, #4]
    a5e8:	e9cd 7803 	strd	r7, r8, [sp, #12]
    a5ec:	e9cd 9a05 	strd	r9, sl, [sp, #20]
    a5f0:	e9cd be07 	strd	fp, lr, [sp, #28]
    a5f4:	b08d      	sub	sp, #52	; 0x34
    a5f6:	af02      	add	r7, sp, #8
    a5f8:	60f8      	str	r0, [r7, #12]
    a5fa:	60b9      	str	r1, [r7, #8]
    a5fc:	607a      	str	r2, [r7, #4]
    a5fe:	603b      	str	r3, [r7, #0]
    a600:	4ea3      	ldr	r6, [pc, #652]	; (a890 <TEE_CipherDoFinal+0x2b0>)
    a602:	447e      	add	r6, pc
/home/qemu-sgx/devel/optee/optee_os/lib/libutee/tee_api_operations.c:1045
    a604:	f04f 0300 	mov.w	r3, #0
    a608:	627b      	str	r3, [r7, #36]	; 0x24
/home/qemu-sgx/devel/optee/optee_os/lib/libutee/tee_api_operations.c:1046
    a60a:	683b      	ldr	r3, [r7, #0]
    a60c:	623b      	str	r3, [r7, #32]
/home/qemu-sgx/devel/optee/optee_os/lib/libutee/tee_api_operations.c:1047
    a60e:	f04f 0300 	mov.w	r3, #0
    a612:	61fb      	str	r3, [r7, #28]
/home/qemu-sgx/devel/optee/optee_os/lib/libutee/tee_api_operations.c:1048
    a614:	efc0 0010 	vmov.i32	d16, #0	; 0x00000000
    a618:	edc7 0b04 	vstr	d16, [r7, #16]
/home/qemu-sgx/devel/optee/optee_os/lib/libutee/tee_api_operations.c:1049
    a61c:	f04f 0300 	mov.w	r3, #0
    a620:	61bb      	str	r3, [r7, #24]
/home/qemu-sgx/devel/optee/optee_os/lib/libutee/tee_api_operations.c:1051
    a622:	68fb      	ldr	r3, [r7, #12]
    a624:	2b00      	cmp	r3, #0
    a626:	d005      	beq.n	a634 <TEE_CipherDoFinal+0x54>
/home/qemu-sgx/devel/optee/optee_os/lib/libutee/tee_api_operations.c:1051 (discriminator 1)
    a628:	68bb      	ldr	r3, [r7, #8]
    a62a:	2b00      	cmp	r3, #0
    a62c:	d108      	bne.n	a640 <TEE_CipherDoFinal+0x60>
/home/qemu-sgx/devel/optee/optee_os/lib/libutee/tee_api_operations.c:1051 (discriminator 2)
    a62e:	687b      	ldr	r3, [r7, #4]
    a630:	2b00      	cmp	r3, #0
    a632:	d005      	beq.n	a640 <TEE_CipherDoFinal+0x60>
/home/qemu-sgx/devel/optee/optee_os/lib/libutee/tee_api_operations.c:1052
    a634:	f04f 0306 	mov.w	r3, #6
    a638:	f6cf 73ff 	movt	r3, #65535	; 0xffff
    a63c:	627b      	str	r3, [r7, #36]	; 0x24
/home/qemu-sgx/devel/optee/optee_os/lib/libutee/tee_api_operations.c:1053
    a63e:	e109      	b.n	a854 <TEE_CipherDoFinal+0x274>
/home/qemu-sgx/devel/optee/optee_os/lib/libutee/tee_api_operations.c:1055
    a640:	6d3b      	ldr	r3, [r7, #80]	; 0x50
    a642:	2b00      	cmp	r3, #0
    a644:	d004      	beq.n	a650 <TEE_CipherDoFinal+0x70>
/home/qemu-sgx/devel/optee/optee_os/lib/libutee/tee_api_operations.c:1056
    a646:	f04f 0104 	mov.w	r1, #4
    a64a:	6d38      	ldr	r0, [r7, #80]	; 0x50
    a64c:	f7f8 eca8 	blx	2fa0 <__utee_check_inout_annotation@plt>
/home/qemu-sgx/devel/optee/optee_os/lib/libutee/tee_api_operations.c:1058
    a650:	68fb      	ldr	r3, [r7, #12]
    a652:	685b      	ldr	r3, [r3, #4]
    a654:	2b01      	cmp	r3, #1
    a656:	d005      	beq.n	a664 <TEE_CipherDoFinal+0x84>
/home/qemu-sgx/devel/optee/optee_os/lib/libutee/tee_api_operations.c:1059
    a658:	f04f 0306 	mov.w	r3, #6
    a65c:	f6cf 73ff 	movt	r3, #65535	; 0xffff
    a660:	627b      	str	r3, [r7, #36]	; 0x24
/home/qemu-sgx/devel/optee/optee_os/lib/libutee/tee_api_operations.c:1060
    a662:	e0f7      	b.n	a854 <TEE_CipherDoFinal+0x274>
/home/qemu-sgx/devel/optee/optee_os/lib/libutee/tee_api_operations.c:1063
    a664:	68fb      	ldr	r3, [r7, #12]
    a666:	69db      	ldr	r3, [r3, #28]
    a668:	f403 3300 	and.w	r3, r3, #131072	; 0x20000
    a66c:	2b00      	cmp	r3, #0
    a66e:	d105      	bne.n	a67c <TEE_CipherDoFinal+0x9c>
/home/qemu-sgx/devel/optee/optee_os/lib/libutee/tee_api_operations.c:1064
    a670:	f04f 0306 	mov.w	r3, #6
    a674:	f6cf 73ff 	movt	r3, #65535	; 0xffff
    a678:	627b      	str	r3, [r7, #36]	; 0x24
/home/qemu-sgx/devel/optee/optee_os/lib/libutee/tee_api_operations.c:1065
    a67a:	e0eb      	b.n	a854 <TEE_CipherDoFinal+0x274>
/home/qemu-sgx/devel/optee/optee_os/lib/libutee/tee_api_operations.c:1068
    a67c:	68fb      	ldr	r3, [r7, #12]
    a67e:	6a9b      	ldr	r3, [r3, #40]	; 0x28
    a680:	2b01      	cmp	r3, #1
    a682:	d005      	beq.n	a690 <TEE_CipherDoFinal+0xb0>
/home/qemu-sgx/devel/optee/optee_os/lib/libutee/tee_api_operations.c:1069
    a684:	f04f 0306 	mov.w	r3, #6
    a688:	f6cf 73ff 	movt	r3, #65535	; 0xffff
    a68c:	627b      	str	r3, [r7, #36]	; 0x24
/home/qemu-sgx/devel/optee/optee_os/lib/libutee/tee_api_operations.c:1070
    a68e:	e0e1      	b.n	a854 <TEE_CipherDoFinal+0x274>
/home/qemu-sgx/devel/optee/optee_os/lib/libutee/tee_api_operations.c:1077
    a690:	68fb      	ldr	r3, [r7, #12]
    a692:	681a      	ldr	r2, [r3, #0]
    a694:	f04f 0310 	mov.w	r3, #16
    a698:	f2c1 0300 	movt	r3, #4096	; 0x1000
    a69c:	429a      	cmp	r2, r3
    a69e:	d037      	beq.n	a710 <TEE_CipherDoFinal+0x130>
/home/qemu-sgx/devel/optee/optee_os/lib/libutee/tee_api_operations.c:1078 (discriminator 1)
    a6a0:	68fb      	ldr	r3, [r7, #12]
    a6a2:	681a      	ldr	r2, [r3, #0]
/home/qemu-sgx/devel/optee/optee_os/lib/libutee/tee_api_operations.c:1077 (discriminator 1)
    a6a4:	f44f 7388 	mov.w	r3, #272	; 0x110
    a6a8:	f2c1 0300 	movt	r3, #4096	; 0x1000
    a6ac:	429a      	cmp	r2, r3
    a6ae:	d02f      	beq.n	a710 <TEE_CipherDoFinal+0x130>
/home/qemu-sgx/devel/optee/optee_os/lib/libutee/tee_api_operations.c:1079
    a6b0:	68fb      	ldr	r3, [r7, #12]
    a6b2:	681a      	ldr	r2, [r3, #0]
/home/qemu-sgx/devel/optee/optee_os/lib/libutee/tee_api_operations.c:1078
    a6b4:	f04f 0311 	mov.w	r3, #17
    a6b8:	f2c1 0300 	movt	r3, #4096	; 0x1000
    a6bc:	429a      	cmp	r2, r3
    a6be:	d027      	beq.n	a710 <TEE_CipherDoFinal+0x130>
/home/qemu-sgx/devel/optee/optee_os/lib/libutee/tee_api_operations.c:1080
    a6c0:	68fb      	ldr	r3, [r7, #12]
    a6c2:	681a      	ldr	r2, [r3, #0]
/home/qemu-sgx/devel/optee/optee_os/lib/libutee/tee_api_operations.c:1079
    a6c4:	f240 1311 	movw	r3, #273	; 0x111
    a6c8:	f2c1 0300 	movt	r3, #4096	; 0x1000
    a6cc:	429a      	cmp	r2, r3
    a6ce:	d01f      	beq.n	a710 <TEE_CipherDoFinal+0x130>
/home/qemu-sgx/devel/optee/optee_os/lib/libutee/tee_api_operations.c:1081
    a6d0:	68fb      	ldr	r3, [r7, #12]
    a6d2:	681a      	ldr	r2, [r3, #0]
/home/qemu-sgx/devel/optee/optee_os/lib/libutee/tee_api_operations.c:1080
    a6d4:	f04f 0313 	mov.w	r3, #19
    a6d8:	f2c1 0300 	movt	r3, #4096	; 0x1000
    a6dc:	429a      	cmp	r2, r3
    a6de:	d017      	beq.n	a710 <TEE_CipherDoFinal+0x130>
/home/qemu-sgx/devel/optee/optee_os/lib/libutee/tee_api_operations.c:1082
    a6e0:	68fb      	ldr	r3, [r7, #12]
    a6e2:	681a      	ldr	r2, [r3, #0]
/home/qemu-sgx/devel/optee/optee_os/lib/libutee/tee_api_operations.c:1081
    a6e4:	f240 1313 	movw	r3, #275	; 0x113
    a6e8:	f2c1 0300 	movt	r3, #4096	; 0x1000
    a6ec:	429a      	cmp	r2, r3
    a6ee:	d00f      	beq.n	a710 <TEE_CipherDoFinal+0x130>
/home/qemu-sgx/devel/optee/optee_os/lib/libutee/tee_api_operations.c:1083
    a6f0:	68fb      	ldr	r3, [r7, #12]
    a6f2:	681a      	ldr	r2, [r3, #0]
/home/qemu-sgx/devel/optee/optee_os/lib/libutee/tee_api_operations.c:1082
    a6f4:	f04f 0314 	mov.w	r3, #20
    a6f8:	f2c1 0300 	movt	r3, #4096	; 0x1000
    a6fc:	429a      	cmp	r2, r3
    a6fe:	d007      	beq.n	a710 <TEE_CipherDoFinal+0x130>
/home/qemu-sgx/devel/optee/optee_os/lib/libutee/tee_api_operations.c:1084
    a700:	68fb      	ldr	r3, [r7, #12]
    a702:	681a      	ldr	r2, [r3, #0]
/home/qemu-sgx/devel/optee/optee_os/lib/libutee/tee_api_operations.c:1083
    a704:	f44f 738a 	mov.w	r3, #276	; 0x114
    a708:	f2c1 0300 	movt	r3, #4096	; 0x1000
    a70c:	429a      	cmp	r2, r3
    a70e:	d113      	bne.n	a738 <TEE_CipherDoFinal+0x158>
/home/qemu-sgx/devel/optee/optee_os/lib/libutee/tee_api_operations.c:1085
    a710:	68fb      	ldr	r3, [r7, #12]
    a712:	6b9a      	ldr	r2, [r3, #56]	; 0x38
    a714:	687b      	ldr	r3, [r7, #4]
    a716:	4413      	add	r3, r2
    a718:	68fa      	ldr	r2, [r7, #12]
    a71a:	6b52      	ldr	r2, [r2, #52]	; 0x34
    a71c:	fbb3 f1f2 	udiv	r1, r3, r2
    a720:	fb01 f202 	mul.w	r2, r1, r2
    a724:	eba3 0302 	sub.w	r3, r3, r2
    a728:	2b00      	cmp	r3, #0
    a72a:	d005      	beq.n	a738 <TEE_CipherDoFinal+0x158>
/home/qemu-sgx/devel/optee/optee_os/lib/libutee/tee_api_operations.c:1087
    a72c:	f04f 0306 	mov.w	r3, #6
    a730:	f6cf 73ff 	movt	r3, #65535	; 0xffff
    a734:	627b      	str	r3, [r7, #36]	; 0x24
/home/qemu-sgx/devel/optee/optee_os/lib/libutee/tee_api_operations.c:1088
    a736:	e08d      	b.n	a854 <TEE_CipherDoFinal+0x274>
/home/qemu-sgx/devel/optee/optee_os/lib/libutee/tee_api_operations.c:1097
    a738:	68fb      	ldr	r3, [r7, #12]
    a73a:	6b5b      	ldr	r3, [r3, #52]	; 0x34
    a73c:	2b01      	cmp	r3, #1
    a73e:	d905      	bls.n	a74c <TEE_CipherDoFinal+0x16c>
/home/qemu-sgx/devel/optee/optee_os/lib/libutee/tee_api_operations.c:1098
    a740:	68fb      	ldr	r3, [r7, #12]
    a742:	6b9b      	ldr	r3, [r3, #56]	; 0x38
    a744:	687a      	ldr	r2, [r7, #4]
    a746:	4413      	add	r3, r2
    a748:	61bb      	str	r3, [r7, #24]
    a74a:	e001      	b.n	a750 <TEE_CipherDoFinal+0x170>
/home/qemu-sgx/devel/optee/optee_os/lib/libutee/tee_api_operations.c:1100
    a74c:	687b      	ldr	r3, [r7, #4]
    a74e:	61bb      	str	r3, [r7, #24]
/home/qemu-sgx/devel/optee/optee_os/lib/libutee/tee_api_operations.c:1102
    a750:	6d3b      	ldr	r3, [r7, #80]	; 0x50
    a752:	2b00      	cmp	r3, #0
    a754:	d007      	beq.n	a766 <TEE_CipherDoFinal+0x186>
/home/qemu-sgx/devel/optee/optee_os/lib/libutee/tee_api_operations.c:1103
    a756:	6d3b      	ldr	r3, [r7, #80]	; 0x50
    a758:	681b      	ldr	r3, [r3, #0]
    a75a:	f04f 0200 	mov.w	r2, #0
    a75e:	469a      	mov	sl, r3
    a760:	4693      	mov	fp, r2
    a762:	e9c7 ab04 	strd	sl, fp, [r7, #16]
/home/qemu-sgx/devel/optee/optee_os/lib/libutee/tee_api_operations.c:1104
    a766:	69bb      	ldr	r3, [r7, #24]
    a768:	f04f 0200 	mov.w	r2, #0
    a76c:	461c      	mov	r4, r3
    a76e:	4615      	mov	r5, r2
    a770:	e9d7 2304 	ldrd	r2, r3, [r7, #16]
    a774:	42a2      	cmp	r2, r4
    a776:	41ab      	sbcs	r3, r5
    a778:	d20b      	bcs.n	a792 <TEE_CipherDoFinal+0x1b2>
/home/qemu-sgx/devel/optee/optee_os/lib/libutee/tee_api_operations.c:1105
    a77a:	6d3b      	ldr	r3, [r7, #80]	; 0x50
    a77c:	2b00      	cmp	r3, #0
    a77e:	d002      	beq.n	a786 <TEE_CipherDoFinal+0x1a6>
/home/qemu-sgx/devel/optee/optee_os/lib/libutee/tee_api_operations.c:1106
    a780:	6d3b      	ldr	r3, [r7, #80]	; 0x50
    a782:	69ba      	ldr	r2, [r7, #24]
    a784:	601a      	str	r2, [r3, #0]
/home/qemu-sgx/devel/optee/optee_os/lib/libutee/tee_api_operations.c:1107
    a786:	f04f 0310 	mov.w	r3, #16
    a78a:	f6cf 73ff 	movt	r3, #65535	; 0xffff
    a78e:	627b      	str	r3, [r7, #36]	; 0x24
/home/qemu-sgx/devel/optee/optee_os/lib/libutee/tee_api_operations.c:1108
    a790:	e060      	b.n	a854 <TEE_CipherDoFinal+0x274>
/home/qemu-sgx/devel/optee/optee_os/lib/libutee/tee_api_operations.c:1111
    a792:	68fb      	ldr	r3, [r7, #12]
    a794:	6b5b      	ldr	r3, [r3, #52]	; 0x34
    a796:	2b01      	cmp	r3, #1
    a798:	d935      	bls.n	a806 <TEE_CipherDoFinal+0x226>
/home/qemu-sgx/devel/optee/optee_os/lib/libutee/tee_api_operations.c:1112
    a79a:	687b      	ldr	r3, [r7, #4]
    a79c:	2b00      	cmp	r3, #0
    a79e:	d024      	beq.n	a7ea <TEE_CipherDoFinal+0x20a>
/home/qemu-sgx/devel/optee/optee_os/lib/libutee/tee_api_operations.c:1113
    a7a0:	f107 0310 	add.w	r3, r7, #16
    a7a4:	9301      	str	r3, [sp, #4]
    a7a6:	6a3b      	ldr	r3, [r7, #32]
    a7a8:	9300      	str	r3, [sp, #0]
    a7aa:	687b      	ldr	r3, [r7, #4]
    a7ac:	68ba      	ldr	r2, [r7, #8]
    a7ae:	4939      	ldr	r1, [pc, #228]	; (a894 <TEE_CipherDoFinal+0x2b4>)
    a7b0:	5871      	ldr	r1, [r6, r1]
    a7b2:	68f8      	ldr	r0, [r7, #12]
    a7b4:	f7ff fca1 	bl	a0fa <tee_buffer_update>
    a7b8:	6278      	str	r0, [r7, #36]	; 0x24
/home/qemu-sgx/devel/optee/optee_os/lib/libutee/tee_api_operations.c:1116
    a7ba:	6a7b      	ldr	r3, [r7, #36]	; 0x24
    a7bc:	2b00      	cmp	r3, #0
    a7be:	d146      	bne.n	a84e <TEE_CipherDoFinal+0x26e>
/home/qemu-sgx/devel/optee/optee_os/lib/libutee/tee_api_operations.c:1119
    a7c0:	e9d7 2304 	ldrd	r2, r3, [r7, #16]
    a7c4:	6a3b      	ldr	r3, [r7, #32]
    a7c6:	4413      	add	r3, r2
    a7c8:	623b      	str	r3, [r7, #32]
/home/qemu-sgx/devel/optee/optee_os/lib/libutee/tee_api_operations.c:1120
    a7ca:	e9d7 2304 	ldrd	r2, r3, [r7, #16]
    a7ce:	69fb      	ldr	r3, [r7, #28]
    a7d0:	4413      	add	r3, r2
    a7d2:	61fb      	str	r3, [r7, #28]
/home/qemu-sgx/devel/optee/optee_os/lib/libutee/tee_api_operations.c:1122
    a7d4:	6d3b      	ldr	r3, [r7, #80]	; 0x50
    a7d6:	681a      	ldr	r2, [r3, #0]
    a7d8:	69fb      	ldr	r3, [r7, #28]
    a7da:	eba2 0303 	sub.w	r3, r2, r3
    a7de:	f04f 0200 	mov.w	r2, #0
    a7e2:	4698      	mov	r8, r3
    a7e4:	4691      	mov	r9, r2
    a7e6:	e9c7 8904 	strd	r8, r9, [r7, #16]
/home/qemu-sgx/devel/optee/optee_os/lib/libutee/tee_api_operations.c:1124
    a7ea:	68fb      	ldr	r3, [r7, #12]
    a7ec:	6bd8      	ldr	r0, [r3, #60]	; 0x3c
    a7ee:	68fb      	ldr	r3, [r7, #12]
    a7f0:	6ad9      	ldr	r1, [r3, #44]	; 0x2c
    a7f2:	68fb      	ldr	r3, [r7, #12]
    a7f4:	6b9a      	ldr	r2, [r3, #56]	; 0x38
    a7f6:	f107 0310 	add.w	r3, r7, #16
    a7fa:	9300      	str	r3, [sp, #0]
    a7fc:	6a3b      	ldr	r3, [r7, #32]
    a7fe:	f7f8 ed7a 	blx	32f4 <_utee_cipher_final@plt>
    a802:	6278      	str	r0, [r7, #36]	; 0x24
    a804:	e00a      	b.n	a81c <TEE_CipherDoFinal+0x23c>
/home/qemu-sgx/devel/optee/optee_os/lib/libutee/tee_api_operations.c:1128
    a806:	68fb      	ldr	r3, [r7, #12]
    a808:	6bd8      	ldr	r0, [r3, #60]	; 0x3c
    a80a:	f107 0310 	add.w	r3, r7, #16
    a80e:	9300      	str	r3, [sp, #0]
    a810:	6a3b      	ldr	r3, [r7, #32]
    a812:	687a      	ldr	r2, [r7, #4]
    a814:	68b9      	ldr	r1, [r7, #8]
    a816:	f7f8 ed6e 	blx	32f4 <_utee_cipher_final@plt>
    a81a:	6278      	str	r0, [r7, #36]	; 0x24
/home/qemu-sgx/devel/optee/optee_os/lib/libutee/tee_api_operations.c:1131
    a81c:	6a7b      	ldr	r3, [r7, #36]	; 0x24
    a81e:	2b00      	cmp	r3, #0
    a820:	d117      	bne.n	a852 <TEE_CipherDoFinal+0x272>
/home/qemu-sgx/devel/optee/optee_os/lib/libutee/tee_api_operations.c:1134
    a822:	e9d7 2304 	ldrd	r2, r3, [r7, #16]
    a826:	69fb      	ldr	r3, [r7, #28]
    a828:	4413      	add	r3, r2
    a82a:	61fb      	str	r3, [r7, #28]
/home/qemu-sgx/devel/optee/optee_os/lib/libutee/tee_api_operations.c:1135
    a82c:	6d3b      	ldr	r3, [r7, #80]	; 0x50
    a82e:	2b00      	cmp	r3, #0
    a830:	d002      	beq.n	a838 <TEE_CipherDoFinal+0x258>
/home/qemu-sgx/devel/optee/optee_os/lib/libutee/tee_api_operations.c:1136
    a832:	6d3b      	ldr	r3, [r7, #80]	; 0x50
    a834:	69fa      	ldr	r2, [r7, #28]
    a836:	601a      	str	r2, [r3, #0]
/home/qemu-sgx/devel/optee/optee_os/lib/libutee/tee_api_operations.c:1138
    a838:	68fb      	ldr	r3, [r7, #12]
    a83a:	69db      	ldr	r3, [r3, #28]
    a83c:	f423 3200 	bic.w	r2, r3, #131072	; 0x20000
    a840:	68fb      	ldr	r3, [r7, #12]
    a842:	61da      	str	r2, [r3, #28]
/home/qemu-sgx/devel/optee/optee_os/lib/libutee/tee_api_operations.c:1140
    a844:	68fb      	ldr	r3, [r7, #12]
    a846:	f04f 0200 	mov.w	r2, #0
    a84a:	629a      	str	r2, [r3, #40]	; 0x28
    a84c:	e002      	b.n	a854 <TEE_CipherDoFinal+0x274>
/home/qemu-sgx/devel/optee/optee_os/lib/libutee/tee_api_operations.c:1117
    a84e:	bf00      	nop
    a850:	e000      	b.n	a854 <TEE_CipherDoFinal+0x274>
/home/qemu-sgx/devel/optee/optee_os/lib/libutee/tee_api_operations.c:1132
    a852:	bf00      	nop
/home/qemu-sgx/devel/optee/optee_os/lib/libutee/tee_api_operations.c:1143
    a854:	6a7b      	ldr	r3, [r7, #36]	; 0x24
    a856:	2b00      	cmp	r3, #0
    a858:	d009      	beq.n	a86e <TEE_CipherDoFinal+0x28e>
/home/qemu-sgx/devel/optee/optee_os/lib/libutee/tee_api_operations.c:1143 (discriminator 1)
    a85a:	6a7a      	ldr	r2, [r7, #36]	; 0x24
    a85c:	f04f 0310 	mov.w	r3, #16
    a860:	f6cf 73ff 	movt	r3, #65535	; 0xffff
    a864:	429a      	cmp	r2, r3
    a866:	d002      	beq.n	a86e <TEE_CipherDoFinal+0x28e>
/home/qemu-sgx/devel/optee/optee_os/lib/libutee/tee_api_operations.c:1145
    a868:	6a78      	ldr	r0, [r7, #36]	; 0x24
    a86a:	f7f8 ebfa 	blx	3060 <TEE_Panic@plt>
/home/qemu-sgx/devel/optee/optee_os/lib/libutee/tee_api_operations.c:1147
    a86e:	6a7b      	ldr	r3, [r7, #36]	; 0x24
/home/qemu-sgx/devel/optee/optee_os/lib/libutee/tee_api_operations.c:1148
    a870:	4618      	mov	r0, r3
    a872:	f107 072c 	add.w	r7, r7, #44	; 0x2c
    a876:	46bd      	mov	sp, r7
    a878:	e9dd 4500 	ldrd	r4, r5, [sp]
    a87c:	e9dd 6702 	ldrd	r6, r7, [sp, #8]
    a880:	e9dd 8904 	ldrd	r8, r9, [sp, #16]
    a884:	e9dd ab06 	ldrd	sl, fp, [sp, #24]
    a888:	b008      	add	sp, #32
    a88a:	f85d fb04 	ldr.w	pc, [sp], #4
    a88e:	bf00      	nop
    a890:	000059fa 	.word	0x000059fa
    a894:	000001e4 	.word	0x000001e4

0000a898 <TEE_MACInit>:
TEE_MACInit():
/home/qemu-sgx/devel/optee/optee_os/lib/libutee/tee_api_operations.c:1153
    a898:	e96d 7e02 	strd	r7, lr, [sp, #-8]!
    a89c:	b084      	sub	sp, #16
    a89e:	af00      	add	r7, sp, #0
    a8a0:	60f8      	str	r0, [r7, #12]
    a8a2:	60b9      	str	r1, [r7, #8]
    a8a4:	607a      	str	r2, [r7, #4]
/home/qemu-sgx/devel/optee/optee_os/lib/libutee/tee_api_operations.c:1154
    a8a6:	68fb      	ldr	r3, [r7, #12]
    a8a8:	2b00      	cmp	r3, #0
    a8aa:	d103      	bne.n	a8b4 <TEE_MACInit+0x1c>
/home/qemu-sgx/devel/optee/optee_os/lib/libutee/tee_api_operations.c:1155
    a8ac:	f04f 0000 	mov.w	r0, #0
    a8b0:	f7f8 ebd6 	blx	3060 <TEE_Panic@plt>
/home/qemu-sgx/devel/optee/optee_os/lib/libutee/tee_api_operations.c:1157
    a8b4:	68fb      	ldr	r3, [r7, #12]
    a8b6:	685b      	ldr	r3, [r3, #4]
    a8b8:	2b03      	cmp	r3, #3
    a8ba:	d003      	beq.n	a8c4 <TEE_MACInit+0x2c>
/home/qemu-sgx/devel/optee/optee_os/lib/libutee/tee_api_operations.c:1158
    a8bc:	f04f 0000 	mov.w	r0, #0
    a8c0:	f7f8 ebce 	blx	3060 <TEE_Panic@plt>
/home/qemu-sgx/devel/optee/optee_os/lib/libutee/tee_api_operations.c:1160
    a8c4:	68fb      	ldr	r3, [r7, #12]
    a8c6:	69db      	ldr	r3, [r3, #28]
    a8c8:	f403 2380 	and.w	r3, r3, #262144	; 0x40000
    a8cc:	2b00      	cmp	r3, #0
    a8ce:	d003      	beq.n	a8d8 <TEE_MACInit+0x40>
/home/qemu-sgx/devel/optee/optee_os/lib/libutee/tee_api_operations.c:1161 (discriminator 1)
    a8d0:	68fb      	ldr	r3, [r7, #12]
    a8d2:	6a1b      	ldr	r3, [r3, #32]
/home/qemu-sgx/devel/optee/optee_os/lib/libutee/tee_api_operations.c:1160 (discriminator 1)
    a8d4:	2b00      	cmp	r3, #0
    a8d6:	d103      	bne.n	a8e0 <TEE_MACInit+0x48>
/home/qemu-sgx/devel/optee/optee_os/lib/libutee/tee_api_operations.c:1162
    a8d8:	f04f 0000 	mov.w	r0, #0
    a8dc:	f7f8 ebc0 	blx	3060 <TEE_Panic@plt>
/home/qemu-sgx/devel/optee/optee_os/lib/libutee/tee_api_operations.c:1164
    a8e0:	68fb      	ldr	r3, [r7, #12]
    a8e2:	6a9b      	ldr	r3, [r3, #40]	; 0x28
    a8e4:	2b00      	cmp	r3, #0
    a8e6:	d002      	beq.n	a8ee <TEE_MACInit+0x56>
/home/qemu-sgx/devel/optee/optee_os/lib/libutee/tee_api_operations.c:1165
    a8e8:	68f8      	ldr	r0, [r7, #12]
    a8ea:	f7f8 ecc2 	blx	3270 <TEE_ResetOperation@plt>
/home/qemu-sgx/devel/optee/optee_os/lib/libutee/tee_api_operations.c:1167
    a8ee:	68fb      	ldr	r3, [r7, #12]
    a8f0:	f04f 0201 	mov.w	r2, #1
    a8f4:	629a      	str	r2, [r3, #40]	; 0x28
/home/qemu-sgx/devel/optee/optee_os/lib/libutee/tee_api_operations.c:1169
    a8f6:	687a      	ldr	r2, [r7, #4]
    a8f8:	68b9      	ldr	r1, [r7, #8]
    a8fa:	68f8      	ldr	r0, [r7, #12]
    a8fc:	f7ff fb00 	bl	9f00 <init_hash_operation>
/home/qemu-sgx/devel/optee/optee_os/lib/libutee/tee_api_operations.c:1170
    a900:	bf00      	nop
    a902:	f107 0710 	add.w	r7, r7, #16
    a906:	46bd      	mov	sp, r7
    a908:	bd80      	pop	{r7, pc}

0000a90a <TEE_MACUpdate>:
TEE_MACUpdate():
/home/qemu-sgx/devel/optee/optee_os/lib/libutee/tee_api_operations.c:1174
    a90a:	e96d 7e02 	strd	r7, lr, [sp, #-8]!
    a90e:	b086      	sub	sp, #24
    a910:	af00      	add	r7, sp, #0
    a912:	60f8      	str	r0, [r7, #12]
    a914:	60b9      	str	r1, [r7, #8]
    a916:	607a      	str	r2, [r7, #4]
/home/qemu-sgx/devel/optee/optee_os/lib/libutee/tee_api_operations.c:1177
    a918:	68fb      	ldr	r3, [r7, #12]
    a91a:	2b00      	cmp	r3, #0
    a91c:	d005      	beq.n	a92a <TEE_MACUpdate+0x20>
/home/qemu-sgx/devel/optee/optee_os/lib/libutee/tee_api_operations.c:1177 (discriminator 1)
    a91e:	68bb      	ldr	r3, [r7, #8]
    a920:	2b00      	cmp	r3, #0
    a922:	d106      	bne.n	a932 <TEE_MACUpdate+0x28>
/home/qemu-sgx/devel/optee/optee_os/lib/libutee/tee_api_operations.c:1177 (discriminator 2)
    a924:	687b      	ldr	r3, [r7, #4]
    a926:	2b00      	cmp	r3, #0
    a928:	d003      	beq.n	a932 <TEE_MACUpdate+0x28>
/home/qemu-sgx/devel/optee/optee_os/lib/libutee/tee_api_operations.c:1178
    a92a:	f04f 0000 	mov.w	r0, #0
    a92e:	f7f8 eb98 	blx	3060 <TEE_Panic@plt>
/home/qemu-sgx/devel/optee/optee_os/lib/libutee/tee_api_operations.c:1180
    a932:	68fb      	ldr	r3, [r7, #12]
    a934:	685b      	ldr	r3, [r3, #4]
    a936:	2b03      	cmp	r3, #3
    a938:	d003      	beq.n	a942 <TEE_MACUpdate+0x38>
/home/qemu-sgx/devel/optee/optee_os/lib/libutee/tee_api_operations.c:1181
    a93a:	f04f 0000 	mov.w	r0, #0
    a93e:	f7f8 eb90 	blx	3060 <TEE_Panic@plt>
/home/qemu-sgx/devel/optee/optee_os/lib/libutee/tee_api_operations.c:1183
    a942:	68fb      	ldr	r3, [r7, #12]
    a944:	69db      	ldr	r3, [r3, #28]
    a946:	f403 3300 	and.w	r3, r3, #131072	; 0x20000
    a94a:	2b00      	cmp	r3, #0
    a94c:	d103      	bne.n	a956 <TEE_MACUpdate+0x4c>
/home/qemu-sgx/devel/optee/optee_os/lib/libutee/tee_api_operations.c:1184
    a94e:	f04f 0000 	mov.w	r0, #0
    a952:	f7f8 eb86 	blx	3060 <TEE_Panic@plt>
/home/qemu-sgx/devel/optee/optee_os/lib/libutee/tee_api_operations.c:1186
    a956:	68fb      	ldr	r3, [r7, #12]
    a958:	6a9b      	ldr	r3, [r3, #40]	; 0x28
    a95a:	2b01      	cmp	r3, #1
    a95c:	d003      	beq.n	a966 <TEE_MACUpdate+0x5c>
/home/qemu-sgx/devel/optee/optee_os/lib/libutee/tee_api_operations.c:1187
    a95e:	f04f 0000 	mov.w	r0, #0
    a962:	f7f8 eb7e 	blx	3060 <TEE_Panic@plt>
/home/qemu-sgx/devel/optee/optee_os/lib/libutee/tee_api_operations.c:1189
    a966:	68fb      	ldr	r3, [r7, #12]
    a968:	6bdb      	ldr	r3, [r3, #60]	; 0x3c
    a96a:	687a      	ldr	r2, [r7, #4]
    a96c:	68b9      	ldr	r1, [r7, #8]
    a96e:	4618      	mov	r0, r3
    a970:	f7f8 eb9a 	blx	30a8 <_utee_hash_update@plt>
    a974:	6178      	str	r0, [r7, #20]
/home/qemu-sgx/devel/optee/optee_os/lib/libutee/tee_api_operations.c:1190
    a976:	697b      	ldr	r3, [r7, #20]
    a978:	2b00      	cmp	r3, #0
    a97a:	d002      	beq.n	a982 <TEE_MACUpdate+0x78>
/home/qemu-sgx/devel/optee/optee_os/lib/libutee/tee_api_operations.c:1191
    a97c:	6978      	ldr	r0, [r7, #20]
    a97e:	f7f8 eb70 	blx	3060 <TEE_Panic@plt>
/home/qemu-sgx/devel/optee/optee_os/lib/libutee/tee_api_operations.c:1192
    a982:	bf00      	nop
    a984:	f107 0718 	add.w	r7, r7, #24
    a988:	46bd      	mov	sp, r7
    a98a:	bd80      	pop	{r7, pc}

0000a98c <TEE_MACComputeFinal>:
TEE_MACComputeFinal():
/home/qemu-sgx/devel/optee/optee_os/lib/libutee/tee_api_operations.c:1197
    a98c:	e96d 4504 	strd	r4, r5, [sp, #-16]!
    a990:	e9cd 7e02 	strd	r7, lr, [sp, #8]
    a994:	b08a      	sub	sp, #40	; 0x28
    a996:	af02      	add	r7, sp, #8
    a998:	60f8      	str	r0, [r7, #12]
    a99a:	60b9      	str	r1, [r7, #8]
    a99c:	607a      	str	r2, [r7, #4]
    a99e:	603b      	str	r3, [r7, #0]
/home/qemu-sgx/devel/optee/optee_os/lib/libutee/tee_api_operations.c:1201
    a9a0:	68fb      	ldr	r3, [r7, #12]
    a9a2:	2b00      	cmp	r3, #0
    a9a4:	d005      	beq.n	a9b2 <TEE_MACComputeFinal+0x26>
/home/qemu-sgx/devel/optee/optee_os/lib/libutee/tee_api_operations.c:1201 (discriminator 1)
    a9a6:	68bb      	ldr	r3, [r7, #8]
    a9a8:	2b00      	cmp	r3, #0
    a9aa:	d108      	bne.n	a9be <TEE_MACComputeFinal+0x32>
/home/qemu-sgx/devel/optee/optee_os/lib/libutee/tee_api_operations.c:1201 (discriminator 2)
    a9ac:	687b      	ldr	r3, [r7, #4]
    a9ae:	2b00      	cmp	r3, #0
    a9b0:	d005      	beq.n	a9be <TEE_MACComputeFinal+0x32>
/home/qemu-sgx/devel/optee/optee_os/lib/libutee/tee_api_operations.c:1202
    a9b2:	f04f 0306 	mov.w	r3, #6
    a9b6:	f6cf 73ff 	movt	r3, #65535	; 0xffff
    a9ba:	61fb      	str	r3, [r7, #28]
/home/qemu-sgx/devel/optee/optee_os/lib/libutee/tee_api_operations.c:1203
    a9bc:	e04a      	b.n	aa54 <TEE_MACComputeFinal+0xc8>
/home/qemu-sgx/devel/optee/optee_os/lib/libutee/tee_api_operations.c:1205
    a9be:	f04f 0104 	mov.w	r1, #4
    a9c2:	6b38      	ldr	r0, [r7, #48]	; 0x30
    a9c4:	f7f8 eaec 	blx	2fa0 <__utee_check_inout_annotation@plt>
/home/qemu-sgx/devel/optee/optee_os/lib/libutee/tee_api_operations.c:1207
    a9c8:	68fb      	ldr	r3, [r7, #12]
    a9ca:	685b      	ldr	r3, [r3, #4]
    a9cc:	2b03      	cmp	r3, #3
    a9ce:	d005      	beq.n	a9dc <TEE_MACComputeFinal+0x50>
/home/qemu-sgx/devel/optee/optee_os/lib/libutee/tee_api_operations.c:1208
    a9d0:	f04f 0306 	mov.w	r3, #6
    a9d4:	f6cf 73ff 	movt	r3, #65535	; 0xffff
    a9d8:	61fb      	str	r3, [r7, #28]
/home/qemu-sgx/devel/optee/optee_os/lib/libutee/tee_api_operations.c:1209
    a9da:	e03b      	b.n	aa54 <TEE_MACComputeFinal+0xc8>
/home/qemu-sgx/devel/optee/optee_os/lib/libutee/tee_api_operations.c:1212
    a9dc:	68fb      	ldr	r3, [r7, #12]
    a9de:	69db      	ldr	r3, [r3, #28]
    a9e0:	f403 3300 	and.w	r3, r3, #131072	; 0x20000
    a9e4:	2b00      	cmp	r3, #0
    a9e6:	d105      	bne.n	a9f4 <TEE_MACComputeFinal+0x68>
/home/qemu-sgx/devel/optee/optee_os/lib/libutee/tee_api_operations.c:1213
    a9e8:	f04f 0306 	mov.w	r3, #6
    a9ec:	f6cf 73ff 	movt	r3, #65535	; 0xffff
    a9f0:	61fb      	str	r3, [r7, #28]
/home/qemu-sgx/devel/optee/optee_os/lib/libutee/tee_api_operations.c:1214
    a9f2:	e02f      	b.n	aa54 <TEE_MACComputeFinal+0xc8>
/home/qemu-sgx/devel/optee/optee_os/lib/libutee/tee_api_operations.c:1217
    a9f4:	68fb      	ldr	r3, [r7, #12]
    a9f6:	6a9b      	ldr	r3, [r3, #40]	; 0x28
    a9f8:	2b01      	cmp	r3, #1
    a9fa:	d005      	beq.n	aa08 <TEE_MACComputeFinal+0x7c>
/home/qemu-sgx/devel/optee/optee_os/lib/libutee/tee_api_operations.c:1218
    a9fc:	f04f 0306 	mov.w	r3, #6
    aa00:	f6cf 73ff 	movt	r3, #65535	; 0xffff
    aa04:	61fb      	str	r3, [r7, #28]
/home/qemu-sgx/devel/optee/optee_os/lib/libutee/tee_api_operations.c:1219
    aa06:	e025      	b.n	aa54 <TEE_MACComputeFinal+0xc8>
/home/qemu-sgx/devel/optee/optee_os/lib/libutee/tee_api_operations.c:1222
    aa08:	6b3b      	ldr	r3, [r7, #48]	; 0x30
    aa0a:	681b      	ldr	r3, [r3, #0]
    aa0c:	f04f 0200 	mov.w	r2, #0
    aa10:	461c      	mov	r4, r3
    aa12:	4615      	mov	r5, r2
    aa14:	e9c7 4504 	strd	r4, r5, [r7, #16]
/home/qemu-sgx/devel/optee/optee_os/lib/libutee/tee_api_operations.c:1223
    aa18:	68fb      	ldr	r3, [r7, #12]
    aa1a:	6bd8      	ldr	r0, [r3, #60]	; 0x3c
    aa1c:	f107 0310 	add.w	r3, r7, #16
    aa20:	9300      	str	r3, [sp, #0]
    aa22:	683b      	ldr	r3, [r7, #0]
    aa24:	687a      	ldr	r2, [r7, #4]
    aa26:	68b9      	ldr	r1, [r7, #8]
    aa28:	f7f8 ed54 	blx	34d4 <_utee_hash_final@plt>
    aa2c:	61f8      	str	r0, [r7, #28]
/home/qemu-sgx/devel/optee/optee_os/lib/libutee/tee_api_operations.c:1224
    aa2e:	e9d7 2304 	ldrd	r2, r3, [r7, #16]
    aa32:	6b3b      	ldr	r3, [r7, #48]	; 0x30
    aa34:	601a      	str	r2, [r3, #0]
/home/qemu-sgx/devel/optee/optee_os/lib/libutee/tee_api_operations.c:1225
    aa36:	69fb      	ldr	r3, [r7, #28]
    aa38:	2b00      	cmp	r3, #0
    aa3a:	d10a      	bne.n	aa52 <TEE_MACComputeFinal+0xc6>
/home/qemu-sgx/devel/optee/optee_os/lib/libutee/tee_api_operations.c:1228
    aa3c:	68fb      	ldr	r3, [r7, #12]
    aa3e:	69db      	ldr	r3, [r3, #28]
    aa40:	f423 3200 	bic.w	r2, r3, #131072	; 0x20000
    aa44:	68fb      	ldr	r3, [r7, #12]
    aa46:	61da      	str	r2, [r3, #28]
/home/qemu-sgx/devel/optee/optee_os/lib/libutee/tee_api_operations.c:1230
    aa48:	68fb      	ldr	r3, [r7, #12]
    aa4a:	f04f 0200 	mov.w	r2, #0
    aa4e:	629a      	str	r2, [r3, #40]	; 0x28
    aa50:	e000      	b.n	aa54 <TEE_MACComputeFinal+0xc8>
/home/qemu-sgx/devel/optee/optee_os/lib/libutee/tee_api_operations.c:1226
    aa52:	bf00      	nop
/home/qemu-sgx/devel/optee/optee_os/lib/libutee/tee_api_operations.c:1233
    aa54:	69fb      	ldr	r3, [r7, #28]
    aa56:	2b00      	cmp	r3, #0
    aa58:	d009      	beq.n	aa6e <TEE_MACComputeFinal+0xe2>
/home/qemu-sgx/devel/optee/optee_os/lib/libutee/tee_api_operations.c:1233 (discriminator 1)
    aa5a:	69fa      	ldr	r2, [r7, #28]
    aa5c:	f04f 0310 	mov.w	r3, #16
    aa60:	f6cf 73ff 	movt	r3, #65535	; 0xffff
    aa64:	429a      	cmp	r2, r3
    aa66:	d002      	beq.n	aa6e <TEE_MACComputeFinal+0xe2>
/home/qemu-sgx/devel/optee/optee_os/lib/libutee/tee_api_operations.c:1235
    aa68:	69f8      	ldr	r0, [r7, #28]
    aa6a:	f7f8 eafa 	blx	3060 <TEE_Panic@plt>
/home/qemu-sgx/devel/optee/optee_os/lib/libutee/tee_api_operations.c:1237
    aa6e:	69fb      	ldr	r3, [r7, #28]
/home/qemu-sgx/devel/optee/optee_os/lib/libutee/tee_api_operations.c:1238
    aa70:	4618      	mov	r0, r3
    aa72:	f107 0720 	add.w	r7, r7, #32
    aa76:	46bd      	mov	sp, r7
    aa78:	e9dd 4500 	ldrd	r4, r5, [sp]
    aa7c:	b002      	add	sp, #8
    aa7e:	bd80      	pop	{r7, pc}

0000aa80 <TEE_MACCompareFinal>:
TEE_MACCompareFinal():
/home/qemu-sgx/devel/optee/optee_os/lib/libutee/tee_api_operations.c:1243
    aa80:	e96d 7e02 	strd	r7, lr, [sp, #-8]!
    aa84:	b098      	sub	sp, #96	; 0x60
    aa86:	af02      	add	r7, sp, #8
    aa88:	60f8      	str	r0, [r7, #12]
    aa8a:	60b9      	str	r1, [r7, #8]
    aa8c:	607a      	str	r2, [r7, #4]
    aa8e:	603b      	str	r3, [r7, #0]
/home/qemu-sgx/devel/optee/optee_os/lib/libutee/tee_api_operations.c:1245
    aa90:	f04f 0300 	mov.w	r3, #0
    aa94:	617b      	str	r3, [r7, #20]
    aa96:	f107 0318 	add.w	r3, r7, #24
    aa9a:	f04f 023c 	mov.w	r2, #60	; 0x3c
    aa9e:	f04f 0100 	mov.w	r1, #0
    aaa2:	4618      	mov	r0, r3
    aaa4:	f7f8 ec14 	blx	32d0 <memset@plt>
/home/qemu-sgx/devel/optee/optee_os/lib/libutee/tee_api_operations.c:1246
    aaa8:	f04f 0340 	mov.w	r3, #64	; 0x40
    aaac:	613b      	str	r3, [r7, #16]
/home/qemu-sgx/devel/optee/optee_os/lib/libutee/tee_api_operations.c:1248
    aaae:	68fb      	ldr	r3, [r7, #12]
    aab0:	685b      	ldr	r3, [r3, #4]
    aab2:	2b03      	cmp	r3, #3
    aab4:	d005      	beq.n	aac2 <TEE_MACCompareFinal+0x42>
/home/qemu-sgx/devel/optee/optee_os/lib/libutee/tee_api_operations.c:1249
    aab6:	f04f 0306 	mov.w	r3, #6
    aaba:	f6cf 73ff 	movt	r3, #65535	; 0xffff
    aabe:	657b      	str	r3, [r7, #84]	; 0x54
/home/qemu-sgx/devel/optee/optee_os/lib/libutee/tee_api_operations.c:1250
    aac0:	e044      	b.n	ab4c <TEE_MACCompareFinal+0xcc>
/home/qemu-sgx/devel/optee/optee_os/lib/libutee/tee_api_operations.c:1253
    aac2:	68fb      	ldr	r3, [r7, #12]
    aac4:	69db      	ldr	r3, [r3, #28]
    aac6:	f403 3300 	and.w	r3, r3, #131072	; 0x20000
    aaca:	2b00      	cmp	r3, #0
    aacc:	d105      	bne.n	aada <TEE_MACCompareFinal+0x5a>
/home/qemu-sgx/devel/optee/optee_os/lib/libutee/tee_api_operations.c:1254
    aace:	f04f 0306 	mov.w	r3, #6
    aad2:	f6cf 73ff 	movt	r3, #65535	; 0xffff
    aad6:	657b      	str	r3, [r7, #84]	; 0x54
/home/qemu-sgx/devel/optee/optee_os/lib/libutee/tee_api_operations.c:1255
    aad8:	e038      	b.n	ab4c <TEE_MACCompareFinal+0xcc>
/home/qemu-sgx/devel/optee/optee_os/lib/libutee/tee_api_operations.c:1258
    aada:	68fb      	ldr	r3, [r7, #12]
    aadc:	6a9b      	ldr	r3, [r3, #40]	; 0x28
    aade:	2b01      	cmp	r3, #1
    aae0:	d005      	beq.n	aaee <TEE_MACCompareFinal+0x6e>
/home/qemu-sgx/devel/optee/optee_os/lib/libutee/tee_api_operations.c:1259
    aae2:	f04f 0306 	mov.w	r3, #6
    aae6:	f6cf 73ff 	movt	r3, #65535	; 0xffff
    aaea:	657b      	str	r3, [r7, #84]	; 0x54
/home/qemu-sgx/devel/optee/optee_os/lib/libutee/tee_api_operations.c:1260
    aaec:	e02e      	b.n	ab4c <TEE_MACCompareFinal+0xcc>
/home/qemu-sgx/devel/optee/optee_os/lib/libutee/tee_api_operations.c:1263
    aaee:	f107 0214 	add.w	r2, r7, #20
    aaf2:	f107 0310 	add.w	r3, r7, #16
    aaf6:	9300      	str	r3, [sp, #0]
    aaf8:	4613      	mov	r3, r2
    aafa:	687a      	ldr	r2, [r7, #4]
    aafc:	68b9      	ldr	r1, [r7, #8]
    aafe:	68f8      	ldr	r0, [r7, #12]
    ab00:	f7f8 ece2 	blx	34c8 <TEE_MACComputeFinal@plt>
    ab04:	6578      	str	r0, [r7, #84]	; 0x54
/home/qemu-sgx/devel/optee/optee_os/lib/libutee/tee_api_operations.c:1265
    ab06:	6d7b      	ldr	r3, [r7, #84]	; 0x54
    ab08:	2b00      	cmp	r3, #0
    ab0a:	d11e      	bne.n	ab4a <TEE_MACCompareFinal+0xca>
/home/qemu-sgx/devel/optee/optee_os/lib/libutee/tee_api_operations.c:1268
    ab0c:	693b      	ldr	r3, [r7, #16]
    ab0e:	6e3a      	ldr	r2, [r7, #96]	; 0x60
    ab10:	429a      	cmp	r2, r3
    ab12:	d005      	beq.n	ab20 <TEE_MACCompareFinal+0xa0>
/home/qemu-sgx/devel/optee/optee_os/lib/libutee/tee_api_operations.c:1269
    ab14:	f243 0371 	movw	r3, #12401	; 0x3071
    ab18:	f6cf 73ff 	movt	r3, #65535	; 0xffff
    ab1c:	657b      	str	r3, [r7, #84]	; 0x54
/home/qemu-sgx/devel/optee/optee_os/lib/libutee/tee_api_operations.c:1270
    ab1e:	e015      	b.n	ab4c <TEE_MACCompareFinal+0xcc>
/home/qemu-sgx/devel/optee/optee_os/lib/libutee/tee_api_operations.c:1273
    ab20:	693a      	ldr	r2, [r7, #16]
    ab22:	f107 0314 	add.w	r3, r7, #20
    ab26:	4619      	mov	r1, r3
    ab28:	6838      	ldr	r0, [r7, #0]
    ab2a:	f7f8 eafa 	blx	3120 <consttime_memcmp@plt>
    ab2e:	4603      	mov	r3, r0
    ab30:	2b00      	cmp	r3, #0
    ab32:	d005      	beq.n	ab40 <TEE_MACCompareFinal+0xc0>
/home/qemu-sgx/devel/optee/optee_os/lib/libutee/tee_api_operations.c:1274
    ab34:	f243 0371 	movw	r3, #12401	; 0x3071
    ab38:	f6cf 73ff 	movt	r3, #65535	; 0xffff
    ab3c:	657b      	str	r3, [r7, #84]	; 0x54
/home/qemu-sgx/devel/optee/optee_os/lib/libutee/tee_api_operations.c:1275
    ab3e:	e005      	b.n	ab4c <TEE_MACCompareFinal+0xcc>
/home/qemu-sgx/devel/optee/optee_os/lib/libutee/tee_api_operations.c:1278
    ab40:	68fb      	ldr	r3, [r7, #12]
    ab42:	f04f 0200 	mov.w	r2, #0
    ab46:	629a      	str	r2, [r3, #40]	; 0x28
    ab48:	e000      	b.n	ab4c <TEE_MACCompareFinal+0xcc>
/home/qemu-sgx/devel/optee/optee_os/lib/libutee/tee_api_operations.c:1266
    ab4a:	bf00      	nop
/home/qemu-sgx/devel/optee/optee_os/lib/libutee/tee_api_operations.c:1281
    ab4c:	6d7b      	ldr	r3, [r7, #84]	; 0x54
    ab4e:	2b00      	cmp	r3, #0
    ab50:	d009      	beq.n	ab66 <TEE_MACCompareFinal+0xe6>
/home/qemu-sgx/devel/optee/optee_os/lib/libutee/tee_api_operations.c:1281 (discriminator 1)
    ab52:	6d7a      	ldr	r2, [r7, #84]	; 0x54
    ab54:	f243 0371 	movw	r3, #12401	; 0x3071
    ab58:	f6cf 73ff 	movt	r3, #65535	; 0xffff
    ab5c:	429a      	cmp	r2, r3
    ab5e:	d002      	beq.n	ab66 <TEE_MACCompareFinal+0xe6>
/home/qemu-sgx/devel/optee/optee_os/lib/libutee/tee_api_operations.c:1283
    ab60:	6d78      	ldr	r0, [r7, #84]	; 0x54
    ab62:	f7f8 ea7e 	blx	3060 <TEE_Panic@plt>
/home/qemu-sgx/devel/optee/optee_os/lib/libutee/tee_api_operations.c:1285
    ab66:	6d7b      	ldr	r3, [r7, #84]	; 0x54
/home/qemu-sgx/devel/optee/optee_os/lib/libutee/tee_api_operations.c:1286
    ab68:	4618      	mov	r0, r3
    ab6a:	f107 0758 	add.w	r7, r7, #88	; 0x58
    ab6e:	46bd      	mov	sp, r7
    ab70:	bd80      	pop	{r7, pc}

0000ab72 <TEE_AEInit>:
TEE_AEInit():
/home/qemu-sgx/devel/optee/optee_os/lib/libutee/tee_api_operations.c:1293
    ab72:	e96d 7e02 	strd	r7, lr, [sp, #-8]!
    ab76:	b088      	sub	sp, #32
    ab78:	af02      	add	r7, sp, #8
    ab7a:	60f8      	str	r0, [r7, #12]
    ab7c:	60b9      	str	r1, [r7, #8]
    ab7e:	607a      	str	r2, [r7, #4]
    ab80:	603b      	str	r3, [r7, #0]
/home/qemu-sgx/devel/optee/optee_os/lib/libutee/tee_api_operations.c:1296
    ab82:	68fb      	ldr	r3, [r7, #12]
    ab84:	2b00      	cmp	r3, #0
    ab86:	d002      	beq.n	ab8e <TEE_AEInit+0x1c>
/home/qemu-sgx/devel/optee/optee_os/lib/libutee/tee_api_operations.c:1296 (discriminator 1)
    ab88:	68bb      	ldr	r3, [r7, #8]
    ab8a:	2b00      	cmp	r3, #0
    ab8c:	d105      	bne.n	ab9a <TEE_AEInit+0x28>
/home/qemu-sgx/devel/optee/optee_os/lib/libutee/tee_api_operations.c:1297
    ab8e:	f04f 0306 	mov.w	r3, #6
    ab92:	f6cf 73ff 	movt	r3, #65535	; 0xffff
    ab96:	617b      	str	r3, [r7, #20]
/home/qemu-sgx/devel/optee/optee_os/lib/libutee/tee_api_operations.c:1298
    ab98:	e04f      	b.n	ac3a <TEE_AEInit+0xc8>
/home/qemu-sgx/devel/optee/optee_os/lib/libutee/tee_api_operations.c:1301
    ab9a:	68fb      	ldr	r3, [r7, #12]
    ab9c:	685b      	ldr	r3, [r3, #4]
    ab9e:	2b04      	cmp	r3, #4
    aba0:	d005      	beq.n	abae <TEE_AEInit+0x3c>
/home/qemu-sgx/devel/optee/optee_os/lib/libutee/tee_api_operations.c:1302
    aba2:	f04f 0306 	mov.w	r3, #6
    aba6:	f6cf 73ff 	movt	r3, #65535	; 0xffff
    abaa:	617b      	str	r3, [r7, #20]
/home/qemu-sgx/devel/optee/optee_os/lib/libutee/tee_api_operations.c:1303
    abac:	e045      	b.n	ac3a <TEE_AEInit+0xc8>
/home/qemu-sgx/devel/optee/optee_os/lib/libutee/tee_api_operations.c:1306
    abae:	68fb      	ldr	r3, [r7, #12]
    abb0:	6a9b      	ldr	r3, [r3, #40]	; 0x28
    abb2:	2b00      	cmp	r3, #0
    abb4:	d005      	beq.n	abc2 <TEE_AEInit+0x50>
/home/qemu-sgx/devel/optee/optee_os/lib/libutee/tee_api_operations.c:1307
    abb6:	f04f 0306 	mov.w	r3, #6
    abba:	f6cf 73ff 	movt	r3, #65535	; 0xffff
    abbe:	617b      	str	r3, [r7, #20]
/home/qemu-sgx/devel/optee/optee_os/lib/libutee/tee_api_operations.c:1308
    abc0:	e03b      	b.n	ac3a <TEE_AEInit+0xc8>
/home/qemu-sgx/devel/optee/optee_os/lib/libutee/tee_api_operations.c:1317
    abc2:	68fb      	ldr	r3, [r7, #12]
    abc4:	681a      	ldr	r2, [r3, #0]
    abc6:	f44f 6301 	mov.w	r3, #2064	; 0x810
    abca:	f2c4 0300 	movt	r3, #16384	; 0x4000
    abce:	429a      	cmp	r2, r3
    abd0:	d110      	bne.n	abf4 <TEE_AEInit+0x82>
/home/qemu-sgx/devel/optee/optee_os/lib/libutee/tee_api_operations.c:1321
    abd2:	683b      	ldr	r3, [r7, #0]
    abd4:	2b5f      	cmp	r3, #95	; 0x5f
    abd6:	d907      	bls.n	abe8 <TEE_AEInit+0x76>
/home/qemu-sgx/devel/optee/optee_os/lib/libutee/tee_api_operations.c:1321 (discriminator 1)
    abd8:	683b      	ldr	r3, [r7, #0]
    abda:	2b80      	cmp	r3, #128	; 0x80
    abdc:	d804      	bhi.n	abe8 <TEE_AEInit+0x76>
/home/qemu-sgx/devel/optee/optee_os/lib/libutee/tee_api_operations.c:1321 (discriminator 2)
    abde:	683b      	ldr	r3, [r7, #0]
    abe0:	f003 0307 	and.w	r3, r3, #7
    abe4:	2b00      	cmp	r3, #0
    abe6:	d005      	beq.n	abf4 <TEE_AEInit+0x82>
/home/qemu-sgx/devel/optee/optee_os/lib/libutee/tee_api_operations.c:1322
    abe8:	f04f 030a 	mov.w	r3, #10
    abec:	f6cf 73ff 	movt	r3, #65535	; 0xffff
    abf0:	617b      	str	r3, [r7, #20]
/home/qemu-sgx/devel/optee/optee_os/lib/libutee/tee_api_operations.c:1323
    abf2:	e022      	b.n	ac3a <TEE_AEInit+0xc8>
/home/qemu-sgx/devel/optee/optee_os/lib/libutee/tee_api_operations.c:1327
    abf4:	68fb      	ldr	r3, [r7, #12]
    abf6:	6bd8      	ldr	r0, [r3, #60]	; 0x3c
    abf8:	683b      	ldr	r3, [r7, #0]
    abfa:	ea4f 02d3 	mov.w	r2, r3, lsr #3
    abfe:	6a7b      	ldr	r3, [r7, #36]	; 0x24
    ac00:	9301      	str	r3, [sp, #4]
    ac02:	6a3b      	ldr	r3, [r7, #32]
    ac04:	9300      	str	r3, [sp, #0]
    ac06:	4613      	mov	r3, r2
    ac08:	687a      	ldr	r2, [r7, #4]
    ac0a:	68b9      	ldr	r1, [r7, #8]
    ac0c:	f7f8 ec20 	blx	3450 <_utee_authenc_init@plt>
    ac10:	6178      	str	r0, [r7, #20]
/home/qemu-sgx/devel/optee/optee_os/lib/libutee/tee_api_operations.c:1329
    ac12:	697b      	ldr	r3, [r7, #20]
    ac14:	2b00      	cmp	r3, #0
    ac16:	d10f      	bne.n	ac38 <TEE_AEInit+0xc6>
/home/qemu-sgx/devel/optee/optee_os/lib/libutee/tee_api_operations.c:1332
    ac18:	683b      	ldr	r3, [r7, #0]
    ac1a:	ea4f 02d3 	mov.w	r2, r3, lsr #3
    ac1e:	68fb      	ldr	r3, [r7, #12]
    ac20:	60da      	str	r2, [r3, #12]
/home/qemu-sgx/devel/optee/optee_os/lib/libutee/tee_api_operations.c:1333
    ac22:	68fb      	ldr	r3, [r7, #12]
    ac24:	f04f 0200 	mov.w	r2, #0
    ac28:	639a      	str	r2, [r3, #56]	; 0x38
/home/qemu-sgx/devel/optee/optee_os/lib/libutee/tee_api_operations.c:1334
    ac2a:	68fb      	ldr	r3, [r7, #12]
    ac2c:	69db      	ldr	r3, [r3, #28]
    ac2e:	f443 3200 	orr.w	r2, r3, #131072	; 0x20000
    ac32:	68fb      	ldr	r3, [r7, #12]
    ac34:	61da      	str	r2, [r3, #28]
    ac36:	e000      	b.n	ac3a <TEE_AEInit+0xc8>
/home/qemu-sgx/devel/optee/optee_os/lib/libutee/tee_api_operations.c:1330
    ac38:	bf00      	nop
/home/qemu-sgx/devel/optee/optee_os/lib/libutee/tee_api_operations.c:1337
    ac3a:	697b      	ldr	r3, [r7, #20]
    ac3c:	2b00      	cmp	r3, #0
    ac3e:	d009      	beq.n	ac54 <TEE_AEInit+0xe2>
/home/qemu-sgx/devel/optee/optee_os/lib/libutee/tee_api_operations.c:1337 (discriminator 1)
    ac40:	697a      	ldr	r2, [r7, #20]
    ac42:	f04f 030a 	mov.w	r3, #10
    ac46:	f6cf 73ff 	movt	r3, #65535	; 0xffff
    ac4a:	429a      	cmp	r2, r3
    ac4c:	d002      	beq.n	ac54 <TEE_AEInit+0xe2>
/home/qemu-sgx/devel/optee/optee_os/lib/libutee/tee_api_operations.c:1339
    ac4e:	6978      	ldr	r0, [r7, #20]
    ac50:	f7f8 ea06 	blx	3060 <TEE_Panic@plt>
/home/qemu-sgx/devel/optee/optee_os/lib/libutee/tee_api_operations.c:1341
    ac54:	697b      	ldr	r3, [r7, #20]
/home/qemu-sgx/devel/optee/optee_os/lib/libutee/tee_api_operations.c:1342
    ac56:	4618      	mov	r0, r3
    ac58:	f107 0718 	add.w	r7, r7, #24
    ac5c:	46bd      	mov	sp, r7
    ac5e:	bd80      	pop	{r7, pc}

0000ac60 <TEE_AEUpdateAAD>:
TEE_AEUpdateAAD():
/home/qemu-sgx/devel/optee/optee_os/lib/libutee/tee_api_operations.c:1346
    ac60:	e96d 7e02 	strd	r7, lr, [sp, #-8]!
    ac64:	b086      	sub	sp, #24
    ac66:	af00      	add	r7, sp, #0
    ac68:	60f8      	str	r0, [r7, #12]
    ac6a:	60b9      	str	r1, [r7, #8]
    ac6c:	607a      	str	r2, [r7, #4]
/home/qemu-sgx/devel/optee/optee_os/lib/libutee/tee_api_operations.c:1349
    ac6e:	68fb      	ldr	r3, [r7, #12]
    ac70:	2b00      	cmp	r3, #0
    ac72:	d005      	beq.n	ac80 <TEE_AEUpdateAAD+0x20>
/home/qemu-sgx/devel/optee/optee_os/lib/libutee/tee_api_operations.c:1349 (discriminator 1)
    ac74:	68bb      	ldr	r3, [r7, #8]
    ac76:	2b00      	cmp	r3, #0
    ac78:	d106      	bne.n	ac88 <TEE_AEUpdateAAD+0x28>
/home/qemu-sgx/devel/optee/optee_os/lib/libutee/tee_api_operations.c:1350
    ac7a:	687b      	ldr	r3, [r7, #4]
    ac7c:	2b00      	cmp	r3, #0
    ac7e:	d003      	beq.n	ac88 <TEE_AEUpdateAAD+0x28>
/home/qemu-sgx/devel/optee/optee_os/lib/libutee/tee_api_operations.c:1351
    ac80:	f04f 0000 	mov.w	r0, #0
    ac84:	f7f8 e9ec 	blx	3060 <TEE_Panic@plt>
/home/qemu-sgx/devel/optee/optee_os/lib/libutee/tee_api_operations.c:1353
    ac88:	68fb      	ldr	r3, [r7, #12]
    ac8a:	685b      	ldr	r3, [r3, #4]
    ac8c:	2b04      	cmp	r3, #4
    ac8e:	d003      	beq.n	ac98 <TEE_AEUpdateAAD+0x38>
/home/qemu-sgx/devel/optee/optee_os/lib/libutee/tee_api_operations.c:1354
    ac90:	f04f 0000 	mov.w	r0, #0
    ac94:	f7f8 e9e4 	blx	3060 <TEE_Panic@plt>
/home/qemu-sgx/devel/optee/optee_os/lib/libutee/tee_api_operations.c:1356
    ac98:	68fb      	ldr	r3, [r7, #12]
    ac9a:	69db      	ldr	r3, [r3, #28]
    ac9c:	f403 3300 	and.w	r3, r3, #131072	; 0x20000
    aca0:	2b00      	cmp	r3, #0
    aca2:	d103      	bne.n	acac <TEE_AEUpdateAAD+0x4c>
/home/qemu-sgx/devel/optee/optee_os/lib/libutee/tee_api_operations.c:1357
    aca4:	f04f 0000 	mov.w	r0, #0
    aca8:	f7f8 e9da 	blx	3060 <TEE_Panic@plt>
/home/qemu-sgx/devel/optee/optee_os/lib/libutee/tee_api_operations.c:1359
    acac:	68fb      	ldr	r3, [r7, #12]
    acae:	6bdb      	ldr	r3, [r3, #60]	; 0x3c
    acb0:	687a      	ldr	r2, [r7, #4]
    acb2:	68b9      	ldr	r1, [r7, #8]
    acb4:	4618      	mov	r0, r3
    acb6:	f7f8 eb60 	blx	3378 <_utee_authenc_update_aad@plt>
    acba:	6178      	str	r0, [r7, #20]
/home/qemu-sgx/devel/optee/optee_os/lib/libutee/tee_api_operations.c:1361
    acbc:	68fb      	ldr	r3, [r7, #12]
    acbe:	f04f 0201 	mov.w	r2, #1
    acc2:	629a      	str	r2, [r3, #40]	; 0x28
/home/qemu-sgx/devel/optee/optee_os/lib/libutee/tee_api_operations.c:1363
    acc4:	697b      	ldr	r3, [r7, #20]
    acc6:	2b00      	cmp	r3, #0
    acc8:	d002      	beq.n	acd0 <TEE_AEUpdateAAD+0x70>
/home/qemu-sgx/devel/optee/optee_os/lib/libutee/tee_api_operations.c:1364
    acca:	6978      	ldr	r0, [r7, #20]
    accc:	f7f8 e9c8 	blx	3060 <TEE_Panic@plt>
/home/qemu-sgx/devel/optee/optee_os/lib/libutee/tee_api_operations.c:1365
    acd0:	bf00      	nop
    acd2:	f107 0718 	add.w	r7, r7, #24
    acd6:	46bd      	mov	sp, r7
    acd8:	bd80      	pop	{r7, pc}

0000acda <TEE_AEUpdate>:
TEE_AEUpdate():
/home/qemu-sgx/devel/optee/optee_os/lib/libutee/tee_api_operations.c:1369
    acda:	f84d 4d1c 	str.w	r4, [sp, #-28]!
    acde:	e9cd 5601 	strd	r5, r6, [sp, #4]
    ace2:	e9cd 7803 	strd	r7, r8, [sp, #12]
    ace6:	e9cd 9e05 	strd	r9, lr, [sp, #20]
    acea:	b08b      	sub	sp, #44	; 0x2c
    acec:	af02      	add	r7, sp, #8
    acee:	60f8      	str	r0, [r7, #12]
    acf0:	60b9      	str	r1, [r7, #8]
    acf2:	607a      	str	r2, [r7, #4]
    acf4:	603b      	str	r3, [r7, #0]
    acf6:	4e60      	ldr	r6, [pc, #384]	; (ae78 <TEE_AEUpdate+0x19e>)
    acf8:	447e      	add	r6, pc
/home/qemu-sgx/devel/optee/optee_os/lib/libutee/tee_api_operations.c:1370
    acfa:	f04f 0300 	mov.w	r3, #0
    acfe:	61fb      	str	r3, [r7, #28]
/home/qemu-sgx/devel/optee/optee_os/lib/libutee/tee_api_operations.c:1371
    ad00:	f04f 0300 	mov.w	r3, #0
    ad04:	61bb      	str	r3, [r7, #24]
/home/qemu-sgx/devel/optee/optee_os/lib/libutee/tee_api_operations.c:1372
    ad06:	efc0 0010 	vmov.i32	d16, #0	; 0x00000000
    ad0a:	edc7 0b04 	vstr	d16, [r7, #16]
/home/qemu-sgx/devel/optee/optee_os/lib/libutee/tee_api_operations.c:1374
    ad0e:	68fb      	ldr	r3, [r7, #12]
    ad10:	2b00      	cmp	r3, #0
    ad12:	d005      	beq.n	ad20 <TEE_AEUpdate+0x46>
/home/qemu-sgx/devel/optee/optee_os/lib/libutee/tee_api_operations.c:1374 (discriminator 1)
    ad14:	68bb      	ldr	r3, [r7, #8]
    ad16:	2b00      	cmp	r3, #0
    ad18:	d108      	bne.n	ad2c <TEE_AEUpdate+0x52>
/home/qemu-sgx/devel/optee/optee_os/lib/libutee/tee_api_operations.c:1374 (discriminator 2)
    ad1a:	687b      	ldr	r3, [r7, #4]
    ad1c:	2b00      	cmp	r3, #0
    ad1e:	d005      	beq.n	ad2c <TEE_AEUpdate+0x52>
/home/qemu-sgx/devel/optee/optee_os/lib/libutee/tee_api_operations.c:1375
    ad20:	f04f 0306 	mov.w	r3, #6
    ad24:	f6cf 73ff 	movt	r3, #65535	; 0xffff
    ad28:	61fb      	str	r3, [r7, #28]
/home/qemu-sgx/devel/optee/optee_os/lib/libutee/tee_api_operations.c:1376
    ad2a:	e08a      	b.n	ae42 <TEE_AEUpdate+0x168>
/home/qemu-sgx/devel/optee/optee_os/lib/libutee/tee_api_operations.c:1378
    ad2c:	f04f 0104 	mov.w	r1, #4
    ad30:	6c38      	ldr	r0, [r7, #64]	; 0x40
    ad32:	f7f8 e936 	blx	2fa0 <__utee_check_inout_annotation@plt>
/home/qemu-sgx/devel/optee/optee_os/lib/libutee/tee_api_operations.c:1380
    ad36:	68fb      	ldr	r3, [r7, #12]
    ad38:	685b      	ldr	r3, [r3, #4]
    ad3a:	2b04      	cmp	r3, #4
    ad3c:	d005      	beq.n	ad4a <TEE_AEUpdate+0x70>
/home/qemu-sgx/devel/optee/optee_os/lib/libutee/tee_api_operations.c:1381
    ad3e:	f04f 0306 	mov.w	r3, #6
    ad42:	f6cf 73ff 	movt	r3, #65535	; 0xffff
    ad46:	61fb      	str	r3, [r7, #28]
/home/qemu-sgx/devel/optee/optee_os/lib/libutee/tee_api_operations.c:1382
    ad48:	e07b      	b.n	ae42 <TEE_AEUpdate+0x168>
/home/qemu-sgx/devel/optee/optee_os/lib/libutee/tee_api_operations.c:1385
    ad4a:	68fb      	ldr	r3, [r7, #12]
    ad4c:	69db      	ldr	r3, [r3, #28]
    ad4e:	f403 3300 	and.w	r3, r3, #131072	; 0x20000
    ad52:	2b00      	cmp	r3, #0
    ad54:	d105      	bne.n	ad62 <TEE_AEUpdate+0x88>
/home/qemu-sgx/devel/optee/optee_os/lib/libutee/tee_api_operations.c:1386
    ad56:	f04f 0306 	mov.w	r3, #6
    ad5a:	f6cf 73ff 	movt	r3, #65535	; 0xffff
    ad5e:	61fb      	str	r3, [r7, #28]
/home/qemu-sgx/devel/optee/optee_os/lib/libutee/tee_api_operations.c:1387
    ad60:	e06f      	b.n	ae42 <TEE_AEUpdate+0x168>
/home/qemu-sgx/devel/optee/optee_os/lib/libutee/tee_api_operations.c:1390
    ad62:	68bb      	ldr	r3, [r7, #8]
    ad64:	2b00      	cmp	r3, #0
    ad66:	d10a      	bne.n	ad7e <TEE_AEUpdate+0xa4>
/home/qemu-sgx/devel/optee/optee_os/lib/libutee/tee_api_operations.c:1390 (discriminator 1)
    ad68:	687b      	ldr	r3, [r7, #4]
    ad6a:	2b00      	cmp	r3, #0
    ad6c:	d107      	bne.n	ad7e <TEE_AEUpdate+0xa4>
/home/qemu-sgx/devel/optee/optee_os/lib/libutee/tee_api_operations.c:1391
    ad6e:	6c3b      	ldr	r3, [r7, #64]	; 0x40
    ad70:	f04f 0200 	mov.w	r2, #0
    ad74:	601a      	str	r2, [r3, #0]
/home/qemu-sgx/devel/optee/optee_os/lib/libutee/tee_api_operations.c:1392
    ad76:	f04f 0300 	mov.w	r3, #0
    ad7a:	61fb      	str	r3, [r7, #28]
/home/qemu-sgx/devel/optee/optee_os/lib/libutee/tee_api_operations.c:1393
    ad7c:	e061      	b.n	ae42 <TEE_AEUpdate+0x168>
/home/qemu-sgx/devel/optee/optee_os/lib/libutee/tee_api_operations.c:1401
    ad7e:	68fb      	ldr	r3, [r7, #12]
    ad80:	6b5b      	ldr	r3, [r3, #52]	; 0x34
    ad82:	2b01      	cmp	r3, #1
    ad84:	d90b      	bls.n	ad9e <TEE_AEUpdate+0xc4>
/home/qemu-sgx/devel/optee/optee_os/lib/libutee/tee_api_operations.c:1402
    ad86:	68fb      	ldr	r3, [r7, #12]
    ad88:	6b9a      	ldr	r2, [r3, #56]	; 0x38
    ad8a:	687b      	ldr	r3, [r7, #4]
    ad8c:	441a      	add	r2, r3
    ad8e:	68fb      	ldr	r3, [r7, #12]
    ad90:	6b5b      	ldr	r3, [r3, #52]	; 0x34
    ad92:	f1c3 0300 	rsb	r3, r3, #0
    ad96:	ea03 0302 	and.w	r3, r3, r2
    ad9a:	61bb      	str	r3, [r7, #24]
    ad9c:	e001      	b.n	ada2 <TEE_AEUpdate+0xc8>
/home/qemu-sgx/devel/optee/optee_os/lib/libutee/tee_api_operations.c:1405
    ad9e:	687b      	ldr	r3, [r7, #4]
    ada0:	61bb      	str	r3, [r7, #24]
/home/qemu-sgx/devel/optee/optee_os/lib/libutee/tee_api_operations.c:1408
    ada2:	6c3b      	ldr	r3, [r7, #64]	; 0x40
    ada4:	681b      	ldr	r3, [r3, #0]
    ada6:	f04f 0200 	mov.w	r2, #0
    adaa:	4698      	mov	r8, r3
    adac:	4691      	mov	r9, r2
    adae:	e9c7 8904 	strd	r8, r9, [r7, #16]
/home/qemu-sgx/devel/optee/optee_os/lib/libutee/tee_api_operations.c:1409
    adb2:	69bb      	ldr	r3, [r7, #24]
    adb4:	f04f 0200 	mov.w	r2, #0
    adb8:	461c      	mov	r4, r3
    adba:	4615      	mov	r5, r2
    adbc:	e9d7 2304 	ldrd	r2, r3, [r7, #16]
    adc0:	42a2      	cmp	r2, r4
    adc2:	41ab      	sbcs	r3, r5
    adc4:	d208      	bcs.n	add8 <TEE_AEUpdate+0xfe>
/home/qemu-sgx/devel/optee/optee_os/lib/libutee/tee_api_operations.c:1410
    adc6:	6c3b      	ldr	r3, [r7, #64]	; 0x40
    adc8:	69ba      	ldr	r2, [r7, #24]
    adca:	601a      	str	r2, [r3, #0]
/home/qemu-sgx/devel/optee/optee_os/lib/libutee/tee_api_operations.c:1411
    adcc:	f04f 0310 	mov.w	r3, #16
    add0:	f6cf 73ff 	movt	r3, #65535	; 0xffff
    add4:	61fb      	str	r3, [r7, #28]
/home/qemu-sgx/devel/optee/optee_os/lib/libutee/tee_api_operations.c:1412
    add6:	e034      	b.n	ae42 <TEE_AEUpdate+0x168>
/home/qemu-sgx/devel/optee/optee_os/lib/libutee/tee_api_operations.c:1415
    add8:	68fb      	ldr	r3, [r7, #12]
    adda:	6b5b      	ldr	r3, [r3, #52]	; 0x34
    addc:	2b01      	cmp	r3, #1
    adde:	d90d      	bls.n	adfc <TEE_AEUpdate+0x122>
/home/qemu-sgx/devel/optee/optee_os/lib/libutee/tee_api_operations.c:1416
    ade0:	f107 0310 	add.w	r3, r7, #16
    ade4:	9301      	str	r3, [sp, #4]
    ade6:	683b      	ldr	r3, [r7, #0]
    ade8:	9300      	str	r3, [sp, #0]
    adea:	687b      	ldr	r3, [r7, #4]
    adec:	68ba      	ldr	r2, [r7, #8]
    adee:	4923      	ldr	r1, [pc, #140]	; (ae7c <TEE_AEUpdate+0x1a2>)
    adf0:	5871      	ldr	r1, [r6, r1]
    adf2:	68f8      	ldr	r0, [r7, #12]
    adf4:	f7ff f981 	bl	a0fa <tee_buffer_update>
    adf8:	61f8      	str	r0, [r7, #28]
    adfa:	e015      	b.n	ae28 <TEE_AEUpdate+0x14e>
/home/qemu-sgx/devel/optee/optee_os/lib/libutee/tee_api_operations.c:1419
    adfc:	687b      	ldr	r3, [r7, #4]
    adfe:	2b00      	cmp	r3, #0
    ae00:	d00b      	beq.n	ae1a <TEE_AEUpdate+0x140>
/home/qemu-sgx/devel/optee/optee_os/lib/libutee/tee_api_operations.c:1420
    ae02:	68fb      	ldr	r3, [r7, #12]
    ae04:	6bd8      	ldr	r0, [r3, #60]	; 0x3c
    ae06:	f107 0310 	add.w	r3, r7, #16
    ae0a:	9300      	str	r3, [sp, #0]
    ae0c:	683b      	ldr	r3, [r7, #0]
    ae0e:	687a      	ldr	r2, [r7, #4]
    ae10:	68b9      	ldr	r1, [r7, #8]
    ae12:	f7f8 ea0a 	blx	3228 <_utee_authenc_update_payload@plt>
    ae16:	61f8      	str	r0, [r7, #28]
    ae18:	e006      	b.n	ae28 <TEE_AEUpdate+0x14e>
/home/qemu-sgx/devel/optee/optee_os/lib/libutee/tee_api_operations.c:1424
    ae1a:	efc0 0010 	vmov.i32	d16, #0	; 0x00000000
    ae1e:	edc7 0b04 	vstr	d16, [r7, #16]
/home/qemu-sgx/devel/optee/optee_os/lib/libutee/tee_api_operations.c:1425
    ae22:	f04f 0300 	mov.w	r3, #0
    ae26:	61fb      	str	r3, [r7, #28]
/home/qemu-sgx/devel/optee/optee_os/lib/libutee/tee_api_operations.c:1428
    ae28:	69fb      	ldr	r3, [r7, #28]
    ae2a:	2b00      	cmp	r3, #0
    ae2c:	d108      	bne.n	ae40 <TEE_AEUpdate+0x166>
/home/qemu-sgx/devel/optee/optee_os/lib/libutee/tee_api_operations.c:1431
    ae2e:	e9d7 2304 	ldrd	r2, r3, [r7, #16]
    ae32:	6c3b      	ldr	r3, [r7, #64]	; 0x40
    ae34:	601a      	str	r2, [r3, #0]
/home/qemu-sgx/devel/optee/optee_os/lib/libutee/tee_api_operations.c:1433
    ae36:	68fb      	ldr	r3, [r7, #12]
    ae38:	f04f 0201 	mov.w	r2, #1
    ae3c:	629a      	str	r2, [r3, #40]	; 0x28
    ae3e:	e000      	b.n	ae42 <TEE_AEUpdate+0x168>
/home/qemu-sgx/devel/optee/optee_os/lib/libutee/tee_api_operations.c:1429
    ae40:	bf00      	nop
/home/qemu-sgx/devel/optee/optee_os/lib/libutee/tee_api_operations.c:1436
    ae42:	69fb      	ldr	r3, [r7, #28]
    ae44:	2b00      	cmp	r3, #0
    ae46:	d009      	beq.n	ae5c <TEE_AEUpdate+0x182>
/home/qemu-sgx/devel/optee/optee_os/lib/libutee/tee_api_operations.c:1436 (discriminator 1)
    ae48:	69fa      	ldr	r2, [r7, #28]
    ae4a:	f04f 0310 	mov.w	r3, #16
    ae4e:	f6cf 73ff 	movt	r3, #65535	; 0xffff
    ae52:	429a      	cmp	r2, r3
    ae54:	d002      	beq.n	ae5c <TEE_AEUpdate+0x182>
/home/qemu-sgx/devel/optee/optee_os/lib/libutee/tee_api_operations.c:1438
    ae56:	69f8      	ldr	r0, [r7, #28]
    ae58:	f7f8 e902 	blx	3060 <TEE_Panic@plt>
/home/qemu-sgx/devel/optee/optee_os/lib/libutee/tee_api_operations.c:1440
    ae5c:	69fb      	ldr	r3, [r7, #28]
/home/qemu-sgx/devel/optee/optee_os/lib/libutee/tee_api_operations.c:1441
    ae5e:	4618      	mov	r0, r3
    ae60:	f107 0724 	add.w	r7, r7, #36	; 0x24
    ae64:	46bd      	mov	sp, r7
    ae66:	e9dd 4500 	ldrd	r4, r5, [sp]
    ae6a:	e9dd 6702 	ldrd	r6, r7, [sp, #8]
    ae6e:	e9dd 8904 	ldrd	r8, r9, [sp, #16]
    ae72:	b006      	add	sp, #24
    ae74:	f85d fb04 	ldr.w	pc, [sp], #4
    ae78:	00005304 	.word	0x00005304
    ae7c:	000001dc 	.word	0x000001dc

0000ae80 <TEE_AEEncryptFinal>:
TEE_AEEncryptFinal():
/home/qemu-sgx/devel/optee/optee_os/lib/libutee/tee_api_operations.c:1447
    ae80:	f84d 4d24 	str.w	r4, [sp, #-36]!
    ae84:	e9cd 5601 	strd	r5, r6, [sp, #4]
    ae88:	e9cd 7803 	strd	r7, r8, [sp, #12]
    ae8c:	e9cd 9a05 	strd	r9, sl, [sp, #20]
    ae90:	e9cd be07 	strd	fp, lr, [sp, #28]
    ae94:	b091      	sub	sp, #68	; 0x44
    ae96:	af04      	add	r7, sp, #16
    ae98:	60f8      	str	r0, [r7, #12]
    ae9a:	60b9      	str	r1, [r7, #8]
    ae9c:	607a      	str	r2, [r7, #4]
    ae9e:	603b      	str	r3, [r7, #0]
    aea0:	4e7e      	ldr	r6, [pc, #504]	; (b09c <TEE_AEEncryptFinal+0x21c>)
    aea2:	447e      	add	r6, pc
/home/qemu-sgx/devel/optee/optee_os/lib/libutee/tee_api_operations.c:1449
    aea4:	683b      	ldr	r3, [r7, #0]
    aea6:	627b      	str	r3, [r7, #36]	; 0x24
/home/qemu-sgx/devel/optee/optee_os/lib/libutee/tee_api_operations.c:1450
    aea8:	f04f 0300 	mov.w	r3, #0
    aeac:	62bb      	str	r3, [r7, #40]	; 0x28
/home/qemu-sgx/devel/optee/optee_os/lib/libutee/tee_api_operations.c:1455
    aeae:	68fb      	ldr	r3, [r7, #12]
    aeb0:	2b00      	cmp	r3, #0
    aeb2:	d005      	beq.n	aec0 <TEE_AEEncryptFinal+0x40>
/home/qemu-sgx/devel/optee/optee_os/lib/libutee/tee_api_operations.c:1455 (discriminator 1)
    aeb4:	68bb      	ldr	r3, [r7, #8]
    aeb6:	2b00      	cmp	r3, #0
    aeb8:	d108      	bne.n	aecc <TEE_AEEncryptFinal+0x4c>
/home/qemu-sgx/devel/optee/optee_os/lib/libutee/tee_api_operations.c:1455 (discriminator 2)
    aeba:	687b      	ldr	r3, [r7, #4]
    aebc:	2b00      	cmp	r3, #0
    aebe:	d005      	beq.n	aecc <TEE_AEEncryptFinal+0x4c>
/home/qemu-sgx/devel/optee/optee_os/lib/libutee/tee_api_operations.c:1456
    aec0:	f04f 0306 	mov.w	r3, #6
    aec4:	f6cf 73ff 	movt	r3, #65535	; 0xffff
    aec8:	62fb      	str	r3, [r7, #44]	; 0x2c
/home/qemu-sgx/devel/optee/optee_os/lib/libutee/tee_api_operations.c:1457
    aeca:	e0ca      	b.n	b062 <TEE_AEEncryptFinal+0x1e2>
/home/qemu-sgx/devel/optee/optee_os/lib/libutee/tee_api_operations.c:1459
    aecc:	f04f 0104 	mov.w	r1, #4
    aed0:	6db8      	ldr	r0, [r7, #88]	; 0x58
    aed2:	f7f8 e866 	blx	2fa0 <__utee_check_inout_annotation@plt>
/home/qemu-sgx/devel/optee/optee_os/lib/libutee/tee_api_operations.c:1460
    aed6:	f04f 0104 	mov.w	r1, #4
    aeda:	6e38      	ldr	r0, [r7, #96]	; 0x60
    aedc:	f7f8 e860 	blx	2fa0 <__utee_check_inout_annotation@plt>
/home/qemu-sgx/devel/optee/optee_os/lib/libutee/tee_api_operations.c:1462
    aee0:	68fb      	ldr	r3, [r7, #12]
    aee2:	685b      	ldr	r3, [r3, #4]
    aee4:	2b04      	cmp	r3, #4
    aee6:	d005      	beq.n	aef4 <TEE_AEEncryptFinal+0x74>
/home/qemu-sgx/devel/optee/optee_os/lib/libutee/tee_api_operations.c:1463
    aee8:	f04f 0306 	mov.w	r3, #6
    aeec:	f6cf 73ff 	movt	r3, #65535	; 0xffff
    aef0:	62fb      	str	r3, [r7, #44]	; 0x2c
/home/qemu-sgx/devel/optee/optee_os/lib/libutee/tee_api_operations.c:1464
    aef2:	e0b6      	b.n	b062 <TEE_AEEncryptFinal+0x1e2>
/home/qemu-sgx/devel/optee/optee_os/lib/libutee/tee_api_operations.c:1467
    aef4:	68fb      	ldr	r3, [r7, #12]
    aef6:	69db      	ldr	r3, [r3, #28]
    aef8:	f403 3300 	and.w	r3, r3, #131072	; 0x20000
    aefc:	2b00      	cmp	r3, #0
    aefe:	d105      	bne.n	af0c <TEE_AEEncryptFinal+0x8c>
/home/qemu-sgx/devel/optee/optee_os/lib/libutee/tee_api_operations.c:1468
    af00:	f04f 0306 	mov.w	r3, #6
    af04:	f6cf 73ff 	movt	r3, #65535	; 0xffff
    af08:	62fb      	str	r3, [r7, #44]	; 0x2c
/home/qemu-sgx/devel/optee/optee_os/lib/libutee/tee_api_operations.c:1469
    af0a:	e0aa      	b.n	b062 <TEE_AEEncryptFinal+0x1e2>
/home/qemu-sgx/devel/optee/optee_os/lib/libutee/tee_api_operations.c:1480
    af0c:	f04f 0300 	mov.w	r3, #0
    af10:	f6cf 73ff 	movt	r3, #65535	; 0xffff
    af14:	62fb      	str	r3, [r7, #44]	; 0x2c
/home/qemu-sgx/devel/optee/optee_os/lib/libutee/tee_api_operations.c:1482
    af16:	68fb      	ldr	r3, [r7, #12]
    af18:	6b9b      	ldr	r3, [r3, #56]	; 0x38
    af1a:	687a      	ldr	r2, [r7, #4]
    af1c:	4413      	add	r3, r2
    af1e:	623b      	str	r3, [r7, #32]
/home/qemu-sgx/devel/optee/optee_os/lib/libutee/tee_api_operations.c:1483
    af20:	6dbb      	ldr	r3, [r7, #88]	; 0x58
    af22:	681b      	ldr	r3, [r3, #0]
    af24:	6a3a      	ldr	r2, [r7, #32]
    af26:	429a      	cmp	r2, r3
    af28:	d907      	bls.n	af3a <TEE_AEEncryptFinal+0xba>
/home/qemu-sgx/devel/optee/optee_os/lib/libutee/tee_api_operations.c:1484
    af2a:	6dbb      	ldr	r3, [r7, #88]	; 0x58
    af2c:	6a3a      	ldr	r2, [r7, #32]
    af2e:	601a      	str	r2, [r3, #0]
/home/qemu-sgx/devel/optee/optee_os/lib/libutee/tee_api_operations.c:1485
    af30:	f04f 0310 	mov.w	r3, #16
    af34:	f6cf 73ff 	movt	r3, #65535	; 0xffff
    af38:	62fb      	str	r3, [r7, #44]	; 0x2c
/home/qemu-sgx/devel/optee/optee_os/lib/libutee/tee_api_operations.c:1488
    af3a:	6e3b      	ldr	r3, [r7, #96]	; 0x60
    af3c:	681a      	ldr	r2, [r3, #0]
    af3e:	68fb      	ldr	r3, [r7, #12]
    af40:	68db      	ldr	r3, [r3, #12]
    af42:	429a      	cmp	r2, r3
    af44:	d208      	bcs.n	af58 <TEE_AEEncryptFinal+0xd8>
/home/qemu-sgx/devel/optee/optee_os/lib/libutee/tee_api_operations.c:1489
    af46:	68fb      	ldr	r3, [r7, #12]
    af48:	68da      	ldr	r2, [r3, #12]
    af4a:	6e3b      	ldr	r3, [r7, #96]	; 0x60
    af4c:	601a      	str	r2, [r3, #0]
/home/qemu-sgx/devel/optee/optee_os/lib/libutee/tee_api_operations.c:1490
    af4e:	f04f 0310 	mov.w	r3, #16
    af52:	f6cf 73ff 	movt	r3, #65535	; 0xffff
    af56:	62fb      	str	r3, [r7, #44]	; 0x2c
/home/qemu-sgx/devel/optee/optee_os/lib/libutee/tee_api_operations.c:1493
    af58:	6afa      	ldr	r2, [r7, #44]	; 0x2c
    af5a:	f04f 0310 	mov.w	r3, #16
    af5e:	f6cf 73ff 	movt	r3, #65535	; 0xffff
    af62:	429a      	cmp	r2, r3
    af64:	d078      	beq.n	b058 <TEE_AEEncryptFinal+0x1d8>
/home/qemu-sgx/devel/optee/optee_os/lib/libutee/tee_api_operations.c:1496
    af66:	6e3b      	ldr	r3, [r7, #96]	; 0x60
    af68:	681b      	ldr	r3, [r3, #0]
    af6a:	f04f 0200 	mov.w	r2, #0
    af6e:	469a      	mov	sl, r3
    af70:	4693      	mov	fp, r2
    af72:	e9c7 ab04 	strd	sl, fp, [r7, #16]
/home/qemu-sgx/devel/optee/optee_os/lib/libutee/tee_api_operations.c:1497
    af76:	6dbb      	ldr	r3, [r7, #88]	; 0x58
    af78:	681a      	ldr	r2, [r3, #0]
    af7a:	6abb      	ldr	r3, [r7, #40]	; 0x28
    af7c:	eba2 0303 	sub.w	r3, r2, r3
    af80:	f04f 0200 	mov.w	r2, #0
    af84:	4698      	mov	r8, r3
    af86:	4691      	mov	r9, r2
    af88:	e9c7 8906 	strd	r8, r9, [r7, #24]
/home/qemu-sgx/devel/optee/optee_os/lib/libutee/tee_api_operations.c:1498
    af8c:	68fb      	ldr	r3, [r7, #12]
    af8e:	6b5b      	ldr	r3, [r3, #52]	; 0x34
    af90:	2b01      	cmp	r3, #1
    af92:	d937      	bls.n	b004 <TEE_AEEncryptFinal+0x184>
/home/qemu-sgx/devel/optee/optee_os/lib/libutee/tee_api_operations.c:1499
    af94:	f107 0318 	add.w	r3, r7, #24
    af98:	9301      	str	r3, [sp, #4]
    af9a:	6a7b      	ldr	r3, [r7, #36]	; 0x24
    af9c:	9300      	str	r3, [sp, #0]
    af9e:	687b      	ldr	r3, [r7, #4]
    afa0:	68ba      	ldr	r2, [r7, #8]
    afa2:	493f      	ldr	r1, [pc, #252]	; (b0a0 <TEE_AEEncryptFinal+0x220>)
    afa4:	5871      	ldr	r1, [r6, r1]
    afa6:	68f8      	ldr	r0, [r7, #12]
    afa8:	f7ff f8a7 	bl	a0fa <tee_buffer_update>
    afac:	62f8      	str	r0, [r7, #44]	; 0x2c
/home/qemu-sgx/devel/optee/optee_os/lib/libutee/tee_api_operations.c:1501
    afae:	6afb      	ldr	r3, [r7, #44]	; 0x2c
    afb0:	2b00      	cmp	r3, #0
    afb2:	d153      	bne.n	b05c <TEE_AEEncryptFinal+0x1dc>
/home/qemu-sgx/devel/optee/optee_os/lib/libutee/tee_api_operations.c:1504
    afb4:	e9d7 2306 	ldrd	r2, r3, [r7, #24]
    afb8:	6a7b      	ldr	r3, [r7, #36]	; 0x24
    afba:	4413      	add	r3, r2
    afbc:	627b      	str	r3, [r7, #36]	; 0x24
/home/qemu-sgx/devel/optee/optee_os/lib/libutee/tee_api_operations.c:1505
    afbe:	e9d7 2306 	ldrd	r2, r3, [r7, #24]
    afc2:	6abb      	ldr	r3, [r7, #40]	; 0x28
    afc4:	4413      	add	r3, r2
    afc6:	62bb      	str	r3, [r7, #40]	; 0x28
/home/qemu-sgx/devel/optee/optee_os/lib/libutee/tee_api_operations.c:1507
    afc8:	6dbb      	ldr	r3, [r7, #88]	; 0x58
    afca:	681a      	ldr	r2, [r3, #0]
    afcc:	6abb      	ldr	r3, [r7, #40]	; 0x28
    afce:	eba2 0303 	sub.w	r3, r2, r3
    afd2:	f04f 0200 	mov.w	r2, #0
    afd6:	461c      	mov	r4, r3
    afd8:	4615      	mov	r5, r2
    afda:	e9c7 4506 	strd	r4, r5, [r7, #24]
/home/qemu-sgx/devel/optee/optee_os/lib/libutee/tee_api_operations.c:1508
    afde:	68fb      	ldr	r3, [r7, #12]
    afe0:	6bd8      	ldr	r0, [r3, #60]	; 0x3c
/home/qemu-sgx/devel/optee/optee_os/lib/libutee/tee_api_operations.c:1509
    afe2:	68fb      	ldr	r3, [r7, #12]
    afe4:	6ad9      	ldr	r1, [r3, #44]	; 0x2c
/home/qemu-sgx/devel/optee/optee_os/lib/libutee/tee_api_operations.c:1508
    afe6:	68fb      	ldr	r3, [r7, #12]
    afe8:	6b9a      	ldr	r2, [r3, #56]	; 0x38
    afea:	f107 0310 	add.w	r3, r7, #16
    afee:	9302      	str	r3, [sp, #8]
    aff0:	6dfb      	ldr	r3, [r7, #92]	; 0x5c
    aff2:	9301      	str	r3, [sp, #4]
    aff4:	f107 0318 	add.w	r3, r7, #24
    aff8:	9300      	str	r3, [sp, #0]
    affa:	6a7b      	ldr	r3, [r7, #36]	; 0x24
    affc:	f7f8 e99e 	blx	333c <_utee_authenc_enc_final@plt>
    b000:	62f8      	str	r0, [r7, #44]	; 0x2c
    b002:	e00f      	b.n	b024 <TEE_AEEncryptFinal+0x1a4>
/home/qemu-sgx/devel/optee/optee_os/lib/libutee/tee_api_operations.c:1513
    b004:	68fb      	ldr	r3, [r7, #12]
    b006:	6bd8      	ldr	r0, [r3, #60]	; 0x3c
    b008:	f107 0310 	add.w	r3, r7, #16
    b00c:	9302      	str	r3, [sp, #8]
    b00e:	6dfb      	ldr	r3, [r7, #92]	; 0x5c
    b010:	9301      	str	r3, [sp, #4]
    b012:	f107 0318 	add.w	r3, r7, #24
    b016:	9300      	str	r3, [sp, #0]
    b018:	6a7b      	ldr	r3, [r7, #36]	; 0x24
    b01a:	687a      	ldr	r2, [r7, #4]
    b01c:	68b9      	ldr	r1, [r7, #8]
    b01e:	f7f8 e98e 	blx	333c <_utee_authenc_enc_final@plt>
    b022:	62f8      	str	r0, [r7, #44]	; 0x2c
/home/qemu-sgx/devel/optee/optee_os/lib/libutee/tee_api_operations.c:1517
    b024:	e9d7 2304 	ldrd	r2, r3, [r7, #16]
    b028:	6e3b      	ldr	r3, [r7, #96]	; 0x60
    b02a:	601a      	str	r2, [r3, #0]
/home/qemu-sgx/devel/optee/optee_os/lib/libutee/tee_api_operations.c:1518
    b02c:	6afb      	ldr	r3, [r7, #44]	; 0x2c
    b02e:	2b00      	cmp	r3, #0
    b030:	d116      	bne.n	b060 <TEE_AEEncryptFinal+0x1e0>
/home/qemu-sgx/devel/optee/optee_os/lib/libutee/tee_api_operations.c:1521
    b032:	e9d7 2306 	ldrd	r2, r3, [r7, #24]
    b036:	6abb      	ldr	r3, [r7, #40]	; 0x28
    b038:	4413      	add	r3, r2
    b03a:	62bb      	str	r3, [r7, #40]	; 0x28
/home/qemu-sgx/devel/optee/optee_os/lib/libutee/tee_api_operations.c:1522
    b03c:	6dbb      	ldr	r3, [r7, #88]	; 0x58
    b03e:	6aba      	ldr	r2, [r7, #40]	; 0x28
    b040:	601a      	str	r2, [r3, #0]
/home/qemu-sgx/devel/optee/optee_os/lib/libutee/tee_api_operations.c:1524
    b042:	68fb      	ldr	r3, [r7, #12]
    b044:	69db      	ldr	r3, [r3, #28]
    b046:	f423 3200 	bic.w	r2, r3, #131072	; 0x20000
    b04a:	68fb      	ldr	r3, [r7, #12]
    b04c:	61da      	str	r2, [r3, #28]
/home/qemu-sgx/devel/optee/optee_os/lib/libutee/tee_api_operations.c:1526
    b04e:	68fb      	ldr	r3, [r7, #12]
    b050:	f04f 0200 	mov.w	r2, #0
    b054:	629a      	str	r2, [r3, #40]	; 0x28
    b056:	e004      	b.n	b062 <TEE_AEEncryptFinal+0x1e2>
/home/qemu-sgx/devel/optee/optee_os/lib/libutee/tee_api_operations.c:1494
    b058:	bf00      	nop
    b05a:	e002      	b.n	b062 <TEE_AEEncryptFinal+0x1e2>
/home/qemu-sgx/devel/optee/optee_os/lib/libutee/tee_api_operations.c:1502
    b05c:	bf00      	nop
    b05e:	e000      	b.n	b062 <TEE_AEEncryptFinal+0x1e2>
/home/qemu-sgx/devel/optee/optee_os/lib/libutee/tee_api_operations.c:1519
    b060:	bf00      	nop
/home/qemu-sgx/devel/optee/optee_os/lib/libutee/tee_api_operations.c:1529
    b062:	6afb      	ldr	r3, [r7, #44]	; 0x2c
    b064:	2b00      	cmp	r3, #0
    b066:	d009      	beq.n	b07c <TEE_AEEncryptFinal+0x1fc>
/home/qemu-sgx/devel/optee/optee_os/lib/libutee/tee_api_operations.c:1529 (discriminator 1)
    b068:	6afa      	ldr	r2, [r7, #44]	; 0x2c
    b06a:	f04f 0310 	mov.w	r3, #16
    b06e:	f6cf 73ff 	movt	r3, #65535	; 0xffff
    b072:	429a      	cmp	r2, r3
    b074:	d002      	beq.n	b07c <TEE_AEEncryptFinal+0x1fc>
/home/qemu-sgx/devel/optee/optee_os/lib/libutee/tee_api_operations.c:1531
    b076:	6af8      	ldr	r0, [r7, #44]	; 0x2c
    b078:	f7f7 eff2 	blx	3060 <TEE_Panic@plt>
/home/qemu-sgx/devel/optee/optee_os/lib/libutee/tee_api_operations.c:1533
    b07c:	6afb      	ldr	r3, [r7, #44]	; 0x2c
/home/qemu-sgx/devel/optee/optee_os/lib/libutee/tee_api_operations.c:1534
    b07e:	4618      	mov	r0, r3
    b080:	f107 0734 	add.w	r7, r7, #52	; 0x34
    b084:	46bd      	mov	sp, r7
    b086:	e9dd 4500 	ldrd	r4, r5, [sp]
    b08a:	e9dd 6702 	ldrd	r6, r7, [sp, #8]
    b08e:	e9dd 8904 	ldrd	r8, r9, [sp, #16]
    b092:	e9dd ab06 	ldrd	sl, fp, [sp, #24]
    b096:	b008      	add	sp, #32
    b098:	f85d fb04 	ldr.w	pc, [sp], #4
    b09c:	0000515a 	.word	0x0000515a
    b0a0:	000001dc 	.word	0x000001dc

0000b0a4 <TEE_AEDecryptFinal>:
TEE_AEDecryptFinal():
/home/qemu-sgx/devel/optee/optee_os/lib/libutee/tee_api_operations.c:1540
    b0a4:	f84d 4d1c 	str.w	r4, [sp, #-28]!
    b0a8:	e9cd 5601 	strd	r5, r6, [sp, #4]
    b0ac:	e9cd 7803 	strd	r7, r8, [sp, #12]
    b0b0:	e9cd 9e05 	strd	r9, lr, [sp, #20]
    b0b4:	b08f      	sub	sp, #60	; 0x3c
    b0b6:	af04      	add	r7, sp, #16
    b0b8:	60f8      	str	r0, [r7, #12]
    b0ba:	60b9      	str	r1, [r7, #8]
    b0bc:	607a      	str	r2, [r7, #4]
    b0be:	603b      	str	r3, [r7, #0]
    b0c0:	4e6e      	ldr	r6, [pc, #440]	; (b27c <TEE_AEDecryptFinal+0x1d8>)
    b0c2:	447e      	add	r6, pc
/home/qemu-sgx/devel/optee/optee_os/lib/libutee/tee_api_operations.c:1542
    b0c4:	683b      	ldr	r3, [r7, #0]
    b0c6:	61fb      	str	r3, [r7, #28]
/home/qemu-sgx/devel/optee/optee_os/lib/libutee/tee_api_operations.c:1543
    b0c8:	f04f 0300 	mov.w	r3, #0
    b0cc:	623b      	str	r3, [r7, #32]
/home/qemu-sgx/devel/optee/optee_os/lib/libutee/tee_api_operations.c:1547
    b0ce:	68fb      	ldr	r3, [r7, #12]
    b0d0:	2b00      	cmp	r3, #0
    b0d2:	d005      	beq.n	b0e0 <TEE_AEDecryptFinal+0x3c>
/home/qemu-sgx/devel/optee/optee_os/lib/libutee/tee_api_operations.c:1547 (discriminator 1)
    b0d4:	68bb      	ldr	r3, [r7, #8]
    b0d6:	2b00      	cmp	r3, #0
    b0d8:	d108      	bne.n	b0ec <TEE_AEDecryptFinal+0x48>
/home/qemu-sgx/devel/optee/optee_os/lib/libutee/tee_api_operations.c:1547 (discriminator 2)
    b0da:	687b      	ldr	r3, [r7, #4]
    b0dc:	2b00      	cmp	r3, #0
    b0de:	d005      	beq.n	b0ec <TEE_AEDecryptFinal+0x48>
/home/qemu-sgx/devel/optee/optee_os/lib/libutee/tee_api_operations.c:1548
    b0e0:	f04f 0306 	mov.w	r3, #6
    b0e4:	f6cf 73ff 	movt	r3, #65535	; 0xffff
    b0e8:	627b      	str	r3, [r7, #36]	; 0x24
/home/qemu-sgx/devel/optee/optee_os/lib/libutee/tee_api_operations.c:1549
    b0ea:	e0a5      	b.n	b238 <TEE_AEDecryptFinal+0x194>
/home/qemu-sgx/devel/optee/optee_os/lib/libutee/tee_api_operations.c:1551
    b0ec:	f04f 0104 	mov.w	r1, #4
    b0f0:	6cb8      	ldr	r0, [r7, #72]	; 0x48
    b0f2:	f7f7 ef56 	blx	2fa0 <__utee_check_inout_annotation@plt>
/home/qemu-sgx/devel/optee/optee_os/lib/libutee/tee_api_operations.c:1553
    b0f6:	68fb      	ldr	r3, [r7, #12]
    b0f8:	685b      	ldr	r3, [r3, #4]
    b0fa:	2b04      	cmp	r3, #4
    b0fc:	d005      	beq.n	b10a <TEE_AEDecryptFinal+0x66>
/home/qemu-sgx/devel/optee/optee_os/lib/libutee/tee_api_operations.c:1554
    b0fe:	f04f 0306 	mov.w	r3, #6
    b102:	f6cf 73ff 	movt	r3, #65535	; 0xffff
    b106:	627b      	str	r3, [r7, #36]	; 0x24
/home/qemu-sgx/devel/optee/optee_os/lib/libutee/tee_api_operations.c:1555
    b108:	e096      	b.n	b238 <TEE_AEDecryptFinal+0x194>
/home/qemu-sgx/devel/optee/optee_os/lib/libutee/tee_api_operations.c:1558
    b10a:	68fb      	ldr	r3, [r7, #12]
    b10c:	69db      	ldr	r3, [r3, #28]
    b10e:	f403 3300 	and.w	r3, r3, #131072	; 0x20000
    b112:	2b00      	cmp	r3, #0
    b114:	d105      	bne.n	b122 <TEE_AEDecryptFinal+0x7e>
/home/qemu-sgx/devel/optee/optee_os/lib/libutee/tee_api_operations.c:1559
    b116:	f04f 0306 	mov.w	r3, #6
    b11a:	f6cf 73ff 	movt	r3, #65535	; 0xffff
    b11e:	627b      	str	r3, [r7, #36]	; 0x24
/home/qemu-sgx/devel/optee/optee_os/lib/libutee/tee_api_operations.c:1560
    b120:	e08a      	b.n	b238 <TEE_AEDecryptFinal+0x194>
/home/qemu-sgx/devel/optee/optee_os/lib/libutee/tee_api_operations.c:1568
    b122:	68fb      	ldr	r3, [r7, #12]
    b124:	6b9b      	ldr	r3, [r3, #56]	; 0x38
    b126:	687a      	ldr	r2, [r7, #4]
    b128:	4413      	add	r3, r2
    b12a:	61bb      	str	r3, [r7, #24]
/home/qemu-sgx/devel/optee/optee_os/lib/libutee/tee_api_operations.c:1569
    b12c:	6cbb      	ldr	r3, [r7, #72]	; 0x48
    b12e:	681b      	ldr	r3, [r3, #0]
    b130:	69ba      	ldr	r2, [r7, #24]
    b132:	429a      	cmp	r2, r3
    b134:	d908      	bls.n	b148 <TEE_AEDecryptFinal+0xa4>
/home/qemu-sgx/devel/optee/optee_os/lib/libutee/tee_api_operations.c:1570
    b136:	6cbb      	ldr	r3, [r7, #72]	; 0x48
    b138:	69ba      	ldr	r2, [r7, #24]
    b13a:	601a      	str	r2, [r3, #0]
/home/qemu-sgx/devel/optee/optee_os/lib/libutee/tee_api_operations.c:1571
    b13c:	f04f 0310 	mov.w	r3, #16
    b140:	f6cf 73ff 	movt	r3, #65535	; 0xffff
    b144:	627b      	str	r3, [r7, #36]	; 0x24
/home/qemu-sgx/devel/optee/optee_os/lib/libutee/tee_api_operations.c:1572
    b146:	e077      	b.n	b238 <TEE_AEDecryptFinal+0x194>
/home/qemu-sgx/devel/optee/optee_os/lib/libutee/tee_api_operations.c:1575
    b148:	6cbb      	ldr	r3, [r7, #72]	; 0x48
    b14a:	681a      	ldr	r2, [r3, #0]
    b14c:	6a3b      	ldr	r3, [r7, #32]
    b14e:	eba2 0303 	sub.w	r3, r2, r3
    b152:	f04f 0200 	mov.w	r2, #0
    b156:	4698      	mov	r8, r3
    b158:	4691      	mov	r9, r2
    b15a:	e9c7 8904 	strd	r8, r9, [r7, #16]
/home/qemu-sgx/devel/optee/optee_os/lib/libutee/tee_api_operations.c:1576
    b15e:	68fb      	ldr	r3, [r7, #12]
    b160:	6b5b      	ldr	r3, [r3, #52]	; 0x34
    b162:	2b01      	cmp	r3, #1
    b164:	d936      	bls.n	b1d4 <TEE_AEDecryptFinal+0x130>
/home/qemu-sgx/devel/optee/optee_os/lib/libutee/tee_api_operations.c:1577
    b166:	f107 0310 	add.w	r3, r7, #16
    b16a:	9301      	str	r3, [sp, #4]
    b16c:	69fb      	ldr	r3, [r7, #28]
    b16e:	9300      	str	r3, [sp, #0]
    b170:	687b      	ldr	r3, [r7, #4]
    b172:	68ba      	ldr	r2, [r7, #8]
    b174:	4942      	ldr	r1, [pc, #264]	; (b280 <TEE_AEDecryptFinal+0x1dc>)
    b176:	5871      	ldr	r1, [r6, r1]
    b178:	68f8      	ldr	r0, [r7, #12]
    b17a:	f7fe ffbe 	bl	a0fa <tee_buffer_update>
    b17e:	6278      	str	r0, [r7, #36]	; 0x24
/home/qemu-sgx/devel/optee/optee_os/lib/libutee/tee_api_operations.c:1579
    b180:	6a7b      	ldr	r3, [r7, #36]	; 0x24
    b182:	2b00      	cmp	r3, #0
    b184:	d155      	bne.n	b232 <TEE_AEDecryptFinal+0x18e>
/home/qemu-sgx/devel/optee/optee_os/lib/libutee/tee_api_operations.c:1582
    b186:	e9d7 2304 	ldrd	r2, r3, [r7, #16]
    b18a:	69fb      	ldr	r3, [r7, #28]
    b18c:	4413      	add	r3, r2
    b18e:	61fb      	str	r3, [r7, #28]
/home/qemu-sgx/devel/optee/optee_os/lib/libutee/tee_api_operations.c:1583
    b190:	e9d7 2304 	ldrd	r2, r3, [r7, #16]
    b194:	6a3b      	ldr	r3, [r7, #32]
    b196:	4413      	add	r3, r2
    b198:	623b      	str	r3, [r7, #32]
/home/qemu-sgx/devel/optee/optee_os/lib/libutee/tee_api_operations.c:1585
    b19a:	6cbb      	ldr	r3, [r7, #72]	; 0x48
    b19c:	681a      	ldr	r2, [r3, #0]
    b19e:	6a3b      	ldr	r3, [r7, #32]
    b1a0:	eba2 0303 	sub.w	r3, r2, r3
    b1a4:	f04f 0200 	mov.w	r2, #0
    b1a8:	461c      	mov	r4, r3
    b1aa:	4615      	mov	r5, r2
    b1ac:	e9c7 4504 	strd	r4, r5, [r7, #16]
/home/qemu-sgx/devel/optee/optee_os/lib/libutee/tee_api_operations.c:1586
    b1b0:	68fb      	ldr	r3, [r7, #12]
    b1b2:	6bd8      	ldr	r0, [r3, #60]	; 0x3c
/home/qemu-sgx/devel/optee/optee_os/lib/libutee/tee_api_operations.c:1587
    b1b4:	68fb      	ldr	r3, [r7, #12]
    b1b6:	6ad9      	ldr	r1, [r3, #44]	; 0x2c
/home/qemu-sgx/devel/optee/optee_os/lib/libutee/tee_api_operations.c:1586
    b1b8:	68fb      	ldr	r3, [r7, #12]
    b1ba:	6b9a      	ldr	r2, [r3, #56]	; 0x38
    b1bc:	6d3b      	ldr	r3, [r7, #80]	; 0x50
    b1be:	9302      	str	r3, [sp, #8]
    b1c0:	6cfb      	ldr	r3, [r7, #76]	; 0x4c
    b1c2:	9301      	str	r3, [sp, #4]
    b1c4:	f107 0310 	add.w	r3, r7, #16
    b1c8:	9300      	str	r3, [sp, #0]
    b1ca:	69fb      	ldr	r3, [r7, #28]
    b1cc:	f7f7 eff6 	blx	31bc <_utee_authenc_dec_final@plt>
    b1d0:	6278      	str	r0, [r7, #36]	; 0x24
    b1d2:	e00e      	b.n	b1f2 <TEE_AEDecryptFinal+0x14e>
/home/qemu-sgx/devel/optee/optee_os/lib/libutee/tee_api_operations.c:1591
    b1d4:	68fb      	ldr	r3, [r7, #12]
    b1d6:	6bd8      	ldr	r0, [r3, #60]	; 0x3c
    b1d8:	6d3b      	ldr	r3, [r7, #80]	; 0x50
    b1da:	9302      	str	r3, [sp, #8]
    b1dc:	6cfb      	ldr	r3, [r7, #76]	; 0x4c
    b1de:	9301      	str	r3, [sp, #4]
    b1e0:	f107 0310 	add.w	r3, r7, #16
    b1e4:	9300      	str	r3, [sp, #0]
    b1e6:	69fb      	ldr	r3, [r7, #28]
    b1e8:	687a      	ldr	r2, [r7, #4]
    b1ea:	68b9      	ldr	r1, [r7, #8]
    b1ec:	f7f7 efe6 	blx	31bc <_utee_authenc_dec_final@plt>
    b1f0:	6278      	str	r0, [r7, #36]	; 0x24
/home/qemu-sgx/devel/optee/optee_os/lib/libutee/tee_api_operations.c:1595
    b1f2:	6a7b      	ldr	r3, [r7, #36]	; 0x24
    b1f4:	2b00      	cmp	r3, #0
    b1f6:	d11e      	bne.n	b236 <TEE_AEDecryptFinal+0x192>
/home/qemu-sgx/devel/optee/optee_os/lib/libutee/tee_api_operations.c:1599
    b1f8:	68fb      	ldr	r3, [r7, #12]
    b1fa:	68db      	ldr	r3, [r3, #12]
    b1fc:	6d3a      	ldr	r2, [r7, #80]	; 0x50
    b1fe:	429a      	cmp	r2, r3
    b200:	d004      	beq.n	b20c <TEE_AEDecryptFinal+0x168>
/home/qemu-sgx/devel/optee/optee_os/lib/libutee/tee_api_operations.c:1600
    b202:	f243 0371 	movw	r3, #12401	; 0x3071
    b206:	f6cf 73ff 	movt	r3, #65535	; 0xffff
    b20a:	627b      	str	r3, [r7, #36]	; 0x24
/home/qemu-sgx/devel/optee/optee_os/lib/libutee/tee_api_operations.c:1602
    b20c:	e9d7 2304 	ldrd	r2, r3, [r7, #16]
    b210:	6a3b      	ldr	r3, [r7, #32]
    b212:	4413      	add	r3, r2
    b214:	623b      	str	r3, [r7, #32]
/home/qemu-sgx/devel/optee/optee_os/lib/libutee/tee_api_operations.c:1603
    b216:	6cbb      	ldr	r3, [r7, #72]	; 0x48
    b218:	6a3a      	ldr	r2, [r7, #32]
    b21a:	601a      	str	r2, [r3, #0]
/home/qemu-sgx/devel/optee/optee_os/lib/libutee/tee_api_operations.c:1605
    b21c:	68fb      	ldr	r3, [r7, #12]
    b21e:	69db      	ldr	r3, [r3, #28]
    b220:	f423 3200 	bic.w	r2, r3, #131072	; 0x20000
    b224:	68fb      	ldr	r3, [r7, #12]
    b226:	61da      	str	r2, [r3, #28]
/home/qemu-sgx/devel/optee/optee_os/lib/libutee/tee_api_operations.c:1607
    b228:	68fb      	ldr	r3, [r7, #12]
    b22a:	f04f 0200 	mov.w	r2, #0
    b22e:	629a      	str	r2, [r3, #40]	; 0x28
    b230:	e002      	b.n	b238 <TEE_AEDecryptFinal+0x194>
/home/qemu-sgx/devel/optee/optee_os/lib/libutee/tee_api_operations.c:1580
    b232:	bf00      	nop
    b234:	e000      	b.n	b238 <TEE_AEDecryptFinal+0x194>
/home/qemu-sgx/devel/optee/optee_os/lib/libutee/tee_api_operations.c:1596
    b236:	bf00      	nop
/home/qemu-sgx/devel/optee/optee_os/lib/libutee/tee_api_operations.c:1610
    b238:	6a7b      	ldr	r3, [r7, #36]	; 0x24
    b23a:	2b00      	cmp	r3, #0
    b23c:	d010      	beq.n	b260 <TEE_AEDecryptFinal+0x1bc>
/home/qemu-sgx/devel/optee/optee_os/lib/libutee/tee_api_operations.c:1610 (discriminator 1)
    b23e:	6a7a      	ldr	r2, [r7, #36]	; 0x24
    b240:	f04f 0310 	mov.w	r3, #16
    b244:	f6cf 73ff 	movt	r3, #65535	; 0xffff
    b248:	429a      	cmp	r2, r3
    b24a:	d009      	beq.n	b260 <TEE_AEDecryptFinal+0x1bc>
/home/qemu-sgx/devel/optee/optee_os/lib/libutee/tee_api_operations.c:1611
    b24c:	6a7a      	ldr	r2, [r7, #36]	; 0x24
    b24e:	f243 0371 	movw	r3, #12401	; 0x3071
    b252:	f6cf 73ff 	movt	r3, #65535	; 0xffff
    b256:	429a      	cmp	r2, r3
    b258:	d002      	beq.n	b260 <TEE_AEDecryptFinal+0x1bc>
/home/qemu-sgx/devel/optee/optee_os/lib/libutee/tee_api_operations.c:1613
    b25a:	6a78      	ldr	r0, [r7, #36]	; 0x24
    b25c:	f7f7 ef00 	blx	3060 <TEE_Panic@plt>
/home/qemu-sgx/devel/optee/optee_os/lib/libutee/tee_api_operations.c:1615
    b260:	6a7b      	ldr	r3, [r7, #36]	; 0x24
/home/qemu-sgx/devel/optee/optee_os/lib/libutee/tee_api_operations.c:1616
    b262:	4618      	mov	r0, r3
    b264:	f107 072c 	add.w	r7, r7, #44	; 0x2c
    b268:	46bd      	mov	sp, r7
    b26a:	e9dd 4500 	ldrd	r4, r5, [sp]
    b26e:	e9dd 6702 	ldrd	r6, r7, [sp, #8]
    b272:	e9dd 8904 	ldrd	r8, r9, [sp, #16]
    b276:	b006      	add	sp, #24
    b278:	f85d fb04 	ldr.w	pc, [sp], #4
    b27c:	00004f3a 	.word	0x00004f3a
    b280:	000001dc 	.word	0x000001dc

0000b284 <TEE_AsymmetricEncrypt>:
TEE_AsymmetricEncrypt():
/home/qemu-sgx/devel/optee/optee_os/lib/libutee/tee_api_operations.c:1625
    b284:	f84d 4d24 	str.w	r4, [sp, #-36]!
    b288:	e9cd 5601 	strd	r5, r6, [sp, #4]
    b28c:	e9cd 7803 	strd	r7, r8, [sp, #12]
    b290:	e9cd 9a05 	strd	r9, sl, [sp, #20]
    b294:	e9cd be07 	strd	fp, lr, [sp, #28]
    b298:	b097      	sub	sp, #92	; 0x5c
    b29a:	af04      	add	r7, sp, #16
    b29c:	62f8      	str	r0, [r7, #44]	; 0x2c
    b29e:	62b9      	str	r1, [r7, #40]	; 0x28
    b2a0:	627a      	str	r2, [r7, #36]	; 0x24
    b2a2:	623b      	str	r3, [r7, #32]
    b2a4:	466b      	mov	r3, sp
    b2a6:	461e      	mov	r6, r3
/home/qemu-sgx/devel/optee/optee_os/lib/libutee/tee_api_operations.c:1626
    b2a8:	f04f 0300 	mov.w	r3, #0
    b2ac:	647b      	str	r3, [r7, #68]	; 0x44
/home/qemu-sgx/devel/optee/optee_os/lib/libutee/tee_api_operations.c:1627
    b2ae:	6a79      	ldr	r1, [r7, #36]	; 0x24
    b2b0:	460b      	mov	r3, r1
    b2b2:	f103 33ff 	add.w	r3, r3, #4294967295	; 0xffffffff
    b2b6:	643b      	str	r3, [r7, #64]	; 0x40
    b2b8:	f04f 0300 	mov.w	r3, #0
    b2bc:	61b9      	str	r1, [r7, #24]
    b2be:	61fb      	str	r3, [r7, #28]
    b2c0:	e9d7 2306 	ldrd	r2, r3, [r7, #24]
    b2c4:	1890      	adds	r0, r2, r2
    b2c6:	60b8      	str	r0, [r7, #8]
    b2c8:	eb43 0303 	adc.w	r3, r3, r3
    b2cc:	60fb      	str	r3, [r7, #12]
    b2ce:	e9d7 2302 	ldrd	r2, r3, [r7, #8]
    b2d2:	69b8      	ldr	r0, [r7, #24]
    b2d4:	eb12 0800 	adds.w	r8, r2, r0
    b2d8:	69f8      	ldr	r0, [r7, #28]
    b2da:	eb43 0900 	adc.w	r9, r3, r0
    b2de:	f04f 0200 	mov.w	r2, #0
    b2e2:	f04f 0300 	mov.w	r3, #0
    b2e6:	ea4f 1389 	mov.w	r3, r9, lsl #6
    b2ea:	ea43 6398 	orr.w	r3, r3, r8, lsr #26
    b2ee:	ea4f 1288 	mov.w	r2, r8, lsl #6
    b2f2:	f04f 0300 	mov.w	r3, #0
    b2f6:	468a      	mov	sl, r1
    b2f8:	469b      	mov	fp, r3
    b2fa:	4652      	mov	r2, sl
    b2fc:	465b      	mov	r3, fp
    b2fe:	1890      	adds	r0, r2, r2
    b300:	6038      	str	r0, [r7, #0]
    b302:	eb43 0303 	adc.w	r3, r3, r3
    b306:	607b      	str	r3, [r7, #4]
    b308:	e9d7 2300 	ldrd	r2, r3, [r7]
    b30c:	eb12 040a 	adds.w	r4, r2, sl
    b310:	eb43 050b 	adc.w	r5, r3, fp
    b314:	f04f 0200 	mov.w	r2, #0
    b318:	f04f 0300 	mov.w	r3, #0
    b31c:	ea4f 1385 	mov.w	r3, r5, lsl #6
    b320:	ea43 6394 	orr.w	r3, r3, r4, lsr #26
    b324:	ea4f 1284 	mov.w	r2, r4, lsl #6
    b328:	460b      	mov	r3, r1
    b32a:	ea4f 0343 	mov.w	r3, r3, lsl #1
    b32e:	440b      	add	r3, r1
    b330:	ea4f 03c3 	mov.w	r3, r3, lsl #3
    b334:	f103 0307 	add.w	r3, r3, #7
    b338:	ea4f 03d3 	mov.w	r3, r3, lsr #3
    b33c:	ea4f 03c3 	mov.w	r3, r3, lsl #3
    b340:	ebad 0d03 	sub.w	sp, sp, r3
    b344:	ab04      	add	r3, sp, #16
    b346:	f103 0307 	add.w	r3, r3, #7
    b34a:	ea4f 03d3 	mov.w	r3, r3, lsr #3
    b34e:	ea4f 03c3 	mov.w	r3, r3, lsl #3
    b352:	63fb      	str	r3, [r7, #60]	; 0x3c
/home/qemu-sgx/devel/optee/optee_os/lib/libutee/tee_api_operations.c:1628
    b354:	efc0 0010 	vmov.i32	d16, #0	; 0x00000000
    b358:	edc7 0b0c 	vstr	d16, [r7, #48]	; 0x30
/home/qemu-sgx/devel/optee/optee_os/lib/libutee/tee_api_operations.c:1630
    b35c:	6afb      	ldr	r3, [r7, #44]	; 0x2c
    b35e:	2b00      	cmp	r3, #0
    b360:	d005      	beq.n	b36e <TEE_AsymmetricEncrypt+0xea>
/home/qemu-sgx/devel/optee/optee_os/lib/libutee/tee_api_operations.c:1630 (discriminator 1)
    b362:	6a3b      	ldr	r3, [r7, #32]
    b364:	2b00      	cmp	r3, #0
    b366:	d106      	bne.n	b376 <TEE_AsymmetricEncrypt+0xf2>
/home/qemu-sgx/devel/optee/optee_os/lib/libutee/tee_api_operations.c:1630 (discriminator 2)
    b368:	6f3b      	ldr	r3, [r7, #112]	; 0x70
    b36a:	2b00      	cmp	r3, #0
    b36c:	d003      	beq.n	b376 <TEE_AsymmetricEncrypt+0xf2>
/home/qemu-sgx/devel/optee/optee_os/lib/libutee/tee_api_operations.c:1631
    b36e:	f04f 0000 	mov.w	r0, #0
    b372:	f7f7 ee76 	blx	3060 <TEE_Panic@plt>
/home/qemu-sgx/devel/optee/optee_os/lib/libutee/tee_api_operations.c:1633
    b376:	6a79      	ldr	r1, [r7, #36]	; 0x24
    b378:	6ab8      	ldr	r0, [r7, #40]	; 0x28
    b37a:	f7f7 ef50 	blx	321c <__utee_check_attr_in_annotation@plt>
/home/qemu-sgx/devel/optee/optee_os/lib/libutee/tee_api_operations.c:1634
    b37e:	f04f 0104 	mov.w	r1, #4
    b382:	6fb8      	ldr	r0, [r7, #120]	; 0x78
    b384:	f7f7 ee0c 	blx	2fa0 <__utee_check_inout_annotation@plt>
/home/qemu-sgx/devel/optee/optee_os/lib/libutee/tee_api_operations.c:1636
    b388:	6afb      	ldr	r3, [r7, #44]	; 0x2c
    b38a:	6a1b      	ldr	r3, [r3, #32]
    b38c:	2b00      	cmp	r3, #0
    b38e:	d103      	bne.n	b398 <TEE_AsymmetricEncrypt+0x114>
/home/qemu-sgx/devel/optee/optee_os/lib/libutee/tee_api_operations.c:1637
    b390:	f04f 0000 	mov.w	r0, #0
    b394:	f7f7 ee64 	blx	3060 <TEE_Panic@plt>
/home/qemu-sgx/devel/optee/optee_os/lib/libutee/tee_api_operations.c:1638
    b398:	6afb      	ldr	r3, [r7, #44]	; 0x2c
    b39a:	685b      	ldr	r3, [r3, #4]
    b39c:	2b06      	cmp	r3, #6
    b39e:	d003      	beq.n	b3a8 <TEE_AsymmetricEncrypt+0x124>
/home/qemu-sgx/devel/optee/optee_os/lib/libutee/tee_api_operations.c:1639
    b3a0:	f04f 0000 	mov.w	r0, #0
    b3a4:	f7f7 ee5c 	blx	3060 <TEE_Panic@plt>
/home/qemu-sgx/devel/optee/optee_os/lib/libutee/tee_api_operations.c:1640
    b3a8:	6afb      	ldr	r3, [r7, #44]	; 0x2c
    b3aa:	689b      	ldr	r3, [r3, #8]
    b3ac:	2b00      	cmp	r3, #0
    b3ae:	d003      	beq.n	b3b8 <TEE_AsymmetricEncrypt+0x134>
/home/qemu-sgx/devel/optee/optee_os/lib/libutee/tee_api_operations.c:1641
    b3b0:	f04f 0000 	mov.w	r0, #0
    b3b4:	f7f7 ee54 	blx	3060 <TEE_Panic@plt>
/home/qemu-sgx/devel/optee/optee_os/lib/libutee/tee_api_operations.c:1643
    b3b8:	6a7a      	ldr	r2, [r7, #36]	; 0x24
    b3ba:	6ab9      	ldr	r1, [r7, #40]	; 0x28
    b3bc:	6bf8      	ldr	r0, [r7, #60]	; 0x3c
    b3be:	f7f7 eef2 	blx	31a4 <__utee_from_attr@plt>
/home/qemu-sgx/devel/optee/optee_os/lib/libutee/tee_api_operations.c:1644
    b3c2:	6fbb      	ldr	r3, [r7, #120]	; 0x78
    b3c4:	681b      	ldr	r3, [r3, #0]
    b3c6:	f04f 0200 	mov.w	r2, #0
    b3ca:	613b      	str	r3, [r7, #16]
    b3cc:	617a      	str	r2, [r7, #20]
    b3ce:	e9d7 3404 	ldrd	r3, r4, [r7, #16]
    b3d2:	e9c7 340c 	strd	r3, r4, [r7, #48]	; 0x30
/home/qemu-sgx/devel/optee/optee_os/lib/libutee/tee_api_operations.c:1645
    b3d6:	6afb      	ldr	r3, [r7, #44]	; 0x2c
    b3d8:	6bd8      	ldr	r0, [r3, #60]	; 0x3c
    b3da:	f107 0330 	add.w	r3, r7, #48	; 0x30
    b3de:	9302      	str	r3, [sp, #8]
    b3e0:	6f7b      	ldr	r3, [r7, #116]	; 0x74
    b3e2:	9301      	str	r3, [sp, #4]
    b3e4:	6f3b      	ldr	r3, [r7, #112]	; 0x70
    b3e6:	9300      	str	r3, [sp, #0]
    b3e8:	6a3b      	ldr	r3, [r7, #32]
    b3ea:	6a7a      	ldr	r2, [r7, #36]	; 0x24
    b3ec:	6bf9      	ldr	r1, [r7, #60]	; 0x3c
    b3ee:	f7f7 ee14 	blx	3018 <_utee_asymm_operate@plt>
    b3f2:	6478      	str	r0, [r7, #68]	; 0x44
/home/qemu-sgx/devel/optee/optee_os/lib/libutee/tee_api_operations.c:1647
    b3f4:	e9d7 230c 	ldrd	r2, r3, [r7, #48]	; 0x30
    b3f8:	6fbb      	ldr	r3, [r7, #120]	; 0x78
    b3fa:	601a      	str	r2, [r3, #0]
/home/qemu-sgx/devel/optee/optee_os/lib/libutee/tee_api_operations.c:1649
    b3fc:	6c7b      	ldr	r3, [r7, #68]	; 0x44
    b3fe:	2b00      	cmp	r3, #0
    b400:	d010      	beq.n	b424 <TEE_AsymmetricEncrypt+0x1a0>
/home/qemu-sgx/devel/optee/optee_os/lib/libutee/tee_api_operations.c:1649 (discriminator 1)
    b402:	6c7a      	ldr	r2, [r7, #68]	; 0x44
    b404:	f04f 0310 	mov.w	r3, #16
    b408:	f6cf 73ff 	movt	r3, #65535	; 0xffff
    b40c:	429a      	cmp	r2, r3
    b40e:	d009      	beq.n	b424 <TEE_AsymmetricEncrypt+0x1a0>
/home/qemu-sgx/devel/optee/optee_os/lib/libutee/tee_api_operations.c:1650
    b410:	6c7a      	ldr	r2, [r7, #68]	; 0x44
    b412:	f04f 0306 	mov.w	r3, #6
    b416:	f6cf 73ff 	movt	r3, #65535	; 0xffff
    b41a:	429a      	cmp	r2, r3
    b41c:	d002      	beq.n	b424 <TEE_AsymmetricEncrypt+0x1a0>
/home/qemu-sgx/devel/optee/optee_os/lib/libutee/tee_api_operations.c:1652
    b41e:	6c78      	ldr	r0, [r7, #68]	; 0x44
    b420:	f7f7 ee1e 	blx	3060 <TEE_Panic@plt>
/home/qemu-sgx/devel/optee/optee_os/lib/libutee/tee_api_operations.c:1654
    b424:	6c7b      	ldr	r3, [r7, #68]	; 0x44
    b426:	46b5      	mov	sp, r6
/home/qemu-sgx/devel/optee/optee_os/lib/libutee/tee_api_operations.c:1655
    b428:	4618      	mov	r0, r3
    b42a:	f107 074c 	add.w	r7, r7, #76	; 0x4c
    b42e:	46bd      	mov	sp, r7
    b430:	e9dd 4500 	ldrd	r4, r5, [sp]
    b434:	e9dd 6702 	ldrd	r6, r7, [sp, #8]
    b438:	e9dd 8904 	ldrd	r8, r9, [sp, #16]
    b43c:	e9dd ab06 	ldrd	sl, fp, [sp, #24]
    b440:	b008      	add	sp, #32
    b442:	f85d fb04 	ldr.w	pc, [sp], #4

0000b446 <TEE_AsymmetricDecrypt>:
TEE_AsymmetricDecrypt():
/home/qemu-sgx/devel/optee/optee_os/lib/libutee/tee_api_operations.c:1662
    b446:	f84d 4d24 	str.w	r4, [sp, #-36]!
    b44a:	e9cd 5601 	strd	r5, r6, [sp, #4]
    b44e:	e9cd 7803 	strd	r7, r8, [sp, #12]
    b452:	e9cd 9a05 	strd	r9, sl, [sp, #20]
    b456:	e9cd be07 	strd	fp, lr, [sp, #28]
    b45a:	b097      	sub	sp, #92	; 0x5c
    b45c:	af04      	add	r7, sp, #16
    b45e:	62f8      	str	r0, [r7, #44]	; 0x2c
    b460:	62b9      	str	r1, [r7, #40]	; 0x28
    b462:	627a      	str	r2, [r7, #36]	; 0x24
    b464:	623b      	str	r3, [r7, #32]
    b466:	466b      	mov	r3, sp
    b468:	461e      	mov	r6, r3
/home/qemu-sgx/devel/optee/optee_os/lib/libutee/tee_api_operations.c:1663
    b46a:	f04f 0300 	mov.w	r3, #0
    b46e:	647b      	str	r3, [r7, #68]	; 0x44
/home/qemu-sgx/devel/optee/optee_os/lib/libutee/tee_api_operations.c:1664
    b470:	6a79      	ldr	r1, [r7, #36]	; 0x24
    b472:	460b      	mov	r3, r1
    b474:	f103 33ff 	add.w	r3, r3, #4294967295	; 0xffffffff
    b478:	643b      	str	r3, [r7, #64]	; 0x40
    b47a:	f04f 0300 	mov.w	r3, #0
    b47e:	61b9      	str	r1, [r7, #24]
    b480:	61fb      	str	r3, [r7, #28]
    b482:	e9d7 2306 	ldrd	r2, r3, [r7, #24]
    b486:	1890      	adds	r0, r2, r2
    b488:	60b8      	str	r0, [r7, #8]
    b48a:	eb43 0303 	adc.w	r3, r3, r3
    b48e:	60fb      	str	r3, [r7, #12]
    b490:	e9d7 2302 	ldrd	r2, r3, [r7, #8]
    b494:	69b8      	ldr	r0, [r7, #24]
    b496:	eb12 0800 	adds.w	r8, r2, r0
    b49a:	69f8      	ldr	r0, [r7, #28]
    b49c:	eb43 0900 	adc.w	r9, r3, r0
    b4a0:	f04f 0200 	mov.w	r2, #0
    b4a4:	f04f 0300 	mov.w	r3, #0
    b4a8:	ea4f 1389 	mov.w	r3, r9, lsl #6
    b4ac:	ea43 6398 	orr.w	r3, r3, r8, lsr #26
    b4b0:	ea4f 1288 	mov.w	r2, r8, lsl #6
    b4b4:	f04f 0300 	mov.w	r3, #0
    b4b8:	468a      	mov	sl, r1
    b4ba:	469b      	mov	fp, r3
    b4bc:	4652      	mov	r2, sl
    b4be:	465b      	mov	r3, fp
    b4c0:	1890      	adds	r0, r2, r2
    b4c2:	6038      	str	r0, [r7, #0]
    b4c4:	eb43 0303 	adc.w	r3, r3, r3
    b4c8:	607b      	str	r3, [r7, #4]
    b4ca:	e9d7 2300 	ldrd	r2, r3, [r7]
    b4ce:	eb12 040a 	adds.w	r4, r2, sl
    b4d2:	eb43 050b 	adc.w	r5, r3, fp
    b4d6:	f04f 0200 	mov.w	r2, #0
    b4da:	f04f 0300 	mov.w	r3, #0
    b4de:	ea4f 1385 	mov.w	r3, r5, lsl #6
    b4e2:	ea43 6394 	orr.w	r3, r3, r4, lsr #26
    b4e6:	ea4f 1284 	mov.w	r2, r4, lsl #6
    b4ea:	460b      	mov	r3, r1
    b4ec:	ea4f 0343 	mov.w	r3, r3, lsl #1
    b4f0:	440b      	add	r3, r1
    b4f2:	ea4f 03c3 	mov.w	r3, r3, lsl #3
    b4f6:	f103 0307 	add.w	r3, r3, #7
    b4fa:	ea4f 03d3 	mov.w	r3, r3, lsr #3
    b4fe:	ea4f 03c3 	mov.w	r3, r3, lsl #3
    b502:	ebad 0d03 	sub.w	sp, sp, r3
    b506:	ab04      	add	r3, sp, #16
    b508:	f103 0307 	add.w	r3, r3, #7
    b50c:	ea4f 03d3 	mov.w	r3, r3, lsr #3
    b510:	ea4f 03c3 	mov.w	r3, r3, lsl #3
    b514:	63fb      	str	r3, [r7, #60]	; 0x3c
/home/qemu-sgx/devel/optee/optee_os/lib/libutee/tee_api_operations.c:1665
    b516:	efc0 0010 	vmov.i32	d16, #0	; 0x00000000
    b51a:	edc7 0b0c 	vstr	d16, [r7, #48]	; 0x30
/home/qemu-sgx/devel/optee/optee_os/lib/libutee/tee_api_operations.c:1667
    b51e:	6afb      	ldr	r3, [r7, #44]	; 0x2c
    b520:	2b00      	cmp	r3, #0
    b522:	d005      	beq.n	b530 <TEE_AsymmetricDecrypt+0xea>
/home/qemu-sgx/devel/optee/optee_os/lib/libutee/tee_api_operations.c:1667 (discriminator 1)
    b524:	6a3b      	ldr	r3, [r7, #32]
    b526:	2b00      	cmp	r3, #0
    b528:	d106      	bne.n	b538 <TEE_AsymmetricDecrypt+0xf2>
/home/qemu-sgx/devel/optee/optee_os/lib/libutee/tee_api_operations.c:1667 (discriminator 2)
    b52a:	6f3b      	ldr	r3, [r7, #112]	; 0x70
    b52c:	2b00      	cmp	r3, #0
    b52e:	d003      	beq.n	b538 <TEE_AsymmetricDecrypt+0xf2>
/home/qemu-sgx/devel/optee/optee_os/lib/libutee/tee_api_operations.c:1668
    b530:	f04f 0000 	mov.w	r0, #0
    b534:	f7f7 ed94 	blx	3060 <TEE_Panic@plt>
/home/qemu-sgx/devel/optee/optee_os/lib/libutee/tee_api_operations.c:1670
    b538:	6a79      	ldr	r1, [r7, #36]	; 0x24
    b53a:	6ab8      	ldr	r0, [r7, #40]	; 0x28
    b53c:	f7f7 ee6e 	blx	321c <__utee_check_attr_in_annotation@plt>
/home/qemu-sgx/devel/optee/optee_os/lib/libutee/tee_api_operations.c:1671
    b540:	f04f 0104 	mov.w	r1, #4
    b544:	6fb8      	ldr	r0, [r7, #120]	; 0x78
    b546:	f7f7 ed2c 	blx	2fa0 <__utee_check_inout_annotation@plt>
/home/qemu-sgx/devel/optee/optee_os/lib/libutee/tee_api_operations.c:1673
    b54a:	6afb      	ldr	r3, [r7, #44]	; 0x2c
    b54c:	6a1b      	ldr	r3, [r3, #32]
    b54e:	2b00      	cmp	r3, #0
    b550:	d103      	bne.n	b55a <TEE_AsymmetricDecrypt+0x114>
/home/qemu-sgx/devel/optee/optee_os/lib/libutee/tee_api_operations.c:1674
    b552:	f04f 0000 	mov.w	r0, #0
    b556:	f7f7 ed84 	blx	3060 <TEE_Panic@plt>
/home/qemu-sgx/devel/optee/optee_os/lib/libutee/tee_api_operations.c:1675
    b55a:	6afb      	ldr	r3, [r7, #44]	; 0x2c
    b55c:	685b      	ldr	r3, [r3, #4]
    b55e:	2b06      	cmp	r3, #6
    b560:	d003      	beq.n	b56a <TEE_AsymmetricDecrypt+0x124>
/home/qemu-sgx/devel/optee/optee_os/lib/libutee/tee_api_operations.c:1676
    b562:	f04f 0000 	mov.w	r0, #0
    b566:	f7f7 ed7c 	blx	3060 <TEE_Panic@plt>
/home/qemu-sgx/devel/optee/optee_os/lib/libutee/tee_api_operations.c:1677
    b56a:	6afb      	ldr	r3, [r7, #44]	; 0x2c
    b56c:	689b      	ldr	r3, [r3, #8]
    b56e:	2b01      	cmp	r3, #1
    b570:	d003      	beq.n	b57a <TEE_AsymmetricDecrypt+0x134>
/home/qemu-sgx/devel/optee/optee_os/lib/libutee/tee_api_operations.c:1678
    b572:	f04f 0000 	mov.w	r0, #0
    b576:	f7f7 ed74 	blx	3060 <TEE_Panic@plt>
/home/qemu-sgx/devel/optee/optee_os/lib/libutee/tee_api_operations.c:1680
    b57a:	6a7a      	ldr	r2, [r7, #36]	; 0x24
    b57c:	6ab9      	ldr	r1, [r7, #40]	; 0x28
    b57e:	6bf8      	ldr	r0, [r7, #60]	; 0x3c
    b580:	f7f7 ee10 	blx	31a4 <__utee_from_attr@plt>
/home/qemu-sgx/devel/optee/optee_os/lib/libutee/tee_api_operations.c:1681
    b584:	6fbb      	ldr	r3, [r7, #120]	; 0x78
    b586:	681b      	ldr	r3, [r3, #0]
    b588:	f04f 0200 	mov.w	r2, #0
    b58c:	613b      	str	r3, [r7, #16]
    b58e:	617a      	str	r2, [r7, #20]
    b590:	e9d7 3404 	ldrd	r3, r4, [r7, #16]
    b594:	e9c7 340c 	strd	r3, r4, [r7, #48]	; 0x30
/home/qemu-sgx/devel/optee/optee_os/lib/libutee/tee_api_operations.c:1682
    b598:	6afb      	ldr	r3, [r7, #44]	; 0x2c
    b59a:	6bd8      	ldr	r0, [r3, #60]	; 0x3c
    b59c:	f107 0330 	add.w	r3, r7, #48	; 0x30
    b5a0:	9302      	str	r3, [sp, #8]
    b5a2:	6f7b      	ldr	r3, [r7, #116]	; 0x74
    b5a4:	9301      	str	r3, [sp, #4]
    b5a6:	6f3b      	ldr	r3, [r7, #112]	; 0x70
    b5a8:	9300      	str	r3, [sp, #0]
    b5aa:	6a3b      	ldr	r3, [r7, #32]
    b5ac:	6a7a      	ldr	r2, [r7, #36]	; 0x24
    b5ae:	6bf9      	ldr	r1, [r7, #60]	; 0x3c
    b5b0:	f7f7 ed32 	blx	3018 <_utee_asymm_operate@plt>
    b5b4:	6478      	str	r0, [r7, #68]	; 0x44
/home/qemu-sgx/devel/optee/optee_os/lib/libutee/tee_api_operations.c:1684
    b5b6:	e9d7 230c 	ldrd	r2, r3, [r7, #48]	; 0x30
    b5ba:	6fbb      	ldr	r3, [r7, #120]	; 0x78
    b5bc:	601a      	str	r2, [r3, #0]
/home/qemu-sgx/devel/optee/optee_os/lib/libutee/tee_api_operations.c:1686
    b5be:	6c7b      	ldr	r3, [r7, #68]	; 0x44
    b5c0:	2b00      	cmp	r3, #0
    b5c2:	d010      	beq.n	b5e6 <TEE_AsymmetricDecrypt+0x1a0>
/home/qemu-sgx/devel/optee/optee_os/lib/libutee/tee_api_operations.c:1686 (discriminator 1)
    b5c4:	6c7a      	ldr	r2, [r7, #68]	; 0x44
    b5c6:	f04f 0310 	mov.w	r3, #16
    b5ca:	f6cf 73ff 	movt	r3, #65535	; 0xffff
    b5ce:	429a      	cmp	r2, r3
    b5d0:	d009      	beq.n	b5e6 <TEE_AsymmetricDecrypt+0x1a0>
/home/qemu-sgx/devel/optee/optee_os/lib/libutee/tee_api_operations.c:1687
    b5d2:	6c7a      	ldr	r2, [r7, #68]	; 0x44
    b5d4:	f04f 0306 	mov.w	r3, #6
    b5d8:	f6cf 73ff 	movt	r3, #65535	; 0xffff
    b5dc:	429a      	cmp	r2, r3
    b5de:	d002      	beq.n	b5e6 <TEE_AsymmetricDecrypt+0x1a0>
/home/qemu-sgx/devel/optee/optee_os/lib/libutee/tee_api_operations.c:1689
    b5e0:	6c78      	ldr	r0, [r7, #68]	; 0x44
    b5e2:	f7f7 ed3e 	blx	3060 <TEE_Panic@plt>
/home/qemu-sgx/devel/optee/optee_os/lib/libutee/tee_api_operations.c:1691
    b5e6:	6c7b      	ldr	r3, [r7, #68]	; 0x44
    b5e8:	46b5      	mov	sp, r6
/home/qemu-sgx/devel/optee/optee_os/lib/libutee/tee_api_operations.c:1692
    b5ea:	4618      	mov	r0, r3
    b5ec:	f107 074c 	add.w	r7, r7, #76	; 0x4c
    b5f0:	46bd      	mov	sp, r7
    b5f2:	e9dd 4500 	ldrd	r4, r5, [sp]
    b5f6:	e9dd 6702 	ldrd	r6, r7, [sp, #8]
    b5fa:	e9dd 8904 	ldrd	r8, r9, [sp, #16]
    b5fe:	e9dd ab06 	ldrd	sl, fp, [sp, #24]
    b602:	b008      	add	sp, #32
    b604:	f85d fb04 	ldr.w	pc, [sp], #4

0000b608 <TEE_AsymmetricSignDigest>:
TEE_AsymmetricSignDigest():
/home/qemu-sgx/devel/optee/optee_os/lib/libutee/tee_api_operations.c:1699
    b608:	f84d 4d24 	str.w	r4, [sp, #-36]!
    b60c:	e9cd 5601 	strd	r5, r6, [sp, #4]
    b610:	e9cd 7803 	strd	r7, r8, [sp, #12]
    b614:	e9cd 9a05 	strd	r9, sl, [sp, #20]
    b618:	e9cd be07 	strd	fp, lr, [sp, #28]
    b61c:	b097      	sub	sp, #92	; 0x5c
    b61e:	af04      	add	r7, sp, #16
    b620:	62f8      	str	r0, [r7, #44]	; 0x2c
    b622:	62b9      	str	r1, [r7, #40]	; 0x28
    b624:	627a      	str	r2, [r7, #36]	; 0x24
    b626:	623b      	str	r3, [r7, #32]
    b628:	466b      	mov	r3, sp
    b62a:	461e      	mov	r6, r3
/home/qemu-sgx/devel/optee/optee_os/lib/libutee/tee_api_operations.c:1700
    b62c:	f04f 0300 	mov.w	r3, #0
    b630:	647b      	str	r3, [r7, #68]	; 0x44
/home/qemu-sgx/devel/optee/optee_os/lib/libutee/tee_api_operations.c:1701
    b632:	6a79      	ldr	r1, [r7, #36]	; 0x24
    b634:	460b      	mov	r3, r1
    b636:	f103 33ff 	add.w	r3, r3, #4294967295	; 0xffffffff
    b63a:	643b      	str	r3, [r7, #64]	; 0x40
    b63c:	f04f 0300 	mov.w	r3, #0
    b640:	61b9      	str	r1, [r7, #24]
    b642:	61fb      	str	r3, [r7, #28]
    b644:	e9d7 2306 	ldrd	r2, r3, [r7, #24]
    b648:	1890      	adds	r0, r2, r2
    b64a:	60b8      	str	r0, [r7, #8]
    b64c:	eb43 0303 	adc.w	r3, r3, r3
    b650:	60fb      	str	r3, [r7, #12]
    b652:	e9d7 2302 	ldrd	r2, r3, [r7, #8]
    b656:	69b8      	ldr	r0, [r7, #24]
    b658:	eb12 0800 	adds.w	r8, r2, r0
    b65c:	69f8      	ldr	r0, [r7, #28]
    b65e:	eb43 0900 	adc.w	r9, r3, r0
    b662:	f04f 0200 	mov.w	r2, #0
    b666:	f04f 0300 	mov.w	r3, #0
    b66a:	ea4f 1389 	mov.w	r3, r9, lsl #6
    b66e:	ea43 6398 	orr.w	r3, r3, r8, lsr #26
    b672:	ea4f 1288 	mov.w	r2, r8, lsl #6
    b676:	f04f 0300 	mov.w	r3, #0
    b67a:	468a      	mov	sl, r1
    b67c:	469b      	mov	fp, r3
    b67e:	4652      	mov	r2, sl
    b680:	465b      	mov	r3, fp
    b682:	1890      	adds	r0, r2, r2
    b684:	6038      	str	r0, [r7, #0]
    b686:	eb43 0303 	adc.w	r3, r3, r3
    b68a:	607b      	str	r3, [r7, #4]
    b68c:	e9d7 2300 	ldrd	r2, r3, [r7]
    b690:	eb12 040a 	adds.w	r4, r2, sl
    b694:	eb43 050b 	adc.w	r5, r3, fp
    b698:	f04f 0200 	mov.w	r2, #0
    b69c:	f04f 0300 	mov.w	r3, #0
    b6a0:	ea4f 1385 	mov.w	r3, r5, lsl #6
    b6a4:	ea43 6394 	orr.w	r3, r3, r4, lsr #26
    b6a8:	ea4f 1284 	mov.w	r2, r4, lsl #6
    b6ac:	460b      	mov	r3, r1
    b6ae:	ea4f 0343 	mov.w	r3, r3, lsl #1
    b6b2:	440b      	add	r3, r1
    b6b4:	ea4f 03c3 	mov.w	r3, r3, lsl #3
    b6b8:	f103 0307 	add.w	r3, r3, #7
    b6bc:	ea4f 03d3 	mov.w	r3, r3, lsr #3
    b6c0:	ea4f 03c3 	mov.w	r3, r3, lsl #3
    b6c4:	ebad 0d03 	sub.w	sp, sp, r3
    b6c8:	ab04      	add	r3, sp, #16
    b6ca:	f103 0307 	add.w	r3, r3, #7
    b6ce:	ea4f 03d3 	mov.w	r3, r3, lsr #3
    b6d2:	ea4f 03c3 	mov.w	r3, r3, lsl #3
    b6d6:	63fb      	str	r3, [r7, #60]	; 0x3c
/home/qemu-sgx/devel/optee/optee_os/lib/libutee/tee_api_operations.c:1702
    b6d8:	efc0 0010 	vmov.i32	d16, #0	; 0x00000000
    b6dc:	edc7 0b0c 	vstr	d16, [r7, #48]	; 0x30
/home/qemu-sgx/devel/optee/optee_os/lib/libutee/tee_api_operations.c:1704
    b6e0:	6afb      	ldr	r3, [r7, #44]	; 0x2c
    b6e2:	2b00      	cmp	r3, #0
    b6e4:	d005      	beq.n	b6f2 <TEE_AsymmetricSignDigest+0xea>
/home/qemu-sgx/devel/optee/optee_os/lib/libutee/tee_api_operations.c:1704 (discriminator 1)
    b6e6:	6a3b      	ldr	r3, [r7, #32]
    b6e8:	2b00      	cmp	r3, #0
    b6ea:	d106      	bne.n	b6fa <TEE_AsymmetricSignDigest+0xf2>
/home/qemu-sgx/devel/optee/optee_os/lib/libutee/tee_api_operations.c:1704 (discriminator 2)
    b6ec:	6f3b      	ldr	r3, [r7, #112]	; 0x70
    b6ee:	2b00      	cmp	r3, #0
    b6f0:	d003      	beq.n	b6fa <TEE_AsymmetricSignDigest+0xf2>
/home/qemu-sgx/devel/optee/optee_os/lib/libutee/tee_api_operations.c:1705
    b6f2:	f04f 0000 	mov.w	r0, #0
    b6f6:	f7f7 ecb4 	blx	3060 <TEE_Panic@plt>
/home/qemu-sgx/devel/optee/optee_os/lib/libutee/tee_api_operations.c:1707
    b6fa:	6a79      	ldr	r1, [r7, #36]	; 0x24
    b6fc:	6ab8      	ldr	r0, [r7, #40]	; 0x28
    b6fe:	f7f7 ed8e 	blx	321c <__utee_check_attr_in_annotation@plt>
/home/qemu-sgx/devel/optee/optee_os/lib/libutee/tee_api_operations.c:1708
    b702:	f04f 0104 	mov.w	r1, #4
    b706:	6fb8      	ldr	r0, [r7, #120]	; 0x78
    b708:	f7f7 ec4a 	blx	2fa0 <__utee_check_inout_annotation@plt>
/home/qemu-sgx/devel/optee/optee_os/lib/libutee/tee_api_operations.c:1710
    b70c:	6afb      	ldr	r3, [r7, #44]	; 0x2c
    b70e:	6a1b      	ldr	r3, [r3, #32]
    b710:	2b00      	cmp	r3, #0
    b712:	d103      	bne.n	b71c <TEE_AsymmetricSignDigest+0x114>
/home/qemu-sgx/devel/optee/optee_os/lib/libutee/tee_api_operations.c:1711
    b714:	f04f 0000 	mov.w	r0, #0
    b718:	f7f7 eca2 	blx	3060 <TEE_Panic@plt>
/home/qemu-sgx/devel/optee/optee_os/lib/libutee/tee_api_operations.c:1712
    b71c:	6afb      	ldr	r3, [r7, #44]	; 0x2c
    b71e:	685b      	ldr	r3, [r3, #4]
    b720:	2b07      	cmp	r3, #7
    b722:	d003      	beq.n	b72c <TEE_AsymmetricSignDigest+0x124>
/home/qemu-sgx/devel/optee/optee_os/lib/libutee/tee_api_operations.c:1714
    b724:	f04f 0000 	mov.w	r0, #0
    b728:	f7f7 ec9a 	blx	3060 <TEE_Panic@plt>
/home/qemu-sgx/devel/optee/optee_os/lib/libutee/tee_api_operations.c:1715
    b72c:	6afb      	ldr	r3, [r7, #44]	; 0x2c
    b72e:	689b      	ldr	r3, [r3, #8]
    b730:	2b02      	cmp	r3, #2
    b732:	d003      	beq.n	b73c <TEE_AsymmetricSignDigest+0x134>
/home/qemu-sgx/devel/optee/optee_os/lib/libutee/tee_api_operations.c:1716
    b734:	f04f 0000 	mov.w	r0, #0
    b738:	f7f7 ec92 	blx	3060 <TEE_Panic@plt>
/home/qemu-sgx/devel/optee/optee_os/lib/libutee/tee_api_operations.c:1718
    b73c:	6a7a      	ldr	r2, [r7, #36]	; 0x24
    b73e:	6ab9      	ldr	r1, [r7, #40]	; 0x28
    b740:	6bf8      	ldr	r0, [r7, #60]	; 0x3c
    b742:	f7f7 ed30 	blx	31a4 <__utee_from_attr@plt>
/home/qemu-sgx/devel/optee/optee_os/lib/libutee/tee_api_operations.c:1719
    b746:	6fbb      	ldr	r3, [r7, #120]	; 0x78
    b748:	681b      	ldr	r3, [r3, #0]
    b74a:	f04f 0200 	mov.w	r2, #0
    b74e:	613b      	str	r3, [r7, #16]
    b750:	617a      	str	r2, [r7, #20]
    b752:	e9d7 3404 	ldrd	r3, r4, [r7, #16]
    b756:	e9c7 340c 	strd	r3, r4, [r7, #48]	; 0x30
/home/qemu-sgx/devel/optee/optee_os/lib/libutee/tee_api_operations.c:1720
    b75a:	6afb      	ldr	r3, [r7, #44]	; 0x2c
    b75c:	6bd8      	ldr	r0, [r3, #60]	; 0x3c
    b75e:	f107 0330 	add.w	r3, r7, #48	; 0x30
    b762:	9302      	str	r3, [sp, #8]
    b764:	6f7b      	ldr	r3, [r7, #116]	; 0x74
    b766:	9301      	str	r3, [sp, #4]
    b768:	6f3b      	ldr	r3, [r7, #112]	; 0x70
    b76a:	9300      	str	r3, [sp, #0]
    b76c:	6a3b      	ldr	r3, [r7, #32]
    b76e:	6a7a      	ldr	r2, [r7, #36]	; 0x24
    b770:	6bf9      	ldr	r1, [r7, #60]	; 0x3c
    b772:	f7f7 ec52 	blx	3018 <_utee_asymm_operate@plt>
    b776:	6478      	str	r0, [r7, #68]	; 0x44
/home/qemu-sgx/devel/optee/optee_os/lib/libutee/tee_api_operations.c:1722
    b778:	e9d7 230c 	ldrd	r2, r3, [r7, #48]	; 0x30
    b77c:	6fbb      	ldr	r3, [r7, #120]	; 0x78
    b77e:	601a      	str	r2, [r3, #0]
/home/qemu-sgx/devel/optee/optee_os/lib/libutee/tee_api_operations.c:1724
    b780:	6c7b      	ldr	r3, [r7, #68]	; 0x44
    b782:	2b00      	cmp	r3, #0
    b784:	d009      	beq.n	b79a <TEE_AsymmetricSignDigest+0x192>
/home/qemu-sgx/devel/optee/optee_os/lib/libutee/tee_api_operations.c:1724 (discriminator 1)
    b786:	6c7a      	ldr	r2, [r7, #68]	; 0x44
    b788:	f04f 0310 	mov.w	r3, #16
    b78c:	f6cf 73ff 	movt	r3, #65535	; 0xffff
    b790:	429a      	cmp	r2, r3
    b792:	d002      	beq.n	b79a <TEE_AsymmetricSignDigest+0x192>
/home/qemu-sgx/devel/optee/optee_os/lib/libutee/tee_api_operations.c:1725
    b794:	6c78      	ldr	r0, [r7, #68]	; 0x44
    b796:	f7f7 ec64 	blx	3060 <TEE_Panic@plt>
/home/qemu-sgx/devel/optee/optee_os/lib/libutee/tee_api_operations.c:1727
    b79a:	6c7b      	ldr	r3, [r7, #68]	; 0x44
    b79c:	46b5      	mov	sp, r6
/home/qemu-sgx/devel/optee/optee_os/lib/libutee/tee_api_operations.c:1728
    b79e:	4618      	mov	r0, r3
    b7a0:	f107 074c 	add.w	r7, r7, #76	; 0x4c
    b7a4:	46bd      	mov	sp, r7
    b7a6:	e9dd 4500 	ldrd	r4, r5, [sp]
    b7aa:	e9dd 6702 	ldrd	r6, r7, [sp, #8]
    b7ae:	e9dd 8904 	ldrd	r8, r9, [sp, #16]
    b7b2:	e9dd ab06 	ldrd	sl, fp, [sp, #24]
    b7b6:	b008      	add	sp, #32
    b7b8:	f85d fb04 	ldr.w	pc, [sp], #4

0000b7bc <TEE_AsymmetricVerifyDigest>:
TEE_AsymmetricVerifyDigest():
/home/qemu-sgx/devel/optee/optee_os/lib/libutee/tee_api_operations.c:1736
    b7bc:	f84d 4d24 	str.w	r4, [sp, #-36]!
    b7c0:	e9cd 5601 	strd	r5, r6, [sp, #4]
    b7c4:	e9cd 7803 	strd	r7, r8, [sp, #12]
    b7c8:	e9cd 9a05 	strd	r9, sl, [sp, #20]
    b7cc:	e9cd be07 	strd	fp, lr, [sp, #28]
    b7d0:	b093      	sub	sp, #76	; 0x4c
    b7d2:	af04      	add	r7, sp, #16
    b7d4:	6278      	str	r0, [r7, #36]	; 0x24
    b7d6:	6239      	str	r1, [r7, #32]
    b7d8:	61fa      	str	r2, [r7, #28]
    b7da:	61bb      	str	r3, [r7, #24]
    b7dc:	466b      	mov	r3, sp
    b7de:	461e      	mov	r6, r3
/home/qemu-sgx/devel/optee/optee_os/lib/libutee/tee_api_operations.c:1738
    b7e0:	69f9      	ldr	r1, [r7, #28]
    b7e2:	460b      	mov	r3, r1
    b7e4:	f103 33ff 	add.w	r3, r3, #4294967295	; 0xffffffff
    b7e8:	637b      	str	r3, [r7, #52]	; 0x34
    b7ea:	f04f 0300 	mov.w	r3, #0
    b7ee:	6139      	str	r1, [r7, #16]
    b7f0:	617b      	str	r3, [r7, #20]
    b7f2:	e9d7 2304 	ldrd	r2, r3, [r7, #16]
    b7f6:	1890      	adds	r0, r2, r2
    b7f8:	60b8      	str	r0, [r7, #8]
    b7fa:	eb43 0303 	adc.w	r3, r3, r3
    b7fe:	60fb      	str	r3, [r7, #12]
    b800:	e9d7 2302 	ldrd	r2, r3, [r7, #8]
    b804:	6938      	ldr	r0, [r7, #16]
    b806:	eb12 0800 	adds.w	r8, r2, r0
    b80a:	6978      	ldr	r0, [r7, #20]
    b80c:	eb43 0900 	adc.w	r9, r3, r0
    b810:	f04f 0200 	mov.w	r2, #0
    b814:	f04f 0300 	mov.w	r3, #0
    b818:	ea4f 1389 	mov.w	r3, r9, lsl #6
    b81c:	ea43 6398 	orr.w	r3, r3, r8, lsr #26
    b820:	ea4f 1288 	mov.w	r2, r8, lsl #6
    b824:	f04f 0300 	mov.w	r3, #0
    b828:	468a      	mov	sl, r1
    b82a:	469b      	mov	fp, r3
    b82c:	4652      	mov	r2, sl
    b82e:	465b      	mov	r3, fp
    b830:	1890      	adds	r0, r2, r2
    b832:	6038      	str	r0, [r7, #0]
    b834:	eb43 0303 	adc.w	r3, r3, r3
    b838:	607b      	str	r3, [r7, #4]
    b83a:	e9d7 2300 	ldrd	r2, r3, [r7]
    b83e:	eb12 040a 	adds.w	r4, r2, sl
    b842:	eb43 050b 	adc.w	r5, r3, fp
    b846:	f04f 0200 	mov.w	r2, #0
    b84a:	f04f 0300 	mov.w	r3, #0
    b84e:	ea4f 1385 	mov.w	r3, r5, lsl #6
    b852:	ea43 6394 	orr.w	r3, r3, r4, lsr #26
    b856:	ea4f 1284 	mov.w	r2, r4, lsl #6
    b85a:	460b      	mov	r3, r1
    b85c:	ea4f 0343 	mov.w	r3, r3, lsl #1
    b860:	440b      	add	r3, r1
    b862:	ea4f 03c3 	mov.w	r3, r3, lsl #3
    b866:	f103 0307 	add.w	r3, r3, #7
    b86a:	ea4f 03d3 	mov.w	r3, r3, lsr #3
    b86e:	ea4f 03c3 	mov.w	r3, r3, lsl #3
    b872:	ebad 0d03 	sub.w	sp, sp, r3
    b876:	ab04      	add	r3, sp, #16
    b878:	f103 0307 	add.w	r3, r3, #7
    b87c:	ea4f 03d3 	mov.w	r3, r3, lsr #3
    b880:	ea4f 03c3 	mov.w	r3, r3, lsl #3
    b884:	633b      	str	r3, [r7, #48]	; 0x30
/home/qemu-sgx/devel/optee/optee_os/lib/libutee/tee_api_operations.c:1740
    b886:	6a7b      	ldr	r3, [r7, #36]	; 0x24
    b888:	2b00      	cmp	r3, #0
    b88a:	d00b      	beq.n	b8a4 <TEE_AsymmetricVerifyDigest+0xe8>
/home/qemu-sgx/devel/optee/optee_os/lib/libutee/tee_api_operations.c:1740 (discriminator 1)
    b88c:	69bb      	ldr	r3, [r7, #24]
    b88e:	2b00      	cmp	r3, #0
    b890:	d102      	bne.n	b898 <TEE_AsymmetricVerifyDigest+0xdc>
/home/qemu-sgx/devel/optee/optee_os/lib/libutee/tee_api_operations.c:1741
    b892:	6e3b      	ldr	r3, [r7, #96]	; 0x60
    b894:	2b00      	cmp	r3, #0
    b896:	d105      	bne.n	b8a4 <TEE_AsymmetricVerifyDigest+0xe8>
/home/qemu-sgx/devel/optee/optee_os/lib/libutee/tee_api_operations.c:1741 (discriminator 1)
    b898:	6e7b      	ldr	r3, [r7, #100]	; 0x64
    b89a:	2b00      	cmp	r3, #0
    b89c:	d106      	bne.n	b8ac <TEE_AsymmetricVerifyDigest+0xf0>
/home/qemu-sgx/devel/optee/optee_os/lib/libutee/tee_api_operations.c:1742
    b89e:	6ebb      	ldr	r3, [r7, #104]	; 0x68
    b8a0:	2b00      	cmp	r3, #0
    b8a2:	d003      	beq.n	b8ac <TEE_AsymmetricVerifyDigest+0xf0>
/home/qemu-sgx/devel/optee/optee_os/lib/libutee/tee_api_operations.c:1743
    b8a4:	f04f 0000 	mov.w	r0, #0
    b8a8:	f7f7 ebda 	blx	3060 <TEE_Panic@plt>
/home/qemu-sgx/devel/optee/optee_os/lib/libutee/tee_api_operations.c:1745
    b8ac:	69f9      	ldr	r1, [r7, #28]
    b8ae:	6a38      	ldr	r0, [r7, #32]
    b8b0:	f7f7 ecb4 	blx	321c <__utee_check_attr_in_annotation@plt>
/home/qemu-sgx/devel/optee/optee_os/lib/libutee/tee_api_operations.c:1747
    b8b4:	6a7b      	ldr	r3, [r7, #36]	; 0x24
    b8b6:	6a1b      	ldr	r3, [r3, #32]
    b8b8:	2b00      	cmp	r3, #0
    b8ba:	d103      	bne.n	b8c4 <TEE_AsymmetricVerifyDigest+0x108>
/home/qemu-sgx/devel/optee/optee_os/lib/libutee/tee_api_operations.c:1748
    b8bc:	f04f 0000 	mov.w	r0, #0
    b8c0:	f7f7 ebce 	blx	3060 <TEE_Panic@plt>
/home/qemu-sgx/devel/optee/optee_os/lib/libutee/tee_api_operations.c:1749
    b8c4:	6a7b      	ldr	r3, [r7, #36]	; 0x24
    b8c6:	685b      	ldr	r3, [r3, #4]
    b8c8:	2b07      	cmp	r3, #7
    b8ca:	d003      	beq.n	b8d4 <TEE_AsymmetricVerifyDigest+0x118>
/home/qemu-sgx/devel/optee/optee_os/lib/libutee/tee_api_operations.c:1751
    b8cc:	f04f 0000 	mov.w	r0, #0
    b8d0:	f7f7 ebc6 	blx	3060 <TEE_Panic@plt>
/home/qemu-sgx/devel/optee/optee_os/lib/libutee/tee_api_operations.c:1752
    b8d4:	6a7b      	ldr	r3, [r7, #36]	; 0x24
    b8d6:	689b      	ldr	r3, [r3, #8]
    b8d8:	2b03      	cmp	r3, #3
    b8da:	d003      	beq.n	b8e4 <TEE_AsymmetricVerifyDigest+0x128>
/home/qemu-sgx/devel/optee/optee_os/lib/libutee/tee_api_operations.c:1753
    b8dc:	f04f 0000 	mov.w	r0, #0
    b8e0:	f7f7 ebbe 	blx	3060 <TEE_Panic@plt>
/home/qemu-sgx/devel/optee/optee_os/lib/libutee/tee_api_operations.c:1755
    b8e4:	69fa      	ldr	r2, [r7, #28]
    b8e6:	6a39      	ldr	r1, [r7, #32]
    b8e8:	6b38      	ldr	r0, [r7, #48]	; 0x30
    b8ea:	f7f7 ec5c 	blx	31a4 <__utee_from_attr@plt>
/home/qemu-sgx/devel/optee/optee_os/lib/libutee/tee_api_operations.c:1756
    b8ee:	6a7b      	ldr	r3, [r7, #36]	; 0x24
    b8f0:	6bd8      	ldr	r0, [r3, #60]	; 0x3c
    b8f2:	6ebb      	ldr	r3, [r7, #104]	; 0x68
    b8f4:	9302      	str	r3, [sp, #8]
    b8f6:	6e7b      	ldr	r3, [r7, #100]	; 0x64
    b8f8:	9301      	str	r3, [sp, #4]
    b8fa:	6e3b      	ldr	r3, [r7, #96]	; 0x60
    b8fc:	9300      	str	r3, [sp, #0]
    b8fe:	69bb      	ldr	r3, [r7, #24]
    b900:	69fa      	ldr	r2, [r7, #28]
    b902:	6b39      	ldr	r1, [r7, #48]	; 0x30
    b904:	f7f7 edbc 	blx	3480 <_utee_asymm_verify@plt>
    b908:	62f8      	str	r0, [r7, #44]	; 0x2c
/home/qemu-sgx/devel/optee/optee_os/lib/libutee/tee_api_operations.c:1759
    b90a:	6afb      	ldr	r3, [r7, #44]	; 0x2c
    b90c:	2b00      	cmp	r3, #0
    b90e:	d009      	beq.n	b924 <TEE_AsymmetricVerifyDigest+0x168>
/home/qemu-sgx/devel/optee/optee_os/lib/libutee/tee_api_operations.c:1759 (discriminator 1)
    b910:	6afa      	ldr	r2, [r7, #44]	; 0x2c
    b912:	f243 0372 	movw	r3, #12402	; 0x3072
    b916:	f6cf 73ff 	movt	r3, #65535	; 0xffff
    b91a:	429a      	cmp	r2, r3
    b91c:	d002      	beq.n	b924 <TEE_AsymmetricVerifyDigest+0x168>
/home/qemu-sgx/devel/optee/optee_os/lib/libutee/tee_api_operations.c:1760
    b91e:	6af8      	ldr	r0, [r7, #44]	; 0x2c
    b920:	f7f7 eb9e 	blx	3060 <TEE_Panic@plt>
/home/qemu-sgx/devel/optee/optee_os/lib/libutee/tee_api_operations.c:1762
    b924:	6afb      	ldr	r3, [r7, #44]	; 0x2c
    b926:	46b5      	mov	sp, r6
/home/qemu-sgx/devel/optee/optee_os/lib/libutee/tee_api_operations.c:1763
    b928:	4618      	mov	r0, r3
    b92a:	f107 073c 	add.w	r7, r7, #60	; 0x3c
    b92e:	46bd      	mov	sp, r7
    b930:	e9dd 4500 	ldrd	r4, r5, [sp]
    b934:	e9dd 6702 	ldrd	r6, r7, [sp, #8]
    b938:	e9dd 8904 	ldrd	r8, r9, [sp, #16]
    b93c:	e9dd ab06 	ldrd	sl, fp, [sp, #24]
    b940:	b008      	add	sp, #32
    b942:	f85d fb04 	ldr.w	pc, [sp], #4

0000b946 <TEE_DeriveKey>:
TEE_DeriveKey():
/home/qemu-sgx/devel/optee/optee_os/lib/libutee/tee_api_operations.c:1770
    b946:	f84d 4d24 	str.w	r4, [sp, #-36]!
    b94a:	e9cd 5601 	strd	r5, r6, [sp, #4]
    b94e:	e9cd 7803 	strd	r7, r8, [sp, #12]
    b952:	e9cd 9a05 	strd	r9, sl, [sp, #20]
    b956:	e9cd be07 	strd	fp, lr, [sp, #28]
    b95a:	b095      	sub	sp, #84	; 0x54
    b95c:	af00      	add	r7, sp, #0
    b95e:	6278      	str	r0, [r7, #36]	; 0x24
    b960:	6239      	str	r1, [r7, #32]
    b962:	61fa      	str	r2, [r7, #28]
    b964:	61bb      	str	r3, [r7, #24]
    b966:	466b      	mov	r3, sp
    b968:	461e      	mov	r6, r3
/home/qemu-sgx/devel/optee/optee_os/lib/libutee/tee_api_operations.c:1773
    b96a:	69f9      	ldr	r1, [r7, #28]
    b96c:	460b      	mov	r3, r1
    b96e:	f103 33ff 	add.w	r3, r3, #4294967295	; 0xffffffff
    b972:	64fb      	str	r3, [r7, #76]	; 0x4c
    b974:	f04f 0300 	mov.w	r3, #0
    b978:	6139      	str	r1, [r7, #16]
    b97a:	617b      	str	r3, [r7, #20]
    b97c:	e9d7 2304 	ldrd	r2, r3, [r7, #16]
    b980:	1890      	adds	r0, r2, r2
    b982:	60b8      	str	r0, [r7, #8]
    b984:	eb43 0303 	adc.w	r3, r3, r3
    b988:	60fb      	str	r3, [r7, #12]
    b98a:	e9d7 2302 	ldrd	r2, r3, [r7, #8]
    b98e:	6938      	ldr	r0, [r7, #16]
    b990:	eb12 0800 	adds.w	r8, r2, r0
    b994:	6978      	ldr	r0, [r7, #20]
    b996:	eb43 0900 	adc.w	r9, r3, r0
    b99a:	f04f 0200 	mov.w	r2, #0
    b99e:	f04f 0300 	mov.w	r3, #0
    b9a2:	ea4f 1389 	mov.w	r3, r9, lsl #6
    b9a6:	ea43 6398 	orr.w	r3, r3, r8, lsr #26
    b9aa:	ea4f 1288 	mov.w	r2, r8, lsl #6
    b9ae:	f04f 0300 	mov.w	r3, #0
    b9b2:	468a      	mov	sl, r1
    b9b4:	469b      	mov	fp, r3
    b9b6:	4652      	mov	r2, sl
    b9b8:	465b      	mov	r3, fp
    b9ba:	1890      	adds	r0, r2, r2
    b9bc:	6038      	str	r0, [r7, #0]
    b9be:	eb43 0303 	adc.w	r3, r3, r3
    b9c2:	607b      	str	r3, [r7, #4]
    b9c4:	e9d7 2300 	ldrd	r2, r3, [r7]
    b9c8:	eb12 040a 	adds.w	r4, r2, sl
    b9cc:	eb43 050b 	adc.w	r5, r3, fp
    b9d0:	f04f 0200 	mov.w	r2, #0
    b9d4:	f04f 0300 	mov.w	r3, #0
    b9d8:	ea4f 1385 	mov.w	r3, r5, lsl #6
    b9dc:	ea43 6394 	orr.w	r3, r3, r4, lsr #26
    b9e0:	ea4f 1284 	mov.w	r2, r4, lsl #6
    b9e4:	460b      	mov	r3, r1
    b9e6:	ea4f 0343 	mov.w	r3, r3, lsl #1
    b9ea:	440b      	add	r3, r1
    b9ec:	ea4f 03c3 	mov.w	r3, r3, lsl #3
    b9f0:	f103 0307 	add.w	r3, r3, #7
    b9f4:	ea4f 03d3 	mov.w	r3, r3, lsr #3
    b9f8:	ea4f 03c3 	mov.w	r3, r3, lsl #3
    b9fc:	ebad 0d03 	sub.w	sp, sp, r3
    ba00:	466b      	mov	r3, sp
    ba02:	f103 0307 	add.w	r3, r3, #7
    ba06:	ea4f 03d3 	mov.w	r3, r3, lsr #3
    ba0a:	ea4f 03c3 	mov.w	r3, r3, lsl #3
    ba0e:	64bb      	str	r3, [r7, #72]	; 0x48
/home/qemu-sgx/devel/optee/optee_os/lib/libutee/tee_api_operations.c:1775
    ba10:	6a7b      	ldr	r3, [r7, #36]	; 0x24
    ba12:	2b00      	cmp	r3, #0
    ba14:	d002      	beq.n	ba1c <TEE_DeriveKey+0xd6>
/home/qemu-sgx/devel/optee/optee_os/lib/libutee/tee_api_operations.c:1775 (discriminator 1)
    ba16:	69bb      	ldr	r3, [r7, #24]
    ba18:	2b00      	cmp	r3, #0
    ba1a:	d103      	bne.n	ba24 <TEE_DeriveKey+0xde>
/home/qemu-sgx/devel/optee/optee_os/lib/libutee/tee_api_operations.c:1776
    ba1c:	f04f 0000 	mov.w	r0, #0
    ba20:	f7f7 eb1e 	blx	3060 <TEE_Panic@plt>
/home/qemu-sgx/devel/optee/optee_os/lib/libutee/tee_api_operations.c:1778
    ba24:	69f9      	ldr	r1, [r7, #28]
    ba26:	6a38      	ldr	r0, [r7, #32]
    ba28:	f7f7 ebf8 	blx	321c <__utee_check_attr_in_annotation@plt>
/home/qemu-sgx/devel/optee/optee_os/lib/libutee/tee_api_operations.c:1780
    ba2c:	6a7b      	ldr	r3, [r7, #36]	; 0x24
    ba2e:	681b      	ldr	r3, [r3, #0]
    ba30:	4618      	mov	r0, r3
    ba32:	f7fc fdf9 	bl	8628 <__tee_alg_get_class>
    ba36:	4603      	mov	r3, r0
    ba38:	2b08      	cmp	r3, #8
    ba3a:	d003      	beq.n	ba44 <TEE_DeriveKey+0xfe>
/home/qemu-sgx/devel/optee/optee_os/lib/libutee/tee_api_operations.c:1782
    ba3c:	f04f 0000 	mov.w	r0, #0
    ba40:	f7f7 eb0e 	blx	3060 <TEE_Panic@plt>
/home/qemu-sgx/devel/optee/optee_os/lib/libutee/tee_api_operations.c:1784
    ba44:	6a7b      	ldr	r3, [r7, #36]	; 0x24
    ba46:	685b      	ldr	r3, [r3, #4]
    ba48:	2b08      	cmp	r3, #8
    ba4a:	d003      	beq.n	ba54 <TEE_DeriveKey+0x10e>
/home/qemu-sgx/devel/optee/optee_os/lib/libutee/tee_api_operations.c:1785
    ba4c:	f04f 0000 	mov.w	r0, #0
    ba50:	f7f7 eb06 	blx	3060 <TEE_Panic@plt>
/home/qemu-sgx/devel/optee/optee_os/lib/libutee/tee_api_operations.c:1786
    ba54:	6a7b      	ldr	r3, [r7, #36]	; 0x24
    ba56:	6a1b      	ldr	r3, [r3, #32]
    ba58:	2b00      	cmp	r3, #0
    ba5a:	d103      	bne.n	ba64 <TEE_DeriveKey+0x11e>
/home/qemu-sgx/devel/optee/optee_os/lib/libutee/tee_api_operations.c:1787
    ba5c:	f04f 0000 	mov.w	r0, #0
    ba60:	f7f7 eafe 	blx	3060 <TEE_Panic@plt>
/home/qemu-sgx/devel/optee/optee_os/lib/libutee/tee_api_operations.c:1788
    ba64:	6a7b      	ldr	r3, [r7, #36]	; 0x24
    ba66:	689b      	ldr	r3, [r3, #8]
    ba68:	2b06      	cmp	r3, #6
    ba6a:	d003      	beq.n	ba74 <TEE_DeriveKey+0x12e>
/home/qemu-sgx/devel/optee/optee_os/lib/libutee/tee_api_operations.c:1789
    ba6c:	f04f 0000 	mov.w	r0, #0
    ba70:	f7f7 eaf6 	blx	3060 <TEE_Panic@plt>
/home/qemu-sgx/devel/optee/optee_os/lib/libutee/tee_api_operations.c:1790
    ba74:	6a7b      	ldr	r3, [r7, #36]	; 0x24
    ba76:	69db      	ldr	r3, [r3, #28]
    ba78:	f403 2380 	and.w	r3, r3, #262144	; 0x40000
    ba7c:	2b00      	cmp	r3, #0
    ba7e:	d103      	bne.n	ba88 <TEE_DeriveKey+0x142>
/home/qemu-sgx/devel/optee/optee_os/lib/libutee/tee_api_operations.c:1791
    ba80:	f04f 0000 	mov.w	r0, #0
    ba84:	f7f7 eaec 	blx	3060 <TEE_Panic@plt>
/home/qemu-sgx/devel/optee/optee_os/lib/libutee/tee_api_operations.c:1793
    ba88:	69bb      	ldr	r3, [r7, #24]
    ba8a:	f107 0228 	add.w	r2, r7, #40	; 0x28
    ba8e:	4611      	mov	r1, r2
    ba90:	4618      	mov	r0, r3
    ba92:	f7f7 ec0c 	blx	32ac <_utee_cryp_obj_get_info@plt>
    ba96:	6478      	str	r0, [r7, #68]	; 0x44
/home/qemu-sgx/devel/optee/optee_os/lib/libutee/tee_api_operations.c:1794
    ba98:	6c7b      	ldr	r3, [r7, #68]	; 0x44
    ba9a:	2b00      	cmp	r3, #0
    ba9c:	d002      	beq.n	baa4 <TEE_DeriveKey+0x15e>
/home/qemu-sgx/devel/optee/optee_os/lib/libutee/tee_api_operations.c:1795
    ba9e:	6c78      	ldr	r0, [r7, #68]	; 0x44
    baa0:	f7f7 eade 	blx	3060 <TEE_Panic@plt>
/home/qemu-sgx/devel/optee/optee_os/lib/libutee/tee_api_operations.c:1797
    baa4:	6abb      	ldr	r3, [r7, #40]	; 0x28
    baa6:	f1b3 4f20 	cmp.w	r3, #2684354560	; 0xa0000000
    baaa:	d003      	beq.n	bab4 <TEE_DeriveKey+0x16e>
/home/qemu-sgx/devel/optee/optee_os/lib/libutee/tee_api_operations.c:1798
    baac:	f04f 0000 	mov.w	r0, #0
    bab0:	f7f7 ead6 	blx	3060 <TEE_Panic@plt>
/home/qemu-sgx/devel/optee/optee_os/lib/libutee/tee_api_operations.c:1799
    bab4:	6c3b      	ldr	r3, [r7, #64]	; 0x40
    bab6:	f403 3300 	and.w	r3, r3, #131072	; 0x20000
    baba:	2b00      	cmp	r3, #0
    babc:	d003      	beq.n	bac6 <TEE_DeriveKey+0x180>
/home/qemu-sgx/devel/optee/optee_os/lib/libutee/tee_api_operations.c:1800
    babe:	f04f 0000 	mov.w	r0, #0
    bac2:	f7f7 eace 	blx	3060 <TEE_Panic@plt>
/home/qemu-sgx/devel/optee/optee_os/lib/libutee/tee_api_operations.c:1802
    bac6:	69fa      	ldr	r2, [r7, #28]
    bac8:	6a39      	ldr	r1, [r7, #32]
    baca:	6cb8      	ldr	r0, [r7, #72]	; 0x48
    bacc:	f7f7 eb6a 	blx	31a4 <__utee_from_attr@plt>
/home/qemu-sgx/devel/optee/optee_os/lib/libutee/tee_api_operations.c:1803
    bad0:	6a7b      	ldr	r3, [r7, #36]	; 0x24
    bad2:	6bd8      	ldr	r0, [r3, #60]	; 0x3c
    bad4:	69bb      	ldr	r3, [r7, #24]
    bad6:	69fa      	ldr	r2, [r7, #28]
    bad8:	6cb9      	ldr	r1, [r7, #72]	; 0x48
    bada:	f7f7 ecae 	blx	3438 <_utee_cryp_derive_key@plt>
    bade:	6478      	str	r0, [r7, #68]	; 0x44
/home/qemu-sgx/devel/optee/optee_os/lib/libutee/tee_api_operations.c:1805
    bae0:	6c7b      	ldr	r3, [r7, #68]	; 0x44
    bae2:	2b00      	cmp	r3, #0
    bae4:	d002      	beq.n	baec <TEE_DeriveKey+0x1a6>
/home/qemu-sgx/devel/optee/optee_os/lib/libutee/tee_api_operations.c:1806
    bae6:	6c78      	ldr	r0, [r7, #68]	; 0x44
    bae8:	f7f7 eaba 	blx	3060 <TEE_Panic@plt>
    baec:	46b5      	mov	sp, r6
/home/qemu-sgx/devel/optee/optee_os/lib/libutee/tee_api_operations.c:1807
    baee:	bf00      	nop
    baf0:	f107 0754 	add.w	r7, r7, #84	; 0x54
    baf4:	46bd      	mov	sp, r7
    baf6:	e9dd 4500 	ldrd	r4, r5, [sp]
    bafa:	e9dd 6702 	ldrd	r6, r7, [sp, #8]
    bafe:	e9dd 8904 	ldrd	r8, r9, [sp, #16]
    bb02:	e9dd ab06 	ldrd	sl, fp, [sp, #24]
    bb06:	b008      	add	sp, #32
    bb08:	f85d fb04 	ldr.w	pc, [sp], #4

0000bb0c <TEE_GenerateRandom>:
TEE_GenerateRandom():
/home/qemu-sgx/devel/optee/optee_os/lib/libutee/tee_api_operations.c:1812
    bb0c:	e96d 7e02 	strd	r7, lr, [sp, #-8]!
    bb10:	b084      	sub	sp, #16
    bb12:	af00      	add	r7, sp, #0
    bb14:	6078      	str	r0, [r7, #4]
    bb16:	6039      	str	r1, [r7, #0]
/home/qemu-sgx/devel/optee/optee_os/lib/libutee/tee_api_operations.c:1815
    bb18:	6839      	ldr	r1, [r7, #0]
    bb1a:	6878      	ldr	r0, [r7, #4]
    bb1c:	f7f7 ea5e 	blx	2fdc <_utee_cryp_random_number_generate@plt>
    bb20:	60f8      	str	r0, [r7, #12]
/home/qemu-sgx/devel/optee/optee_os/lib/libutee/tee_api_operations.c:1816
    bb22:	68fb      	ldr	r3, [r7, #12]
    bb24:	2b00      	cmp	r3, #0
    bb26:	d002      	beq.n	bb2e <TEE_GenerateRandom+0x22>
/home/qemu-sgx/devel/optee/optee_os/lib/libutee/tee_api_operations.c:1817
    bb28:	68f8      	ldr	r0, [r7, #12]
    bb2a:	f7f7 ea9a 	blx	3060 <TEE_Panic@plt>
/home/qemu-sgx/devel/optee/optee_os/lib/libutee/tee_api_operations.c:1818
    bb2e:	bf00      	nop
    bb30:	f107 0710 	add.w	r7, r7, #16
    bb34:	46bd      	mov	sp, r7
    bb36:	bd80      	pop	{r7, pc}

0000bb38 <rand>:
rand():
/home/qemu-sgx/devel/optee/optee_os/lib/libutee/tee_api_operations.c:1821
    bb38:	e96d 7e02 	strd	r7, lr, [sp, #-8]!
    bb3c:	b082      	sub	sp, #8
    bb3e:	af00      	add	r7, sp, #0
/home/qemu-sgx/devel/optee/optee_os/lib/libutee/tee_api_operations.c:1824
    bb40:	f107 0304 	add.w	r3, r7, #4
    bb44:	f04f 0104 	mov.w	r1, #4
    bb48:	4618      	mov	r0, r3
    bb4a:	f7f7 ec52 	blx	33f0 <TEE_GenerateRandom@plt>
/home/qemu-sgx/devel/optee/optee_os/lib/libutee/tee_api_operations.c:1830
    bb4e:	687b      	ldr	r3, [r7, #4]
    bb50:	f023 4300 	bic.w	r3, r3, #2147483648	; 0x80000000
/home/qemu-sgx/devel/optee/optee_os/lib/libutee/tee_api_operations.c:1831
    bb54:	4618      	mov	r0, r3
    bb56:	f107 0708 	add.w	r7, r7, #8
    bb5a:	46bd      	mov	sp, r7
    bb5c:	bd80      	pop	{r7, pc}

0000bb5e <TEE_IsAlgorithmSupported>:
TEE_IsAlgorithmSupported():
/home/qemu-sgx/devel/optee/optee_os/lib/libutee/tee_api_operations.c:1834
    bb5e:	f84d 7d04 	str.w	r7, [sp, #-4]!
    bb62:	b083      	sub	sp, #12
    bb64:	af00      	add	r7, sp, #0
    bb66:	6078      	str	r0, [r7, #4]
    bb68:	6039      	str	r1, [r7, #0]
/home/qemu-sgx/devel/optee/optee_os/lib/libutee/tee_api_operations.c:1837
    bb6a:	687a      	ldr	r2, [r7, #4]
    bb6c:	f04f 0310 	mov.w	r3, #16
    bb70:	f2c1 0300 	movt	r3, #4096	; 0x1000
    bb74:	429a      	cmp	r2, r3
    bb76:	f000 8263 	beq.w	c040 <TEE_IsAlgorithmSupported+0x4e2>
/home/qemu-sgx/devel/optee/optee_os/lib/libutee/tee_api_operations.c:1841
    bb7a:	687a      	ldr	r2, [r7, #4]
    bb7c:	f44f 7388 	mov.w	r3, #272	; 0x110
    bb80:	f2c1 0300 	movt	r3, #4096	; 0x1000
    bb84:	429a      	cmp	r2, r3
    bb86:	f000 825d 	beq.w	c044 <TEE_IsAlgorithmSupported+0x4e6>
/home/qemu-sgx/devel/optee/optee_os/lib/libutee/tee_api_operations.c:1845
    bb8a:	687a      	ldr	r2, [r7, #4]
    bb8c:	f44f 7304 	mov.w	r3, #528	; 0x210
    bb90:	f2c1 0300 	movt	r3, #4096	; 0x1000
    bb94:	429a      	cmp	r2, r3
    bb96:	f000 8257 	beq.w	c048 <TEE_IsAlgorithmSupported+0x4ea>
/home/qemu-sgx/devel/optee/optee_os/lib/libutee/tee_api_operations.c:1849
    bb9a:	687a      	ldr	r2, [r7, #4]
    bb9c:	f44f 7344 	mov.w	r3, #784	; 0x310
    bba0:	f2c1 0300 	movt	r3, #4096	; 0x1000
    bba4:	429a      	cmp	r2, r3
    bba6:	f000 8251 	beq.w	c04c <TEE_IsAlgorithmSupported+0x4ee>
/home/qemu-sgx/devel/optee/optee_os/lib/libutee/tee_api_operations.c:1853
    bbaa:	687a      	ldr	r2, [r7, #4]
    bbac:	f44f 6382 	mov.w	r3, #1040	; 0x410
    bbb0:	f2c1 0300 	movt	r3, #4096	; 0x1000
    bbb4:	429a      	cmp	r2, r3
    bbb6:	f000 824b 	beq.w	c050 <TEE_IsAlgorithmSupported+0x4f2>
/home/qemu-sgx/devel/optee/optee_os/lib/libutee/tee_api_operations.c:1857
    bbba:	687a      	ldr	r2, [r7, #4]
    bbbc:	f44f 7388 	mov.w	r3, #272	; 0x110
    bbc0:	f2c3 0300 	movt	r3, #12288	; 0x3000
    bbc4:	429a      	cmp	r2, r3
    bbc6:	f000 8245 	beq.w	c054 <TEE_IsAlgorithmSupported+0x4f6>
/home/qemu-sgx/devel/optee/optee_os/lib/libutee/tee_api_operations.c:1857 (discriminator 1)
    bbca:	687a      	ldr	r2, [r7, #4]
    bbcc:	f44f 63a2 	mov.w	r3, #1296	; 0x510
    bbd0:	f2c3 0300 	movt	r3, #12288	; 0x3000
    bbd4:	429a      	cmp	r2, r3
    bbd6:	f000 823d 	beq.w	c054 <TEE_IsAlgorithmSupported+0x4f6>
/home/qemu-sgx/devel/optee/optee_os/lib/libutee/tee_api_operations.c:1862
    bbda:	687a      	ldr	r2, [r7, #4]
    bbdc:	f44f 63c2 	mov.w	r3, #1552	; 0x610
    bbe0:	f2c3 0300 	movt	r3, #12288	; 0x3000
    bbe4:	429a      	cmp	r2, r3
    bbe6:	f000 8237 	beq.w	c058 <TEE_IsAlgorithmSupported+0x4fa>
/home/qemu-sgx/devel/optee/optee_os/lib/libutee/tee_api_operations.c:1866
    bbea:	687a      	ldr	r2, [r7, #4]
    bbec:	f44f 63e2 	mov.w	r3, #1808	; 0x710
    bbf0:	f2c4 0300 	movt	r3, #16384	; 0x4000
    bbf4:	429a      	cmp	r2, r3
    bbf6:	f000 8231 	beq.w	c05c <TEE_IsAlgorithmSupported+0x4fe>
/home/qemu-sgx/devel/optee/optee_os/lib/libutee/tee_api_operations.c:1870
    bbfa:	687a      	ldr	r2, [r7, #4]
    bbfc:	f44f 6301 	mov.w	r3, #2064	; 0x810
    bc00:	f2c4 0300 	movt	r3, #16384	; 0x4000
    bc04:	429a      	cmp	r2, r3
    bc06:	f000 822b 	beq.w	c060 <TEE_IsAlgorithmSupported+0x502>
/home/qemu-sgx/devel/optee/optee_os/lib/libutee/tee_api_operations.c:1876
    bc0a:	687a      	ldr	r2, [r7, #4]
    bc0c:	f04f 0311 	mov.w	r3, #17
    bc10:	f2c1 0300 	movt	r3, #4096	; 0x1000
    bc14:	429a      	cmp	r2, r3
    bc16:	f000 8225 	beq.w	c064 <TEE_IsAlgorithmSupported+0x506>
/home/qemu-sgx/devel/optee/optee_os/lib/libutee/tee_api_operations.c:1876 (discriminator 1)
    bc1a:	687a      	ldr	r2, [r7, #4]
    bc1c:	f04f 0313 	mov.w	r3, #19
    bc20:	f2c1 0300 	movt	r3, #4096	; 0x1000
    bc24:	429a      	cmp	r2, r3
    bc26:	f000 821d 	beq.w	c064 <TEE_IsAlgorithmSupported+0x506>
/home/qemu-sgx/devel/optee/optee_os/lib/libutee/tee_api_operations.c:1881
    bc2a:	687a      	ldr	r2, [r7, #4]
    bc2c:	f240 1311 	movw	r3, #273	; 0x111
    bc30:	f2c1 0300 	movt	r3, #4096	; 0x1000
    bc34:	429a      	cmp	r2, r3
    bc36:	f000 8217 	beq.w	c068 <TEE_IsAlgorithmSupported+0x50a>
/home/qemu-sgx/devel/optee/optee_os/lib/libutee/tee_api_operations.c:1881 (discriminator 1)
    bc3a:	687a      	ldr	r2, [r7, #4]
    bc3c:	f240 1313 	movw	r3, #275	; 0x113
    bc40:	f2c1 0300 	movt	r3, #4096	; 0x1000
    bc44:	429a      	cmp	r2, r3
    bc46:	f000 820f 	beq.w	c068 <TEE_IsAlgorithmSupported+0x50a>
/home/qemu-sgx/devel/optee/optee_os/lib/libutee/tee_api_operations.c:1886
    bc4a:	687a      	ldr	r2, [r7, #4]
    bc4c:	f240 1311 	movw	r3, #273	; 0x111
    bc50:	f2c3 0300 	movt	r3, #12288	; 0x3000
    bc54:	429a      	cmp	r2, r3
    bc56:	f000 8209 	beq.w	c06c <TEE_IsAlgorithmSupported+0x50e>
/home/qemu-sgx/devel/optee/optee_os/lib/libutee/tee_api_operations.c:1886 (discriminator 1)
    bc5a:	687a      	ldr	r2, [r7, #4]
    bc5c:	f240 5311 	movw	r3, #1297	; 0x511
    bc60:	f2c3 0300 	movt	r3, #12288	; 0x3000
    bc64:	429a      	cmp	r2, r3
    bc66:	f000 8201 	beq.w	c06c <TEE_IsAlgorithmSupported+0x50e>
/home/qemu-sgx/devel/optee/optee_os/lib/libutee/tee_api_operations.c:1887
    bc6a:	687a      	ldr	r2, [r7, #4]
    bc6c:	f240 1313 	movw	r3, #275	; 0x113
    bc70:	f2c3 0300 	movt	r3, #12288	; 0x3000
    bc74:	429a      	cmp	r2, r3
    bc76:	f000 81f9 	beq.w	c06c <TEE_IsAlgorithmSupported+0x50e>
/home/qemu-sgx/devel/optee/optee_os/lib/libutee/tee_api_operations.c:1888
    bc7a:	687a      	ldr	r2, [r7, #4]
    bc7c:	f240 5313 	movw	r3, #1299	; 0x513
    bc80:	f2c3 0300 	movt	r3, #12288	; 0x3000
    bc84:	429a      	cmp	r2, r3
    bc86:	f000 81f1 	beq.w	c06c <TEE_IsAlgorithmSupported+0x50e>
/home/qemu-sgx/devel/optee/optee_os/lib/libutee/tee_api_operations.c:1894
    bc8a:	687a      	ldr	r2, [r7, #4]
    bc8c:	f04f 0301 	mov.w	r3, #1
    bc90:	f2c5 0300 	movt	r3, #20480	; 0x5000
    bc94:	429a      	cmp	r2, r3
    bc96:	f000 81eb 	beq.w	c070 <TEE_IsAlgorithmSupported+0x512>
/home/qemu-sgx/devel/optee/optee_os/lib/libutee/tee_api_operations.c:1898
    bc9a:	687a      	ldr	r2, [r7, #4]
    bc9c:	f04f 0302 	mov.w	r3, #2
    bca0:	f2c5 0300 	movt	r3, #20480	; 0x5000
    bca4:	429a      	cmp	r2, r3
    bca6:	f000 81e5 	beq.w	c074 <TEE_IsAlgorithmSupported+0x516>
/home/qemu-sgx/devel/optee/optee_os/lib/libutee/tee_api_operations.c:1902
    bcaa:	687a      	ldr	r2, [r7, #4]
    bcac:	f04f 0303 	mov.w	r3, #3
    bcb0:	f2c5 0300 	movt	r3, #20480	; 0x5000
    bcb4:	429a      	cmp	r2, r3
    bcb6:	f000 81df 	beq.w	c078 <TEE_IsAlgorithmSupported+0x51a>
/home/qemu-sgx/devel/optee/optee_os/lib/libutee/tee_api_operations.c:1906
    bcba:	687a      	ldr	r2, [r7, #4]
    bcbc:	f04f 0304 	mov.w	r3, #4
    bcc0:	f2c5 0300 	movt	r3, #20480	; 0x5000
    bcc4:	429a      	cmp	r2, r3
    bcc6:	f000 81d9 	beq.w	c07c <TEE_IsAlgorithmSupported+0x51e>
/home/qemu-sgx/devel/optee/optee_os/lib/libutee/tee_api_operations.c:1910
    bcca:	687a      	ldr	r2, [r7, #4]
    bccc:	f04f 0305 	mov.w	r3, #5
    bcd0:	f2c5 0300 	movt	r3, #20480	; 0x5000
    bcd4:	429a      	cmp	r2, r3
    bcd6:	f000 81d3 	beq.w	c080 <TEE_IsAlgorithmSupported+0x522>
/home/qemu-sgx/devel/optee/optee_os/lib/libutee/tee_api_operations.c:1914
    bcda:	687a      	ldr	r2, [r7, #4]
    bcdc:	f04f 0306 	mov.w	r3, #6
    bce0:	f2c5 0300 	movt	r3, #20480	; 0x5000
    bce4:	429a      	cmp	r2, r3
    bce6:	f000 81cd 	beq.w	c084 <TEE_IsAlgorithmSupported+0x526>
/home/qemu-sgx/devel/optee/optee_os/lib/libutee/tee_api_operations.c:1918
    bcea:	687a      	ldr	r2, [r7, #4]
    bcec:	f04f 030f 	mov.w	r3, #15
    bcf0:	f2c5 0300 	movt	r3, #20480	; 0x5000
    bcf4:	429a      	cmp	r2, r3
    bcf6:	f000 81c7 	beq.w	c088 <TEE_IsAlgorithmSupported+0x52a>
/home/qemu-sgx/devel/optee/optee_os/lib/libutee/tee_api_operations.c:1923
    bcfa:	687a      	ldr	r2, [r7, #4]
    bcfc:	f04f 0301 	mov.w	r3, #1
    bd00:	f2c3 0300 	movt	r3, #12288	; 0x3000
    bd04:	429a      	cmp	r2, r3
    bd06:	f000 81c1 	beq.w	c08c <TEE_IsAlgorithmSupported+0x52e>
/home/qemu-sgx/devel/optee/optee_os/lib/libutee/tee_api_operations.c:1927
    bd0a:	687a      	ldr	r2, [r7, #4]
    bd0c:	f04f 0302 	mov.w	r3, #2
    bd10:	f2c3 0300 	movt	r3, #12288	; 0x3000
    bd14:	429a      	cmp	r2, r3
    bd16:	f000 81bb 	beq.w	c090 <TEE_IsAlgorithmSupported+0x532>
/home/qemu-sgx/devel/optee/optee_os/lib/libutee/tee_api_operations.c:1931
    bd1a:	687a      	ldr	r2, [r7, #4]
    bd1c:	f04f 0303 	mov.w	r3, #3
    bd20:	f2c3 0300 	movt	r3, #12288	; 0x3000
    bd24:	429a      	cmp	r2, r3
    bd26:	f000 81b5 	beq.w	c094 <TEE_IsAlgorithmSupported+0x536>
/home/qemu-sgx/devel/optee/optee_os/lib/libutee/tee_api_operations.c:1935
    bd2a:	687a      	ldr	r2, [r7, #4]
    bd2c:	f04f 0304 	mov.w	r3, #4
    bd30:	f2c3 0300 	movt	r3, #12288	; 0x3000
    bd34:	429a      	cmp	r2, r3
    bd36:	f000 81af 	beq.w	c098 <TEE_IsAlgorithmSupported+0x53a>
/home/qemu-sgx/devel/optee/optee_os/lib/libutee/tee_api_operations.c:1939
    bd3a:	687a      	ldr	r2, [r7, #4]
    bd3c:	f04f 0305 	mov.w	r3, #5
    bd40:	f2c3 0300 	movt	r3, #12288	; 0x3000
    bd44:	429a      	cmp	r2, r3
    bd46:	f000 81a9 	beq.w	c09c <TEE_IsAlgorithmSupported+0x53e>
/home/qemu-sgx/devel/optee/optee_os/lib/libutee/tee_api_operations.c:1943
    bd4a:	687a      	ldr	r2, [r7, #4]
    bd4c:	f04f 0306 	mov.w	r3, #6
    bd50:	f2c3 0300 	movt	r3, #12288	; 0x3000
    bd54:	429a      	cmp	r2, r3
    bd56:	f000 81a3 	beq.w	c0a0 <TEE_IsAlgorithmSupported+0x542>
/home/qemu-sgx/devel/optee/optee_os/lib/libutee/tee_api_operations.c:1947
    bd5a:	687a      	ldr	r2, [r7, #4]
    bd5c:	f04f 0307 	mov.w	r3, #7
    bd60:	f2c3 0300 	movt	r3, #12288	; 0x3000
    bd64:	429a      	cmp	r2, r3
    bd66:	f000 819d 	beq.w	c0a4 <TEE_IsAlgorithmSupported+0x546>
/home/qemu-sgx/devel/optee/optee_os/lib/libutee/tee_api_operations.c:1952
    bd6a:	687a      	ldr	r2, [r7, #4]
    bd6c:	f04f 0307 	mov.w	r3, #7
    bd70:	f2c5 0300 	movt	r3, #20480	; 0x5000
    bd74:	429a      	cmp	r2, r3
    bd76:	f000 8197 	beq.w	c0a8 <TEE_IsAlgorithmSupported+0x54a>
/home/qemu-sgx/devel/optee/optee_os/lib/libutee/tee_api_operations.c:1957
    bd7a:	687a      	ldr	r2, [r7, #4]
    bd7c:	f04f 0314 	mov.w	r3, #20
    bd80:	f2c1 0300 	movt	r3, #4096	; 0x1000
    bd84:	429a      	cmp	r2, r3
    bd86:	f000 8191 	beq.w	c0ac <TEE_IsAlgorithmSupported+0x54e>
/home/qemu-sgx/devel/optee/optee_os/lib/libutee/tee_api_operations.c:1961
    bd8a:	687a      	ldr	r2, [r7, #4]
    bd8c:	f44f 738a 	mov.w	r3, #276	; 0x114
    bd90:	f2c1 0300 	movt	r3, #4096	; 0x1000
    bd94:	429a      	cmp	r2, r3
    bd96:	f000 818b 	beq.w	c0b0 <TEE_IsAlgorithmSupported+0x552>
/home/qemu-sgx/devel/optee/optee_os/lib/libutee/tee_api_operations.c:1965
    bd9a:	687a      	ldr	r2, [r7, #4]
    bd9c:	f44f 7305 	mov.w	r3, #532	; 0x214
    bda0:	f2c1 0300 	movt	r3, #4096	; 0x1000
    bda4:	429a      	cmp	r2, r3
    bda6:	f000 8185 	beq.w	c0b4 <TEE_IsAlgorithmSupported+0x556>
/home/qemu-sgx/devel/optee/optee_os/lib/libutee/tee_api_operations.c:1971
    bdaa:	687a      	ldr	r2, [r7, #4]
    bdac:	f641 0330 	movw	r3, #6192	; 0x1830
    bdb0:	f2c7 0300 	movt	r3, #28672	; 0x7000
    bdb4:	429a      	cmp	r2, r3
    bdb6:	f000 817f 	beq.w	c0b8 <TEE_IsAlgorithmSupported+0x55a>
/home/qemu-sgx/devel/optee/optee_os/lib/libutee/tee_api_operations.c:1975
    bdba:	687a      	ldr	r2, [r7, #4]
    bdbc:	f642 0330 	movw	r3, #10288	; 0x2830
    bdc0:	f2c7 0300 	movt	r3, #28672	; 0x7000
    bdc4:	429a      	cmp	r2, r3
    bdc6:	f000 8179 	beq.w	c0bc <TEE_IsAlgorithmSupported+0x55e>
/home/qemu-sgx/devel/optee/optee_os/lib/libutee/tee_api_operations.c:1975 (discriminator 1)
    bdca:	687a      	ldr	r2, [r7, #4]
    bdcc:	f642 1330 	movw	r3, #10544	; 0x2930
    bdd0:	f2c7 0321 	movt	r3, #28705	; 0x7021
    bdd4:	429a      	cmp	r2, r3
    bdd6:	f000 8171 	beq.w	c0bc <TEE_IsAlgorithmSupported+0x55e>
/home/qemu-sgx/devel/optee/optee_os/lib/libutee/tee_api_operations.c:1976
    bdda:	687a      	ldr	r2, [r7, #4]
    bddc:	f44f 730c 	mov.w	r3, #560	; 0x230
    bde0:	f2c6 0321 	movt	r3, #24609	; 0x6021
    bde4:	429a      	cmp	r2, r3
    bde6:	f000 8169 	beq.w	c0bc <TEE_IsAlgorithmSupported+0x55e>
/home/qemu-sgx/devel/optee/optee_os/lib/libutee/tee_api_operations.c:1981
    bdea:	687a      	ldr	r2, [r7, #4]
    bdec:	f64f 0330 	movw	r3, #63536	; 0xf830
    bdf0:	f2c7 0300 	movt	r3, #28672	; 0x7000
    bdf4:	429a      	cmp	r2, r3
    bdf6:	f000 8163 	beq.w	c0c0 <TEE_IsAlgorithmSupported+0x562>
/home/qemu-sgx/devel/optee/optee_os/lib/libutee/tee_api_operations.c:1985
    bdfa:	687a      	ldr	r2, [r7, #4]
    bdfc:	f643 0330 	movw	r3, #14384	; 0x3830
    be00:	f2c7 0300 	movt	r3, #28672	; 0x7000
    be04:	429a      	cmp	r2, r3
    be06:	f000 815d 	beq.w	c0c4 <TEE_IsAlgorithmSupported+0x566>
/home/qemu-sgx/devel/optee/optee_os/lib/libutee/tee_api_operations.c:1985 (discriminator 1)
    be0a:	687a      	ldr	r2, [r7, #4]
    be0c:	f643 1330 	movw	r3, #14640	; 0x3930
    be10:	f2c7 0331 	movt	r3, #28721	; 0x7031
    be14:	429a      	cmp	r2, r3
    be16:	f000 8155 	beq.w	c0c4 <TEE_IsAlgorithmSupported+0x566>
/home/qemu-sgx/devel/optee/optee_os/lib/libutee/tee_api_operations.c:1986
    be1a:	687a      	ldr	r2, [r7, #4]
    be1c:	f44f 730c 	mov.w	r3, #560	; 0x230
    be20:	f2c6 0331 	movt	r3, #24625	; 0x6031
    be24:	429a      	cmp	r2, r3
    be26:	f000 814d 	beq.w	c0c4 <TEE_IsAlgorithmSupported+0x566>
/home/qemu-sgx/devel/optee/optee_os/lib/libutee/tee_api_operations.c:1991
    be2a:	687a      	ldr	r2, [r7, #4]
    be2c:	f644 0330 	movw	r3, #18480	; 0x4830
    be30:	f2c7 0300 	movt	r3, #28672	; 0x7000
    be34:	429a      	cmp	r2, r3
    be36:	f000 8147 	beq.w	c0c8 <TEE_IsAlgorithmSupported+0x56a>
/home/qemu-sgx/devel/optee/optee_os/lib/libutee/tee_api_operations.c:1991 (discriminator 1)
    be3a:	687a      	ldr	r2, [r7, #4]
    be3c:	f644 1330 	movw	r3, #18736	; 0x4930
    be40:	f2c7 0341 	movt	r3, #28737	; 0x7041
    be44:	429a      	cmp	r2, r3
    be46:	f000 813f 	beq.w	c0c8 <TEE_IsAlgorithmSupported+0x56a>
/home/qemu-sgx/devel/optee/optee_os/lib/libutee/tee_api_operations.c:1992
    be4a:	687a      	ldr	r2, [r7, #4]
    be4c:	f44f 730c 	mov.w	r3, #560	; 0x230
    be50:	f2c6 0341 	movt	r3, #24641	; 0x6041
    be54:	429a      	cmp	r2, r3
    be56:	f000 8137 	beq.w	c0c8 <TEE_IsAlgorithmSupported+0x56a>
/home/qemu-sgx/devel/optee/optee_os/lib/libutee/tee_api_operations.c:1997
    be5a:	687a      	ldr	r2, [r7, #4]
    be5c:	f645 0330 	movw	r3, #22576	; 0x5830
    be60:	f2c7 0300 	movt	r3, #28672	; 0x7000
    be64:	429a      	cmp	r2, r3
    be66:	f000 8131 	beq.w	c0cc <TEE_IsAlgorithmSupported+0x56e>
/home/qemu-sgx/devel/optee/optee_os/lib/libutee/tee_api_operations.c:1997 (discriminator 1)
    be6a:	687a      	ldr	r2, [r7, #4]
    be6c:	f645 1330 	movw	r3, #22832	; 0x5930
    be70:	f2c7 0351 	movt	r3, #28753	; 0x7051
    be74:	429a      	cmp	r2, r3
    be76:	f000 8129 	beq.w	c0cc <TEE_IsAlgorithmSupported+0x56e>
/home/qemu-sgx/devel/optee/optee_os/lib/libutee/tee_api_operations.c:1998
    be7a:	687a      	ldr	r2, [r7, #4]
    be7c:	f44f 730c 	mov.w	r3, #560	; 0x230
    be80:	f2c6 0351 	movt	r3, #24657	; 0x6051
    be84:	429a      	cmp	r2, r3
    be86:	f000 8121 	beq.w	c0cc <TEE_IsAlgorithmSupported+0x56e>
/home/qemu-sgx/devel/optee/optee_os/lib/libutee/tee_api_operations.c:2003
    be8a:	687a      	ldr	r2, [r7, #4]
    be8c:	f646 0330 	movw	r3, #26672	; 0x6830
    be90:	f2c7 0300 	movt	r3, #28672	; 0x7000
    be94:	429a      	cmp	r2, r3
    be96:	f000 811b 	beq.w	c0d0 <TEE_IsAlgorithmSupported+0x572>
/home/qemu-sgx/devel/optee/optee_os/lib/libutee/tee_api_operations.c:2003 (discriminator 1)
    be9a:	687a      	ldr	r2, [r7, #4]
    be9c:	f646 1330 	movw	r3, #26928	; 0x6930
    bea0:	f2c7 0361 	movt	r3, #28769	; 0x7061
    bea4:	429a      	cmp	r2, r3
    bea6:	f000 8113 	beq.w	c0d0 <TEE_IsAlgorithmSupported+0x572>
/home/qemu-sgx/devel/optee/optee_os/lib/libutee/tee_api_operations.c:2004
    beaa:	687a      	ldr	r2, [r7, #4]
    beac:	f44f 730c 	mov.w	r3, #560	; 0x230
    beb0:	f2c6 0361 	movt	r3, #24673	; 0x6061
    beb4:	429a      	cmp	r2, r3
    beb6:	f000 810b 	beq.w	c0d0 <TEE_IsAlgorithmSupported+0x572>
/home/qemu-sgx/devel/optee/optee_os/lib/libutee/tee_api_operations.c:2009
    beba:	687a      	ldr	r2, [r7, #4]
    bebc:	f44f 6303 	mov.w	r3, #2096	; 0x830
    bec0:	f2cf 0300 	movt	r3, #61440	; 0xf000
    bec4:	429a      	cmp	r2, r3
    bec6:	f000 8105 	beq.w	c0d4 <TEE_IsAlgorithmSupported+0x576>
/home/qemu-sgx/devel/optee/optee_os/lib/libutee/tee_api_operations.c:2012
    beca:	687a      	ldr	r2, [r7, #4]
    becc:	f04f 0330 	mov.w	r3, #48	; 0x30
    bed0:	f2c6 0300 	movt	r3, #24576	; 0x6000
    bed4:	429a      	cmp	r2, r3
    bed6:	f000 80ff 	beq.w	c0d8 <TEE_IsAlgorithmSupported+0x57a>
/home/qemu-sgx/devel/optee/optee_os/lib/libutee/tee_api_operations.c:2017
    beda:	687a      	ldr	r2, [r7, #4]
    bedc:	f242 1331 	movw	r3, #8497	; 0x2131
    bee0:	f2c7 0300 	movt	r3, #28672	; 0x7000
    bee4:	429a      	cmp	r2, r3
    bee6:	f000 80f9 	beq.w	c0dc <TEE_IsAlgorithmSupported+0x57e>
/home/qemu-sgx/devel/optee/optee_os/lib/libutee/tee_api_operations.c:2021
    beea:	687a      	ldr	r2, [r7, #4]
    beec:	f243 1331 	movw	r3, #12593	; 0x3131
    bef0:	f2c7 0300 	movt	r3, #28672	; 0x7000
    bef4:	429a      	cmp	r2, r3
    bef6:	f000 80f3 	beq.w	c0e0 <TEE_IsAlgorithmSupported+0x582>
/home/qemu-sgx/devel/optee/optee_os/lib/libutee/tee_api_operations.c:2025
    befa:	687a      	ldr	r2, [r7, #4]
    befc:	f244 1331 	movw	r3, #16689	; 0x4131
    bf00:	f2c7 0300 	movt	r3, #28672	; 0x7000
    bf04:	429a      	cmp	r2, r3
    bf06:	f000 80ed 	beq.w	c0e4 <TEE_IsAlgorithmSupported+0x586>
/home/qemu-sgx/devel/optee/optee_os/lib/libutee/tee_api_operations.c:2030
    bf0a:	687a      	ldr	r2, [r7, #4]
    bf0c:	f04f 0332 	mov.w	r3, #50	; 0x32
    bf10:	f2c8 0300 	movt	r3, #32768	; 0x8000
    bf14:	429a      	cmp	r2, r3
    bf16:	f000 80e7 	beq.w	c0e8 <TEE_IsAlgorithmSupported+0x58a>
/home/qemu-sgx/devel/optee/optee_os/lib/libutee/tee_api_operations.c:2034
    bf1a:	687a      	ldr	r2, [r7, #4]
    bf1c:	f241 0342 	movw	r3, #4162	; 0x1042
    bf20:	f2c8 0300 	movt	r3, #32768	; 0x8000
    bf24:	429a      	cmp	r2, r3
    bf26:	d006      	beq.n	bf36 <TEE_IsAlgorithmSupported+0x3d8>
/home/qemu-sgx/devel/optee/optee_os/lib/libutee/tee_api_operations.c:2034 (discriminator 2)
    bf28:	687a      	ldr	r2, [r7, #4]
    bf2a:	f241 0341 	movw	r3, #4161	; 0x1041
    bf2e:	f2c7 0300 	movt	r3, #28672	; 0x7000
    bf32:	429a      	cmp	r2, r3
    bf34:	d105      	bne.n	bf42 <TEE_IsAlgorithmSupported+0x3e4>
/home/qemu-sgx/devel/optee/optee_os/lib/libutee/tee_api_operations.c:2034 (discriminator 3)
    bf36:	683b      	ldr	r3, [r7, #0]
    bf38:	2b01      	cmp	r3, #1
    bf3a:	d102      	bne.n	bf42 <TEE_IsAlgorithmSupported+0x3e4>
/home/qemu-sgx/devel/optee/optee_os/lib/libutee/tee_api_operations.c:2036
    bf3c:	f04f 0300 	mov.w	r3, #0
    bf40:	e0dd      	b.n	c0fe <TEE_IsAlgorithmSupported+0x5a0>
/home/qemu-sgx/devel/optee/optee_os/lib/libutee/tee_api_operations.c:2037
    bf42:	687a      	ldr	r2, [r7, #4]
    bf44:	f242 0342 	movw	r3, #8258	; 0x2042
    bf48:	f2c8 0300 	movt	r3, #32768	; 0x8000
    bf4c:	429a      	cmp	r2, r3
    bf4e:	d006      	beq.n	bf5e <TEE_IsAlgorithmSupported+0x400>
/home/qemu-sgx/devel/optee/optee_os/lib/libutee/tee_api_operations.c:2037 (discriminator 2)
    bf50:	687a      	ldr	r2, [r7, #4]
    bf52:	f242 0341 	movw	r3, #8257	; 0x2041
    bf56:	f2c7 0300 	movt	r3, #28672	; 0x7000
    bf5a:	429a      	cmp	r2, r3
    bf5c:	d105      	bne.n	bf6a <TEE_IsAlgorithmSupported+0x40c>
/home/qemu-sgx/devel/optee/optee_os/lib/libutee/tee_api_operations.c:2037 (discriminator 3)
    bf5e:	683b      	ldr	r3, [r7, #0]
    bf60:	2b02      	cmp	r3, #2
    bf62:	d102      	bne.n	bf6a <TEE_IsAlgorithmSupported+0x40c>
/home/qemu-sgx/devel/optee/optee_os/lib/libutee/tee_api_operations.c:2039
    bf64:	f04f 0300 	mov.w	r3, #0
    bf68:	e0c9      	b.n	c0fe <TEE_IsAlgorithmSupported+0x5a0>
/home/qemu-sgx/devel/optee/optee_os/lib/libutee/tee_api_operations.c:2040
    bf6a:	687a      	ldr	r2, [r7, #4]
    bf6c:	f243 0342 	movw	r3, #12354	; 0x3042
    bf70:	f2c8 0300 	movt	r3, #32768	; 0x8000
    bf74:	429a      	cmp	r2, r3
    bf76:	d006      	beq.n	bf86 <TEE_IsAlgorithmSupported+0x428>
/home/qemu-sgx/devel/optee/optee_os/lib/libutee/tee_api_operations.c:2040 (discriminator 2)
    bf78:	687a      	ldr	r2, [r7, #4]
    bf7a:	f243 0341 	movw	r3, #12353	; 0x3041
    bf7e:	f2c7 0300 	movt	r3, #28672	; 0x7000
    bf82:	429a      	cmp	r2, r3
    bf84:	d105      	bne.n	bf92 <TEE_IsAlgorithmSupported+0x434>
/home/qemu-sgx/devel/optee/optee_os/lib/libutee/tee_api_operations.c:2040 (discriminator 3)
    bf86:	683b      	ldr	r3, [r7, #0]
    bf88:	2b03      	cmp	r3, #3
    bf8a:	d102      	bne.n	bf92 <TEE_IsAlgorithmSupported+0x434>
/home/qemu-sgx/devel/optee/optee_os/lib/libutee/tee_api_operations.c:2042
    bf8c:	f04f 0300 	mov.w	r3, #0
    bf90:	e0b5      	b.n	c0fe <TEE_IsAlgorithmSupported+0x5a0>
/home/qemu-sgx/devel/optee/optee_os/lib/libutee/tee_api_operations.c:2043
    bf92:	687a      	ldr	r2, [r7, #4]
    bf94:	f244 0342 	movw	r3, #16450	; 0x4042
    bf98:	f2c8 0300 	movt	r3, #32768	; 0x8000
    bf9c:	429a      	cmp	r2, r3
    bf9e:	d006      	beq.n	bfae <TEE_IsAlgorithmSupported+0x450>
/home/qemu-sgx/devel/optee/optee_os/lib/libutee/tee_api_operations.c:2043 (discriminator 2)
    bfa0:	687a      	ldr	r2, [r7, #4]
    bfa2:	f244 0341 	movw	r3, #16449	; 0x4041
    bfa6:	f2c7 0300 	movt	r3, #28672	; 0x7000
    bfaa:	429a      	cmp	r2, r3
    bfac:	d105      	bne.n	bfba <TEE_IsAlgorithmSupported+0x45c>
/home/qemu-sgx/devel/optee/optee_os/lib/libutee/tee_api_operations.c:2043 (discriminator 3)
    bfae:	683b      	ldr	r3, [r7, #0]
    bfb0:	2b04      	cmp	r3, #4
    bfb2:	d102      	bne.n	bfba <TEE_IsAlgorithmSupported+0x45c>
/home/qemu-sgx/devel/optee/optee_os/lib/libutee/tee_api_operations.c:2045
    bfb4:	f04f 0300 	mov.w	r3, #0
    bfb8:	e0a1      	b.n	c0fe <TEE_IsAlgorithmSupported+0x5a0>
/home/qemu-sgx/devel/optee/optee_os/lib/libutee/tee_api_operations.c:2046
    bfba:	687a      	ldr	r2, [r7, #4]
    bfbc:	f245 0342 	movw	r3, #20546	; 0x5042
    bfc0:	f2c8 0300 	movt	r3, #32768	; 0x8000
    bfc4:	429a      	cmp	r2, r3
    bfc6:	d006      	beq.n	bfd6 <TEE_IsAlgorithmSupported+0x478>
/home/qemu-sgx/devel/optee/optee_os/lib/libutee/tee_api_operations.c:2046 (discriminator 2)
    bfc8:	687a      	ldr	r2, [r7, #4]
    bfca:	f245 0341 	movw	r3, #20545	; 0x5041
    bfce:	f2c7 0300 	movt	r3, #28672	; 0x7000
    bfd2:	429a      	cmp	r2, r3
    bfd4:	d105      	bne.n	bfe2 <TEE_IsAlgorithmSupported+0x484>
/home/qemu-sgx/devel/optee/optee_os/lib/libutee/tee_api_operations.c:2046 (discriminator 3)
    bfd6:	683b      	ldr	r3, [r7, #0]
    bfd8:	2b05      	cmp	r3, #5
    bfda:	d102      	bne.n	bfe2 <TEE_IsAlgorithmSupported+0x484>
/home/qemu-sgx/devel/optee/optee_os/lib/libutee/tee_api_operations.c:2048
    bfdc:	f04f 0300 	mov.w	r3, #0
    bfe0:	e08d      	b.n	c0fe <TEE_IsAlgorithmSupported+0x5a0>
/home/qemu-sgx/devel/optee/optee_os/lib/libutee/tee_api_operations.c:2051
    bfe2:	687a      	ldr	r2, [r7, #4]
    bfe4:	f246 0345 	movw	r3, #24645	; 0x6045
    bfe8:	f2c7 0300 	movt	r3, #28672	; 0x7000
    bfec:	429a      	cmp	r2, r3
    bfee:	d106      	bne.n	bffe <TEE_IsAlgorithmSupported+0x4a0>
/home/qemu-sgx/devel/optee/optee_os/lib/libutee/tee_api_operations.c:2051 (discriminator 1)
    bff0:	683b      	ldr	r3, [r7, #0]
    bff2:	f5b3 7f40 	cmp.w	r3, #768	; 0x300
    bff6:	d102      	bne.n	bffe <TEE_IsAlgorithmSupported+0x4a0>
/home/qemu-sgx/devel/optee/optee_os/lib/libutee/tee_api_operations.c:2052
    bff8:	f04f 0300 	mov.w	r3, #0
    bffc:	e07f      	b.n	c0fe <TEE_IsAlgorithmSupported+0x5a0>
/home/qemu-sgx/devel/optee/optee_os/lib/libutee/tee_api_operations.c:2055
    bffe:	687a      	ldr	r2, [r7, #4]
    c000:	f04f 0345 	mov.w	r3, #69	; 0x45
    c004:	f2c6 0300 	movt	r3, #24576	; 0x6000
    c008:	429a      	cmp	r2, r3
    c00a:	d106      	bne.n	c01a <TEE_IsAlgorithmSupported+0x4bc>
/home/qemu-sgx/devel/optee/optee_os/lib/libutee/tee_api_operations.c:2055 (discriminator 1)
    c00c:	683b      	ldr	r3, [r7, #0]
    c00e:	f5b3 7f40 	cmp.w	r3, #768	; 0x300
    c012:	d102      	bne.n	c01a <TEE_IsAlgorithmSupported+0x4bc>
/home/qemu-sgx/devel/optee/optee_os/lib/libutee/tee_api_operations.c:2056
    c014:	f04f 0300 	mov.w	r3, #0
    c018:	e071      	b.n	c0fe <TEE_IsAlgorithmSupported+0x5a0>
/home/qemu-sgx/devel/optee/optee_os/lib/libutee/tee_api_operations.c:2059
    c01a:	687a      	ldr	r2, [r7, #4]
    c01c:	f04f 0345 	mov.w	r3, #69	; 0x45
    c020:	f2c8 0300 	movt	r3, #32768	; 0x8000
    c024:	429a      	cmp	r2, r3
    c026:	d106      	bne.n	c036 <TEE_IsAlgorithmSupported+0x4d8>
/home/qemu-sgx/devel/optee/optee_os/lib/libutee/tee_api_operations.c:2059 (discriminator 1)
    c028:	683b      	ldr	r3, [r7, #0]
    c02a:	f5b3 7f40 	cmp.w	r3, #768	; 0x300
    c02e:	d102      	bne.n	c036 <TEE_IsAlgorithmSupported+0x4d8>
/home/qemu-sgx/devel/optee/optee_os/lib/libutee/tee_api_operations.c:2060
    c030:	f04f 0300 	mov.w	r3, #0
    c034:	e063      	b.n	c0fe <TEE_IsAlgorithmSupported+0x5a0>
/home/qemu-sgx/devel/optee/optee_os/lib/libutee/tee_api_operations.c:2063
    c036:	f04f 030a 	mov.w	r3, #10
    c03a:	f6cf 73ff 	movt	r3, #65535	; 0xffff
    c03e:	e05e      	b.n	c0fe <TEE_IsAlgorithmSupported+0x5a0>
/home/qemu-sgx/devel/optee/optee_os/lib/libutee/tee_api_operations.c:1838
    c040:	bf00      	nop
    c042:	e052      	b.n	c0ea <TEE_IsAlgorithmSupported+0x58c>
/home/qemu-sgx/devel/optee/optee_os/lib/libutee/tee_api_operations.c:1842
    c044:	bf00      	nop
    c046:	e050      	b.n	c0ea <TEE_IsAlgorithmSupported+0x58c>
/home/qemu-sgx/devel/optee/optee_os/lib/libutee/tee_api_operations.c:1846
    c048:	bf00      	nop
    c04a:	e04e      	b.n	c0ea <TEE_IsAlgorithmSupported+0x58c>
/home/qemu-sgx/devel/optee/optee_os/lib/libutee/tee_api_operations.c:1850
    c04c:	bf00      	nop
    c04e:	e04c      	b.n	c0ea <TEE_IsAlgorithmSupported+0x58c>
/home/qemu-sgx/devel/optee/optee_os/lib/libutee/tee_api_operations.c:1854
    c050:	bf00      	nop
    c052:	e04a      	b.n	c0ea <TEE_IsAlgorithmSupported+0x58c>
/home/qemu-sgx/devel/optee/optee_os/lib/libutee/tee_api_operations.c:1859
    c054:	bf00      	nop
    c056:	e048      	b.n	c0ea <TEE_IsAlgorithmSupported+0x58c>
/home/qemu-sgx/devel/optee/optee_os/lib/libutee/tee_api_operations.c:1863
    c058:	bf00      	nop
    c05a:	e046      	b.n	c0ea <TEE_IsAlgorithmSupported+0x58c>
/home/qemu-sgx/devel/optee/optee_os/lib/libutee/tee_api_operations.c:1867
    c05c:	bf00      	nop
    c05e:	e044      	b.n	c0ea <TEE_IsAlgorithmSupported+0x58c>
/home/qemu-sgx/devel/optee/optee_os/lib/libutee/tee_api_operations.c:1871
    c060:	bf00      	nop
    c062:	e042      	b.n	c0ea <TEE_IsAlgorithmSupported+0x58c>
/home/qemu-sgx/devel/optee/optee_os/lib/libutee/tee_api_operations.c:1878
    c064:	bf00      	nop
    c066:	e040      	b.n	c0ea <TEE_IsAlgorithmSupported+0x58c>
/home/qemu-sgx/devel/optee/optee_os/lib/libutee/tee_api_operations.c:1883
    c068:	bf00      	nop
    c06a:	e03e      	b.n	c0ea <TEE_IsAlgorithmSupported+0x58c>
/home/qemu-sgx/devel/optee/optee_os/lib/libutee/tee_api_operations.c:1890
    c06c:	bf00      	nop
    c06e:	e03c      	b.n	c0ea <TEE_IsAlgorithmSupported+0x58c>
/home/qemu-sgx/devel/optee/optee_os/lib/libutee/tee_api_operations.c:1895
    c070:	bf00      	nop
    c072:	e03a      	b.n	c0ea <TEE_IsAlgorithmSupported+0x58c>
/home/qemu-sgx/devel/optee/optee_os/lib/libutee/tee_api_operations.c:1899
    c074:	bf00      	nop
    c076:	e038      	b.n	c0ea <TEE_IsAlgorithmSupported+0x58c>
/home/qemu-sgx/devel/optee/optee_os/lib/libutee/tee_api_operations.c:1903
    c078:	bf00      	nop
    c07a:	e036      	b.n	c0ea <TEE_IsAlgorithmSupported+0x58c>
/home/qemu-sgx/devel/optee/optee_os/lib/libutee/tee_api_operations.c:1907
    c07c:	bf00      	nop
    c07e:	e034      	b.n	c0ea <TEE_IsAlgorithmSupported+0x58c>
/home/qemu-sgx/devel/optee/optee_os/lib/libutee/tee_api_operations.c:1911
    c080:	bf00      	nop
    c082:	e032      	b.n	c0ea <TEE_IsAlgorithmSupported+0x58c>
/home/qemu-sgx/devel/optee/optee_os/lib/libutee/tee_api_operations.c:1915
    c084:	bf00      	nop
    c086:	e030      	b.n	c0ea <TEE_IsAlgorithmSupported+0x58c>
/home/qemu-sgx/devel/optee/optee_os/lib/libutee/tee_api_operations.c:1919
    c088:	bf00      	nop
    c08a:	e02e      	b.n	c0ea <TEE_IsAlgorithmSupported+0x58c>
/home/qemu-sgx/devel/optee/optee_os/lib/libutee/tee_api_operations.c:1924
    c08c:	bf00      	nop
    c08e:	e02c      	b.n	c0ea <TEE_IsAlgorithmSupported+0x58c>
/home/qemu-sgx/devel/optee/optee_os/lib/libutee/tee_api_operations.c:1928
    c090:	bf00      	nop
    c092:	e02a      	b.n	c0ea <TEE_IsAlgorithmSupported+0x58c>
/home/qemu-sgx/devel/optee/optee_os/lib/libutee/tee_api_operations.c:1932
    c094:	bf00      	nop
    c096:	e028      	b.n	c0ea <TEE_IsAlgorithmSupported+0x58c>
/home/qemu-sgx/devel/optee/optee_os/lib/libutee/tee_api_operations.c:1936
    c098:	bf00      	nop
    c09a:	e026      	b.n	c0ea <TEE_IsAlgorithmSupported+0x58c>
/home/qemu-sgx/devel/optee/optee_os/lib/libutee/tee_api_operations.c:1940
    c09c:	bf00      	nop
    c09e:	e024      	b.n	c0ea <TEE_IsAlgorithmSupported+0x58c>
/home/qemu-sgx/devel/optee/optee_os/lib/libutee/tee_api_operations.c:1944
    c0a0:	bf00      	nop
    c0a2:	e022      	b.n	c0ea <TEE_IsAlgorithmSupported+0x58c>
/home/qemu-sgx/devel/optee/optee_os/lib/libutee/tee_api_operations.c:1948
    c0a4:	bf00      	nop
    c0a6:	e020      	b.n	c0ea <TEE_IsAlgorithmSupported+0x58c>
/home/qemu-sgx/devel/optee/optee_os/lib/libutee/tee_api_operations.c:1953
    c0a8:	bf00      	nop
    c0aa:	e01e      	b.n	c0ea <TEE_IsAlgorithmSupported+0x58c>
/home/qemu-sgx/devel/optee/optee_os/lib/libutee/tee_api_operations.c:1958
    c0ac:	bf00      	nop
    c0ae:	e01c      	b.n	c0ea <TEE_IsAlgorithmSupported+0x58c>
/home/qemu-sgx/devel/optee/optee_os/lib/libutee/tee_api_operations.c:1962
    c0b0:	bf00      	nop
    c0b2:	e01a      	b.n	c0ea <TEE_IsAlgorithmSupported+0x58c>
/home/qemu-sgx/devel/optee/optee_os/lib/libutee/tee_api_operations.c:1966
    c0b4:	bf00      	nop
    c0b6:	e018      	b.n	c0ea <TEE_IsAlgorithmSupported+0x58c>
/home/qemu-sgx/devel/optee/optee_os/lib/libutee/tee_api_operations.c:1972
    c0b8:	bf00      	nop
    c0ba:	e016      	b.n	c0ea <TEE_IsAlgorithmSupported+0x58c>
/home/qemu-sgx/devel/optee/optee_os/lib/libutee/tee_api_operations.c:1978
    c0bc:	bf00      	nop
    c0be:	e014      	b.n	c0ea <TEE_IsAlgorithmSupported+0x58c>
/home/qemu-sgx/devel/optee/optee_os/lib/libutee/tee_api_operations.c:1982
    c0c0:	bf00      	nop
    c0c2:	e012      	b.n	c0ea <TEE_IsAlgorithmSupported+0x58c>
/home/qemu-sgx/devel/optee/optee_os/lib/libutee/tee_api_operations.c:1988
    c0c4:	bf00      	nop
    c0c6:	e010      	b.n	c0ea <TEE_IsAlgorithmSupported+0x58c>
/home/qemu-sgx/devel/optee/optee_os/lib/libutee/tee_api_operations.c:1994
    c0c8:	bf00      	nop
    c0ca:	e00e      	b.n	c0ea <TEE_IsAlgorithmSupported+0x58c>
/home/qemu-sgx/devel/optee/optee_os/lib/libutee/tee_api_operations.c:2000
    c0cc:	bf00      	nop
    c0ce:	e00c      	b.n	c0ea <TEE_IsAlgorithmSupported+0x58c>
/home/qemu-sgx/devel/optee/optee_os/lib/libutee/tee_api_operations.c:2006
    c0d0:	bf00      	nop
    c0d2:	e00a      	b.n	c0ea <TEE_IsAlgorithmSupported+0x58c>
/home/qemu-sgx/devel/optee/optee_os/lib/libutee/tee_api_operations.c:2010
    c0d4:	bf00      	nop
    c0d6:	e008      	b.n	c0ea <TEE_IsAlgorithmSupported+0x58c>
/home/qemu-sgx/devel/optee/optee_os/lib/libutee/tee_api_operations.c:2013
    c0d8:	bf00      	nop
    c0da:	e006      	b.n	c0ea <TEE_IsAlgorithmSupported+0x58c>
/home/qemu-sgx/devel/optee/optee_os/lib/libutee/tee_api_operations.c:2018
    c0dc:	bf00      	nop
    c0de:	e004      	b.n	c0ea <TEE_IsAlgorithmSupported+0x58c>
/home/qemu-sgx/devel/optee/optee_os/lib/libutee/tee_api_operations.c:2022
    c0e0:	bf00      	nop
    c0e2:	e002      	b.n	c0ea <TEE_IsAlgorithmSupported+0x58c>
/home/qemu-sgx/devel/optee/optee_os/lib/libutee/tee_api_operations.c:2026
    c0e4:	bf00      	nop
    c0e6:	e000      	b.n	c0ea <TEE_IsAlgorithmSupported+0x58c>
/home/qemu-sgx/devel/optee/optee_os/lib/libutee/tee_api_operations.c:2031
    c0e8:	bf00      	nop
/home/qemu-sgx/devel/optee/optee_os/lib/libutee/tee_api_operations.c:2065
    c0ea:	683b      	ldr	r3, [r7, #0]
    c0ec:	2b00      	cmp	r3, #0
    c0ee:	d102      	bne.n	c0f6 <TEE_IsAlgorithmSupported+0x598>
/home/qemu-sgx/devel/optee/optee_os/lib/libutee/tee_api_operations.c:2066
    c0f0:	f04f 0300 	mov.w	r3, #0
    c0f4:	e003      	b.n	c0fe <TEE_IsAlgorithmSupported+0x5a0>
/home/qemu-sgx/devel/optee/optee_os/lib/libutee/tee_api_operations.c:2067
    c0f6:	f04f 030a 	mov.w	r3, #10
    c0fa:	f6cf 73ff 	movt	r3, #65535	; 0xffff
/home/qemu-sgx/devel/optee/optee_os/lib/libutee/tee_api_operations.c:2068
    c0fe:	4618      	mov	r0, r3
    c100:	f107 070c 	add.w	r7, r7, #12
    c104:	46bd      	mov	sp, r7
    c106:	f85d 7b04 	ldr.w	r7, [sp], #4
    c10a:	4770      	bx	lr

0000c10c <__utee_from_attr>:
__utee_from_attr():
/home/qemu-sgx/devel/optee/optee_os/lib/libutee/tee_api_objects.c:16
    c10c:	f84d 4d1c 	str.w	r4, [sp, #-28]!
    c110:	e9cd 5701 	strd	r5, r7, [sp, #4]
    c114:	e9cd 8903 	strd	r8, r9, [sp, #12]
    c118:	e9cd ab05 	strd	sl, fp, [sp, #20]
    c11c:	b089      	sub	sp, #36	; 0x24
    c11e:	af00      	add	r7, sp, #0
    c120:	6178      	str	r0, [r7, #20]
    c122:	6139      	str	r1, [r7, #16]
    c124:	60fa      	str	r2, [r7, #12]
/home/qemu-sgx/devel/optee/optee_os/lib/libutee/tee_api_objects.c:19
    c126:	f04f 0300 	mov.w	r3, #0
    c12a:	61fb      	str	r3, [r7, #28]
    c12c:	e099      	b.n	c262 <__utee_from_attr+0x156>
/home/qemu-sgx/devel/optee/optee_os/lib/libutee/tee_api_objects.c:20
    c12e:	69fa      	ldr	r2, [r7, #28]
    c130:	4613      	mov	r3, r2
    c132:	ea4f 0343 	mov.w	r3, r3, lsl #1
    c136:	4413      	add	r3, r2
    c138:	ea4f 0383 	mov.w	r3, r3, lsl #2
    c13c:	461a      	mov	r2, r3
    c13e:	693b      	ldr	r3, [r7, #16]
    c140:	eb03 0102 	add.w	r1, r3, r2
    c144:	69fa      	ldr	r2, [r7, #28]
    c146:	4613      	mov	r3, r2
    c148:	ea4f 0343 	mov.w	r3, r3, lsl #1
    c14c:	4413      	add	r3, r2
    c14e:	ea4f 03c3 	mov.w	r3, r3, lsl #3
    c152:	461a      	mov	r2, r3
    c154:	697b      	ldr	r3, [r7, #20]
    c156:	4413      	add	r3, r2
    c158:	680a      	ldr	r2, [r1, #0]
    c15a:	611a      	str	r2, [r3, #16]
/home/qemu-sgx/devel/optee/optee_os/lib/libutee/tee_api_objects.c:21
    c15c:	69fa      	ldr	r2, [r7, #28]
    c15e:	4613      	mov	r3, r2
    c160:	ea4f 0343 	mov.w	r3, r3, lsl #1
    c164:	4413      	add	r3, r2
    c166:	ea4f 0383 	mov.w	r3, r3, lsl #2
    c16a:	461a      	mov	r2, r3
    c16c:	693b      	ldr	r3, [r7, #16]
    c16e:	4413      	add	r3, r2
    c170:	681b      	ldr	r3, [r3, #0]
    c172:	f003 5300 	and.w	r3, r3, #536870912	; 0x20000000
    c176:	2b00      	cmp	r3, #0
    c178:	d036      	beq.n	c1e8 <__utee_from_attr+0xdc>
/home/qemu-sgx/devel/optee/optee_os/lib/libutee/tee_api_objects.c:22
    c17a:	69fa      	ldr	r2, [r7, #28]
    c17c:	4613      	mov	r3, r2
    c17e:	ea4f 0343 	mov.w	r3, r3, lsl #1
    c182:	4413      	add	r3, r2
    c184:	ea4f 0383 	mov.w	r3, r3, lsl #2
    c188:	461a      	mov	r2, r3
    c18a:	693b      	ldr	r3, [r7, #16]
    c18c:	4413      	add	r3, r2
    c18e:	6859      	ldr	r1, [r3, #4]
    c190:	69fa      	ldr	r2, [r7, #28]
    c192:	4613      	mov	r3, r2
    c194:	ea4f 0343 	mov.w	r3, r3, lsl #1
    c198:	4413      	add	r3, r2
    c19a:	ea4f 03c3 	mov.w	r3, r3, lsl #3
    c19e:	461a      	mov	r2, r3
    c1a0:	697b      	ldr	r3, [r7, #20]
    c1a2:	4413      	add	r3, r2
    c1a4:	f04f 0200 	mov.w	r2, #0
    c1a8:	460c      	mov	r4, r1
    c1aa:	4615      	mov	r5, r2
    c1ac:	e9c3 4500 	strd	r4, r5, [r3]
/home/qemu-sgx/devel/optee/optee_os/lib/libutee/tee_api_objects.c:23
    c1b0:	69fa      	ldr	r2, [r7, #28]
    c1b2:	4613      	mov	r3, r2
    c1b4:	ea4f 0343 	mov.w	r3, r3, lsl #1
    c1b8:	4413      	add	r3, r2
    c1ba:	ea4f 0383 	mov.w	r3, r3, lsl #2
    c1be:	461a      	mov	r2, r3
    c1c0:	693b      	ldr	r3, [r7, #16]
    c1c2:	4413      	add	r3, r2
    c1c4:	6899      	ldr	r1, [r3, #8]
    c1c6:	69fa      	ldr	r2, [r7, #28]
    c1c8:	4613      	mov	r3, r2
    c1ca:	ea4f 0343 	mov.w	r3, r3, lsl #1
    c1ce:	4413      	add	r3, r2
    c1d0:	ea4f 03c3 	mov.w	r3, r3, lsl #3
    c1d4:	461a      	mov	r2, r3
    c1d6:	697b      	ldr	r3, [r7, #20]
    c1d8:	4413      	add	r3, r2
    c1da:	f04f 0200 	mov.w	r2, #0
    c1de:	4688      	mov	r8, r1
    c1e0:	4691      	mov	r9, r2
    c1e2:	e9c3 8902 	strd	r8, r9, [r3, #8]
    c1e6:	e038      	b.n	c25a <__utee_from_attr+0x14e>
/home/qemu-sgx/devel/optee/optee_os/lib/libutee/tee_api_objects.c:25
    c1e8:	69fa      	ldr	r2, [r7, #28]
    c1ea:	4613      	mov	r3, r2
    c1ec:	ea4f 0343 	mov.w	r3, r3, lsl #1
    c1f0:	4413      	add	r3, r2
    c1f2:	ea4f 0383 	mov.w	r3, r3, lsl #2
    c1f6:	461a      	mov	r2, r3
    c1f8:	693b      	ldr	r3, [r7, #16]
    c1fa:	4413      	add	r3, r2
    c1fc:	685b      	ldr	r3, [r3, #4]
    c1fe:	4619      	mov	r1, r3
    c200:	69fa      	ldr	r2, [r7, #28]
    c202:	4613      	mov	r3, r2
    c204:	ea4f 0343 	mov.w	r3, r3, lsl #1
    c208:	4413      	add	r3, r2
    c20a:	ea4f 03c3 	mov.w	r3, r3, lsl #3
    c20e:	461a      	mov	r2, r3
    c210:	697b      	ldr	r3, [r7, #20]
    c212:	4413      	add	r3, r2
    c214:	f04f 0200 	mov.w	r2, #0
    c218:	468a      	mov	sl, r1
    c21a:	4693      	mov	fp, r2
    c21c:	e9c3 ab00 	strd	sl, fp, [r3]
/home/qemu-sgx/devel/optee/optee_os/lib/libutee/tee_api_objects.c:26
    c220:	69fa      	ldr	r2, [r7, #28]
    c222:	4613      	mov	r3, r2
    c224:	ea4f 0343 	mov.w	r3, r3, lsl #1
    c228:	4413      	add	r3, r2
    c22a:	ea4f 0383 	mov.w	r3, r3, lsl #2
    c22e:	461a      	mov	r2, r3
    c230:	693b      	ldr	r3, [r7, #16]
    c232:	4413      	add	r3, r2
    c234:	6899      	ldr	r1, [r3, #8]
    c236:	69fa      	ldr	r2, [r7, #28]
    c238:	4613      	mov	r3, r2
    c23a:	ea4f 0343 	mov.w	r3, r3, lsl #1
    c23e:	4413      	add	r3, r2
    c240:	ea4f 03c3 	mov.w	r3, r3, lsl #3
    c244:	461a      	mov	r2, r3
    c246:	697b      	ldr	r3, [r7, #20]
    c248:	4413      	add	r3, r2
    c24a:	f04f 0200 	mov.w	r2, #0
    c24e:	6039      	str	r1, [r7, #0]
    c250:	607a      	str	r2, [r7, #4]
    c252:	e9d7 1200 	ldrd	r1, r2, [r7]
    c256:	e9c3 1202 	strd	r1, r2, [r3, #8]
/home/qemu-sgx/devel/optee/optee_os/lib/libutee/tee_api_objects.c:19 (discriminator 2)
    c25a:	69fb      	ldr	r3, [r7, #28]
    c25c:	f103 0301 	add.w	r3, r3, #1
    c260:	61fb      	str	r3, [r7, #28]
/home/qemu-sgx/devel/optee/optee_os/lib/libutee/tee_api_objects.c:19 (discriminator 1)
    c262:	69fa      	ldr	r2, [r7, #28]
    c264:	68fb      	ldr	r3, [r7, #12]
    c266:	429a      	cmp	r2, r3
    c268:	f4ff af61 	bcc.w	c12e <__utee_from_attr+0x22>
/home/qemu-sgx/devel/optee/optee_os/lib/libutee/tee_api_objects.c:29
    c26c:	bf00      	nop
    c26e:	bf00      	nop
    c270:	f107 0724 	add.w	r7, r7, #36	; 0x24
    c274:	46bd      	mov	sp, r7
    c276:	e9dd 4500 	ldrd	r4, r5, [sp]
    c27a:	e9dd 7802 	ldrd	r7, r8, [sp, #8]
    c27e:	e9dd 9a04 	ldrd	r9, sl, [sp, #16]
    c282:	b006      	add	sp, #24
    c284:	f85d bb04 	ldr.w	fp, [sp], #4
    c288:	4770      	bx	lr

0000c28a <TEE_GetObjectInfo>:
TEE_GetObjectInfo():
/home/qemu-sgx/devel/optee/optee_os/lib/libutee/tee_api_objects.c:39
    c28a:	e96d 7e02 	strd	r7, lr, [sp, #-8]!
    c28e:	b084      	sub	sp, #16
    c290:	af00      	add	r7, sp, #0
    c292:	6078      	str	r0, [r7, #4]
    c294:	6039      	str	r1, [r7, #0]
/home/qemu-sgx/devel/optee/optee_os/lib/libutee/tee_api_objects.c:42
    c296:	687b      	ldr	r3, [r7, #4]
    c298:	6839      	ldr	r1, [r7, #0]
    c29a:	4618      	mov	r0, r3
    c29c:	f7f7 e806 	blx	32ac <_utee_cryp_obj_get_info@plt>
    c2a0:	60f8      	str	r0, [r7, #12]
/home/qemu-sgx/devel/optee/optee_os/lib/libutee/tee_api_objects.c:44
    c2a2:	68fb      	ldr	r3, [r7, #12]
    c2a4:	2b00      	cmp	r3, #0
    c2a6:	d002      	beq.n	c2ae <TEE_GetObjectInfo+0x24>
/home/qemu-sgx/devel/optee/optee_os/lib/libutee/tee_api_objects.c:45
    c2a8:	68f8      	ldr	r0, [r7, #12]
    c2aa:	f7f6 eeda 	blx	3060 <TEE_Panic@plt>
/home/qemu-sgx/devel/optee/optee_os/lib/libutee/tee_api_objects.c:47
    c2ae:	683b      	ldr	r3, [r7, #0]
    c2b0:	681a      	ldr	r2, [r3, #0]
    c2b2:	f04f 03be 	mov.w	r3, #190	; 0xbe
    c2b6:	f2ca 0300 	movt	r3, #40960	; 0xa000
    c2ba:	429a      	cmp	r2, r3
    c2bc:	d117      	bne.n	c2ee <TEE_GetObjectInfo+0x64>
/home/qemu-sgx/devel/optee/optee_os/lib/libutee/tee_api_objects.c:48
    c2be:	683b      	ldr	r3, [r7, #0]
    c2c0:	f04f 0200 	mov.w	r2, #0
    c2c4:	605a      	str	r2, [r3, #4]
/home/qemu-sgx/devel/optee/optee_os/lib/libutee/tee_api_objects.c:49
    c2c6:	683b      	ldr	r3, [r7, #0]
    c2c8:	f04f 0200 	mov.w	r2, #0
    c2cc:	609a      	str	r2, [r3, #8]
/home/qemu-sgx/devel/optee/optee_os/lib/libutee/tee_api_objects.c:50
    c2ce:	683b      	ldr	r3, [r7, #0]
    c2d0:	f04f 0200 	mov.w	r2, #0
    c2d4:	60da      	str	r2, [r3, #12]
/home/qemu-sgx/devel/optee/optee_os/lib/libutee/tee_api_objects.c:51
    c2d6:	683b      	ldr	r3, [r7, #0]
    c2d8:	f04f 0200 	mov.w	r2, #0
    c2dc:	611a      	str	r2, [r3, #16]
/home/qemu-sgx/devel/optee/optee_os/lib/libutee/tee_api_objects.c:52
    c2de:	683b      	ldr	r3, [r7, #0]
    c2e0:	f04f 0200 	mov.w	r2, #0
    c2e4:	615a      	str	r2, [r3, #20]
/home/qemu-sgx/devel/optee/optee_os/lib/libutee/tee_api_objects.c:53
    c2e6:	683b      	ldr	r3, [r7, #0]
    c2e8:	f04f 0200 	mov.w	r2, #0
    c2ec:	619a      	str	r2, [r3, #24]
/home/qemu-sgx/devel/optee/optee_os/lib/libutee/tee_api_objects.c:55
    c2ee:	bf00      	nop
    c2f0:	f107 0710 	add.w	r7, r7, #16
    c2f4:	46bd      	mov	sp, r7
    c2f6:	bd80      	pop	{r7, pc}

0000c2f8 <TEE_GetObjectInfo1>:
TEE_GetObjectInfo1():
/home/qemu-sgx/devel/optee/optee_os/lib/libutee/tee_api_objects.c:58
    c2f8:	e96d 7e02 	strd	r7, lr, [sp, #-8]!
    c2fc:	b084      	sub	sp, #16
    c2fe:	af00      	add	r7, sp, #0
    c300:	6078      	str	r0, [r7, #4]
    c302:	6039      	str	r1, [r7, #0]
/home/qemu-sgx/devel/optee/optee_os/lib/libutee/tee_api_objects.c:61
    c304:	687b      	ldr	r3, [r7, #4]
    c306:	6839      	ldr	r1, [r7, #0]
    c308:	4618      	mov	r0, r3
    c30a:	f7f6 efd0 	blx	32ac <_utee_cryp_obj_get_info@plt>
    c30e:	60f8      	str	r0, [r7, #12]
/home/qemu-sgx/devel/optee/optee_os/lib/libutee/tee_api_objects.c:63
    c310:	68fb      	ldr	r3, [r7, #12]
    c312:	2b00      	cmp	r3, #0
    c314:	d010      	beq.n	c338 <TEE_GetObjectInfo1+0x40>
/home/qemu-sgx/devel/optee/optee_os/lib/libutee/tee_api_objects.c:63 (discriminator 1)
    c316:	68fa      	ldr	r2, [r7, #12]
    c318:	f04f 0301 	mov.w	r3, #1
    c31c:	f2cf 0310 	movt	r3, #61456	; 0xf010
    c320:	429a      	cmp	r2, r3
    c322:	d009      	beq.n	c338 <TEE_GetObjectInfo1+0x40>
/home/qemu-sgx/devel/optee/optee_os/lib/libutee/tee_api_objects.c:64
    c324:	68fa      	ldr	r2, [r7, #12]
    c326:	f04f 0303 	mov.w	r3, #3
    c32a:	f2cf 0310 	movt	r3, #61456	; 0xf010
    c32e:	429a      	cmp	r2, r3
    c330:	d002      	beq.n	c338 <TEE_GetObjectInfo1+0x40>
/home/qemu-sgx/devel/optee/optee_os/lib/libutee/tee_api_objects.c:66
    c332:	68f8      	ldr	r0, [r7, #12]
    c334:	f7f6 ee94 	blx	3060 <TEE_Panic@plt>
/home/qemu-sgx/devel/optee/optee_os/lib/libutee/tee_api_objects.c:68
    c338:	68fb      	ldr	r3, [r7, #12]
/home/qemu-sgx/devel/optee/optee_os/lib/libutee/tee_api_objects.c:69
    c33a:	4618      	mov	r0, r3
    c33c:	f107 0710 	add.w	r7, r7, #16
    c340:	46bd      	mov	sp, r7
    c342:	bd80      	pop	{r7, pc}

0000c344 <TEE_RestrictObjectUsage>:
TEE_RestrictObjectUsage():
/home/qemu-sgx/devel/optee/optee_os/lib/libutee/tee_api_objects.c:78
    c344:	e96d 7e02 	strd	r7, lr, [sp, #-8]!
    c348:	b08a      	sub	sp, #40	; 0x28
    c34a:	af00      	add	r7, sp, #0
    c34c:	6078      	str	r0, [r7, #4]
    c34e:	6039      	str	r1, [r7, #0]
/home/qemu-sgx/devel/optee/optee_os/lib/libutee/tee_api_objects.c:82
    c350:	687b      	ldr	r3, [r7, #4]
    c352:	f107 0208 	add.w	r2, r7, #8
    c356:	4611      	mov	r1, r2
    c358:	4618      	mov	r0, r3
    c35a:	f7f6 efa8 	blx	32ac <_utee_cryp_obj_get_info@plt>
    c35e:	6278      	str	r0, [r7, #36]	; 0x24
/home/qemu-sgx/devel/optee/optee_os/lib/libutee/tee_api_objects.c:83
    c360:	68ba      	ldr	r2, [r7, #8]
    c362:	f04f 03be 	mov.w	r3, #190	; 0xbe
    c366:	f2ca 0300 	movt	r3, #40960	; 0xa000
    c36a:	429a      	cmp	r2, r3
    c36c:	d00b      	beq.n	c386 <TEE_RestrictObjectUsage+0x42>
/home/qemu-sgx/devel/optee/optee_os/lib/libutee/tee_api_objects.c:86
    c36e:	6839      	ldr	r1, [r7, #0]
    c370:	6878      	ldr	r0, [r7, #4]
    c372:	f7f6 ef72 	blx	3258 <TEE_RestrictObjectUsage1@plt>
    c376:	6278      	str	r0, [r7, #36]	; 0x24
/home/qemu-sgx/devel/optee/optee_os/lib/libutee/tee_api_objects.c:88
    c378:	6a7b      	ldr	r3, [r7, #36]	; 0x24
    c37a:	2b00      	cmp	r3, #0
    c37c:	d004      	beq.n	c388 <TEE_RestrictObjectUsage+0x44>
/home/qemu-sgx/devel/optee/optee_os/lib/libutee/tee_api_objects.c:89
    c37e:	6a78      	ldr	r0, [r7, #36]	; 0x24
    c380:	f7f6 ee6e 	blx	3060 <TEE_Panic@plt>
    c384:	e000      	b.n	c388 <TEE_RestrictObjectUsage+0x44>
/home/qemu-sgx/devel/optee/optee_os/lib/libutee/tee_api_objects.c:84
    c386:	bf00      	nop
/home/qemu-sgx/devel/optee/optee_os/lib/libutee/tee_api_objects.c:90
    c388:	f107 0728 	add.w	r7, r7, #40	; 0x28
    c38c:	46bd      	mov	sp, r7
    c38e:	bd80      	pop	{r7, pc}

0000c390 <TEE_RestrictObjectUsage1>:
TEE_RestrictObjectUsage1():
/home/qemu-sgx/devel/optee/optee_os/lib/libutee/tee_api_objects.c:93
    c390:	e96d 7e02 	strd	r7, lr, [sp, #-8]!
    c394:	b084      	sub	sp, #16
    c396:	af00      	add	r7, sp, #0
    c398:	6078      	str	r0, [r7, #4]
    c39a:	6039      	str	r1, [r7, #0]
/home/qemu-sgx/devel/optee/optee_os/lib/libutee/tee_api_objects.c:96
    c39c:	687b      	ldr	r3, [r7, #4]
    c39e:	6839      	ldr	r1, [r7, #0]
    c3a0:	4618      	mov	r0, r3
    c3a2:	f7f6 ee2e 	blx	3000 <_utee_cryp_obj_restrict_usage@plt>
    c3a6:	60f8      	str	r0, [r7, #12]
/home/qemu-sgx/devel/optee/optee_os/lib/libutee/tee_api_objects.c:99
    c3a8:	68fb      	ldr	r3, [r7, #12]
    c3aa:	2b00      	cmp	r3, #0
    c3ac:	d010      	beq.n	c3d0 <TEE_RestrictObjectUsage1+0x40>
/home/qemu-sgx/devel/optee/optee_os/lib/libutee/tee_api_objects.c:99 (discriminator 1)
    c3ae:	68fa      	ldr	r2, [r7, #12]
    c3b0:	f04f 0301 	mov.w	r3, #1
    c3b4:	f2cf 0310 	movt	r3, #61456	; 0xf010
    c3b8:	429a      	cmp	r2, r3
    c3ba:	d009      	beq.n	c3d0 <TEE_RestrictObjectUsage1+0x40>
/home/qemu-sgx/devel/optee/optee_os/lib/libutee/tee_api_objects.c:100
    c3bc:	68fa      	ldr	r2, [r7, #12]
    c3be:	f04f 0303 	mov.w	r3, #3
    c3c2:	f2cf 0310 	movt	r3, #61456	; 0xf010
    c3c6:	429a      	cmp	r2, r3
    c3c8:	d002      	beq.n	c3d0 <TEE_RestrictObjectUsage1+0x40>
/home/qemu-sgx/devel/optee/optee_os/lib/libutee/tee_api_objects.c:102
    c3ca:	68f8      	ldr	r0, [r7, #12]
    c3cc:	f7f6 ee48 	blx	3060 <TEE_Panic@plt>
/home/qemu-sgx/devel/optee/optee_os/lib/libutee/tee_api_objects.c:104
    c3d0:	68fb      	ldr	r3, [r7, #12]
/home/qemu-sgx/devel/optee/optee_os/lib/libutee/tee_api_objects.c:105
    c3d2:	4618      	mov	r0, r3
    c3d4:	f107 0710 	add.w	r7, r7, #16
    c3d8:	46bd      	mov	sp, r7
    c3da:	bd80      	pop	{r7, pc}

0000c3dc <TEE_GetObjectBufferAttribute>:
TEE_GetObjectBufferAttribute():
/home/qemu-sgx/devel/optee/optee_os/lib/libutee/tee_api_objects.c:110
    c3dc:	e96d 4504 	strd	r4, r5, [sp, #-16]!
    c3e0:	e9cd 7e02 	strd	r7, lr, [sp, #8]
    c3e4:	b08e      	sub	sp, #56	; 0x38
    c3e6:	af00      	add	r7, sp, #0
    c3e8:	60f8      	str	r0, [r7, #12]
    c3ea:	60b9      	str	r1, [r7, #8]
    c3ec:	607a      	str	r2, [r7, #4]
    c3ee:	603b      	str	r3, [r7, #0]
/home/qemu-sgx/devel/optee/optee_os/lib/libutee/tee_api_objects.c:115
    c3f0:	f04f 0104 	mov.w	r1, #4
    c3f4:	6838      	ldr	r0, [r7, #0]
    c3f6:	f7f6 edd4 	blx	2fa0 <__utee_check_inout_annotation@plt>
/home/qemu-sgx/devel/optee/optee_os/lib/libutee/tee_api_objects.c:117
    c3fa:	68fb      	ldr	r3, [r7, #12]
    c3fc:	f107 0218 	add.w	r2, r7, #24
    c400:	4611      	mov	r1, r2
    c402:	4618      	mov	r0, r3
    c404:	f7f6 ef52 	blx	32ac <_utee_cryp_obj_get_info@plt>
    c408:	6378      	str	r0, [r7, #52]	; 0x34
/home/qemu-sgx/devel/optee/optee_os/lib/libutee/tee_api_objects.c:118
    c40a:	6b7b      	ldr	r3, [r7, #52]	; 0x34
    c40c:	2b00      	cmp	r3, #0
    c40e:	d11f      	bne.n	c450 <TEE_GetObjectBufferAttribute+0x74>
/home/qemu-sgx/devel/optee/optee_os/lib/libutee/tee_api_objects.c:122
    c410:	68bb      	ldr	r3, [r7, #8]
    c412:	f003 5300 	and.w	r3, r3, #536870912	; 0x20000000
    c416:	2b00      	cmp	r3, #0
    c418:	d005      	beq.n	c426 <TEE_GetObjectBufferAttribute+0x4a>
/home/qemu-sgx/devel/optee/optee_os/lib/libutee/tee_api_objects.c:123
    c41a:	f04f 0306 	mov.w	r3, #6
    c41e:	f6cf 73ff 	movt	r3, #65535	; 0xffff
    c422:	637b      	str	r3, [r7, #52]	; 0x34
/home/qemu-sgx/devel/optee/optee_os/lib/libutee/tee_api_objects.c:124
    c424:	e015      	b.n	c452 <TEE_GetObjectBufferAttribute+0x76>
/home/qemu-sgx/devel/optee/optee_os/lib/libutee/tee_api_objects.c:127
    c426:	683b      	ldr	r3, [r7, #0]
    c428:	681b      	ldr	r3, [r3, #0]
    c42a:	f04f 0200 	mov.w	r2, #0
    c42e:	461c      	mov	r4, r3
    c430:	4615      	mov	r5, r2
    c432:	e9c7 4504 	strd	r4, r5, [r7, #16]
/home/qemu-sgx/devel/optee/optee_os/lib/libutee/tee_api_objects.c:128
    c436:	68f8      	ldr	r0, [r7, #12]
    c438:	f107 0310 	add.w	r3, r7, #16
    c43c:	687a      	ldr	r2, [r7, #4]
    c43e:	68b9      	ldr	r1, [r7, #8]
    c440:	f7f6 ef4c 	blx	32dc <_utee_cryp_obj_get_attr@plt>
    c444:	6378      	str	r0, [r7, #52]	; 0x34
/home/qemu-sgx/devel/optee/optee_os/lib/libutee/tee_api_objects.c:130
    c446:	e9d7 2304 	ldrd	r2, r3, [r7, #16]
    c44a:	683b      	ldr	r3, [r7, #0]
    c44c:	601a      	str	r2, [r3, #0]
    c44e:	e000      	b.n	c452 <TEE_GetObjectBufferAttribute+0x76>
/home/qemu-sgx/devel/optee/optee_os/lib/libutee/tee_api_objects.c:119
    c450:	bf00      	nop
/home/qemu-sgx/devel/optee/optee_os/lib/libutee/tee_api_objects.c:133
    c452:	6b7b      	ldr	r3, [r7, #52]	; 0x34
    c454:	2b00      	cmp	r3, #0
    c456:	d01e      	beq.n	c496 <TEE_GetObjectBufferAttribute+0xba>
/home/qemu-sgx/devel/optee/optee_os/lib/libutee/tee_api_objects.c:133 (discriminator 1)
    c458:	6b7a      	ldr	r2, [r7, #52]	; 0x34
    c45a:	f04f 0308 	mov.w	r3, #8
    c45e:	f6cf 73ff 	movt	r3, #65535	; 0xffff
    c462:	429a      	cmp	r2, r3
    c464:	d017      	beq.n	c496 <TEE_GetObjectBufferAttribute+0xba>
/home/qemu-sgx/devel/optee/optee_os/lib/libutee/tee_api_objects.c:134
    c466:	6b7a      	ldr	r2, [r7, #52]	; 0x34
    c468:	f04f 0310 	mov.w	r3, #16
    c46c:	f6cf 73ff 	movt	r3, #65535	; 0xffff
    c470:	429a      	cmp	r2, r3
    c472:	d010      	beq.n	c496 <TEE_GetObjectBufferAttribute+0xba>
/home/qemu-sgx/devel/optee/optee_os/lib/libutee/tee_api_objects.c:135
    c474:	6b7a      	ldr	r2, [r7, #52]	; 0x34
    c476:	f04f 0301 	mov.w	r3, #1
    c47a:	f2cf 0310 	movt	r3, #61456	; 0xf010
    c47e:	429a      	cmp	r2, r3
    c480:	d009      	beq.n	c496 <TEE_GetObjectBufferAttribute+0xba>
/home/qemu-sgx/devel/optee/optee_os/lib/libutee/tee_api_objects.c:136
    c482:	6b7a      	ldr	r2, [r7, #52]	; 0x34
    c484:	f04f 0303 	mov.w	r3, #3
    c488:	f2cf 0310 	movt	r3, #61456	; 0xf010
    c48c:	429a      	cmp	r2, r3
    c48e:	d002      	beq.n	c496 <TEE_GetObjectBufferAttribute+0xba>
/home/qemu-sgx/devel/optee/optee_os/lib/libutee/tee_api_objects.c:138
    c490:	6b78      	ldr	r0, [r7, #52]	; 0x34
    c492:	f7f6 ede6 	blx	3060 <TEE_Panic@plt>
/home/qemu-sgx/devel/optee/optee_os/lib/libutee/tee_api_objects.c:140
    c496:	6b7b      	ldr	r3, [r7, #52]	; 0x34
/home/qemu-sgx/devel/optee/optee_os/lib/libutee/tee_api_objects.c:141
    c498:	4618      	mov	r0, r3
    c49a:	f107 0738 	add.w	r7, r7, #56	; 0x38
    c49e:	46bd      	mov	sp, r7
    c4a0:	e9dd 4500 	ldrd	r4, r5, [sp]
    c4a4:	b002      	add	sp, #8
    c4a6:	bd80      	pop	{r7, pc}

0000c4a8 <TEE_GetObjectValueAttribute>:
TEE_GetObjectValueAttribute():
/home/qemu-sgx/devel/optee/optee_os/lib/libutee/tee_api_objects.c:146
    c4a8:	e96d 7e02 	strd	r7, lr, [sp, #-8]!
    c4ac:	b090      	sub	sp, #64	; 0x40
    c4ae:	af00      	add	r7, sp, #0
    c4b0:	60f8      	str	r0, [r7, #12]
    c4b2:	60b9      	str	r1, [r7, #8]
    c4b4:	607a      	str	r2, [r7, #4]
    c4b6:	603b      	str	r3, [r7, #0]
/home/qemu-sgx/devel/optee/optee_os/lib/libutee/tee_api_objects.c:150
    c4b8:	f04f 0208 	mov.w	r2, #8
    c4bc:	f04f 0300 	mov.w	r3, #0
    c4c0:	e9c7 2304 	strd	r2, r3, [r7, #16]
/home/qemu-sgx/devel/optee/optee_os/lib/libutee/tee_api_objects.c:152
    c4c4:	687b      	ldr	r3, [r7, #4]
    c4c6:	2b00      	cmp	r3, #0
    c4c8:	d004      	beq.n	c4d4 <TEE_GetObjectValueAttribute+0x2c>
/home/qemu-sgx/devel/optee/optee_os/lib/libutee/tee_api_objects.c:153
    c4ca:	f04f 0104 	mov.w	r1, #4
    c4ce:	6878      	ldr	r0, [r7, #4]
    c4d0:	f7f6 ee1a 	blx	3108 <__utee_check_out_annotation@plt>
/home/qemu-sgx/devel/optee/optee_os/lib/libutee/tee_api_objects.c:154
    c4d4:	683b      	ldr	r3, [r7, #0]
    c4d6:	2b00      	cmp	r3, #0
    c4d8:	d004      	beq.n	c4e4 <TEE_GetObjectValueAttribute+0x3c>
/home/qemu-sgx/devel/optee/optee_os/lib/libutee/tee_api_objects.c:155
    c4da:	f04f 0104 	mov.w	r1, #4
    c4de:	6838      	ldr	r0, [r7, #0]
    c4e0:	f7f6 ee12 	blx	3108 <__utee_check_out_annotation@plt>
/home/qemu-sgx/devel/optee/optee_os/lib/libutee/tee_api_objects.c:157
    c4e4:	68fb      	ldr	r3, [r7, #12]
    c4e6:	f107 0220 	add.w	r2, r7, #32
    c4ea:	4611      	mov	r1, r2
    c4ec:	4618      	mov	r0, r3
    c4ee:	f7f6 eede 	blx	32ac <_utee_cryp_obj_get_info@plt>
    c4f2:	63f8      	str	r0, [r7, #60]	; 0x3c
/home/qemu-sgx/devel/optee/optee_os/lib/libutee/tee_api_objects.c:158
    c4f4:	6bfb      	ldr	r3, [r7, #60]	; 0x3c
    c4f6:	2b00      	cmp	r3, #0
    c4f8:	d114      	bne.n	c524 <TEE_GetObjectValueAttribute+0x7c>
/home/qemu-sgx/devel/optee/optee_os/lib/libutee/tee_api_objects.c:162
    c4fa:	68bb      	ldr	r3, [r7, #8]
    c4fc:	f003 5300 	and.w	r3, r3, #536870912	; 0x20000000
    c500:	2b00      	cmp	r3, #0
    c502:	d105      	bne.n	c510 <TEE_GetObjectValueAttribute+0x68>
/home/qemu-sgx/devel/optee/optee_os/lib/libutee/tee_api_objects.c:163
    c504:	f04f 0306 	mov.w	r3, #6
    c508:	f6cf 73ff 	movt	r3, #65535	; 0xffff
    c50c:	63fb      	str	r3, [r7, #60]	; 0x3c
/home/qemu-sgx/devel/optee/optee_os/lib/libutee/tee_api_objects.c:164
    c50e:	e00a      	b.n	c526 <TEE_GetObjectValueAttribute+0x7e>
/home/qemu-sgx/devel/optee/optee_os/lib/libutee/tee_api_objects.c:167
    c510:	68f8      	ldr	r0, [r7, #12]
    c512:	f107 0310 	add.w	r3, r7, #16
    c516:	f107 0218 	add.w	r2, r7, #24
    c51a:	68b9      	ldr	r1, [r7, #8]
    c51c:	f7f6 eede 	blx	32dc <_utee_cryp_obj_get_attr@plt>
    c520:	63f8      	str	r0, [r7, #60]	; 0x3c
    c522:	e000      	b.n	c526 <TEE_GetObjectValueAttribute+0x7e>
/home/qemu-sgx/devel/optee/optee_os/lib/libutee/tee_api_objects.c:159
    c524:	bf00      	nop
/home/qemu-sgx/devel/optee/optee_os/lib/libutee/tee_api_objects.c:171
    c526:	6bfb      	ldr	r3, [r7, #60]	; 0x3c
    c528:	2b00      	cmp	r3, #0
    c52a:	d017      	beq.n	c55c <TEE_GetObjectValueAttribute+0xb4>
/home/qemu-sgx/devel/optee/optee_os/lib/libutee/tee_api_objects.c:171 (discriminator 1)
    c52c:	6bfa      	ldr	r2, [r7, #60]	; 0x3c
    c52e:	f04f 0308 	mov.w	r3, #8
    c532:	f6cf 73ff 	movt	r3, #65535	; 0xffff
    c536:	429a      	cmp	r2, r3
    c538:	d010      	beq.n	c55c <TEE_GetObjectValueAttribute+0xb4>
/home/qemu-sgx/devel/optee/optee_os/lib/libutee/tee_api_objects.c:172
    c53a:	6bfa      	ldr	r2, [r7, #60]	; 0x3c
    c53c:	f04f 0301 	mov.w	r3, #1
    c540:	f2cf 0310 	movt	r3, #61456	; 0xf010
    c544:	429a      	cmp	r2, r3
    c546:	d009      	beq.n	c55c <TEE_GetObjectValueAttribute+0xb4>
/home/qemu-sgx/devel/optee/optee_os/lib/libutee/tee_api_objects.c:173
    c548:	6bfa      	ldr	r2, [r7, #60]	; 0x3c
    c54a:	f04f 0303 	mov.w	r3, #3
    c54e:	f2cf 0310 	movt	r3, #61456	; 0xf010
    c552:	429a      	cmp	r2, r3
    c554:	d002      	beq.n	c55c <TEE_GetObjectValueAttribute+0xb4>
/home/qemu-sgx/devel/optee/optee_os/lib/libutee/tee_api_objects.c:175
    c556:	6bf8      	ldr	r0, [r7, #60]	; 0x3c
    c558:	f7f6 ed82 	blx	3060 <TEE_Panic@plt>
/home/qemu-sgx/devel/optee/optee_os/lib/libutee/tee_api_objects.c:177
    c55c:	e9d7 2304 	ldrd	r2, r3, [r7, #16]
    c560:	f1a2 0108 	sub.w	r1, r2, #8
    c564:	430b      	orrs	r3, r1
    c566:	d003      	beq.n	c570 <TEE_GetObjectValueAttribute+0xc8>
/home/qemu-sgx/devel/optee/optee_os/lib/libutee/tee_api_objects.c:178
    c568:	f04f 0000 	mov.w	r0, #0
    c56c:	f7f6 ed78 	blx	3060 <TEE_Panic@plt>
/home/qemu-sgx/devel/optee/optee_os/lib/libutee/tee_api_objects.c:180
    c570:	6bfb      	ldr	r3, [r7, #60]	; 0x3c
    c572:	2b00      	cmp	r3, #0
    c574:	d10b      	bne.n	c58e <TEE_GetObjectValueAttribute+0xe6>
/home/qemu-sgx/devel/optee/optee_os/lib/libutee/tee_api_objects.c:181
    c576:	687b      	ldr	r3, [r7, #4]
    c578:	2b00      	cmp	r3, #0
    c57a:	d002      	beq.n	c582 <TEE_GetObjectValueAttribute+0xda>
/home/qemu-sgx/devel/optee/optee_os/lib/libutee/tee_api_objects.c:182
    c57c:	69ba      	ldr	r2, [r7, #24]
    c57e:	687b      	ldr	r3, [r7, #4]
    c580:	601a      	str	r2, [r3, #0]
/home/qemu-sgx/devel/optee/optee_os/lib/libutee/tee_api_objects.c:183
    c582:	683b      	ldr	r3, [r7, #0]
    c584:	2b00      	cmp	r3, #0
    c586:	d002      	beq.n	c58e <TEE_GetObjectValueAttribute+0xe6>
/home/qemu-sgx/devel/optee/optee_os/lib/libutee/tee_api_objects.c:184
    c588:	69fa      	ldr	r2, [r7, #28]
    c58a:	683b      	ldr	r3, [r7, #0]
    c58c:	601a      	str	r2, [r3, #0]
/home/qemu-sgx/devel/optee/optee_os/lib/libutee/tee_api_objects.c:187
    c58e:	6bfb      	ldr	r3, [r7, #60]	; 0x3c
/home/qemu-sgx/devel/optee/optee_os/lib/libutee/tee_api_objects.c:188
    c590:	4618      	mov	r0, r3
    c592:	f107 0740 	add.w	r7, r7, #64	; 0x40
    c596:	46bd      	mov	sp, r7
    c598:	bd80      	pop	{r7, pc}

0000c59a <TEE_CloseObject>:
TEE_CloseObject():
/home/qemu-sgx/devel/optee/optee_os/lib/libutee/tee_api_objects.c:191
    c59a:	e96d 7e02 	strd	r7, lr, [sp, #-8]!
    c59e:	b084      	sub	sp, #16
    c5a0:	af00      	add	r7, sp, #0
    c5a2:	6078      	str	r0, [r7, #4]
/home/qemu-sgx/devel/optee/optee_os/lib/libutee/tee_api_objects.c:194
    c5a4:	687b      	ldr	r3, [r7, #4]
    c5a6:	2b00      	cmp	r3, #0
    c5a8:	d00b      	beq.n	c5c2 <TEE_CloseObject+0x28>
/home/qemu-sgx/devel/optee/optee_os/lib/libutee/tee_api_objects.c:197
    c5aa:	687b      	ldr	r3, [r7, #4]
    c5ac:	4618      	mov	r0, r3
    c5ae:	f7f6 eecc 	blx	3348 <_utee_cryp_obj_close@plt>
    c5b2:	60f8      	str	r0, [r7, #12]
/home/qemu-sgx/devel/optee/optee_os/lib/libutee/tee_api_objects.c:198
    c5b4:	68fb      	ldr	r3, [r7, #12]
    c5b6:	2b00      	cmp	r3, #0
    c5b8:	d004      	beq.n	c5c4 <TEE_CloseObject+0x2a>
/home/qemu-sgx/devel/optee/optee_os/lib/libutee/tee_api_objects.c:199
    c5ba:	68f8      	ldr	r0, [r7, #12]
    c5bc:	f7f6 ed50 	blx	3060 <TEE_Panic@plt>
    c5c0:	e000      	b.n	c5c4 <TEE_CloseObject+0x2a>
/home/qemu-sgx/devel/optee/optee_os/lib/libutee/tee_api_objects.c:195
    c5c2:	bf00      	nop
/home/qemu-sgx/devel/optee/optee_os/lib/libutee/tee_api_objects.c:200
    c5c4:	f107 0710 	add.w	r7, r7, #16
    c5c8:	46bd      	mov	sp, r7
    c5ca:	bd80      	pop	{r7, pc}

0000c5cc <TEE_AllocateTransientObject>:
TEE_AllocateTransientObject():
/home/qemu-sgx/devel/optee/optee_os/lib/libutee/tee_api_objects.c:207
    c5cc:	e96d 7e02 	strd	r7, lr, [sp, #-8]!
    c5d0:	b086      	sub	sp, #24
    c5d2:	af00      	add	r7, sp, #0
    c5d4:	60f8      	str	r0, [r7, #12]
    c5d6:	60b9      	str	r1, [r7, #8]
    c5d8:	607a      	str	r2, [r7, #4]
/home/qemu-sgx/devel/optee/optee_os/lib/libutee/tee_api_objects.c:211
    c5da:	f04f 0104 	mov.w	r1, #4
    c5de:	6878      	ldr	r0, [r7, #4]
    c5e0:	f7f6 ed92 	blx	3108 <__utee_check_out_annotation@plt>
/home/qemu-sgx/devel/optee/optee_os/lib/libutee/tee_api_objects.c:213
    c5e4:	f107 0310 	add.w	r3, r7, #16
    c5e8:	461a      	mov	r2, r3
    c5ea:	68b9      	ldr	r1, [r7, #8]
    c5ec:	68f8      	ldr	r0, [r7, #12]
    c5ee:	f7f6 ee22 	blx	3234 <_utee_cryp_obj_alloc@plt>
    c5f2:	6178      	str	r0, [r7, #20]
/home/qemu-sgx/devel/optee/optee_os/lib/libutee/tee_api_objects.c:215
    c5f4:	697b      	ldr	r3, [r7, #20]
    c5f6:	2b00      	cmp	r3, #0
    c5f8:	d010      	beq.n	c61c <TEE_AllocateTransientObject+0x50>
/home/qemu-sgx/devel/optee/optee_os/lib/libutee/tee_api_objects.c:215 (discriminator 1)
    c5fa:	697a      	ldr	r2, [r7, #20]
    c5fc:	f04f 030c 	mov.w	r3, #12
    c600:	f6cf 73ff 	movt	r3, #65535	; 0xffff
    c604:	429a      	cmp	r2, r3
    c606:	d009      	beq.n	c61c <TEE_AllocateTransientObject+0x50>
/home/qemu-sgx/devel/optee/optee_os/lib/libutee/tee_api_objects.c:216
    c608:	697a      	ldr	r2, [r7, #20]
    c60a:	f04f 030a 	mov.w	r3, #10
    c60e:	f6cf 73ff 	movt	r3, #65535	; 0xffff
    c612:	429a      	cmp	r2, r3
    c614:	d002      	beq.n	c61c <TEE_AllocateTransientObject+0x50>
/home/qemu-sgx/devel/optee/optee_os/lib/libutee/tee_api_objects.c:218
    c616:	6978      	ldr	r0, [r7, #20]
    c618:	f7f6 ed22 	blx	3060 <TEE_Panic@plt>
/home/qemu-sgx/devel/optee/optee_os/lib/libutee/tee_api_objects.c:220
    c61c:	697b      	ldr	r3, [r7, #20]
    c61e:	2b00      	cmp	r3, #0
    c620:	d103      	bne.n	c62a <TEE_AllocateTransientObject+0x5e>
/home/qemu-sgx/devel/optee/optee_os/lib/libutee/tee_api_objects.c:221
    c622:	693b      	ldr	r3, [r7, #16]
    c624:	461a      	mov	r2, r3
    c626:	687b      	ldr	r3, [r7, #4]
    c628:	601a      	str	r2, [r3, #0]
/home/qemu-sgx/devel/optee/optee_os/lib/libutee/tee_api_objects.c:223
    c62a:	697b      	ldr	r3, [r7, #20]
/home/qemu-sgx/devel/optee/optee_os/lib/libutee/tee_api_objects.c:224
    c62c:	4618      	mov	r0, r3
    c62e:	f107 0718 	add.w	r7, r7, #24
    c632:	46bd      	mov	sp, r7
    c634:	bd80      	pop	{r7, pc}

0000c636 <TEE_FreeTransientObject>:
TEE_FreeTransientObject():
/home/qemu-sgx/devel/optee/optee_os/lib/libutee/tee_api_objects.c:227
    c636:	e96d 7e02 	strd	r7, lr, [sp, #-8]!
    c63a:	b08a      	sub	sp, #40	; 0x28
    c63c:	af00      	add	r7, sp, #0
    c63e:	6078      	str	r0, [r7, #4]
/home/qemu-sgx/devel/optee/optee_os/lib/libutee/tee_api_objects.c:231
    c640:	687b      	ldr	r3, [r7, #4]
    c642:	2b00      	cmp	r3, #0
    c644:	d022      	beq.n	c68c <TEE_FreeTransientObject+0x56>
/home/qemu-sgx/devel/optee/optee_os/lib/libutee/tee_api_objects.c:234
    c646:	687b      	ldr	r3, [r7, #4]
    c648:	f107 0208 	add.w	r2, r7, #8
    c64c:	4611      	mov	r1, r2
    c64e:	4618      	mov	r0, r3
    c650:	f7f6 ee2c 	blx	32ac <_utee_cryp_obj_get_info@plt>
    c654:	6278      	str	r0, [r7, #36]	; 0x24
/home/qemu-sgx/devel/optee/optee_os/lib/libutee/tee_api_objects.c:235
    c656:	6a7b      	ldr	r3, [r7, #36]	; 0x24
    c658:	2b00      	cmp	r3, #0
    c65a:	d002      	beq.n	c662 <TEE_FreeTransientObject+0x2c>
/home/qemu-sgx/devel/optee/optee_os/lib/libutee/tee_api_objects.c:236
    c65c:	6a78      	ldr	r0, [r7, #36]	; 0x24
    c65e:	f7f6 ed00 	blx	3060 <TEE_Panic@plt>
/home/qemu-sgx/devel/optee/optee_os/lib/libutee/tee_api_objects.c:238
    c662:	6a3b      	ldr	r3, [r7, #32]
    c664:	f403 3380 	and.w	r3, r3, #65536	; 0x10000
    c668:	2b00      	cmp	r3, #0
    c66a:	d003      	beq.n	c674 <TEE_FreeTransientObject+0x3e>
/home/qemu-sgx/devel/optee/optee_os/lib/libutee/tee_api_objects.c:239
    c66c:	f04f 0000 	mov.w	r0, #0
    c670:	f7f6 ecf6 	blx	3060 <TEE_Panic@plt>
/home/qemu-sgx/devel/optee/optee_os/lib/libutee/tee_api_objects.c:241
    c674:	687b      	ldr	r3, [r7, #4]
    c676:	4618      	mov	r0, r3
    c678:	f7f6 ee66 	blx	3348 <_utee_cryp_obj_close@plt>
    c67c:	6278      	str	r0, [r7, #36]	; 0x24
/home/qemu-sgx/devel/optee/optee_os/lib/libutee/tee_api_objects.c:242
    c67e:	6a7b      	ldr	r3, [r7, #36]	; 0x24
    c680:	2b00      	cmp	r3, #0
    c682:	d004      	beq.n	c68e <TEE_FreeTransientObject+0x58>
/home/qemu-sgx/devel/optee/optee_os/lib/libutee/tee_api_objects.c:243
    c684:	6a78      	ldr	r0, [r7, #36]	; 0x24
    c686:	f7f6 ecec 	blx	3060 <TEE_Panic@plt>
    c68a:	e000      	b.n	c68e <TEE_FreeTransientObject+0x58>
/home/qemu-sgx/devel/optee/optee_os/lib/libutee/tee_api_objects.c:232
    c68c:	bf00      	nop
/home/qemu-sgx/devel/optee/optee_os/lib/libutee/tee_api_objects.c:244
    c68e:	f107 0728 	add.w	r7, r7, #40	; 0x28
    c692:	46bd      	mov	sp, r7
    c694:	bd80      	pop	{r7, pc}

0000c696 <TEE_ResetTransientObject>:
TEE_ResetTransientObject():
/home/qemu-sgx/devel/optee/optee_os/lib/libutee/tee_api_objects.c:247
    c696:	e96d 7e02 	strd	r7, lr, [sp, #-8]!
    c69a:	b08a      	sub	sp, #40	; 0x28
    c69c:	af00      	add	r7, sp, #0
    c69e:	6078      	str	r0, [r7, #4]
/home/qemu-sgx/devel/optee/optee_os/lib/libutee/tee_api_objects.c:251
    c6a0:	687b      	ldr	r3, [r7, #4]
    c6a2:	2b00      	cmp	r3, #0
    c6a4:	d022      	beq.n	c6ec <TEE_ResetTransientObject+0x56>
/home/qemu-sgx/devel/optee/optee_os/lib/libutee/tee_api_objects.c:254
    c6a6:	687b      	ldr	r3, [r7, #4]
    c6a8:	f107 0208 	add.w	r2, r7, #8
    c6ac:	4611      	mov	r1, r2
    c6ae:	4618      	mov	r0, r3
    c6b0:	f7f6 edfc 	blx	32ac <_utee_cryp_obj_get_info@plt>
    c6b4:	6278      	str	r0, [r7, #36]	; 0x24
/home/qemu-sgx/devel/optee/optee_os/lib/libutee/tee_api_objects.c:255
    c6b6:	6a7b      	ldr	r3, [r7, #36]	; 0x24
    c6b8:	2b00      	cmp	r3, #0
    c6ba:	d002      	beq.n	c6c2 <TEE_ResetTransientObject+0x2c>
/home/qemu-sgx/devel/optee/optee_os/lib/libutee/tee_api_objects.c:256
    c6bc:	6a78      	ldr	r0, [r7, #36]	; 0x24
    c6be:	f7f6 ecd0 	blx	3060 <TEE_Panic@plt>
/home/qemu-sgx/devel/optee/optee_os/lib/libutee/tee_api_objects.c:258
    c6c2:	6a3b      	ldr	r3, [r7, #32]
    c6c4:	f403 3380 	and.w	r3, r3, #65536	; 0x10000
    c6c8:	2b00      	cmp	r3, #0
    c6ca:	d003      	beq.n	c6d4 <TEE_ResetTransientObject+0x3e>
/home/qemu-sgx/devel/optee/optee_os/lib/libutee/tee_api_objects.c:259
    c6cc:	f04f 0000 	mov.w	r0, #0
    c6d0:	f7f6 ecc6 	blx	3060 <TEE_Panic@plt>
/home/qemu-sgx/devel/optee/optee_os/lib/libutee/tee_api_objects.c:261
    c6d4:	687b      	ldr	r3, [r7, #4]
    c6d6:	4618      	mov	r0, r3
    c6d8:	f7f6 eeb4 	blx	3444 <_utee_cryp_obj_reset@plt>
    c6dc:	6278      	str	r0, [r7, #36]	; 0x24
/home/qemu-sgx/devel/optee/optee_os/lib/libutee/tee_api_objects.c:262
    c6de:	6a7b      	ldr	r3, [r7, #36]	; 0x24
    c6e0:	2b00      	cmp	r3, #0
    c6e2:	d004      	beq.n	c6ee <TEE_ResetTransientObject+0x58>
/home/qemu-sgx/devel/optee/optee_os/lib/libutee/tee_api_objects.c:263
    c6e4:	6a78      	ldr	r0, [r7, #36]	; 0x24
    c6e6:	f7f6 ecbc 	blx	3060 <TEE_Panic@plt>
    c6ea:	e000      	b.n	c6ee <TEE_ResetTransientObject+0x58>
/home/qemu-sgx/devel/optee/optee_os/lib/libutee/tee_api_objects.c:252
    c6ec:	bf00      	nop
/home/qemu-sgx/devel/optee/optee_os/lib/libutee/tee_api_objects.c:264
    c6ee:	f107 0728 	add.w	r7, r7, #40	; 0x28
    c6f2:	46bd      	mov	sp, r7
    c6f4:	bd80      	pop	{r7, pc}

0000c6f6 <TEE_PopulateTransientObject>:
TEE_PopulateTransientObject():
/home/qemu-sgx/devel/optee/optee_os/lib/libutee/tee_api_objects.c:269
    c6f6:	f84d 4d24 	str.w	r4, [sp, #-36]!
    c6fa:	e9cd 5601 	strd	r5, r6, [sp, #4]
    c6fe:	e9cd 7803 	strd	r7, r8, [sp, #12]
    c702:	e9cd 9a05 	strd	r9, sl, [sp, #20]
    c706:	e9cd be07 	strd	fp, lr, [sp, #28]
    c70a:	b095      	sub	sp, #84	; 0x54
    c70c:	af00      	add	r7, sp, #0
    c70e:	6278      	str	r0, [r7, #36]	; 0x24
    c710:	6239      	str	r1, [r7, #32]
    c712:	61fa      	str	r2, [r7, #28]
    c714:	466b      	mov	r3, sp
    c716:	461e      	mov	r6, r3
/home/qemu-sgx/devel/optee/optee_os/lib/libutee/tee_api_objects.c:272
    c718:	69f9      	ldr	r1, [r7, #28]
    c71a:	460b      	mov	r3, r1
    c71c:	f103 33ff 	add.w	r3, r3, #4294967295	; 0xffffffff
    c720:	64fb      	str	r3, [r7, #76]	; 0x4c
    c722:	f04f 0300 	mov.w	r3, #0
    c726:	6139      	str	r1, [r7, #16]
    c728:	617b      	str	r3, [r7, #20]
    c72a:	e9d7 2304 	ldrd	r2, r3, [r7, #16]
    c72e:	1890      	adds	r0, r2, r2
    c730:	60b8      	str	r0, [r7, #8]
    c732:	eb43 0303 	adc.w	r3, r3, r3
    c736:	60fb      	str	r3, [r7, #12]
    c738:	e9d7 2302 	ldrd	r2, r3, [r7, #8]
    c73c:	6938      	ldr	r0, [r7, #16]
    c73e:	eb12 0800 	adds.w	r8, r2, r0
    c742:	6978      	ldr	r0, [r7, #20]
    c744:	eb43 0900 	adc.w	r9, r3, r0
    c748:	f04f 0200 	mov.w	r2, #0
    c74c:	f04f 0300 	mov.w	r3, #0
    c750:	ea4f 1389 	mov.w	r3, r9, lsl #6
    c754:	ea43 6398 	orr.w	r3, r3, r8, lsr #26
    c758:	ea4f 1288 	mov.w	r2, r8, lsl #6
    c75c:	f04f 0300 	mov.w	r3, #0
    c760:	468a      	mov	sl, r1
    c762:	469b      	mov	fp, r3
    c764:	4652      	mov	r2, sl
    c766:	465b      	mov	r3, fp
    c768:	1890      	adds	r0, r2, r2
    c76a:	6038      	str	r0, [r7, #0]
    c76c:	eb43 0303 	adc.w	r3, r3, r3
    c770:	607b      	str	r3, [r7, #4]
    c772:	e9d7 2300 	ldrd	r2, r3, [r7]
    c776:	eb12 040a 	adds.w	r4, r2, sl
    c77a:	eb43 050b 	adc.w	r5, r3, fp
    c77e:	f04f 0200 	mov.w	r2, #0
    c782:	f04f 0300 	mov.w	r3, #0
    c786:	ea4f 1385 	mov.w	r3, r5, lsl #6
    c78a:	ea43 6394 	orr.w	r3, r3, r4, lsr #26
    c78e:	ea4f 1284 	mov.w	r2, r4, lsl #6
    c792:	460b      	mov	r3, r1
    c794:	ea4f 0343 	mov.w	r3, r3, lsl #1
    c798:	440b      	add	r3, r1
    c79a:	ea4f 03c3 	mov.w	r3, r3, lsl #3
    c79e:	f103 0307 	add.w	r3, r3, #7
    c7a2:	ea4f 03d3 	mov.w	r3, r3, lsr #3
    c7a6:	ea4f 03c3 	mov.w	r3, r3, lsl #3
    c7aa:	ebad 0d03 	sub.w	sp, sp, r3
    c7ae:	466b      	mov	r3, sp
    c7b0:	f103 0307 	add.w	r3, r3, #7
    c7b4:	ea4f 03d3 	mov.w	r3, r3, lsr #3
    c7b8:	ea4f 03c3 	mov.w	r3, r3, lsl #3
    c7bc:	64bb      	str	r3, [r7, #72]	; 0x48
/home/qemu-sgx/devel/optee/optee_os/lib/libutee/tee_api_objects.c:274
    c7be:	69f9      	ldr	r1, [r7, #28]
    c7c0:	6a38      	ldr	r0, [r7, #32]
    c7c2:	f7f6 ed2c 	blx	321c <__utee_check_attr_in_annotation@plt>
/home/qemu-sgx/devel/optee/optee_os/lib/libutee/tee_api_objects.c:276
    c7c6:	6a7b      	ldr	r3, [r7, #36]	; 0x24
    c7c8:	f107 0228 	add.w	r2, r7, #40	; 0x28
    c7cc:	4611      	mov	r1, r2
    c7ce:	4618      	mov	r0, r3
    c7d0:	f7f6 ed6c 	blx	32ac <_utee_cryp_obj_get_info@plt>
    c7d4:	6478      	str	r0, [r7, #68]	; 0x44
/home/qemu-sgx/devel/optee/optee_os/lib/libutee/tee_api_objects.c:277
    c7d6:	6c7b      	ldr	r3, [r7, #68]	; 0x44
    c7d8:	2b00      	cmp	r3, #0
    c7da:	d002      	beq.n	c7e2 <TEE_PopulateTransientObject+0xec>
/home/qemu-sgx/devel/optee/optee_os/lib/libutee/tee_api_objects.c:278
    c7dc:	6c78      	ldr	r0, [r7, #68]	; 0x44
    c7de:	f7f6 ec40 	blx	3060 <TEE_Panic@plt>
/home/qemu-sgx/devel/optee/optee_os/lib/libutee/tee_api_objects.c:281
    c7e2:	6c3b      	ldr	r3, [r7, #64]	; 0x40
    c7e4:	f403 3380 	and.w	r3, r3, #65536	; 0x10000
    c7e8:	2b00      	cmp	r3, #0
    c7ea:	d003      	beq.n	c7f4 <TEE_PopulateTransientObject+0xfe>
/home/qemu-sgx/devel/optee/optee_os/lib/libutee/tee_api_objects.c:282
    c7ec:	f04f 0000 	mov.w	r0, #0
    c7f0:	f7f6 ec36 	blx	3060 <TEE_Panic@plt>
/home/qemu-sgx/devel/optee/optee_os/lib/libutee/tee_api_objects.c:285
    c7f4:	6c3b      	ldr	r3, [r7, #64]	; 0x40
    c7f6:	f403 3300 	and.w	r3, r3, #131072	; 0x20000
    c7fa:	2b00      	cmp	r3, #0
    c7fc:	d003      	beq.n	c806 <TEE_PopulateTransientObject+0x110>
/home/qemu-sgx/devel/optee/optee_os/lib/libutee/tee_api_objects.c:286
    c7fe:	f04f 0000 	mov.w	r0, #0
    c802:	f7f6 ec2e 	blx	3060 <TEE_Panic@plt>
/home/qemu-sgx/devel/optee/optee_os/lib/libutee/tee_api_objects.c:288
    c806:	69fa      	ldr	r2, [r7, #28]
    c808:	6a39      	ldr	r1, [r7, #32]
    c80a:	6cb8      	ldr	r0, [r7, #72]	; 0x48
    c80c:	f7f6 ecca 	blx	31a4 <__utee_from_attr@plt>
/home/qemu-sgx/devel/optee/optee_os/lib/libutee/tee_api_objects.c:289
    c810:	6a7b      	ldr	r3, [r7, #36]	; 0x24
    c812:	69fa      	ldr	r2, [r7, #28]
    c814:	6cb9      	ldr	r1, [r7, #72]	; 0x48
    c816:	4618      	mov	r0, r3
    c818:	f7f6 ede4 	blx	33e4 <_utee_cryp_obj_populate@plt>
    c81c:	6478      	str	r0, [r7, #68]	; 0x44
/home/qemu-sgx/devel/optee/optee_os/lib/libutee/tee_api_objects.c:290
    c81e:	6c7b      	ldr	r3, [r7, #68]	; 0x44
    c820:	2b00      	cmp	r3, #0
    c822:	d009      	beq.n	c838 <TEE_PopulateTransientObject+0x142>
/home/qemu-sgx/devel/optee/optee_os/lib/libutee/tee_api_objects.c:290 (discriminator 1)
    c824:	6c7a      	ldr	r2, [r7, #68]	; 0x44
    c826:	f04f 0306 	mov.w	r3, #6
    c82a:	f6cf 73ff 	movt	r3, #65535	; 0xffff
    c82e:	429a      	cmp	r2, r3
    c830:	d002      	beq.n	c838 <TEE_PopulateTransientObject+0x142>
/home/qemu-sgx/devel/optee/optee_os/lib/libutee/tee_api_objects.c:291
    c832:	6c78      	ldr	r0, [r7, #68]	; 0x44
    c834:	f7f6 ec14 	blx	3060 <TEE_Panic@plt>
/home/qemu-sgx/devel/optee/optee_os/lib/libutee/tee_api_objects.c:292
    c838:	6c7b      	ldr	r3, [r7, #68]	; 0x44
    c83a:	46b5      	mov	sp, r6
/home/qemu-sgx/devel/optee/optee_os/lib/libutee/tee_api_objects.c:293
    c83c:	4618      	mov	r0, r3
    c83e:	f107 0754 	add.w	r7, r7, #84	; 0x54
    c842:	46bd      	mov	sp, r7
    c844:	e9dd 4500 	ldrd	r4, r5, [sp]
    c848:	e9dd 6702 	ldrd	r6, r7, [sp, #8]
    c84c:	e9dd 8904 	ldrd	r8, r9, [sp, #16]
    c850:	e9dd ab06 	ldrd	sl, fp, [sp, #24]
    c854:	b008      	add	sp, #32
    c856:	f85d fb04 	ldr.w	pc, [sp], #4

0000c85a <TEE_InitRefAttribute>:
TEE_InitRefAttribute():
/home/qemu-sgx/devel/optee/optee_os/lib/libutee/tee_api_objects.c:297
    c85a:	e96d 7e02 	strd	r7, lr, [sp, #-8]!
    c85e:	b084      	sub	sp, #16
    c860:	af00      	add	r7, sp, #0
    c862:	60f8      	str	r0, [r7, #12]
    c864:	60b9      	str	r1, [r7, #8]
    c866:	607a      	str	r2, [r7, #4]
    c868:	603b      	str	r3, [r7, #0]
/home/qemu-sgx/devel/optee/optee_os/lib/libutee/tee_api_objects.c:298
    c86a:	f04f 010c 	mov.w	r1, #12
    c86e:	68f8      	ldr	r0, [r7, #12]
    c870:	f7f6 ec4a 	blx	3108 <__utee_check_out_annotation@plt>
/home/qemu-sgx/devel/optee/optee_os/lib/libutee/tee_api_objects.c:300
    c874:	68bb      	ldr	r3, [r7, #8]
    c876:	f003 5300 	and.w	r3, r3, #536870912	; 0x20000000
    c87a:	2b00      	cmp	r3, #0
    c87c:	d003      	beq.n	c886 <TEE_InitRefAttribute+0x2c>
/home/qemu-sgx/devel/optee/optee_os/lib/libutee/tee_api_objects.c:301
    c87e:	f04f 0000 	mov.w	r0, #0
    c882:	f7f6 ebee 	blx	3060 <TEE_Panic@plt>
/home/qemu-sgx/devel/optee/optee_os/lib/libutee/tee_api_objects.c:302
    c886:	68fb      	ldr	r3, [r7, #12]
    c888:	68ba      	ldr	r2, [r7, #8]
    c88a:	601a      	str	r2, [r3, #0]
/home/qemu-sgx/devel/optee/optee_os/lib/libutee/tee_api_objects.c:303
    c88c:	68fb      	ldr	r3, [r7, #12]
    c88e:	687a      	ldr	r2, [r7, #4]
    c890:	605a      	str	r2, [r3, #4]
/home/qemu-sgx/devel/optee/optee_os/lib/libutee/tee_api_objects.c:304
    c892:	68fb      	ldr	r3, [r7, #12]
    c894:	683a      	ldr	r2, [r7, #0]
    c896:	609a      	str	r2, [r3, #8]
/home/qemu-sgx/devel/optee/optee_os/lib/libutee/tee_api_objects.c:305
    c898:	bf00      	nop
    c89a:	f107 0710 	add.w	r7, r7, #16
    c89e:	46bd      	mov	sp, r7
    c8a0:	bd80      	pop	{r7, pc}

0000c8a2 <TEE_InitValueAttribute>:
TEE_InitValueAttribute():
/home/qemu-sgx/devel/optee/optee_os/lib/libutee/tee_api_objects.c:309
    c8a2:	e96d 7e02 	strd	r7, lr, [sp, #-8]!
    c8a6:	b084      	sub	sp, #16
    c8a8:	af00      	add	r7, sp, #0
    c8aa:	60f8      	str	r0, [r7, #12]
    c8ac:	60b9      	str	r1, [r7, #8]
    c8ae:	607a      	str	r2, [r7, #4]
    c8b0:	603b      	str	r3, [r7, #0]
/home/qemu-sgx/devel/optee/optee_os/lib/libutee/tee_api_objects.c:310
    c8b2:	f04f 010c 	mov.w	r1, #12
    c8b6:	68f8      	ldr	r0, [r7, #12]
    c8b8:	f7f6 ec26 	blx	3108 <__utee_check_out_annotation@plt>
/home/qemu-sgx/devel/optee/optee_os/lib/libutee/tee_api_objects.c:312
    c8bc:	68bb      	ldr	r3, [r7, #8]
    c8be:	f003 5300 	and.w	r3, r3, #536870912	; 0x20000000
    c8c2:	2b00      	cmp	r3, #0
    c8c4:	d103      	bne.n	c8ce <TEE_InitValueAttribute+0x2c>
/home/qemu-sgx/devel/optee/optee_os/lib/libutee/tee_api_objects.c:313
    c8c6:	f04f 0000 	mov.w	r0, #0
    c8ca:	f7f6 ebca 	blx	3060 <TEE_Panic@plt>
/home/qemu-sgx/devel/optee/optee_os/lib/libutee/tee_api_objects.c:314
    c8ce:	68fb      	ldr	r3, [r7, #12]
    c8d0:	68ba      	ldr	r2, [r7, #8]
    c8d2:	601a      	str	r2, [r3, #0]
/home/qemu-sgx/devel/optee/optee_os/lib/libutee/tee_api_objects.c:315
    c8d4:	68fb      	ldr	r3, [r7, #12]
    c8d6:	687a      	ldr	r2, [r7, #4]
    c8d8:	605a      	str	r2, [r3, #4]
/home/qemu-sgx/devel/optee/optee_os/lib/libutee/tee_api_objects.c:316
    c8da:	68fb      	ldr	r3, [r7, #12]
    c8dc:	683a      	ldr	r2, [r7, #0]
    c8de:	609a      	str	r2, [r3, #8]
/home/qemu-sgx/devel/optee/optee_os/lib/libutee/tee_api_objects.c:317
    c8e0:	bf00      	nop
    c8e2:	f107 0710 	add.w	r7, r7, #16
    c8e6:	46bd      	mov	sp, r7
    c8e8:	bd80      	pop	{r7, pc}

0000c8ea <TEE_CopyObjectAttributes>:
TEE_CopyObjectAttributes():
/home/qemu-sgx/devel/optee/optee_os/lib/libutee/tee_api_objects.c:327
    c8ea:	e96d 7e02 	strd	r7, lr, [sp, #-8]!
    c8ee:	b08a      	sub	sp, #40	; 0x28
    c8f0:	af00      	add	r7, sp, #0
    c8f2:	6078      	str	r0, [r7, #4]
    c8f4:	6039      	str	r1, [r7, #0]
/home/qemu-sgx/devel/optee/optee_os/lib/libutee/tee_api_objects.c:331
    c8f6:	683b      	ldr	r3, [r7, #0]
    c8f8:	f107 0208 	add.w	r2, r7, #8
    c8fc:	4611      	mov	r1, r2
    c8fe:	4618      	mov	r0, r3
    c900:	f7f6 ecd4 	blx	32ac <_utee_cryp_obj_get_info@plt>
    c904:	6278      	str	r0, [r7, #36]	; 0x24
/home/qemu-sgx/devel/optee/optee_os/lib/libutee/tee_api_objects.c:332
    c906:	68ba      	ldr	r2, [r7, #8]
    c908:	f04f 03be 	mov.w	r3, #190	; 0xbe
    c90c:	f2ca 0300 	movt	r3, #40960	; 0xa000
    c910:	429a      	cmp	r2, r3
    c912:	d00b      	beq.n	c92c <TEE_CopyObjectAttributes+0x42>
/home/qemu-sgx/devel/optee/optee_os/lib/libutee/tee_api_objects.c:335
    c914:	6839      	ldr	r1, [r7, #0]
    c916:	6878      	ldr	r0, [r7, #4]
    c918:	f7f6 eda0 	blx	345c <TEE_CopyObjectAttributes1@plt>
    c91c:	6278      	str	r0, [r7, #36]	; 0x24
/home/qemu-sgx/devel/optee/optee_os/lib/libutee/tee_api_objects.c:336
    c91e:	6a7b      	ldr	r3, [r7, #36]	; 0x24
    c920:	2b00      	cmp	r3, #0
    c922:	d004      	beq.n	c92e <TEE_CopyObjectAttributes+0x44>
/home/qemu-sgx/devel/optee/optee_os/lib/libutee/tee_api_objects.c:337
    c924:	6a78      	ldr	r0, [r7, #36]	; 0x24
    c926:	f7f6 eb9c 	blx	3060 <TEE_Panic@plt>
    c92a:	e000      	b.n	c92e <TEE_CopyObjectAttributes+0x44>
/home/qemu-sgx/devel/optee/optee_os/lib/libutee/tee_api_objects.c:333
    c92c:	bf00      	nop
/home/qemu-sgx/devel/optee/optee_os/lib/libutee/tee_api_objects.c:338
    c92e:	f107 0728 	add.w	r7, r7, #40	; 0x28
    c932:	46bd      	mov	sp, r7
    c934:	bd80      	pop	{r7, pc}

0000c936 <TEE_CopyObjectAttributes1>:
TEE_CopyObjectAttributes1():
/home/qemu-sgx/devel/optee/optee_os/lib/libutee/tee_api_objects.c:342
    c936:	e96d 7e02 	strd	r7, lr, [sp, #-8]!
    c93a:	b092      	sub	sp, #72	; 0x48
    c93c:	af00      	add	r7, sp, #0
    c93e:	6078      	str	r0, [r7, #4]
    c940:	6039      	str	r1, [r7, #0]
/home/qemu-sgx/devel/optee/optee_os/lib/libutee/tee_api_objects.c:347
    c942:	687b      	ldr	r3, [r7, #4]
    c944:	f107 0228 	add.w	r2, r7, #40	; 0x28
    c948:	4611      	mov	r1, r2
    c94a:	4618      	mov	r0, r3
    c94c:	f7f6 ecae 	blx	32ac <_utee_cryp_obj_get_info@plt>
    c950:	6478      	str	r0, [r7, #68]	; 0x44
/home/qemu-sgx/devel/optee/optee_os/lib/libutee/tee_api_objects.c:348
    c952:	6c7b      	ldr	r3, [r7, #68]	; 0x44
    c954:	2b00      	cmp	r3, #0
    c956:	d12d      	bne.n	c9b4 <TEE_CopyObjectAttributes1+0x7e>
/home/qemu-sgx/devel/optee/optee_os/lib/libutee/tee_api_objects.c:351
    c958:	683b      	ldr	r3, [r7, #0]
    c95a:	f107 020c 	add.w	r2, r7, #12
    c95e:	4611      	mov	r1, r2
    c960:	4618      	mov	r0, r3
    c962:	f7f6 eca4 	blx	32ac <_utee_cryp_obj_get_info@plt>
    c966:	6478      	str	r0, [r7, #68]	; 0x44
/home/qemu-sgx/devel/optee/optee_os/lib/libutee/tee_api_objects.c:352
    c968:	6c7b      	ldr	r3, [r7, #68]	; 0x44
    c96a:	2b00      	cmp	r3, #0
    c96c:	d124      	bne.n	c9b8 <TEE_CopyObjectAttributes1+0x82>
/home/qemu-sgx/devel/optee/optee_os/lib/libutee/tee_api_objects.c:355
    c96e:	6a7b      	ldr	r3, [r7, #36]	; 0x24
    c970:	f403 3300 	and.w	r3, r3, #131072	; 0x20000
    c974:	2b00      	cmp	r3, #0
    c976:	d103      	bne.n	c980 <TEE_CopyObjectAttributes1+0x4a>
/home/qemu-sgx/devel/optee/optee_os/lib/libutee/tee_api_objects.c:356
    c978:	f04f 0000 	mov.w	r0, #0
    c97c:	f7f6 eb70 	blx	3060 <TEE_Panic@plt>
/home/qemu-sgx/devel/optee/optee_os/lib/libutee/tee_api_objects.c:358
    c980:	6c3b      	ldr	r3, [r7, #64]	; 0x40
    c982:	f403 3380 	and.w	r3, r3, #65536	; 0x10000
    c986:	2b00      	cmp	r3, #0
    c988:	d003      	beq.n	c992 <TEE_CopyObjectAttributes1+0x5c>
/home/qemu-sgx/devel/optee/optee_os/lib/libutee/tee_api_objects.c:359
    c98a:	f04f 0000 	mov.w	r0, #0
    c98e:	f7f6 eb68 	blx	3060 <TEE_Panic@plt>
/home/qemu-sgx/devel/optee/optee_os/lib/libutee/tee_api_objects.c:361
    c992:	6c3b      	ldr	r3, [r7, #64]	; 0x40
    c994:	f403 3300 	and.w	r3, r3, #131072	; 0x20000
    c998:	2b00      	cmp	r3, #0
    c99a:	d003      	beq.n	c9a4 <TEE_CopyObjectAttributes1+0x6e>
/home/qemu-sgx/devel/optee/optee_os/lib/libutee/tee_api_objects.c:362
    c99c:	f04f 0000 	mov.w	r0, #0
    c9a0:	f7f6 eb5e 	blx	3060 <TEE_Panic@plt>
/home/qemu-sgx/devel/optee/optee_os/lib/libutee/tee_api_objects.c:364
    c9a4:	687b      	ldr	r3, [r7, #4]
    c9a6:	683a      	ldr	r2, [r7, #0]
    c9a8:	4611      	mov	r1, r2
    c9aa:	4618      	mov	r0, r3
    c9ac:	f7f6 ecf0 	blx	3390 <_utee_cryp_obj_copy@plt>
    c9b0:	6478      	str	r0, [r7, #68]	; 0x44
    c9b2:	e002      	b.n	c9ba <TEE_CopyObjectAttributes1+0x84>
/home/qemu-sgx/devel/optee/optee_os/lib/libutee/tee_api_objects.c:349
    c9b4:	bf00      	nop
    c9b6:	e000      	b.n	c9ba <TEE_CopyObjectAttributes1+0x84>
/home/qemu-sgx/devel/optee/optee_os/lib/libutee/tee_api_objects.c:353
    c9b8:	bf00      	nop
/home/qemu-sgx/devel/optee/optee_os/lib/libutee/tee_api_objects.c:368
    c9ba:	6c7b      	ldr	r3, [r7, #68]	; 0x44
    c9bc:	2b00      	cmp	r3, #0
    c9be:	d010      	beq.n	c9e2 <TEE_CopyObjectAttributes1+0xac>
/home/qemu-sgx/devel/optee/optee_os/lib/libutee/tee_api_objects.c:368 (discriminator 1)
    c9c0:	6c7a      	ldr	r2, [r7, #68]	; 0x44
    c9c2:	f04f 0301 	mov.w	r3, #1
    c9c6:	f2cf 0310 	movt	r3, #61456	; 0xf010
    c9ca:	429a      	cmp	r2, r3
    c9cc:	d009      	beq.n	c9e2 <TEE_CopyObjectAttributes1+0xac>
/home/qemu-sgx/devel/optee/optee_os/lib/libutee/tee_api_objects.c:369
    c9ce:	6c7a      	ldr	r2, [r7, #68]	; 0x44
    c9d0:	f04f 0303 	mov.w	r3, #3
    c9d4:	f2cf 0310 	movt	r3, #61456	; 0xf010
    c9d8:	429a      	cmp	r2, r3
    c9da:	d002      	beq.n	c9e2 <TEE_CopyObjectAttributes1+0xac>
/home/qemu-sgx/devel/optee/optee_os/lib/libutee/tee_api_objects.c:371
    c9dc:	6c78      	ldr	r0, [r7, #68]	; 0x44
    c9de:	f7f6 eb40 	blx	3060 <TEE_Panic@plt>
/home/qemu-sgx/devel/optee/optee_os/lib/libutee/tee_api_objects.c:373
    c9e2:	6c7b      	ldr	r3, [r7, #68]	; 0x44
/home/qemu-sgx/devel/optee/optee_os/lib/libutee/tee_api_objects.c:374
    c9e4:	4618      	mov	r0, r3
    c9e6:	f107 0748 	add.w	r7, r7, #72	; 0x48
    c9ea:	46bd      	mov	sp, r7
    c9ec:	bd80      	pop	{r7, pc}

0000c9ee <TEE_GenerateKey>:
TEE_GenerateKey():
/home/qemu-sgx/devel/optee/optee_os/lib/libutee/tee_api_objects.c:378
    c9ee:	f84d 4d24 	str.w	r4, [sp, #-36]!
    c9f2:	e9cd 5601 	strd	r5, r6, [sp, #4]
    c9f6:	e9cd 7803 	strd	r7, r8, [sp, #12]
    c9fa:	e9cd 9a05 	strd	r9, sl, [sp, #20]
    c9fe:	e9cd be07 	strd	fp, lr, [sp, #28]
    ca02:	b08f      	sub	sp, #60	; 0x3c
    ca04:	af00      	add	r7, sp, #0
    ca06:	6278      	str	r0, [r7, #36]	; 0x24
    ca08:	6239      	str	r1, [r7, #32]
    ca0a:	61fa      	str	r2, [r7, #28]
    ca0c:	61bb      	str	r3, [r7, #24]
    ca0e:	466b      	mov	r3, sp
    ca10:	461e      	mov	r6, r3
/home/qemu-sgx/devel/optee/optee_os/lib/libutee/tee_api_objects.c:380
    ca12:	69b9      	ldr	r1, [r7, #24]
    ca14:	460b      	mov	r3, r1
    ca16:	f103 33ff 	add.w	r3, r3, #4294967295	; 0xffffffff
    ca1a:	637b      	str	r3, [r7, #52]	; 0x34
    ca1c:	f04f 0300 	mov.w	r3, #0
    ca20:	6139      	str	r1, [r7, #16]
    ca22:	617b      	str	r3, [r7, #20]
    ca24:	e9d7 2304 	ldrd	r2, r3, [r7, #16]
    ca28:	1890      	adds	r0, r2, r2
    ca2a:	60b8      	str	r0, [r7, #8]
    ca2c:	eb43 0303 	adc.w	r3, r3, r3
    ca30:	60fb      	str	r3, [r7, #12]
    ca32:	e9d7 2302 	ldrd	r2, r3, [r7, #8]
    ca36:	6938      	ldr	r0, [r7, #16]
    ca38:	eb12 0800 	adds.w	r8, r2, r0
    ca3c:	6978      	ldr	r0, [r7, #20]
    ca3e:	eb43 0900 	adc.w	r9, r3, r0
    ca42:	f04f 0200 	mov.w	r2, #0
    ca46:	f04f 0300 	mov.w	r3, #0
    ca4a:	ea4f 1389 	mov.w	r3, r9, lsl #6
    ca4e:	ea43 6398 	orr.w	r3, r3, r8, lsr #26
    ca52:	ea4f 1288 	mov.w	r2, r8, lsl #6
    ca56:	f04f 0300 	mov.w	r3, #0
    ca5a:	468a      	mov	sl, r1
    ca5c:	469b      	mov	fp, r3
    ca5e:	4652      	mov	r2, sl
    ca60:	465b      	mov	r3, fp
    ca62:	1890      	adds	r0, r2, r2
    ca64:	6038      	str	r0, [r7, #0]
    ca66:	eb43 0303 	adc.w	r3, r3, r3
    ca6a:	607b      	str	r3, [r7, #4]
    ca6c:	e9d7 2300 	ldrd	r2, r3, [r7]
    ca70:	eb12 040a 	adds.w	r4, r2, sl
    ca74:	eb43 050b 	adc.w	r5, r3, fp
    ca78:	f04f 0200 	mov.w	r2, #0
    ca7c:	f04f 0300 	mov.w	r3, #0
    ca80:	ea4f 1385 	mov.w	r3, r5, lsl #6
    ca84:	ea43 6394 	orr.w	r3, r3, r4, lsr #26
    ca88:	ea4f 1284 	mov.w	r2, r4, lsl #6
    ca8c:	460b      	mov	r3, r1
    ca8e:	ea4f 0343 	mov.w	r3, r3, lsl #1
    ca92:	440b      	add	r3, r1
    ca94:	ea4f 03c3 	mov.w	r3, r3, lsl #3
    ca98:	f103 0307 	add.w	r3, r3, #7
    ca9c:	ea4f 03d3 	mov.w	r3, r3, lsr #3
    caa0:	ea4f 03c3 	mov.w	r3, r3, lsl #3
    caa4:	ebad 0d03 	sub.w	sp, sp, r3
    caa8:	466b      	mov	r3, sp
    caaa:	f103 0307 	add.w	r3, r3, #7
    caae:	ea4f 03d3 	mov.w	r3, r3, lsr #3
    cab2:	ea4f 03c3 	mov.w	r3, r3, lsl #3
    cab6:	633b      	str	r3, [r7, #48]	; 0x30
/home/qemu-sgx/devel/optee/optee_os/lib/libutee/tee_api_objects.c:382
    cab8:	69b9      	ldr	r1, [r7, #24]
    caba:	69f8      	ldr	r0, [r7, #28]
    cabc:	f7f6 ebae 	blx	321c <__utee_check_attr_in_annotation@plt>
/home/qemu-sgx/devel/optee/optee_os/lib/libutee/tee_api_objects.c:384
    cac0:	69ba      	ldr	r2, [r7, #24]
    cac2:	69f9      	ldr	r1, [r7, #28]
    cac4:	6b38      	ldr	r0, [r7, #48]	; 0x30
    cac6:	f7f6 eb6e 	blx	31a4 <__utee_from_attr@plt>
/home/qemu-sgx/devel/optee/optee_os/lib/libutee/tee_api_objects.c:385
    caca:	6a78      	ldr	r0, [r7, #36]	; 0x24
    cacc:	69bb      	ldr	r3, [r7, #24]
    cace:	6b3a      	ldr	r2, [r7, #48]	; 0x30
    cad0:	6a39      	ldr	r1, [r7, #32]
    cad2:	f7f6 eb38 	blx	3144 <_utee_cryp_obj_generate_key@plt>
    cad6:	62f8      	str	r0, [r7, #44]	; 0x2c
/home/qemu-sgx/devel/optee/optee_os/lib/libutee/tee_api_objects.c:388
    cad8:	6afb      	ldr	r3, [r7, #44]	; 0x2c
    cada:	2b00      	cmp	r3, #0
    cadc:	d009      	beq.n	caf2 <TEE_GenerateKey+0x104>
/home/qemu-sgx/devel/optee/optee_os/lib/libutee/tee_api_objects.c:388 (discriminator 1)
    cade:	6afa      	ldr	r2, [r7, #44]	; 0x2c
    cae0:	f04f 0306 	mov.w	r3, #6
    cae4:	f6cf 73ff 	movt	r3, #65535	; 0xffff
    cae8:	429a      	cmp	r2, r3
    caea:	d002      	beq.n	caf2 <TEE_GenerateKey+0x104>
/home/qemu-sgx/devel/optee/optee_os/lib/libutee/tee_api_objects.c:389
    caec:	6af8      	ldr	r0, [r7, #44]	; 0x2c
    caee:	f7f6 eab8 	blx	3060 <TEE_Panic@plt>
/home/qemu-sgx/devel/optee/optee_os/lib/libutee/tee_api_objects.c:391
    caf2:	6afb      	ldr	r3, [r7, #44]	; 0x2c
    caf4:	46b5      	mov	sp, r6
/home/qemu-sgx/devel/optee/optee_os/lib/libutee/tee_api_objects.c:392
    caf6:	4618      	mov	r0, r3
    caf8:	f107 073c 	add.w	r7, r7, #60	; 0x3c
    cafc:	46bd      	mov	sp, r7
    cafe:	e9dd 4500 	ldrd	r4, r5, [sp]
    cb02:	e9dd 6702 	ldrd	r6, r7, [sp, #8]
    cb06:	e9dd 8904 	ldrd	r8, r9, [sp, #16]
    cb0a:	e9dd ab06 	ldrd	sl, fp, [sp, #24]
    cb0e:	b008      	add	sp, #32
    cb10:	f85d fb04 	ldr.w	pc, [sp], #4

0000cb14 <TEE_OpenPersistentObject>:
TEE_OpenPersistentObject():
/home/qemu-sgx/devel/optee/optee_os/lib/libutee/tee_api_objects.c:399
    cb14:	e96d 7e02 	strd	r7, lr, [sp, #-8]!
    cb18:	b088      	sub	sp, #32
    cb1a:	af02      	add	r7, sp, #8
    cb1c:	60f8      	str	r0, [r7, #12]
    cb1e:	60b9      	str	r1, [r7, #8]
    cb20:	607a      	str	r2, [r7, #4]
    cb22:	603b      	str	r3, [r7, #0]
/home/qemu-sgx/devel/optee/optee_os/lib/libutee/tee_api_objects.c:403
    cb24:	68bb      	ldr	r3, [r7, #8]
    cb26:	2b00      	cmp	r3, #0
    cb28:	d105      	bne.n	cb36 <TEE_OpenPersistentObject+0x22>
/home/qemu-sgx/devel/optee/optee_os/lib/libutee/tee_api_objects.c:404
    cb2a:	f04f 0308 	mov.w	r3, #8
    cb2e:	f6cf 73ff 	movt	r3, #65535	; 0xffff
    cb32:	617b      	str	r3, [r7, #20]
/home/qemu-sgx/devel/optee/optee_os/lib/libutee/tee_api_objects.c:405
    cb34:	e017      	b.n	cb66 <TEE_OpenPersistentObject+0x52>
/home/qemu-sgx/devel/optee/optee_os/lib/libutee/tee_api_objects.c:408
    cb36:	f04f 0104 	mov.w	r1, #4
    cb3a:	6a38      	ldr	r0, [r7, #32]
    cb3c:	f7f6 eae4 	blx	3108 <__utee_check_out_annotation@plt>
/home/qemu-sgx/devel/optee/optee_os/lib/libutee/tee_api_objects.c:410
    cb40:	f107 0310 	add.w	r3, r7, #16
    cb44:	9300      	str	r3, [sp, #0]
    cb46:	683b      	ldr	r3, [r7, #0]
    cb48:	687a      	ldr	r2, [r7, #4]
    cb4a:	68b9      	ldr	r1, [r7, #8]
    cb4c:	68f8      	ldr	r0, [r7, #12]
    cb4e:	f7f6 eaa6 	blx	309c <_utee_storage_obj_open@plt>
    cb52:	6178      	str	r0, [r7, #20]
/home/qemu-sgx/devel/optee/optee_os/lib/libutee/tee_api_objects.c:412
    cb54:	697b      	ldr	r3, [r7, #20]
    cb56:	2b00      	cmp	r3, #0
    cb58:	d104      	bne.n	cb64 <TEE_OpenPersistentObject+0x50>
/home/qemu-sgx/devel/optee/optee_os/lib/libutee/tee_api_objects.c:413
    cb5a:	693b      	ldr	r3, [r7, #16]
    cb5c:	461a      	mov	r2, r3
    cb5e:	6a3b      	ldr	r3, [r7, #32]
    cb60:	601a      	str	r2, [r3, #0]
    cb62:	e000      	b.n	cb66 <TEE_OpenPersistentObject+0x52>
/home/qemu-sgx/devel/optee/optee_os/lib/libutee/tee_api_objects.c:415
    cb64:	bf00      	nop
/home/qemu-sgx/devel/optee/optee_os/lib/libutee/tee_api_objects.c:416
    cb66:	697b      	ldr	r3, [r7, #20]
    cb68:	2b00      	cmp	r3, #0
    cb6a:	d025      	beq.n	cbb8 <TEE_OpenPersistentObject+0xa4>
/home/qemu-sgx/devel/optee/optee_os/lib/libutee/tee_api_objects.c:416 (discriminator 1)
    cb6c:	697a      	ldr	r2, [r7, #20]
    cb6e:	f04f 0308 	mov.w	r3, #8
    cb72:	f6cf 73ff 	movt	r3, #65535	; 0xffff
    cb76:	429a      	cmp	r2, r3
    cb78:	d01e      	beq.n	cbb8 <TEE_OpenPersistentObject+0xa4>
/home/qemu-sgx/devel/optee/optee_os/lib/libutee/tee_api_objects.c:417
    cb7a:	697a      	ldr	r2, [r7, #20]
    cb7c:	f04f 0303 	mov.w	r3, #3
    cb80:	f6cf 73ff 	movt	r3, #65535	; 0xffff
    cb84:	429a      	cmp	r2, r3
    cb86:	d017      	beq.n	cbb8 <TEE_OpenPersistentObject+0xa4>
/home/qemu-sgx/devel/optee/optee_os/lib/libutee/tee_api_objects.c:418
    cb88:	697a      	ldr	r2, [r7, #20]
    cb8a:	f04f 030c 	mov.w	r3, #12
    cb8e:	f6cf 73ff 	movt	r3, #65535	; 0xffff
    cb92:	429a      	cmp	r2, r3
    cb94:	d010      	beq.n	cbb8 <TEE_OpenPersistentObject+0xa4>
/home/qemu-sgx/devel/optee/optee_os/lib/libutee/tee_api_objects.c:419
    cb96:	697a      	ldr	r2, [r7, #20]
    cb98:	f04f 0301 	mov.w	r3, #1
    cb9c:	f2cf 0310 	movt	r3, #61456	; 0xf010
    cba0:	429a      	cmp	r2, r3
    cba2:	d009      	beq.n	cbb8 <TEE_OpenPersistentObject+0xa4>
/home/qemu-sgx/devel/optee/optee_os/lib/libutee/tee_api_objects.c:420
    cba4:	697a      	ldr	r2, [r7, #20]
    cba6:	f04f 0303 	mov.w	r3, #3
    cbaa:	f2cf 0310 	movt	r3, #61456	; 0xf010
    cbae:	429a      	cmp	r2, r3
    cbb0:	d002      	beq.n	cbb8 <TEE_OpenPersistentObject+0xa4>
/home/qemu-sgx/devel/optee/optee_os/lib/libutee/tee_api_objects.c:422
    cbb2:	6978      	ldr	r0, [r7, #20]
    cbb4:	f7f6 ea54 	blx	3060 <TEE_Panic@plt>
/home/qemu-sgx/devel/optee/optee_os/lib/libutee/tee_api_objects.c:424
    cbb8:	697b      	ldr	r3, [r7, #20]
    cbba:	2b00      	cmp	r3, #0
    cbbc:	d003      	beq.n	cbc6 <TEE_OpenPersistentObject+0xb2>
/home/qemu-sgx/devel/optee/optee_os/lib/libutee/tee_api_objects.c:425
    cbbe:	6a3b      	ldr	r3, [r7, #32]
    cbc0:	f04f 0200 	mov.w	r2, #0
    cbc4:	601a      	str	r2, [r3, #0]
/home/qemu-sgx/devel/optee/optee_os/lib/libutee/tee_api_objects.c:427
    cbc6:	697b      	ldr	r3, [r7, #20]
/home/qemu-sgx/devel/optee/optee_os/lib/libutee/tee_api_objects.c:428
    cbc8:	4618      	mov	r0, r3
    cbca:	f107 0718 	add.w	r7, r7, #24
    cbce:	46bd      	mov	sp, r7
    cbd0:	bd80      	pop	{r7, pc}

0000cbd2 <TEE_CreatePersistentObject>:
TEE_CreatePersistentObject():
/home/qemu-sgx/devel/optee/optee_os/lib/libutee/tee_api_objects.c:436
    cbd2:	e96d 7e02 	strd	r7, lr, [sp, #-8]!
    cbd6:	b08a      	sub	sp, #40	; 0x28
    cbd8:	af04      	add	r7, sp, #16
    cbda:	60f8      	str	r0, [r7, #12]
    cbdc:	60b9      	str	r1, [r7, #8]
    cbde:	607a      	str	r2, [r7, #4]
    cbe0:	603b      	str	r3, [r7, #0]
/home/qemu-sgx/devel/optee/optee_os/lib/libutee/tee_api_objects.c:440
    cbe2:	68bb      	ldr	r3, [r7, #8]
    cbe4:	2b00      	cmp	r3, #0
    cbe6:	d105      	bne.n	cbf4 <TEE_CreatePersistentObject+0x22>
/home/qemu-sgx/devel/optee/optee_os/lib/libutee/tee_api_objects.c:441
    cbe8:	f04f 0308 	mov.w	r3, #8
    cbec:	f6cf 73ff 	movt	r3, #65535	; 0xffff
    cbf0:	617b      	str	r3, [r7, #20]
/home/qemu-sgx/devel/optee/optee_os/lib/libutee/tee_api_objects.c:442
    cbf2:	e01d      	b.n	cc30 <TEE_CreatePersistentObject+0x5e>
/home/qemu-sgx/devel/optee/optee_os/lib/libutee/tee_api_objects.c:445
    cbf4:	f04f 0104 	mov.w	r1, #4
    cbf8:	6af8      	ldr	r0, [r7, #44]	; 0x2c
    cbfa:	f7f6 ea86 	blx	3108 <__utee_check_out_annotation@plt>
/home/qemu-sgx/devel/optee/optee_os/lib/libutee/tee_api_objects.c:447
    cbfe:	6a3b      	ldr	r3, [r7, #32]
    cc00:	f107 0210 	add.w	r2, r7, #16
    cc04:	9203      	str	r2, [sp, #12]
    cc06:	6aba      	ldr	r2, [r7, #40]	; 0x28
    cc08:	9202      	str	r2, [sp, #8]
    cc0a:	6a7a      	ldr	r2, [r7, #36]	; 0x24
    cc0c:	9201      	str	r2, [sp, #4]
    cc0e:	9300      	str	r3, [sp, #0]
    cc10:	683b      	ldr	r3, [r7, #0]
    cc12:	687a      	ldr	r2, [r7, #4]
    cc14:	68b9      	ldr	r1, [r7, #8]
    cc16:	68f8      	ldr	r0, [r7, #12]
    cc18:	f7f6 ec44 	blx	34a4 <_utee_storage_obj_create@plt>
    cc1c:	6178      	str	r0, [r7, #20]
/home/qemu-sgx/devel/optee/optee_os/lib/libutee/tee_api_objects.c:451
    cc1e:	697b      	ldr	r3, [r7, #20]
    cc20:	2b00      	cmp	r3, #0
    cc22:	d104      	bne.n	cc2e <TEE_CreatePersistentObject+0x5c>
/home/qemu-sgx/devel/optee/optee_os/lib/libutee/tee_api_objects.c:452
    cc24:	693b      	ldr	r3, [r7, #16]
    cc26:	461a      	mov	r2, r3
    cc28:	6afb      	ldr	r3, [r7, #44]	; 0x2c
    cc2a:	601a      	str	r2, [r3, #0]
    cc2c:	e000      	b.n	cc30 <TEE_CreatePersistentObject+0x5e>
/home/qemu-sgx/devel/optee/optee_os/lib/libutee/tee_api_objects.c:454
    cc2e:	bf00      	nop
/home/qemu-sgx/devel/optee/optee_os/lib/libutee/tee_api_objects.c:455
    cc30:	697b      	ldr	r3, [r7, #20]
    cc32:	2b00      	cmp	r3, #0
    cc34:	d02c      	beq.n	cc90 <TEE_CreatePersistentObject+0xbe>
/home/qemu-sgx/devel/optee/optee_os/lib/libutee/tee_api_objects.c:455 (discriminator 1)
    cc36:	697a      	ldr	r2, [r7, #20]
    cc38:	f04f 0308 	mov.w	r3, #8
    cc3c:	f6cf 73ff 	movt	r3, #65535	; 0xffff
    cc40:	429a      	cmp	r2, r3
    cc42:	d025      	beq.n	cc90 <TEE_CreatePersistentObject+0xbe>
/home/qemu-sgx/devel/optee/optee_os/lib/libutee/tee_api_objects.c:456
    cc44:	697a      	ldr	r2, [r7, #20]
    cc46:	f04f 0303 	mov.w	r3, #3
    cc4a:	f6cf 73ff 	movt	r3, #65535	; 0xffff
    cc4e:	429a      	cmp	r2, r3
    cc50:	d01e      	beq.n	cc90 <TEE_CreatePersistentObject+0xbe>
/home/qemu-sgx/devel/optee/optee_os/lib/libutee/tee_api_objects.c:457
    cc52:	697a      	ldr	r2, [r7, #20]
    cc54:	f04f 030c 	mov.w	r3, #12
    cc58:	f6cf 73ff 	movt	r3, #65535	; 0xffff
    cc5c:	429a      	cmp	r2, r3
    cc5e:	d017      	beq.n	cc90 <TEE_CreatePersistentObject+0xbe>
/home/qemu-sgx/devel/optee/optee_os/lib/libutee/tee_api_objects.c:458
    cc60:	697a      	ldr	r2, [r7, #20]
    cc62:	f243 0341 	movw	r3, #12353	; 0x3041
    cc66:	f6cf 73ff 	movt	r3, #65535	; 0xffff
    cc6a:	429a      	cmp	r2, r3
    cc6c:	d010      	beq.n	cc90 <TEE_CreatePersistentObject+0xbe>
/home/qemu-sgx/devel/optee/optee_os/lib/libutee/tee_api_objects.c:459
    cc6e:	697a      	ldr	r2, [r7, #20]
    cc70:	f04f 0301 	mov.w	r3, #1
    cc74:	f2cf 0310 	movt	r3, #61456	; 0xf010
    cc78:	429a      	cmp	r2, r3
    cc7a:	d009      	beq.n	cc90 <TEE_CreatePersistentObject+0xbe>
/home/qemu-sgx/devel/optee/optee_os/lib/libutee/tee_api_objects.c:460
    cc7c:	697a      	ldr	r2, [r7, #20]
    cc7e:	f04f 0303 	mov.w	r3, #3
    cc82:	f2cf 0310 	movt	r3, #61456	; 0xf010
    cc86:	429a      	cmp	r2, r3
    cc88:	d002      	beq.n	cc90 <TEE_CreatePersistentObject+0xbe>
/home/qemu-sgx/devel/optee/optee_os/lib/libutee/tee_api_objects.c:462
    cc8a:	6978      	ldr	r0, [r7, #20]
    cc8c:	f7f6 e9e8 	blx	3060 <TEE_Panic@plt>
/home/qemu-sgx/devel/optee/optee_os/lib/libutee/tee_api_objects.c:464
    cc90:	697b      	ldr	r3, [r7, #20]
    cc92:	2b00      	cmp	r3, #0
    cc94:	d003      	beq.n	cc9e <TEE_CreatePersistentObject+0xcc>
/home/qemu-sgx/devel/optee/optee_os/lib/libutee/tee_api_objects.c:465
    cc96:	6afb      	ldr	r3, [r7, #44]	; 0x2c
    cc98:	f04f 0200 	mov.w	r2, #0
    cc9c:	601a      	str	r2, [r3, #0]
/home/qemu-sgx/devel/optee/optee_os/lib/libutee/tee_api_objects.c:467
    cc9e:	697b      	ldr	r3, [r7, #20]
/home/qemu-sgx/devel/optee/optee_os/lib/libutee/tee_api_objects.c:468
    cca0:	4618      	mov	r0, r3
    cca2:	f107 0718 	add.w	r7, r7, #24
    cca6:	46bd      	mov	sp, r7
    cca8:	bd80      	pop	{r7, pc}

0000ccaa <TEE_CloseAndDeletePersistentObject>:
TEE_CloseAndDeletePersistentObject():
/home/qemu-sgx/devel/optee/optee_os/lib/libutee/tee_api_objects.c:477
    ccaa:	e96d 7e02 	strd	r7, lr, [sp, #-8]!
    ccae:	b084      	sub	sp, #16
    ccb0:	af00      	add	r7, sp, #0
    ccb2:	6078      	str	r0, [r7, #4]
/home/qemu-sgx/devel/optee/optee_os/lib/libutee/tee_api_objects.c:480
    ccb4:	687b      	ldr	r3, [r7, #4]
    ccb6:	2b00      	cmp	r3, #0
    ccb8:	d00b      	beq.n	ccd2 <TEE_CloseAndDeletePersistentObject+0x28>
/home/qemu-sgx/devel/optee/optee_os/lib/libutee/tee_api_objects.c:483
    ccba:	6878      	ldr	r0, [r7, #4]
    ccbc:	f7f6 ea78 	blx	31b0 <TEE_CloseAndDeletePersistentObject1@plt>
    ccc0:	60f8      	str	r0, [r7, #12]
/home/qemu-sgx/devel/optee/optee_os/lib/libutee/tee_api_objects.c:485
    ccc2:	68fb      	ldr	r3, [r7, #12]
    ccc4:	2b00      	cmp	r3, #0
    ccc6:	d005      	beq.n	ccd4 <TEE_CloseAndDeletePersistentObject+0x2a>
/home/qemu-sgx/devel/optee/optee_os/lib/libutee/tee_api_objects.c:486
    ccc8:	f04f 0000 	mov.w	r0, #0
    cccc:	f7f6 e9c8 	blx	3060 <TEE_Panic@plt>
    ccd0:	e000      	b.n	ccd4 <TEE_CloseAndDeletePersistentObject+0x2a>
/home/qemu-sgx/devel/optee/optee_os/lib/libutee/tee_api_objects.c:481
    ccd2:	bf00      	nop
/home/qemu-sgx/devel/optee/optee_os/lib/libutee/tee_api_objects.c:487
    ccd4:	f107 0710 	add.w	r7, r7, #16
    ccd8:	46bd      	mov	sp, r7
    ccda:	bd80      	pop	{r7, pc}

0000ccdc <TEE_CloseAndDeletePersistentObject1>:
TEE_CloseAndDeletePersistentObject1():
/home/qemu-sgx/devel/optee/optee_os/lib/libutee/tee_api_objects.c:490
    ccdc:	e96d 7e02 	strd	r7, lr, [sp, #-8]!
    cce0:	b084      	sub	sp, #16
    cce2:	af00      	add	r7, sp, #0
    cce4:	6078      	str	r0, [r7, #4]
/home/qemu-sgx/devel/optee/optee_os/lib/libutee/tee_api_objects.c:493
    cce6:	687b      	ldr	r3, [r7, #4]
    cce8:	2b00      	cmp	r3, #0
    ccea:	d102      	bne.n	ccf2 <TEE_CloseAndDeletePersistentObject1+0x16>
/home/qemu-sgx/devel/optee/optee_os/lib/libutee/tee_api_objects.c:494
    ccec:	f04f 0300 	mov.w	r3, #0
    ccf0:	e012      	b.n	cd18 <TEE_CloseAndDeletePersistentObject1+0x3c>
/home/qemu-sgx/devel/optee/optee_os/lib/libutee/tee_api_objects.c:496
    ccf2:	687b      	ldr	r3, [r7, #4]
    ccf4:	4618      	mov	r0, r3
    ccf6:	f7f6 e9f0 	blx	30d8 <_utee_storage_obj_del@plt>
    ccfa:	60f8      	str	r0, [r7, #12]
/home/qemu-sgx/devel/optee/optee_os/lib/libutee/tee_api_objects.c:498
    ccfc:	68fb      	ldr	r3, [r7, #12]
    ccfe:	2b00      	cmp	r3, #0
    cd00:	d009      	beq.n	cd16 <TEE_CloseAndDeletePersistentObject1+0x3a>
/home/qemu-sgx/devel/optee/optee_os/lib/libutee/tee_api_objects.c:498 (discriminator 1)
    cd02:	68fa      	ldr	r2, [r7, #12]
    cd04:	f04f 0303 	mov.w	r3, #3
    cd08:	f2cf 0310 	movt	r3, #61456	; 0xf010
    cd0c:	429a      	cmp	r2, r3
    cd0e:	d002      	beq.n	cd16 <TEE_CloseAndDeletePersistentObject1+0x3a>
/home/qemu-sgx/devel/optee/optee_os/lib/libutee/tee_api_objects.c:499
    cd10:	68f8      	ldr	r0, [r7, #12]
    cd12:	f7f6 e9a6 	blx	3060 <TEE_Panic@plt>
/home/qemu-sgx/devel/optee/optee_os/lib/libutee/tee_api_objects.c:501
    cd16:	68fb      	ldr	r3, [r7, #12]
/home/qemu-sgx/devel/optee/optee_os/lib/libutee/tee_api_objects.c:502
    cd18:	4618      	mov	r0, r3
    cd1a:	f107 0710 	add.w	r7, r7, #16
    cd1e:	46bd      	mov	sp, r7
    cd20:	bd80      	pop	{r7, pc}

0000cd22 <TEE_RenamePersistentObject>:
TEE_RenamePersistentObject():
/home/qemu-sgx/devel/optee/optee_os/lib/libutee/tee_api_objects.c:508
    cd22:	e96d 7e02 	strd	r7, lr, [sp, #-8]!
    cd26:	b086      	sub	sp, #24
    cd28:	af00      	add	r7, sp, #0
    cd2a:	60f8      	str	r0, [r7, #12]
    cd2c:	60b9      	str	r1, [r7, #8]
    cd2e:	607a      	str	r2, [r7, #4]
/home/qemu-sgx/devel/optee/optee_os/lib/libutee/tee_api_objects.c:511
    cd30:	68fb      	ldr	r3, [r7, #12]
    cd32:	2b00      	cmp	r3, #0
    cd34:	d105      	bne.n	cd42 <TEE_RenamePersistentObject+0x20>
/home/qemu-sgx/devel/optee/optee_os/lib/libutee/tee_api_objects.c:512
    cd36:	f04f 0308 	mov.w	r3, #8
    cd3a:	f6cf 73ff 	movt	r3, #65535	; 0xffff
    cd3e:	617b      	str	r3, [r7, #20]
/home/qemu-sgx/devel/optee/optee_os/lib/libutee/tee_api_objects.c:513
    cd40:	e006      	b.n	cd50 <TEE_RenamePersistentObject+0x2e>
/home/qemu-sgx/devel/optee/optee_os/lib/libutee/tee_api_objects.c:516
    cd42:	68fb      	ldr	r3, [r7, #12]
    cd44:	687a      	ldr	r2, [r7, #4]
    cd46:	68b9      	ldr	r1, [r7, #8]
    cd48:	4618      	mov	r0, r3
    cd4a:	f7f6 eb0a 	blx	3360 <_utee_storage_obj_rename@plt>
    cd4e:	6178      	str	r0, [r7, #20]
/home/qemu-sgx/devel/optee/optee_os/lib/libutee/tee_api_objects.c:520
    cd50:	697b      	ldr	r3, [r7, #20]
    cd52:	2b00      	cmp	r3, #0
    cd54:	d017      	beq.n	cd86 <TEE_RenamePersistentObject+0x64>
/home/qemu-sgx/devel/optee/optee_os/lib/libutee/tee_api_objects.c:520 (discriminator 1)
    cd56:	697a      	ldr	r2, [r7, #20]
    cd58:	f04f 0303 	mov.w	r3, #3
    cd5c:	f6cf 73ff 	movt	r3, #65535	; 0xffff
    cd60:	429a      	cmp	r2, r3
    cd62:	d010      	beq.n	cd86 <TEE_RenamePersistentObject+0x64>
/home/qemu-sgx/devel/optee/optee_os/lib/libutee/tee_api_objects.c:521
    cd64:	697a      	ldr	r2, [r7, #20]
    cd66:	f04f 0301 	mov.w	r3, #1
    cd6a:	f2cf 0310 	movt	r3, #61456	; 0xf010
    cd6e:	429a      	cmp	r2, r3
    cd70:	d009      	beq.n	cd86 <TEE_RenamePersistentObject+0x64>
/home/qemu-sgx/devel/optee/optee_os/lib/libutee/tee_api_objects.c:522
    cd72:	697a      	ldr	r2, [r7, #20]
    cd74:	f04f 0303 	mov.w	r3, #3
    cd78:	f2cf 0310 	movt	r3, #61456	; 0xf010
    cd7c:	429a      	cmp	r2, r3
    cd7e:	d002      	beq.n	cd86 <TEE_RenamePersistentObject+0x64>
/home/qemu-sgx/devel/optee/optee_os/lib/libutee/tee_api_objects.c:524
    cd80:	6978      	ldr	r0, [r7, #20]
    cd82:	f7f6 e96e 	blx	3060 <TEE_Panic@plt>
/home/qemu-sgx/devel/optee/optee_os/lib/libutee/tee_api_objects.c:526
    cd86:	697b      	ldr	r3, [r7, #20]
/home/qemu-sgx/devel/optee/optee_os/lib/libutee/tee_api_objects.c:527
    cd88:	4618      	mov	r0, r3
    cd8a:	f107 0718 	add.w	r7, r7, #24
    cd8e:	46bd      	mov	sp, r7
    cd90:	bd80      	pop	{r7, pc}

0000cd92 <TEE_AllocatePersistentObjectEnumerator>:
TEE_AllocatePersistentObjectEnumerator():
/home/qemu-sgx/devel/optee/optee_os/lib/libutee/tee_api_objects.c:531
    cd92:	e96d 7e02 	strd	r7, lr, [sp, #-8]!
    cd96:	b084      	sub	sp, #16
    cd98:	af00      	add	r7, sp, #0
    cd9a:	6078      	str	r0, [r7, #4]
/home/qemu-sgx/devel/optee/optee_os/lib/libutee/tee_api_objects.c:535
    cd9c:	f04f 0104 	mov.w	r1, #4
    cda0:	6878      	ldr	r0, [r7, #4]
    cda2:	f7f6 e9b2 	blx	3108 <__utee_check_out_annotation@plt>
/home/qemu-sgx/devel/optee/optee_os/lib/libutee/tee_api_objects.c:538
    cda6:	f107 0308 	add.w	r3, r7, #8
    cdaa:	4618      	mov	r0, r3
    cdac:	f7f6 eb62 	blx	3474 <_utee_storage_alloc_enum@plt>
    cdb0:	60f8      	str	r0, [r7, #12]
/home/qemu-sgx/devel/optee/optee_os/lib/libutee/tee_api_objects.c:540
    cdb2:	68fb      	ldr	r3, [r7, #12]
    cdb4:	2b00      	cmp	r3, #0
    cdb6:	d002      	beq.n	cdbe <TEE_AllocatePersistentObjectEnumerator+0x2c>
/home/qemu-sgx/devel/optee/optee_os/lib/libutee/tee_api_objects.c:541
    cdb8:	f04f 0300 	mov.w	r3, #0
    cdbc:	60bb      	str	r3, [r7, #8]
/home/qemu-sgx/devel/optee/optee_os/lib/libutee/tee_api_objects.c:543
    cdbe:	68bb      	ldr	r3, [r7, #8]
    cdc0:	461a      	mov	r2, r3
    cdc2:	687b      	ldr	r3, [r7, #4]
    cdc4:	601a      	str	r2, [r3, #0]
/home/qemu-sgx/devel/optee/optee_os/lib/libutee/tee_api_objects.c:545
    cdc6:	68fb      	ldr	r3, [r7, #12]
    cdc8:	2b00      	cmp	r3, #0
    cdca:	d009      	beq.n	cde0 <TEE_AllocatePersistentObjectEnumerator+0x4e>
/home/qemu-sgx/devel/optee/optee_os/lib/libutee/tee_api_objects.c:545 (discriminator 1)
    cdcc:	68fa      	ldr	r2, [r7, #12]
    cdce:	f04f 0303 	mov.w	r3, #3
    cdd2:	f6cf 73ff 	movt	r3, #65535	; 0xffff
    cdd6:	429a      	cmp	r2, r3
    cdd8:	d002      	beq.n	cde0 <TEE_AllocatePersistentObjectEnumerator+0x4e>
/home/qemu-sgx/devel/optee/optee_os/lib/libutee/tee_api_objects.c:547
    cdda:	68f8      	ldr	r0, [r7, #12]
    cddc:	f7f6 e940 	blx	3060 <TEE_Panic@plt>
/home/qemu-sgx/devel/optee/optee_os/lib/libutee/tee_api_objects.c:549
    cde0:	68fb      	ldr	r3, [r7, #12]
/home/qemu-sgx/devel/optee/optee_os/lib/libutee/tee_api_objects.c:550
    cde2:	4618      	mov	r0, r3
    cde4:	f107 0710 	add.w	r7, r7, #16
    cde8:	46bd      	mov	sp, r7
    cdea:	bd80      	pop	{r7, pc}

0000cdec <TEE_FreePersistentObjectEnumerator>:
TEE_FreePersistentObjectEnumerator():
/home/qemu-sgx/devel/optee/optee_os/lib/libutee/tee_api_objects.c:553
    cdec:	e96d 7e02 	strd	r7, lr, [sp, #-8]!
    cdf0:	b084      	sub	sp, #16
    cdf2:	af00      	add	r7, sp, #0
    cdf4:	6078      	str	r0, [r7, #4]
/home/qemu-sgx/devel/optee/optee_os/lib/libutee/tee_api_objects.c:556
    cdf6:	687b      	ldr	r3, [r7, #4]
    cdf8:	2b00      	cmp	r3, #0
    cdfa:	d00b      	beq.n	ce14 <TEE_FreePersistentObjectEnumerator+0x28>
/home/qemu-sgx/devel/optee/optee_os/lib/libutee/tee_api_objects.c:559
    cdfc:	687b      	ldr	r3, [r7, #4]
    cdfe:	4618      	mov	r0, r3
    ce00:	f7f6 e910 	blx	3024 <_utee_storage_free_enum@plt>
    ce04:	60f8      	str	r0, [r7, #12]
/home/qemu-sgx/devel/optee/optee_os/lib/libutee/tee_api_objects.c:561
    ce06:	68fb      	ldr	r3, [r7, #12]
    ce08:	2b00      	cmp	r3, #0
    ce0a:	d004      	beq.n	ce16 <TEE_FreePersistentObjectEnumerator+0x2a>
/home/qemu-sgx/devel/optee/optee_os/lib/libutee/tee_api_objects.c:562
    ce0c:	68f8      	ldr	r0, [r7, #12]
    ce0e:	f7f6 e928 	blx	3060 <TEE_Panic@plt>
    ce12:	e000      	b.n	ce16 <TEE_FreePersistentObjectEnumerator+0x2a>
/home/qemu-sgx/devel/optee/optee_os/lib/libutee/tee_api_objects.c:557
    ce14:	bf00      	nop
/home/qemu-sgx/devel/optee/optee_os/lib/libutee/tee_api_objects.c:563
    ce16:	f107 0710 	add.w	r7, r7, #16
    ce1a:	46bd      	mov	sp, r7
    ce1c:	bd80      	pop	{r7, pc}

0000ce1e <TEE_ResetPersistentObjectEnumerator>:
TEE_ResetPersistentObjectEnumerator():
/home/qemu-sgx/devel/optee/optee_os/lib/libutee/tee_api_objects.c:566
    ce1e:	e96d 7e02 	strd	r7, lr, [sp, #-8]!
    ce22:	b084      	sub	sp, #16
    ce24:	af00      	add	r7, sp, #0
    ce26:	6078      	str	r0, [r7, #4]
/home/qemu-sgx/devel/optee/optee_os/lib/libutee/tee_api_objects.c:569
    ce28:	687b      	ldr	r3, [r7, #4]
    ce2a:	2b00      	cmp	r3, #0
    ce2c:	d00b      	beq.n	ce46 <TEE_ResetPersistentObjectEnumerator+0x28>
/home/qemu-sgx/devel/optee/optee_os/lib/libutee/tee_api_objects.c:572
    ce2e:	687b      	ldr	r3, [r7, #4]
    ce30:	4618      	mov	r0, r3
    ce32:	f7f6 e9e8 	blx	3204 <_utee_storage_reset_enum@plt>
    ce36:	60f8      	str	r0, [r7, #12]
/home/qemu-sgx/devel/optee/optee_os/lib/libutee/tee_api_objects.c:574
    ce38:	68fb      	ldr	r3, [r7, #12]
    ce3a:	2b00      	cmp	r3, #0
    ce3c:	d004      	beq.n	ce48 <TEE_ResetPersistentObjectEnumerator+0x2a>
/home/qemu-sgx/devel/optee/optee_os/lib/libutee/tee_api_objects.c:575
    ce3e:	68f8      	ldr	r0, [r7, #12]
    ce40:	f7f6 e90e 	blx	3060 <TEE_Panic@plt>
    ce44:	e000      	b.n	ce48 <TEE_ResetPersistentObjectEnumerator+0x2a>
/home/qemu-sgx/devel/optee/optee_os/lib/libutee/tee_api_objects.c:570
    ce46:	bf00      	nop
/home/qemu-sgx/devel/optee/optee_os/lib/libutee/tee_api_objects.c:576
    ce48:	f107 0710 	add.w	r7, r7, #16
    ce4c:	46bd      	mov	sp, r7
    ce4e:	bd80      	pop	{r7, pc}

0000ce50 <TEE_StartPersistentObjectEnumerator>:
TEE_StartPersistentObjectEnumerator():
/home/qemu-sgx/devel/optee/optee_os/lib/libutee/tee_api_objects.c:581
    ce50:	e96d 7e02 	strd	r7, lr, [sp, #-8]!
    ce54:	b084      	sub	sp, #16
    ce56:	af00      	add	r7, sp, #0
    ce58:	6078      	str	r0, [r7, #4]
    ce5a:	6039      	str	r1, [r7, #0]
/home/qemu-sgx/devel/optee/optee_os/lib/libutee/tee_api_objects.c:584
    ce5c:	687b      	ldr	r3, [r7, #4]
    ce5e:	6839      	ldr	r1, [r7, #0]
    ce60:	4618      	mov	r0, r3
    ce62:	f7f6 ea60 	blx	3324 <_utee_storage_start_enum@plt>
    ce66:	60f8      	str	r0, [r7, #12]
/home/qemu-sgx/devel/optee/optee_os/lib/libutee/tee_api_objects.c:587
    ce68:	68fb      	ldr	r3, [r7, #12]
    ce6a:	2b00      	cmp	r3, #0
    ce6c:	d017      	beq.n	ce9e <TEE_StartPersistentObjectEnumerator+0x4e>
/home/qemu-sgx/devel/optee/optee_os/lib/libutee/tee_api_objects.c:587 (discriminator 1)
    ce6e:	68fa      	ldr	r2, [r7, #12]
    ce70:	f04f 0308 	mov.w	r3, #8
    ce74:	f6cf 73ff 	movt	r3, #65535	; 0xffff
    ce78:	429a      	cmp	r2, r3
    ce7a:	d010      	beq.n	ce9e <TEE_StartPersistentObjectEnumerator+0x4e>
/home/qemu-sgx/devel/optee/optee_os/lib/libutee/tee_api_objects.c:588
    ce7c:	68fa      	ldr	r2, [r7, #12]
    ce7e:	f04f 0301 	mov.w	r3, #1
    ce82:	f2cf 0310 	movt	r3, #61456	; 0xf010
    ce86:	429a      	cmp	r2, r3
    ce88:	d009      	beq.n	ce9e <TEE_StartPersistentObjectEnumerator+0x4e>
/home/qemu-sgx/devel/optee/optee_os/lib/libutee/tee_api_objects.c:589
    ce8a:	68fa      	ldr	r2, [r7, #12]
    ce8c:	f04f 0303 	mov.w	r3, #3
    ce90:	f2cf 0310 	movt	r3, #61456	; 0xf010
    ce94:	429a      	cmp	r2, r3
    ce96:	d002      	beq.n	ce9e <TEE_StartPersistentObjectEnumerator+0x4e>
/home/qemu-sgx/devel/optee/optee_os/lib/libutee/tee_api_objects.c:591
    ce98:	68f8      	ldr	r0, [r7, #12]
    ce9a:	f7f6 e8e2 	blx	3060 <TEE_Panic@plt>
/home/qemu-sgx/devel/optee/optee_os/lib/libutee/tee_api_objects.c:593
    ce9e:	68fb      	ldr	r3, [r7, #12]
/home/qemu-sgx/devel/optee/optee_os/lib/libutee/tee_api_objects.c:594
    cea0:	4618      	mov	r0, r3
    cea2:	f107 0710 	add.w	r7, r7, #16
    cea6:	46bd      	mov	sp, r7
    cea8:	bd80      	pop	{r7, pc}

0000ceaa <TEE_GetNextPersistentObject>:
TEE_GetNextPersistentObject():
/home/qemu-sgx/devel/optee/optee_os/lib/libutee/tee_api_objects.c:599
    ceaa:	e96d 4504 	strd	r4, r5, [sp, #-16]!
    ceae:	e9cd 7e02 	strd	r7, lr, [sp, #8]
    ceb2:	b090      	sub	sp, #64	; 0x40
    ceb4:	af00      	add	r7, sp, #0
    ceb6:	60f8      	str	r0, [r7, #12]
    ceb8:	60b9      	str	r1, [r7, #8]
    ceba:	607a      	str	r2, [r7, #4]
    cebc:	603b      	str	r3, [r7, #0]
/home/qemu-sgx/devel/optee/optee_os/lib/libutee/tee_api_objects.c:605
    cebe:	68bb      	ldr	r3, [r7, #8]
    cec0:	2b00      	cmp	r3, #0
    cec2:	d004      	beq.n	cece <TEE_GetNextPersistentObject+0x24>
/home/qemu-sgx/devel/optee/optee_os/lib/libutee/tee_api_objects.c:606
    cec4:	f04f 011c 	mov.w	r1, #28
    cec8:	68b8      	ldr	r0, [r7, #8]
    ceca:	f7f6 e91e 	blx	3108 <__utee_check_out_annotation@plt>
/home/qemu-sgx/devel/optee/optee_os/lib/libutee/tee_api_objects.c:607
    cece:	f04f 0104 	mov.w	r1, #4
    ced2:	6838      	ldr	r0, [r7, #0]
    ced4:	f7f6 e918 	blx	3108 <__utee_check_out_annotation@plt>
/home/qemu-sgx/devel/optee/optee_os/lib/libutee/tee_api_objects.c:609
    ced8:	687b      	ldr	r3, [r7, #4]
    ceda:	2b00      	cmp	r3, #0
    cedc:	d105      	bne.n	ceea <TEE_GetNextPersistentObject+0x40>
/home/qemu-sgx/devel/optee/optee_os/lib/libutee/tee_api_objects.c:610
    cede:	f04f 0306 	mov.w	r3, #6
    cee2:	f6cf 73ff 	movt	r3, #65535	; 0xffff
    cee6:	63fb      	str	r3, [r7, #60]	; 0x3c
/home/qemu-sgx/devel/optee/optee_os/lib/libutee/tee_api_objects.c:611
    cee8:	e01c      	b.n	cf24 <TEE_GetNextPersistentObject+0x7a>
/home/qemu-sgx/devel/optee/optee_os/lib/libutee/tee_api_objects.c:614
    ceea:	68bb      	ldr	r3, [r7, #8]
    ceec:	2b00      	cmp	r3, #0
    ceee:	d002      	beq.n	cef6 <TEE_GetNextPersistentObject+0x4c>
/home/qemu-sgx/devel/optee/optee_os/lib/libutee/tee_api_objects.c:615
    cef0:	68bb      	ldr	r3, [r7, #8]
    cef2:	63bb      	str	r3, [r7, #56]	; 0x38
    cef4:	e002      	b.n	cefc <TEE_GetNextPersistentObject+0x52>
/home/qemu-sgx/devel/optee/optee_os/lib/libutee/tee_api_objects.c:617
    cef6:	f107 0314 	add.w	r3, r7, #20
    cefa:	63bb      	str	r3, [r7, #56]	; 0x38
/home/qemu-sgx/devel/optee/optee_os/lib/libutee/tee_api_objects.c:618
    cefc:	683b      	ldr	r3, [r7, #0]
    cefe:	681b      	ldr	r3, [r3, #0]
    cf00:	f04f 0200 	mov.w	r2, #0
    cf04:	461c      	mov	r4, r3
    cf06:	4615      	mov	r5, r2
    cf08:	e9c7 450c 	strd	r4, r5, [r7, #48]	; 0x30
/home/qemu-sgx/devel/optee/optee_os/lib/libutee/tee_api_objects.c:619
    cf0c:	68f8      	ldr	r0, [r7, #12]
    cf0e:	f107 0330 	add.w	r3, r7, #48	; 0x30
    cf12:	687a      	ldr	r2, [r7, #4]
    cf14:	6bb9      	ldr	r1, [r7, #56]	; 0x38
    cf16:	f7f6 e8ce 	blx	30b4 <_utee_storage_next_enum@plt>
    cf1a:	63f8      	str	r0, [r7, #60]	; 0x3c
/home/qemu-sgx/devel/optee/optee_os/lib/libutee/tee_api_objects.c:621
    cf1c:	e9d7 230c 	ldrd	r2, r3, [r7, #48]	; 0x30
    cf20:	683b      	ldr	r3, [r7, #0]
    cf22:	601a      	str	r2, [r3, #0]
/home/qemu-sgx/devel/optee/optee_os/lib/libutee/tee_api_objects.c:624
    cf24:	6bfb      	ldr	r3, [r7, #60]	; 0x3c
    cf26:	2b00      	cmp	r3, #0
    cf28:	d017      	beq.n	cf5a <TEE_GetNextPersistentObject+0xb0>
/home/qemu-sgx/devel/optee/optee_os/lib/libutee/tee_api_objects.c:624 (discriminator 1)
    cf2a:	6bfa      	ldr	r2, [r7, #60]	; 0x3c
    cf2c:	f04f 0308 	mov.w	r3, #8
    cf30:	f6cf 73ff 	movt	r3, #65535	; 0xffff
    cf34:	429a      	cmp	r2, r3
    cf36:	d010      	beq.n	cf5a <TEE_GetNextPersistentObject+0xb0>
/home/qemu-sgx/devel/optee/optee_os/lib/libutee/tee_api_objects.c:625
    cf38:	6bfa      	ldr	r2, [r7, #60]	; 0x3c
    cf3a:	f04f 0301 	mov.w	r3, #1
    cf3e:	f2cf 0310 	movt	r3, #61456	; 0xf010
    cf42:	429a      	cmp	r2, r3
    cf44:	d009      	beq.n	cf5a <TEE_GetNextPersistentObject+0xb0>
/home/qemu-sgx/devel/optee/optee_os/lib/libutee/tee_api_objects.c:626
    cf46:	6bfa      	ldr	r2, [r7, #60]	; 0x3c
    cf48:	f04f 0303 	mov.w	r3, #3
    cf4c:	f2cf 0310 	movt	r3, #61456	; 0xf010
    cf50:	429a      	cmp	r2, r3
    cf52:	d002      	beq.n	cf5a <TEE_GetNextPersistentObject+0xb0>
/home/qemu-sgx/devel/optee/optee_os/lib/libutee/tee_api_objects.c:628
    cf54:	6bf8      	ldr	r0, [r7, #60]	; 0x3c
    cf56:	f7f6 e884 	blx	3060 <TEE_Panic@plt>
/home/qemu-sgx/devel/optee/optee_os/lib/libutee/tee_api_objects.c:630
    cf5a:	6bfb      	ldr	r3, [r7, #60]	; 0x3c
/home/qemu-sgx/devel/optee/optee_os/lib/libutee/tee_api_objects.c:631
    cf5c:	4618      	mov	r0, r3
    cf5e:	f107 0740 	add.w	r7, r7, #64	; 0x40
    cf62:	46bd      	mov	sp, r7
    cf64:	e9dd 4500 	ldrd	r4, r5, [sp]
    cf68:	b002      	add	sp, #8
    cf6a:	bd80      	pop	{r7, pc}

0000cf6c <TEE_ReadObjectData>:
TEE_ReadObjectData():
/home/qemu-sgx/devel/optee/optee_os/lib/libutee/tee_api_objects.c:637
    cf6c:	e96d 4504 	strd	r4, r5, [sp, #-16]!
    cf70:	e9cd 7e02 	strd	r7, lr, [sp, #8]
    cf74:	b088      	sub	sp, #32
    cf76:	af00      	add	r7, sp, #0
    cf78:	60f8      	str	r0, [r7, #12]
    cf7a:	60b9      	str	r1, [r7, #8]
    cf7c:	607a      	str	r2, [r7, #4]
    cf7e:	603b      	str	r3, [r7, #0]
/home/qemu-sgx/devel/optee/optee_os/lib/libutee/tee_api_objects.c:641
    cf80:	68fb      	ldr	r3, [r7, #12]
    cf82:	2b00      	cmp	r3, #0
    cf84:	d105      	bne.n	cf92 <TEE_ReadObjectData+0x26>
/home/qemu-sgx/devel/optee/optee_os/lib/libutee/tee_api_objects.c:642
    cf86:	f04f 0306 	mov.w	r3, #6
    cf8a:	f6cf 73ff 	movt	r3, #65535	; 0xffff
    cf8e:	61fb      	str	r3, [r7, #28]
/home/qemu-sgx/devel/optee/optee_os/lib/libutee/tee_api_objects.c:643
    cf90:	e018      	b.n	cfc4 <TEE_ReadObjectData+0x58>
/home/qemu-sgx/devel/optee/optee_os/lib/libutee/tee_api_objects.c:645
    cf92:	f04f 0104 	mov.w	r1, #4
    cf96:	6838      	ldr	r0, [r7, #0]
    cf98:	f7f6 e8b6 	blx	3108 <__utee_check_out_annotation@plt>
/home/qemu-sgx/devel/optee/optee_os/lib/libutee/tee_api_objects.c:647
    cf9c:	683b      	ldr	r3, [r7, #0]
    cf9e:	681b      	ldr	r3, [r3, #0]
    cfa0:	f04f 0200 	mov.w	r2, #0
    cfa4:	461c      	mov	r4, r3
    cfa6:	4615      	mov	r5, r2
    cfa8:	e9c7 4504 	strd	r4, r5, [r7, #16]
/home/qemu-sgx/devel/optee/optee_os/lib/libutee/tee_api_objects.c:648
    cfac:	68f8      	ldr	r0, [r7, #12]
    cfae:	f107 0310 	add.w	r3, r7, #16
    cfb2:	687a      	ldr	r2, [r7, #4]
    cfb4:	68b9      	ldr	r1, [r7, #8]
    cfb6:	f7f6 e908 	blx	31c8 <_utee_storage_obj_read@plt>
    cfba:	61f8      	str	r0, [r7, #28]
/home/qemu-sgx/devel/optee/optee_os/lib/libutee/tee_api_objects.c:650
    cfbc:	e9d7 2304 	ldrd	r2, r3, [r7, #16]
    cfc0:	683b      	ldr	r3, [r7, #0]
    cfc2:	601a      	str	r2, [r3, #0]
/home/qemu-sgx/devel/optee/optee_os/lib/libutee/tee_api_objects.c:653
    cfc4:	69fb      	ldr	r3, [r7, #28]
    cfc6:	2b00      	cmp	r3, #0
    cfc8:	d010      	beq.n	cfec <TEE_ReadObjectData+0x80>
/home/qemu-sgx/devel/optee/optee_os/lib/libutee/tee_api_objects.c:653 (discriminator 1)
    cfca:	69fa      	ldr	r2, [r7, #28]
    cfcc:	f04f 0301 	mov.w	r3, #1
    cfd0:	f2cf 0310 	movt	r3, #61456	; 0xf010
    cfd4:	429a      	cmp	r2, r3
    cfd6:	d009      	beq.n	cfec <TEE_ReadObjectData+0x80>
/home/qemu-sgx/devel/optee/optee_os/lib/libutee/tee_api_objects.c:654
    cfd8:	69fa      	ldr	r2, [r7, #28]
    cfda:	f04f 0303 	mov.w	r3, #3
    cfde:	f2cf 0310 	movt	r3, #61456	; 0xf010
    cfe2:	429a      	cmp	r2, r3
    cfe4:	d002      	beq.n	cfec <TEE_ReadObjectData+0x80>
/home/qemu-sgx/devel/optee/optee_os/lib/libutee/tee_api_objects.c:656
    cfe6:	69f8      	ldr	r0, [r7, #28]
    cfe8:	f7f6 e83a 	blx	3060 <TEE_Panic@plt>
/home/qemu-sgx/devel/optee/optee_os/lib/libutee/tee_api_objects.c:658
    cfec:	69fb      	ldr	r3, [r7, #28]
/home/qemu-sgx/devel/optee/optee_os/lib/libutee/tee_api_objects.c:659
    cfee:	4618      	mov	r0, r3
    cff0:	f107 0720 	add.w	r7, r7, #32
    cff4:	46bd      	mov	sp, r7
    cff6:	e9dd 4500 	ldrd	r4, r5, [sp]
    cffa:	b002      	add	sp, #8
    cffc:	bd80      	pop	{r7, pc}

0000cffe <TEE_WriteObjectData>:
TEE_WriteObjectData():
/home/qemu-sgx/devel/optee/optee_os/lib/libutee/tee_api_objects.c:663
    cffe:	e96d 7e02 	strd	r7, lr, [sp, #-8]!
    d002:	b086      	sub	sp, #24
    d004:	af00      	add	r7, sp, #0
    d006:	60f8      	str	r0, [r7, #12]
    d008:	60b9      	str	r1, [r7, #8]
    d00a:	607a      	str	r2, [r7, #4]
/home/qemu-sgx/devel/optee/optee_os/lib/libutee/tee_api_objects.c:666
    d00c:	68fb      	ldr	r3, [r7, #12]
    d00e:	2b00      	cmp	r3, #0
    d010:	d105      	bne.n	d01e <TEE_WriteObjectData+0x20>
/home/qemu-sgx/devel/optee/optee_os/lib/libutee/tee_api_objects.c:667
    d012:	f04f 0306 	mov.w	r3, #6
    d016:	f6cf 73ff 	movt	r3, #65535	; 0xffff
    d01a:	617b      	str	r3, [r7, #20]
/home/qemu-sgx/devel/optee/optee_os/lib/libutee/tee_api_objects.c:668
    d01c:	e006      	b.n	d02c <TEE_WriteObjectData+0x2e>
/home/qemu-sgx/devel/optee/optee_os/lib/libutee/tee_api_objects.c:676
    d01e:	68fb      	ldr	r3, [r7, #12]
    d020:	687a      	ldr	r2, [r7, #4]
    d022:	68b9      	ldr	r1, [r7, #8]
    d024:	4618      	mov	r0, r3
    d026:	f7f6 e9a2 	blx	336c <_utee_storage_obj_write@plt>
    d02a:	6178      	str	r0, [r7, #20]
/home/qemu-sgx/devel/optee/optee_os/lib/libutee/tee_api_objects.c:679
    d02c:	697b      	ldr	r3, [r7, #20]
    d02e:	2b00      	cmp	r3, #0
    d030:	d01e      	beq.n	d070 <TEE_WriteObjectData+0x72>
/home/qemu-sgx/devel/optee/optee_os/lib/libutee/tee_api_objects.c:679 (discriminator 1)
    d032:	697a      	ldr	r2, [r7, #20]
    d034:	f243 0341 	movw	r3, #12353	; 0x3041
    d038:	f6cf 73ff 	movt	r3, #65535	; 0xffff
    d03c:	429a      	cmp	r2, r3
    d03e:	d017      	beq.n	d070 <TEE_WriteObjectData+0x72>
/home/qemu-sgx/devel/optee/optee_os/lib/libutee/tee_api_objects.c:680
    d040:	697a      	ldr	r2, [r7, #20]
    d042:	f243 030f 	movw	r3, #12303	; 0x300f
    d046:	f6cf 73ff 	movt	r3, #65535	; 0xffff
    d04a:	429a      	cmp	r2, r3
    d04c:	d010      	beq.n	d070 <TEE_WriteObjectData+0x72>
/home/qemu-sgx/devel/optee/optee_os/lib/libutee/tee_api_objects.c:681
    d04e:	697a      	ldr	r2, [r7, #20]
    d050:	f04f 0301 	mov.w	r3, #1
    d054:	f2cf 0310 	movt	r3, #61456	; 0xf010
    d058:	429a      	cmp	r2, r3
    d05a:	d009      	beq.n	d070 <TEE_WriteObjectData+0x72>
/home/qemu-sgx/devel/optee/optee_os/lib/libutee/tee_api_objects.c:682
    d05c:	697a      	ldr	r2, [r7, #20]
    d05e:	f04f 0303 	mov.w	r3, #3
    d062:	f2cf 0310 	movt	r3, #61456	; 0xf010
    d066:	429a      	cmp	r2, r3
    d068:	d002      	beq.n	d070 <TEE_WriteObjectData+0x72>
/home/qemu-sgx/devel/optee/optee_os/lib/libutee/tee_api_objects.c:684
    d06a:	6978      	ldr	r0, [r7, #20]
    d06c:	f7f5 eff8 	blx	3060 <TEE_Panic@plt>
/home/qemu-sgx/devel/optee/optee_os/lib/libutee/tee_api_objects.c:686
    d070:	697b      	ldr	r3, [r7, #20]
/home/qemu-sgx/devel/optee/optee_os/lib/libutee/tee_api_objects.c:687
    d072:	4618      	mov	r0, r3
    d074:	f107 0718 	add.w	r7, r7, #24
    d078:	46bd      	mov	sp, r7
    d07a:	bd80      	pop	{r7, pc}

0000d07c <TEE_TruncateObjectData>:
TEE_TruncateObjectData():
/home/qemu-sgx/devel/optee/optee_os/lib/libutee/tee_api_objects.c:690
    d07c:	e96d 7e02 	strd	r7, lr, [sp, #-8]!
    d080:	b084      	sub	sp, #16
    d082:	af00      	add	r7, sp, #0
    d084:	6078      	str	r0, [r7, #4]
    d086:	6039      	str	r1, [r7, #0]
/home/qemu-sgx/devel/optee/optee_os/lib/libutee/tee_api_objects.c:693
    d088:	687b      	ldr	r3, [r7, #4]
    d08a:	2b00      	cmp	r3, #0
    d08c:	d105      	bne.n	d09a <TEE_TruncateObjectData+0x1e>
/home/qemu-sgx/devel/optee/optee_os/lib/libutee/tee_api_objects.c:694
    d08e:	f04f 0306 	mov.w	r3, #6
    d092:	f6cf 73ff 	movt	r3, #65535	; 0xffff
    d096:	60fb      	str	r3, [r7, #12]
/home/qemu-sgx/devel/optee/optee_os/lib/libutee/tee_api_objects.c:695
    d098:	e005      	b.n	d0a6 <TEE_TruncateObjectData+0x2a>
/home/qemu-sgx/devel/optee/optee_os/lib/libutee/tee_api_objects.c:698
    d09a:	687b      	ldr	r3, [r7, #4]
    d09c:	6839      	ldr	r1, [r7, #0]
    d09e:	4618      	mov	r0, r3
    d0a0:	f7f6 e856 	blx	3150 <_utee_storage_obj_trunc@plt>
    d0a4:	60f8      	str	r0, [r7, #12]
/home/qemu-sgx/devel/optee/optee_os/lib/libutee/tee_api_objects.c:701
    d0a6:	68fb      	ldr	r3, [r7, #12]
    d0a8:	2b00      	cmp	r3, #0
    d0aa:	d017      	beq.n	d0dc <TEE_TruncateObjectData+0x60>
/home/qemu-sgx/devel/optee/optee_os/lib/libutee/tee_api_objects.c:701 (discriminator 1)
    d0ac:	68fa      	ldr	r2, [r7, #12]
    d0ae:	f243 0341 	movw	r3, #12353	; 0x3041
    d0b2:	f6cf 73ff 	movt	r3, #65535	; 0xffff
    d0b6:	429a      	cmp	r2, r3
    d0b8:	d010      	beq.n	d0dc <TEE_TruncateObjectData+0x60>
/home/qemu-sgx/devel/optee/optee_os/lib/libutee/tee_api_objects.c:702
    d0ba:	68fa      	ldr	r2, [r7, #12]
    d0bc:	f04f 0301 	mov.w	r3, #1
    d0c0:	f2cf 0310 	movt	r3, #61456	; 0xf010
    d0c4:	429a      	cmp	r2, r3
    d0c6:	d009      	beq.n	d0dc <TEE_TruncateObjectData+0x60>
/home/qemu-sgx/devel/optee/optee_os/lib/libutee/tee_api_objects.c:703
    d0c8:	68fa      	ldr	r2, [r7, #12]
    d0ca:	f04f 0303 	mov.w	r3, #3
    d0ce:	f2cf 0310 	movt	r3, #61456	; 0xf010
    d0d2:	429a      	cmp	r2, r3
    d0d4:	d002      	beq.n	d0dc <TEE_TruncateObjectData+0x60>
/home/qemu-sgx/devel/optee/optee_os/lib/libutee/tee_api_objects.c:705
    d0d6:	68f8      	ldr	r0, [r7, #12]
    d0d8:	f7f5 efc2 	blx	3060 <TEE_Panic@plt>
/home/qemu-sgx/devel/optee/optee_os/lib/libutee/tee_api_objects.c:707
    d0dc:	68fb      	ldr	r3, [r7, #12]
/home/qemu-sgx/devel/optee/optee_os/lib/libutee/tee_api_objects.c:708
    d0de:	4618      	mov	r0, r3
    d0e0:	f107 0710 	add.w	r7, r7, #16
    d0e4:	46bd      	mov	sp, r7
    d0e6:	bd80      	pop	{r7, pc}

0000d0e8 <TEE_SeekObjectData>:
TEE_SeekObjectData():
/home/qemu-sgx/devel/optee/optee_os/lib/libutee/tee_api_objects.c:712
    d0e8:	e96d 7e02 	strd	r7, lr, [sp, #-8]!
    d0ec:	b08c      	sub	sp, #48	; 0x30
    d0ee:	af00      	add	r7, sp, #0
    d0f0:	60f8      	str	r0, [r7, #12]
    d0f2:	60b9      	str	r1, [r7, #8]
    d0f4:	607a      	str	r2, [r7, #4]
/home/qemu-sgx/devel/optee/optee_os/lib/libutee/tee_api_objects.c:716
    d0f6:	68fb      	ldr	r3, [r7, #12]
    d0f8:	2b00      	cmp	r3, #0
    d0fa:	d105      	bne.n	d108 <TEE_SeekObjectData+0x20>
/home/qemu-sgx/devel/optee/optee_os/lib/libutee/tee_api_objects.c:717
    d0fc:	f04f 0306 	mov.w	r3, #6
    d100:	f6cf 73ff 	movt	r3, #65535	; 0xffff
    d104:	62fb      	str	r3, [r7, #44]	; 0x2c
/home/qemu-sgx/devel/optee/optee_os/lib/libutee/tee_api_objects.c:718
    d106:	e048      	b.n	d19a <TEE_SeekObjectData+0xb2>
/home/qemu-sgx/devel/optee/optee_os/lib/libutee/tee_api_objects.c:721
    d108:	68fb      	ldr	r3, [r7, #12]
    d10a:	f107 0210 	add.w	r2, r7, #16
    d10e:	4611      	mov	r1, r2
    d110:	4618      	mov	r0, r3
    d112:	f7f6 e8cc 	blx	32ac <_utee_cryp_obj_get_info@plt>
    d116:	62f8      	str	r0, [r7, #44]	; 0x2c
/home/qemu-sgx/devel/optee/optee_os/lib/libutee/tee_api_objects.c:722
    d118:	6afb      	ldr	r3, [r7, #44]	; 0x2c
    d11a:	2b00      	cmp	r3, #0
    d11c:	d13c      	bne.n	d198 <TEE_SeekObjectData+0xb0>
/home/qemu-sgx/devel/optee/optee_os/lib/libutee/tee_api_objects.c:725
    d11e:	687b      	ldr	r3, [r7, #4]
    d120:	2b02      	cmp	r3, #2
    d122:	d017      	beq.n	d154 <TEE_SeekObjectData+0x6c>
    d124:	687b      	ldr	r3, [r7, #4]
    d126:	2b02      	cmp	r3, #2
    d128:	d823      	bhi.n	d172 <TEE_SeekObjectData+0x8a>
    d12a:	687b      	ldr	r3, [r7, #4]
    d12c:	2b00      	cmp	r3, #0
    d12e:	d026      	beq.n	d17e <TEE_SeekObjectData+0x96>
    d130:	687b      	ldr	r3, [r7, #4]
    d132:	2b01      	cmp	r3, #1
    d134:	d11d      	bne.n	d172 <TEE_SeekObjectData+0x8a>
/home/qemu-sgx/devel/optee/optee_os/lib/libutee/tee_api_objects.c:733
    d136:	68bb      	ldr	r3, [r7, #8]
    d138:	2b00      	cmp	r3, #0
    d13a:	dd22      	ble.n	d182 <TEE_SeekObjectData+0x9a>
/home/qemu-sgx/devel/optee/optee_os/lib/libutee/tee_api_objects.c:736 (discriminator 1)
    d13c:	6a7a      	ldr	r2, [r7, #36]	; 0x24
    d13e:	68bb      	ldr	r3, [r7, #8]
    d140:	441a      	add	r2, r3
/home/qemu-sgx/devel/optee/optee_os/lib/libutee/tee_api_objects.c:737 (discriminator 1)
    d142:	6a7b      	ldr	r3, [r7, #36]	; 0x24
/home/qemu-sgx/devel/optee/optee_os/lib/libutee/tee_api_objects.c:733 (discriminator 1)
    d144:	429a      	cmp	r2, r3
    d146:	d21c      	bcs.n	d182 <TEE_SeekObjectData+0x9a>
/home/qemu-sgx/devel/optee/optee_os/lib/libutee/tee_api_objects.c:738
    d148:	f243 030f 	movw	r3, #12303	; 0x300f
    d14c:	f6cf 73ff 	movt	r3, #65535	; 0xffff
    d150:	62fb      	str	r3, [r7, #44]	; 0x2c
/home/qemu-sgx/devel/optee/optee_os/lib/libutee/tee_api_objects.c:739
    d152:	e022      	b.n	d19a <TEE_SeekObjectData+0xb2>
/home/qemu-sgx/devel/optee/optee_os/lib/libutee/tee_api_objects.c:743
    d154:	68bb      	ldr	r3, [r7, #8]
    d156:	2b00      	cmp	r3, #0
    d158:	dd15      	ble.n	d186 <TEE_SeekObjectData+0x9e>
/home/qemu-sgx/devel/optee/optee_os/lib/libutee/tee_api_objects.c:745 (discriminator 1)
    d15a:	6a3a      	ldr	r2, [r7, #32]
    d15c:	68bb      	ldr	r3, [r7, #8]
    d15e:	441a      	add	r2, r3
    d160:	6a3b      	ldr	r3, [r7, #32]
/home/qemu-sgx/devel/optee/optee_os/lib/libutee/tee_api_objects.c:743 (discriminator 1)
    d162:	429a      	cmp	r2, r3
    d164:	d20f      	bcs.n	d186 <TEE_SeekObjectData+0x9e>
/home/qemu-sgx/devel/optee/optee_os/lib/libutee/tee_api_objects.c:746
    d166:	f243 030f 	movw	r3, #12303	; 0x300f
    d16a:	f6cf 73ff 	movt	r3, #65535	; 0xffff
    d16e:	62fb      	str	r3, [r7, #44]	; 0x2c
/home/qemu-sgx/devel/optee/optee_os/lib/libutee/tee_api_objects.c:747
    d170:	e013      	b.n	d19a <TEE_SeekObjectData+0xb2>
/home/qemu-sgx/devel/optee/optee_os/lib/libutee/tee_api_objects.c:751
    d172:	f04f 0308 	mov.w	r3, #8
    d176:	f6cf 73ff 	movt	r3, #65535	; 0xffff
    d17a:	62fb      	str	r3, [r7, #44]	; 0x2c
/home/qemu-sgx/devel/optee/optee_os/lib/libutee/tee_api_objects.c:752
    d17c:	e00d      	b.n	d19a <TEE_SeekObjectData+0xb2>
/home/qemu-sgx/devel/optee/optee_os/lib/libutee/tee_api_objects.c:731
    d17e:	bf00      	nop
    d180:	e002      	b.n	d188 <TEE_SeekObjectData+0xa0>
/home/qemu-sgx/devel/optee/optee_os/lib/libutee/tee_api_objects.c:741
    d182:	bf00      	nop
    d184:	e000      	b.n	d188 <TEE_SeekObjectData+0xa0>
/home/qemu-sgx/devel/optee/optee_os/lib/libutee/tee_api_objects.c:749
    d186:	bf00      	nop
/home/qemu-sgx/devel/optee/optee_os/lib/libutee/tee_api_objects.c:755
    d188:	68fb      	ldr	r3, [r7, #12]
    d18a:	687a      	ldr	r2, [r7, #4]
    d18c:	68b9      	ldr	r1, [r7, #8]
    d18e:	4618      	mov	r0, r3
    d190:	f7f6 e826 	blx	31e0 <_utee_storage_obj_seek@plt>
    d194:	62f8      	str	r0, [r7, #44]	; 0x2c
    d196:	e000      	b.n	d19a <TEE_SeekObjectData+0xb2>
/home/qemu-sgx/devel/optee/optee_os/lib/libutee/tee_api_objects.c:723
    d198:	bf00      	nop
/home/qemu-sgx/devel/optee/optee_os/lib/libutee/tee_api_objects.c:758
    d19a:	6afb      	ldr	r3, [r7, #44]	; 0x2c
    d19c:	2b00      	cmp	r3, #0
    d19e:	d017      	beq.n	d1d0 <TEE_SeekObjectData+0xe8>
/home/qemu-sgx/devel/optee/optee_os/lib/libutee/tee_api_objects.c:758 (discriminator 1)
    d1a0:	6afa      	ldr	r2, [r7, #44]	; 0x2c
    d1a2:	f243 030f 	movw	r3, #12303	; 0x300f
    d1a6:	f6cf 73ff 	movt	r3, #65535	; 0xffff
    d1aa:	429a      	cmp	r2, r3
    d1ac:	d010      	beq.n	d1d0 <TEE_SeekObjectData+0xe8>
/home/qemu-sgx/devel/optee/optee_os/lib/libutee/tee_api_objects.c:759
    d1ae:	6afa      	ldr	r2, [r7, #44]	; 0x2c
    d1b0:	f04f 0301 	mov.w	r3, #1
    d1b4:	f2cf 0310 	movt	r3, #61456	; 0xf010
    d1b8:	429a      	cmp	r2, r3
    d1ba:	d009      	beq.n	d1d0 <TEE_SeekObjectData+0xe8>
/home/qemu-sgx/devel/optee/optee_os/lib/libutee/tee_api_objects.c:760
    d1bc:	6afa      	ldr	r2, [r7, #44]	; 0x2c
    d1be:	f04f 0303 	mov.w	r3, #3
    d1c2:	f2cf 0310 	movt	r3, #61456	; 0xf010
    d1c6:	429a      	cmp	r2, r3
    d1c8:	d002      	beq.n	d1d0 <TEE_SeekObjectData+0xe8>
/home/qemu-sgx/devel/optee/optee_os/lib/libutee/tee_api_objects.c:762
    d1ca:	6af8      	ldr	r0, [r7, #44]	; 0x2c
    d1cc:	f7f5 ef48 	blx	3060 <TEE_Panic@plt>
/home/qemu-sgx/devel/optee/optee_os/lib/libutee/tee_api_objects.c:764
    d1d0:	6afb      	ldr	r3, [r7, #44]	; 0x2c
/home/qemu-sgx/devel/optee/optee_os/lib/libutee/tee_api_objects.c:765
    d1d2:	4618      	mov	r0, r3
    d1d4:	f107 0730 	add.w	r7, r7, #48	; 0x30
    d1d8:	46bd      	mov	sp, r7
    d1da:	bd80      	pop	{r7, pc}

0000d1dc <snprintf>:
snprintf():
/home/qemu-sgx/devel/optee/optee_os/lib/libutils/isoc/snprintf.c:10
    d1dc:	b40c      	push	{r2, r3}
    d1de:	e96d 7e02 	strd	r7, lr, [sp, #-8]!
    d1e2:	b086      	sub	sp, #24
    d1e4:	af02      	add	r7, sp, #8
    d1e6:	6078      	str	r0, [r7, #4]
    d1e8:	6039      	str	r1, [r7, #0]
/home/qemu-sgx/devel/optee/optee_os/lib/libutils/isoc/snprintf.c:14
    d1ea:	f107 031c 	add.w	r3, r7, #28
    d1ee:	60bb      	str	r3, [r7, #8]
/home/qemu-sgx/devel/optee/optee_os/lib/libutils/isoc/snprintf.c:15
    d1f0:	f04f 0300 	mov.w	r3, #0
    d1f4:	9300      	str	r3, [sp, #0]
    d1f6:	68bb      	ldr	r3, [r7, #8]
    d1f8:	69ba      	ldr	r2, [r7, #24]
    d1fa:	6839      	ldr	r1, [r7, #0]
    d1fc:	6878      	ldr	r0, [r7, #4]
    d1fe:	f7f6 e904 	blx	3408 <__vsnprintf@plt>
    d202:	60f8      	str	r0, [r7, #12]
/home/qemu-sgx/devel/optee/optee_os/lib/libutils/isoc/snprintf.c:18
    d204:	68fb      	ldr	r3, [r7, #12]
/home/qemu-sgx/devel/optee/optee_os/lib/libutils/isoc/snprintf.c:19
    d206:	4618      	mov	r0, r3
    d208:	f107 0710 	add.w	r7, r7, #16
    d20c:	46bd      	mov	sp, r7
    d20e:	e9dd 7e00 	ldrd	r7, lr, [sp]
    d212:	b002      	add	sp, #8
    d214:	b002      	add	sp, #8
    d216:	4770      	bx	lr

0000d218 <vsnprintf>:
vsnprintf():
/home/qemu-sgx/devel/optee/optee_os/lib/libutils/isoc/snprintf.c:22
    d218:	e96d 7e02 	strd	r7, lr, [sp, #-8]!
    d21c:	b086      	sub	sp, #24
    d21e:	af02      	add	r7, sp, #8
    d220:	60f8      	str	r0, [r7, #12]
    d222:	60b9      	str	r1, [r7, #8]
    d224:	607a      	str	r2, [r7, #4]
    d226:	603b      	str	r3, [r7, #0]
/home/qemu-sgx/devel/optee/optee_os/lib/libutils/isoc/snprintf.c:23
    d228:	f04f 0300 	mov.w	r3, #0
    d22c:	9300      	str	r3, [sp, #0]
    d22e:	683b      	ldr	r3, [r7, #0]
    d230:	687a      	ldr	r2, [r7, #4]
    d232:	68b9      	ldr	r1, [r7, #8]
    d234:	68f8      	ldr	r0, [r7, #12]
    d236:	f7f6 e8e8 	blx	3408 <__vsnprintf@plt>
    d23a:	4603      	mov	r3, r0
/home/qemu-sgx/devel/optee/optee_os/lib/libutils/isoc/snprintf.c:24
    d23c:	4618      	mov	r0, r3
    d23e:	f107 0710 	add.w	r7, r7, #16
    d242:	46bd      	mov	sp, r7
    d244:	bd80      	pop	{r7, pc}
