
out/5b9e0e40-2636-11e1-ad9e-0002a5d5c51b.elf:     file format elf32-littlearm
out/5b9e0e40-2636-11e1-ad9e-0002a5d5c51b.elf
architecture: armv7, flags 0x00000150:
HAS_SYMS, DYNAMIC, D_PAGED
start address 0x000044ec

Program Header:
0x70000001 off    0x000226ec vaddr 0x000216ec paddr 0x000216ec align 2**2
         filesz 0x00000db0 memsz 0x00000db0 flags r--
    LOAD off    0x00001000 vaddr 0x00000000 paddr 0x00000000 align 2**12
         filesz 0x00022e0c memsz 0x00022e0c flags r-x
    LOAD off    0x00024000 vaddr 0x00023000 paddr 0x00023000 align 2**12
         filesz 0x00001b60 memsz 0x000e5be0 flags rw-
 DYNAMIC off    0x00024000 vaddr 0x00023000 paddr 0x00023000 align 2**2
         filesz 0x000000c0 memsz 0x000000c0 flags rw-
     TLS off    0x000240c0 vaddr 0x000230c0 paddr 0x000230c0 align 2**2
         filesz 0x00000004 memsz 0x00000014 flags r--
   STACK off    0x00000000 vaddr 0x00000000 paddr 0x00000000 align 2**4
         filesz 0x00000000 memsz 0x00000000 flags rwx

Dynamic Section:
  NEEDED               ffd2bded-ab7d-4988-95ee-e4962fff7154
  INIT_ARRAY           0x00024b54
  INIT_ARRAYSZ         0x0000000c
  HASH                 0x00022c74
  GNU_HASH             0x000204f8
  STRTAB               0x0002288c
  SYMTAB               0x0002249c
  STRSZ                0x000003e6
  SYMENT               0x00000010
  DEBUG                0x00000000
  PLTGOT               0x000230c4
  PLTRELSZ             0x000001a8
  PLTREL               0x00000011
  JMPREL               0x00023f44
  REL                  0x0002329c
  RELSZ                0x00000ca8
  RELENT               0x00000008
  FLAGS_1              0x08000000
  RELCOUNT             0x00000159
private flags = 5000400: [Version5 EABI] [hard-float ABI]

Sections:
Idx Name          Size      VMA       LMA       File off  Algn
  0 .ta_head      00000020  00000000  00000000  00001000  2**3
                  CONTENTS, ALLOC, LOAD, READONLY, DATA
  1 .text         0001d0ec  00000020  00000020  00001020  2**3
                  CONTENTS, ALLOC, LOAD, READONLY, CODE
  2 .plt          00000294  0001d10c  0001d10c  0001e10c  2**2
                  CONTENTS, ALLOC, LOAD, READONLY, CODE
  3 .rodata       00003156  0001d3a0  0001d3a0  0001e3a0  2**2
                  CONTENTS, ALLOC, LOAD, READONLY, DATA
  4 .gnu.hash     00000030  000204f8  000204f8  000214f8  2**2
                  CONTENTS, ALLOC, LOAD, READONLY, DATA
  5 .ARM.extab    000011c4  00020528  00020528  00021528  2**2
                  CONTENTS, ALLOC, LOAD, READONLY, DATA
  6 .ARM.exidx    00000db0  000216ec  000216ec  000226ec  2**2
                  CONTENTS, ALLOC, LOAD, READONLY, DATA
  7 .dynsym       000003f0  0002249c  0002249c  0002349c  2**2
                  CONTENTS, ALLOC, LOAD, READONLY, DATA
  8 .dynstr       000003e6  0002288c  0002288c  0002388c  2**0
                  CONTENTS, ALLOC, LOAD, READONLY, DATA
  9 .hash         00000198  00022c74  00022c74  00023c74  2**2
                  CONTENTS, ALLOC, LOAD, READONLY, DATA
 10 .dynamic      000000c0  00023000  00023000  00024000  2**2
                  CONTENTS, ALLOC, LOAD, DATA
 11 .tdata        00000004  000230c0  000230c0  000240c0  2**2
                  CONTENTS, ALLOC, LOAD, DATA, THREAD_LOCAL
 12 .tbss         00000010  000230c4  000230c4  000240c4  2**2
                  ALLOC, THREAD_LOCAL
 13 .got          000001d8  000230c4  000230c4  000240c4  2**2
                  CONTENTS, ALLOC, LOAD, DATA
 14 .rel.got      000001d8  00023d6c  00023d6c  00024d6c  2**2
                  CONTENTS, ALLOC, LOAD, READONLY, DATA
 15 .rel.plt      000001a8  00023f44  00023f44  00024f44  2**2
                  CONTENTS, ALLOC, LOAD, READONLY, DATA
 16 .data         00000a66  000240ec  000240ec  000250ec  2**2
                  CONTENTS, ALLOC, LOAD, DATA
 17 .init_array   0000000c  00024b54  00024b54  00025b54  2**2
                  CONTENTS, ALLOC, LOAD, DATA
 18 .bss          000e4080  00024b60  00024b60  00025b60  2**2
                  ALLOC
 19 .debug_info   0002e7b9  00000000  00000000  00025b60  2**0
                  CONTENTS, READONLY, DEBUGGING, OCTETS
 20 .debug_abbrev 0000b39f  00000000  00000000  00054319  2**0
                  CONTENTS, READONLY, DEBUGGING, OCTETS
 21 .debug_aranges 00001020  00000000  00000000  0005f6b8  2**3
                  CONTENTS, READONLY, DEBUGGING, OCTETS
 22 .debug_macro  0004363a  00000000  00000000  000606d8  2**0
                  CONTENTS, READONLY, DEBUGGING, OCTETS
 23 .debug_line   00023b47  00000000  00000000  000a3d12  2**0
                  CONTENTS, READONLY, DEBUGGING, OCTETS
 24 .debug_str    00021f51  00000000  00000000  000c7859  2**0
                  CONTENTS, READONLY, DEBUGGING, OCTETS
 25 .comment      0000005d  00000000  00000000  000e97aa  2**0
                  CONTENTS, READONLY
 26 .ARM.attributes 00000039  00000000  00000000  000e9807  2**0
                  CONTENTS, READONLY
 27 .debug_frame  000057b8  00000000  00000000  000e9840  2**2
                  CONTENTS, READONLY, DEBUGGING, OCTETS
 28 .rel.dyn      00000ad0  0002329c  0002329c  0002429c  2**2
                  CONTENTS, ALLOC, LOAD, READONLY, DATA
 29 .debug_ranges 00004228  00000000  00000000  000eeff8  2**0
                  CONTENTS, READONLY, DEBUGGING, OCTETS
 30 .debug_loc    00014baf  00000000  00000000  000f3220  2**0
                  CONTENTS, READONLY, DEBUGGING, OCTETS
SYMBOL TABLE:
00000000 l    d  .ta_head	00000000 .ta_head
00000020 l    d  .text	00000000 .text
0001d10c l    d  .plt	00000000 .plt
0001d3a0 l    d  .rodata	00000000 .rodata
000204f8 l    d  .gnu.hash	00000000 .gnu.hash
00020528 l    d  .ARM.extab	00000000 .ARM.extab
000216ec l    d  .ARM.exidx	00000000 .ARM.exidx
0002249c l    d  .dynsym	00000000 .dynsym
0002288c l    d  .dynstr	00000000 .dynstr
00022c74 l    d  .hash	00000000 .hash
00023000 l    d  .dynamic	00000000 .dynamic
000230c0 l    d  .tdata	00000000 .tdata
000230c4 l    d  .tbss	00000000 .tbss
000230c4 l    d  .got	00000000 .got
00023d6c l    d  .rel.got	00000000 .rel.got
00023f44 l    d  .rel.plt	00000000 .rel.plt
000240ec l    d  .data	00000000 .data
00024b54 l    d  .init_array	00000000 .init_array
00024b60 l    d  .bss	00000000 .bss
00000000 l    d  .debug_info	00000000 .debug_info
00000000 l    d  .debug_abbrev	00000000 .debug_abbrev
00000000 l    d  .debug_aranges	00000000 .debug_aranges
00000000 l    d  .debug_macro	00000000 .debug_macro
00000000 l    d  .debug_line	00000000 .debug_line
00000000 l    d  .debug_str	00000000 .debug_str
00000000 l    d  .comment	00000000 .comment
00000000 l    d  .ARM.attributes	00000000 .ARM.attributes
00000000 l    d  .debug_frame	00000000 .debug_frame
0002329c l    d  .rel.dyn	00000000 .rel.dyn
00000000 l    d  .debug_ranges	00000000 .debug_ranges
00000000 l    d  .debug_loc	00000000 .debug_loc
00000000 l    df *ABS*	00000000 user_ta_header.c
0001ea38 l     O .rodata	00000001 __compound_literal.0
0001ea39 l     O .rodata	00000001 __compound_literal.1
0001ea3a l     O .rodata	00000001 __compound_literal.2
0001ea3c l     O .rodata	00000004 __compound_literal.3
0001ea40 l     O .rodata	00000004 __compound_literal.4
0001ea44 l     O .rodata	00000001 __compound_literal.5
0001ea48 l     O .rodata	00000004 __compound_literal.6
0001ea4c l     O .rodata	00000010 __compound_literal.7
0001ea5c l     O .rodata	00000014 __compound_literal.8
00000000 l    df *ABS*	00000000 os_test.c
00000020 l     F .text	000000c8 check_returned_prop
0001e7fc l     O .rodata	00000014 __func__.24
000000e8 l     F .text	000000a4 check_binprop_ones
0001e810 l     O .rodata	00000013 __func__.23
0000018c l     F .text	00000118 get_binblock_property
0001e824 l     O .rodata	00000016 __func__.22
000002a4 l     F .text	00000bbc print_properties
0001e83c l     O .rodata	00000011 __func__.21
00000e60 l     F .text	00000064 test_malloc
0001e850 l     O .rodata	0000000c __func__.20
00000ec4 l     F .text	0000068c test_properties
0001e85c l     O .rodata	00000010 __func__.19
00001550 l     F .text	00000274 test_mem_access_right
0001e86c l     O .rodata	00000010 test_uuid.18
0001e87c l     O .rodata	00000016 __func__.17
000017c4 l     F .text	00000328 test_time
0001e894 l     O .rodata	0000000a __func__.16
0001e8a0 l     O .rodata	00000008 null_time.15
0001e8a8 l     O .rodata	00000008 wrap_time.14
00001aec l     F .text	00000066 my_dcmpeq
00001b52 l     F .text	00000066 my_fcmpeq
00001bb8 l     F .text	00000d6c test_float
0001e8b0 l     O .rodata	0000000b __func__.13
00002924 l     F .text	00000020 malloc_wrapper
00002944 l     F .text	00000018 free_wrapper
0000295c l     F .text	0000005c test_bget
0001e8bc l     O .rodata	0000000a __func__.12
000029b8 l     F .text	00000014 call_longjmp
000029cc l     F .text	0000003e test_setjmp
0001e8c8 l     O .rodata	0000001d __func__.11
0001e8e8 l     O .rodata	00000010 os_test_uuid.10
0001e8f8 l     O .rodata	00000003 sha256_in.9
0001e8fc l     O .rodata	00000010 crypt_uuid.8
0001e90c l     O .rodata	00000010 __func__.7
0001e91c l     O .rodata	00000020 sha256_out.6
00002ebc l     F .text	00000014 undef_instr
00002fda l     F .text	0000006e incr_values
0001e93c l     O .rodata	00000010 test_uuid.5
0001e94c l     O .rodata	00000016 __func__.4
00003858 l     F .text	00000048 os_test_init
0001e964 l     O .rodata	00000019 __func__.3
0001e980 l     O .rodata	00000017 __func__.2
0001e998 l     O .rodata	00000018 __func__.1
00003b48 l     F .text	00000030 iterate_hdr_cb
00003b78 l     F .text	000000ac expect_dl_count_ge
0001e9b0 l     O .rodata	00000013 __func__.0
00000000 l    df *ABS*	00000000 i64_to_f64.c
00000000 l    df *ABS*	00000000 s_subMagsF64.c
00000000 l    df *ABS*	00000000 ta_entry.c
00000000 l    df *ABS*	00000000 cxx_tests.cpp
00024b64 l     O .bss	00000004 _ZL9ctor_test
000044a0 l     F .text	00000034 _Z41__static_initialization_and_destruction_0ii
000044d4 l     F .text	00000016 _GLOBAL__sub_I_cxx_tests.cpp
00000000 l    df *ABS*	00000000 out/ta_entry_a32.o
00000000 l    df *ABS*	00000000 dlfcn.c
000044f0 l     F .text	00000064 reg_pair_to_64
00105b68 l     O .bss	00000004 sess
00105b6c l     O .bss	00000004 hcount
00004554 l     F .text	000000a0 invoke_system_pta
00000000 l    df *ABS*	00000000 setjmp_a32.o
00000000 l    df *ABS*	00000000 f32_add.c
00000000 l    df *ABS*	00000000 f32_sub.c
00000000 l    df *ABS*	00000000 f32_to_i32_r_minMag.c
00000000 l    df *ABS*	00000000 f32_to_i64_r_minMag.c
00000000 l    df *ABS*	00000000 f32_to_ui32_r_minMag.c
00000000 l    df *ABS*	00000000 f32_to_ui64_r_minMag.c
00000000 l    df *ABS*	00000000 f64_add.c
00000000 l    df *ABS*	00000000 f64_sub.c
00000000 l    df *ABS*	00000000 f64_to_i32_r_minMag.c
00000000 l    df *ABS*	00000000 f64_to_i64_r_minMag.c
00000000 l    df *ABS*	00000000 f64_to_ui32_r_minMag.c
00000000 l    df *ABS*	00000000 f64_to_ui64_r_minMag.c
00000000 l    df *ABS*	00000000 s_subMagsF32.c
00000000 l    df *ABS*	00000000 s_roundPackToF32.c
00000000 l    df *ABS*	00000000 s_roundPackToF64.c
00000000 l    df *ABS*	00000000 s_countLeadingZeros32.c
00000000 l    df *ABS*	00000000 s_countLeadingZeros64.c
00000000 l    df *ABS*	00000000 softfloat_raiseFlags.c
00000000 l    df *ABS*	00000000 tee_api_property.c
0001ee3c l     O .rodata	00000004 __compound_literal.0
0001ee40 l     O .rodata	00000004 __compound_literal.1
0001ee44 l     O .rodata	00000004 __compound_literal.2
00005fa0 l     F .text	00000090 propset_get
00006030 l     F .text	00000132 propget_get_ext_prop
00006162 l     F .text	00000040 is_propset_pseudo_handle
000061a2 l     F .text	000001a4 propget_get_property
00000000 l    df *ABS*	00000000 tcb.c
00105b70 l     O .bss	00000004 _tcb
00105b74 l     O .bss	00000004 _tls_size
0001ef58 l     O .rodata	00000010 __func__.1
0001ef68 l     O .rodata	00000010 __func__.0
00000000 l    df *ABS*	00000000 user_ta_entry.c
00006f64 l     F .text	00000010 __utee_gprof_init
00006f74 l     F .text	00000010 __utee_gprof_fini
00024214 l     O .data	00000008 ta_sessions
00105ba8 l     O .bss	00000001 init_done
0002421c l     O .data	00000008 __phdr_info_head
00105bac l     O .bss	00000004 _num_mod_init
00006f84 l     F .text	000000cc _init_iterate_phdr_cb
0001ef94 l     O .rodata	00000016 __func__.0
00007050 l     F .text	000000fc _get_fn_array
00007298 l     F .text	00000074 _fini_iterate_phdr_cb
0000732c l     F .text	0000005c init_instance
00007388 l     F .text	00000018 uninit_instance
000073a0 l     F .text	00000058 ta_header_save_params
000073f8 l     F .text	00000044 ta_header_get_session
0000743c l     F .text	000000c0 ta_header_add_session
000074fc l     F .text	000000d4 ta_header_remove_session
000075d0 l     F .text	00000182 to_utee_params
00007752 l     F .text	000000e2 from_utee_params
00007834 l     F .text	0000008e entry_open_session
000078c2 l     F .text	00000040 entry_close_session
00007902 l     F .text	00000070 entry_invoke_command
00000000 l    df *ABS*	00000000 abort.c
00000000 l    df *ABS*	00000000 base64.c
0001efb4 l     O .rodata	00000041 base64_table
00007bd8 l     F .text	0000006c get_idx
00000000 l    df *ABS*	00000000 tee_api_arith_mpi.c
00007e0c l     F .text	00000030 api_panic
00007e3c l     F .text	00000030 mpi_panic
00105bb0 l     O .bss	00003000 data.17
0001f0bc l     O .rodata	00000012 __func__.16
00007ed4 l     F .text	00000090 copy_mpi_to_bigint
00007f64 l     F .text	000000a0 get_mpi
0001f0d0 l     O .rodata	00000008 __func__.15
0001f0d8 l     O .rodata	0000000f __func__.14
0001f0e8 l     O .rodata	0000001f __func__.13
0001f108 l     O .rodata	00000019 __func__.12
0001f124 l     O .rodata	00000015 __func__.11
0000858e l     F .text	000000fe bigint_binary
0001f13c l     O .rodata	0000000e __func__.10
0000868c l     F .text	00000184 bigint_binary_mod
0001f14c l     O .rodata	00000012 __func__.9
0001f160 l     O .rodata	0000000e __func__.8
0001f170 l     O .rodata	0000000e __func__.7
0001f180 l     O .rodata	0000000e __func__.6
0001f190 l     O .rodata	00000011 __func__.5
0001f1a4 l     O .rodata	00000018 __func__.4
00008ea0 l     F .text	0000002a mpi_is_odd
00008eca l     F .text	00000032 mpi_is_even
00008efc l     F .text	00000794 mpi_egcd
0001f1bc l     O .rodata	00000009 __func__.3
0001f1c8 l     O .rodata	0000001d __func__.2
00009920 l     F .text	00000030 rng_read
0001f1e8 l     O .rodata	00000019 __func__.1
0001f204 l     O .rodata	00000015 __func__.0
00000000 l    df *ABS*	00000000 bignum.c
00009bf0 l     F .text	00000024 mbedtls_mpi_zeroize
00009c14 l     F .text	0000003a mpi_init
00009f90 l     F .text	00000064 mbedtls_mpi_resize_clear
0000a12e l     F .text	00000056 mpi_safe_cond_select_sign
0000a184 l     F .text	00000078 mpi_safe_cond_assign
0000a61e l     F .text	0000004e mbedtls_clz
0000a708 l     F .text	00000082 mpi_get_digit
0000a988 l     F .text	000000da mpi_write_hlp
0000ac5c l     F .text	0000005a mpi_uint_bigendian_to_host_c
0000acb6 l     F .text	0000001c mpi_uint_bigendian_to_host
0000acd2 l     F .text	00000072 mpi_bigendian_to_host
0000b5b0 l     F .text	00000052 ct_lt_mpi_uint
0000b918 l     F .text	000000aa mpi_sub_hlp
0000bd2a l     F .text	00001a20 mpi_mul_hlp
0000d9b8 l     F .text	000000d6 mbedtls_int_div_int
0000e2e4 l     F .text	0000006e mpi_montg_init
0000e370 l     F .text	0000013a mpi_montmul
0000e4d4 l     F .text	00000044 mpi_montred
0000e53e l     F .text	00000040 mbedtls_mpi_cf_bool_eq
0000e57e l     F .text	0000007e mpi_select
0000ef22 l     F .text	000000ba mpi_fill_random_internal
0001f230 l     O .rodata	000002a0 small_prime
0000f676 l     F .text	000000a6 mpi_check_small_factors
0000f71c l     F .text	000002d2 mpi_miller_rabin
0001f4d0 l     O .rodata	00000024 gcd_pairs
00000000 l    df *ABS*	00000000 platform_util.c
00024224 l     O .data	00000004 memset_func
00000000 l    df *ABS*	00000000 class_type_info.cc
00000000 l    df *ABS*	00000000 del_ops.cc
00000000 l    df *ABS*	00000000 eh_alloc.cc
000104fc l     F .text	000000f4 _ZN12_GLOBAL__N_14pool4freeEPv.constprop.0
000105f0 l     F .text	000000b8 _ZN12_GLOBAL__N_14pool8allocateEj.constprop.0
0001076c l     F .text	00000038 _GLOBAL__sub_I_eh_alloc.cc
00108bb4 l     O .bss	00000024 _ZN12_GLOBAL__N_114emergency_poolE
00000000 l    df *ABS*	00000000 eh_arm.cc
00000000 l    df *ABS*	00000000 eh_call.cc
00000000 l    df *ABS*	00000000 eh_catch.cc
00000000 l    df *ABS*	00000000 eh_exception.cc
00000000 l    df *ABS*	00000000 eh_globals.cc
00000008 l       .tbss	00000000 .LANCHOR0
00000008 l       .tbss	0000000c _ZZN12_GLOBAL__N_110get_globalEvE6global
00000000 l    df *ABS*	00000000 eh_personality.cc
00010ca0 l     F .text	000000c0 _ZL28read_encoded_value_with_basehjPKhPj
00010d60 l     F .text	00000048 _ZL21base_of_encoded_valuehP15_Unwind_Context
00010da8 l     F .text	0000008a _ZL17parse_lsda_headerP15_Unwind_ContextPKhP16lsda_header_info
00000000 l    df *ABS*	00000000 eh_terminate.cc
00000000 l    df *ABS*	00000000 eh_throw.cc
000113bc l     F .text	00000044 _ZL23__gxx_exception_cleanup19_Unwind_Reason_CodeP21_Unwind_Control_Block
00000000 l    df *ABS*	00000000 pure.cc
00000000 l    df *ABS*	00000000 si_class_type_info.cc
00000000 l    df *ABS*	00000000 tinfo.cc
00000000 l    df *ABS*	00000000 vterminate.cc
00108bdf l     O .bss	00000001 _ZZN9__gnu_cxx27__verbose_terminate_handlerEvE11terminating
00000000 l    df *ABS*	00000000 cp-demangle.c
000117b8 l     F .text	000000a0 d_make_comp
00011858 l     F .text	0000004a d_make_name
000118a4 l     F .text	00000070 d_number
00011914 l     F .text	0000004e d_call_offset
00011964 l     F .text	00000034 d_ref_qualifier
00011998 l     F .text	0000004a d_discriminator
000119e4 l     F .text	000000d0 d_count_templates_scopes
00011ab4 l     F .text	00000020 d_index_template_argument.part.0
00011ad4 l     F .text	00000076 d_growable_string_callback_adapter
00011b4c l     F .text	0000003c next_is_type_qual.isra.0
00011b88 l     F .text	00000044 d_append_char
00011bcc l     F .text	00000036 d_lookup_template_argument
00011c04 l     F .text	00000066 d_append_string
00011c6c l     F .text	000000b8 d_find_pack
00011d24 l     F .text	0000005e d_template_param
00011d84 l     F .text	00000078 d_append_num
00011dfc l     F .text	000000ac d_source_name
00011ea8 l     F .text	000001a0 d_substitution
00012048 l     F .text	000000fc d_print_java_identifier
00012144 l     F .text	00000808 d_type
0001398c l     F .text	0000043e d_expression_1
00013e40 l     F .text	00000164 d_cv_qualifiers
00012b2c l     F .text	0000006a d_function_type
00012ed4 l     F .text	000003c8 d_name
00013ff8 l     F .text	00000066 d_template_args_1
0001294c l     F .text	000000fc d_operator_name
00012a48 l     F .text	0000009a d_parmlist
00012ae4 l     F .text	00000048 d_bare_function_type
00012b98 l     F .text	0000033a d_unqualified_name
00013394 l     F .text	000004f2 d_special_name
0001329c l     F .text	000000f8 d_encoding.part.0
00013fa4 l     F .text	00000054 d_template_arg
00013888 l     F .text	00000104 d_expr_primary
00013dcc l     F .text	00000074 d_exprlist
00014060 l     F .text	0000221c d_print_comp_inner
0001627c l     F .text	0000005c d_print_comp
00017544 l     F .text	00000264 d_maybe_print_fold_expression
00017458 l     F .text	000000ea d_print_subexpr
00017084 l     F .text	0000007a d_print_expr_op
00016940 l     F .text	000001e0 d_print_function_type
000162d8 l     F .text	00000668 d_print_mod
00016d70 l     F .text	000001c0 d_print_array_type
00016f30 l     F .text	00000152 d_print_conversion
00016b20 l     F .text	00000250 d_print_mod_list
00017100 l     F .text	00000358 d_demangle_callback.constprop.0
00024378 l     O .data	000000c4 standard_subs
0002443c l     O .data	000002a8 cplus_demangle_builtin_types
000246e4 l     O .data	00000460 cplus_demangle_operators
00000000 l    df *ABS*	00000000 del_op.cc
00000000 l    df *ABS*	00000000 eh_type.cc
00000000 l    df *ABS*	00000000 unwind-arm.c
000178bc l     F .text	00000012 selfrel_offset31
000178d0 l     F .text	00000064 search_EIT_table
00017934 l     F .text	00000034 __gnu_unwind_get_pr_addr
00017968 l     F .text	000000a8 get_eit_entry
00017a10 l     F .text	00000056 restore_non_core_regs
00017a68 l     F .text	00000004 __gnu_unwind_24bit.constprop.0
00017a6c l     F .text	0000000a _Unwind_decode_typeinfo_ptr.constprop.0
00017a78 l     F .text	00000002 _Unwind_DebugHook
00017a7c l     F .text	0000003a unwind_phase2
00017ab8 l     F .text	000000ce unwind_phase2_forced
00017cac l     F .text	00000018 _Unwind_GetGR
00017cfc l     F .text	00000018 _Unwind_SetGR
00017d9c l     F .text	000002dc __gnu_unwind_pr_common
00000000 l    df *ABS*	00000000 libunwind.o
00000000 l    df *ABS*	00000000 pr-support.c
000184e8 l     F .text	00000034 next_unwind_byte
0001851c l     F .text	0000001a _Unwind_GetGR.constprop.0
00018538 l     F .text	00000002 unwind_UCB_from_context
00000000 l    df *ABS*	00000000 fputc.c
00000000 l    df *ABS*	00000000 fputs.c
00000000 l    df *ABS*	00000000 fwrite.c
00000000 l    df *ABS*	00000000 write.c
00000000 l    df *ABS*	00000000 mempool.c
00018988 l     F .text	00000018 get_pool
000189a0 l     F .text	00000018 put_pool
000204d4 l     O .rodata	00000013 __func__.1
000204e8 l     O .rodata	0000000e __func__.0
00000000 l    df *ABS*	00000000 init.c
00000000 l    df *ABS*	00000000 test_float_subj.c
00000000 l    df *ABS*	00000000 cxx_tests_c.c
00000000 l    df *ABS*	00000000 strcmp.c
00000000 l    df *ABS*	00000000 strncmp.c
00000000 l    df *ABS*	00000000 arm32_aeabi_softfloat.c
000194c8 l     F .text	0000001e f32_to_f
000194e6 l     F .text	0000001e f32_from_f
00019504 l     F .text	00000028 f64_to_d
0001952c l     F .text	0000002e f64_from_d
00000000 l    df *ABS*	00000000 f32_div.c
00000000 l    df *ABS*	00000000 f32_eq.c
00000000 l    df *ABS*	00000000 f32_le.c
00000000 l    df *ABS*	00000000 f32_lt.c
00000000 l    df *ABS*	00000000 f32_mul.c
00000000 l    df *ABS*	00000000 f32_to_f64.c
00000000 l    df *ABS*	00000000 f64_div.c
00000000 l    df *ABS*	00000000 f64_eq.c
00000000 l    df *ABS*	00000000 f64_le.c
00000000 l    df *ABS*	00000000 f64_lt.c
00000000 l    df *ABS*	00000000 f64_mul.c
00000000 l    df *ABS*	00000000 f64_to_f32.c
00000000 l    df *ABS*	00000000 i32_to_f32.c
00000000 l    df *ABS*	00000000 i32_to_f64.c
00000000 l    df *ABS*	00000000 i64_to_f32.c
00000000 l    df *ABS*	00000000 ui32_to_f32.c
00000000 l    df *ABS*	00000000 ui32_to_f64.c
00000000 l    df *ABS*	00000000 ui64_to_f32.c
00000000 l    df *ABS*	00000000 ui64_to_f64.c
00000000 l    df *ABS*	00000000 s_addMagsF32.c
00000000 l    df *ABS*	00000000 s_addMagsF64.c
00000000 l    df *ABS*	00000000 s_normSubnormalF64Sig.c
00000000 l    df *ABS*	00000000 s_normSubnormalF32Sig.c
00000000 l    df *ABS*	00000000 s_shortShiftRightJam64.c
00000000 l    df *ABS*	00000000 s_shiftRightJam32.c
00000000 l    df *ABS*	00000000 s_normRoundPackToF32.c
00000000 l    df *ABS*	00000000 s_normRoundPackToF64.c
00000000 l    df *ABS*	00000000 s_shiftRightJam64.c
00000000 l    df *ABS*	00000000 s_mul64To128.c
00000000 l    df *ABS*	00000000 s_propagateNaNF32UI.c
00000000 l    df *ABS*	00000000 s_f32UIToCommonNaN.c
00000000 l    df *ABS*	00000000 s_commonNaNToF64UI.c
00000000 l    df *ABS*	00000000 s_f64UIToCommonNaN.c
00000000 l    df *ABS*	00000000 s_propagateNaNF64UI.c
00000000 l    df *ABS*	00000000 s_commonNaNToF32UI.c
00000000 l    df *ABS*	00000000 tee_uuid_from_str.c
0001cc82 l     F .text	0000004e hex
0001ccd0 l     F .text	0000007e parse_hex
00000000 l    df *ABS*	00000000 isxdigit.c
00000000 l    df *ABS*	00000000 sprintf.c
00000000 l    df *ABS*	00000000 tolower.c
00000000 l    df *ABS*	00000000 memcmp.c
00000000 l    df *ABS*	00000000 strnlen.c
00000000 l    df *ABS*	00000000 strlcpy.c
00000000 l    df *ABS*	00000000 softfloat_state.c
00000000 l    df *ABS*	00000000 s_countLeadingZeros8.c
00000000 l    df *ABS*	00000000 eh_unex_handler.cc
00000000 l    df *ABS*	00000000 eh_term_handler.cc
00000000 l    df *ABS*	00000000 fp.c
00108bd8 l     O .bss	00000001 _fake_stdout
00108bdc l     O .bss	00000001 _fake_stderr
00000000 l    df *ABS*	00000000 
00017b8c l     F .text	0000006a __gnu_Unwind_RaiseException
00000000 l       .tdata	00000000 _TLS_MODULE_BASE_
0001835c l     F .text	00000000 __gnu_Unwind_Save_VFP
0001847c l     F .text	00000022 _Unwind_Resume_or_Rethrow
0002249c l       .ARM.exidx	00000000 __exidx_end
00023000 l     O *ABS*	00000000 _DYNAMIC
00018820 l     F .text	0000000a _Unwind_GetRegionStart
0001837c l     F .text	00000000 __gnu_Unwind_Save_VFP_D_16_to_31
00017cc4 l     F .text	00000036 _Unwind_VRS_Set
00017d14 l     F .text	00000086 __gnu_Unwind_Backtrace
0001836c l     F .text	00000000 __gnu_Unwind_Save_VFP_D
00018084 l     F .text	000002b8 _Unwind_VRS_Pop
000216ec l       .ARM.extab	00000000 __exidx_start
00018384 l     F .text	00000000 __gnu_Unwind_Restore_WMMXD
00018354 l     F .text	00000000 __gnu_Unwind_Restore_VFP
00018458 l     F .text	00000022 _Unwind_Resume
00017c68 l     F .text	0000000c _Unwind_DeleteException
00017c64 l     F .text	00000002 _Unwind_Complete
0001853c l     F .text	000002b6 __gnu_unwind_execute
00018364 l     F .text	00000000 __gnu_Unwind_Restore_VFP_D
00017c0c l     F .text	00000044 __gnu_Unwind_Resume
00018374 l     F .text	00000000 __gnu_Unwind_Restore_VFP_D_16_to_31
00018434 l     F .text	00000022 _Unwind_RaiseException
00017bf8 l     F .text	00000012 __gnu_Unwind_ForcedUnwind
00017c50 l     F .text	00000012 __gnu_Unwind_Resume_or_Rethrow
0001833c l     F .text	00000018 restore_core_regs
00018420 l     F .text	00000000 __gnu_Unwind_Save_WMMXC
0001ced8 l     F .text	00000006 _Unwind_GetTextRelBase
0001882c l     F .text	00000012 _Unwind_GetLanguageSpecificData
00017c74 l     F .text	00000036 _Unwind_VRS_Get
0001840c l     F .text	00000000 __gnu_Unwind_Restore_WMMXC
000187f4 l     F .text	0000002c __gnu_unwind_frame
000230c4 l     O *ABS*	00000000 _GLOBAL_OFFSET_TABLE_
000183c8 l     F .text	00000000 __gnu_Unwind_Save_WMMXD
0001ced2 l     F .text	00000006 _Unwind_GetDataRelBase
000106f0 g     F .text	00000028 __cxa_free_exception
0000482c g     F .text	00000020 longjmp
000184a0 g     F .text	00000022 .hidden ___Unwind_ForcedUnwind
00000000       F *UND*	00000000 putchar
0001165c g     F .text	00000004 _ZNKSt9type_info15__is_function_pEv
000113b0 g     F .text	0000000a _ZSt10unexpectedv
000197a4 g     F .text	00000044 __aeabi_dcmple
00009a20 g     F .text	00000024 TEE_BigIntConvertToFMM
00008ca8 g     F .text	00000024 TEE_BigIntSquareMod
00008356 g     F .text	000001ba TEE_BigIntShiftRight
00010c30 g     F .text	00000002 _ZN10__cxxabiv115__forced_unwindD1Ev
00009d34 g     F .text	00000108 mbedtls_mpi_grow
00004810 g     F .text	0000001c setjmp
0001ed3c g     O .rodata	00000100 softfloat_countLeadingZeros8
000177a8 g     F .text	000000d4 __cxa_demangle
00011498 g     F .text	0000006e __cxa_rethrow
00011364 g     F .text	00000034 _ZSt14set_unexpectedPFvvE
0001ba10 g     F .text	0000005c ui32_to_f32
000039c8 g     F .text	000000c0 ta_entry_tls_test_main
00000000       F *UND*	00000000 printf
00024b48 g     O .data	00000004 stdout
0001cec6 g     F .text	00000000 __cxa_end_cleanup
00010740 g     F .text	0000002c __cxa_free_dependent_exception
000048b8 g     F .text	0000006c f32_sub
00019062 g     F .text	00000024 test_float_d2lz
00000000       F *UND*	00000000 TEE_InvokeTACommand
00000000       F *UND*	00000000 __utee_check_outbuf_annotation
00011538 g     F .text	00000020 _ZN10__cxxabiv120__si_class_type_infoD2Ev
0001faec g     O .rodata	00000025 _ZTSN10__cxxabiv120__si_class_type_infoE
00009c6c g     F .text	0000003c mbedtls_mpi_init_mempool
00000000       F *UND*	00000000 _utee_cryp_random_number_generate
0000af40 g     F .text	000000e4 mbedtls_mpi_write_binary
0001cd4e g     F .text	00000178 tee_uuid_from_str
00010c30 g     F .text	00000002 _ZN10__cxxabiv115__forced_unwindD2Ev
0001c3e2 g     F .text	0000014e softfloat_normRoundPackToF64
00002a0a g     F .text	000000a6 ta_entry_basic
00010bb0 g     F .text	00000010 _ZSt18uncaught_exceptionv
0001c2f8 g     F .text	00000056 softfloat_shiftRightJam32
0000bcda g     F .text	00000050 mbedtls_mpi_sub_int
00011520 g     F .text	00000018 __cxa_deleted_virtual
0001bc5e g     F .text	0000018e softfloat_addMagsF32
00004a3c g     F .text	0000019c f32_to_i64_r_minMag
00000000       F *UND*	00000000 memmove
00010bcc g     F .text	00000002 _ZNSt9exceptionD2Ev
00000000       F *UND*	00000000 snprintf
0001c60a g     F .text	00000290 softfloat_mul64To128
0000831a g     F .text	0000003c TEE_BigIntCmpS32
00009e3c g     F .text	00000154 mbedtls_mpi_shrink
00018078 g     F .text	00000004 .hidden __aeabi_unwind_cpp_pr0
000242ec g     O .data	00000014 _ZTVSt13bad_exception
00008810 g     F .text	00000034 TEE_BigIntAdd
00003a88 g     F .text	000000c0 ta_entry_tls_test_shlib
000104c8  w    F .text	00000034 _ZN9__gnu_cxx30__throw_concurrence_lock_errorEv
0001c9c4 g     F .text	00000082 softfloat_commonNaNToF64UI
00108bdd g     O .bss	00000001 softfloat_roundingMode
00018f74 g     F .text	00000036 test_float_fcmple
0001ea34 g     O .rodata	00000004 ta_heap_size
000192ae  w    F .text	00000022 _ZN8CtorTestC1Ev
00019b54 g     F .text	00000036 __aeabi_d2lz
0001847c g     F .text	00000022 .hidden ___Unwind_Resume_or_Rethrow
00007a08 g     F .text	00000036 _base64_enc_len
0000a78a g     F .text	000001fe mbedtls_mpi_read_string
00018c96 g     F .text	0000002c test_float_dmul
00005974 g     F .text	000001b0 softfloat_roundPackToF32
000184c4 g     F .text	00000022 .hidden _Unwind_Backtrace
00000000  w      *UND*	00000000 __pthread_key_create
00008878 g     F .text	000000b0 TEE_BigIntNeg
00019870 g     F .text	00000044 __aeabi_fadd
00000020 g       .text	00000000 __text_start
00010860 g     F .text	00000064 __cxa_begin_cleanup
00006a4e g     F .text	000000ca TEE_GetNextProperty
0000b1a6 g     F .text	0000016a mbedtls_mpi_shift_r
0001833c g     F .text	00000018 .hidden __restore_core_regs
0001ae7e g     F .text	000001aa f64_eq
0001097c g     F .text	00000128 __cxa_call_unexpected
00010aa4 g     F .text	00000004 __cxa_get_exception_ptr
00008c38 g     F .text	00000038 TEE_BigIntSubMod
00010478  w    F .text	00000028 _ZN9__gnu_cxx24__concurrence_lock_errorD0Ev
0000fac2 g     F .text	00000314 mbedtls_mpi_gen_prime
000066a2 g     F .text	00000098 TEE_GetPropertyAsBinaryBlock
0000a488 g     F .text	0000004e mbedtls_mpi_get_bit
0000ade2 g     F .text	00000088 mbedtls_mpi_read_binary
000190aa g     F .text	00000026 test_float_f2iz
00000000       F *UND*	00000000 trace_printf
000192d0  w    F .text	0000001a _ZN23MixedFrameExceptionTestC1Ev
0000e4aa g     F .text	0000002a mbedtls_mpi_montmul
00004bd8 g     F .text	000000e4 f32_to_ui32_r_minMag
00019c10 g     F .text	0000002c __aeabi_f2lz
00017b88 g     F .text	00000004 .hidden _Unwind_GetCFA
00011304 g     F .text	00000034 _ZSt13set_terminatePFvvE
00000000       F *UND*	00000000 memcpy
00010718 g     F .text	00000028 __cxa_allocate_dependent_exception
00005794 g     F .text	000001e0 softfloat_subMagsF32
00004924 g     F .text	00000118 f32_to_i32_r_minMag
00019ab4 g     F .text	0000003c __aeabi_fcmpgt
00010358 g     F .text	0000000c _ZNK10__cxxabiv117__class_type_info20__do_find_public_srcEiPKvPKS0_S2_
00009a44 g     F .text	0000009c TEE_BigIntConvertFromFMM
00004300 g     F .text	00000012 ta_entry_cxx_ctor_shlib
00000000       F *UND*	00000000 TEE_Panic
00010364 g     F .text	00000020 _ZN10__cxxabiv117__class_type_infoD1Ev
0001cc3c g     F .text	00000046 softfloat_commonNaNToF32UI
00000000       F *UND*	00000000 __aeabi_uldivmod
00000000         *UND*	00000000 os_test_shlib_tls_a
0001f9f8  w    O .rodata	00000029 _ZTSN9__gnu_cxx26__concurrence_unlock_errorE
00000000       F *UND*	00000000 puts
00009ae0 g     F .text	00000110 TEE_BigIntComputeFMM
00018d1a g     F .text	00000036 test_float_dcmpeq
00000000       F *UND*	00000000 TEE_GetREETime
0001cf60 g     F .text	0000002e tolower
00024100 g     O .data	000000f0 ta_props
00000000       F *UND*	00000000 __utee_check_instring_annotation
00018cee g     F .text	0000002c test_float_dsub
000191a6 g     F .text	00000024 test_float_ui2d
00000000       F *UND*	00000000 malloc
000192fa g     F .text	00000024 __ta_entry_c
000068f2 g     F .text	0000001e TEE_FreePropertyEnumerator
00024b50 g     O .data	00000001 softfloat_detectTininess
00019d94 g     F .text	00000024 __aeabi_i2f
0001bb38 g     F .text	000000b0 ui64_to_f32
00018f08 g     F .text	00000036 test_float_fcmpeq
0001042c  w    F .text	0000000c _ZNK9__gnu_cxx26__concurrence_unlock_error4whatEv
000240fc g     O .data	00000004 trace_level
000082c4 g     F .text	00000056 TEE_BigIntCmp
0001ed28 g     O .rodata	00000004 ta_num_props
00000000       F *UND*	00000000 os_test_shlib_add
00005b24 g     F .text	0000033c softfloat_roundPackToF64
00019d02 g     F .text	0000002e __aeabi_ui2d
00010bc0 g     F .text	0000000a _ZSt19uncaught_exceptionsv
000106a8 g     F .text	00000018 _ZN9__gnu_cxx9__freeresEv
000108c4 g     F .text	00000070 __gnu_end_cleanup
000103f0 g     F .text	0000002a _ZNK10__cxxabiv117__class_type_info10__do_catchEPKSt9type_infoPPvj
00018b9c g     F .text	0000007c mempool_free
000035c4 g     F .text	00000094 ta_entry_null_memref
00003c3a g     F .text	0000005a ta_entry_dl_phdr_dl
00019668 g     F .text	0000005a __aeabi_drsub
000080ea g     F .text	00000086 TEE_BigIntConvertToOctetString
00004cbc g     F .text	0000014c f32_to_ui64_r_minMag
00010c64 g     F .text	00000004 _ZGTtNKSt9exception4whatEv
0000a66c g     F .text	00000078 mbedtls_mpi_bitlen
00008510 g     F .text	00000046 TEE_BigIntGetBit
0001ea30 g     O .rodata	00000003 trace_ext_prefix
00024358 g     O .data	00000020 _ZTVSt9type_info
000104a0  w    F .text	00000028 _ZN9__gnu_cxx26__concurrence_unlock_errorD0Ev
00010bf0 g     F .text	0000000c _ZNKSt9exception4whatEv
00000000       F *UND*	00000000 TEE_Wait
00019760 g     F .text	00000044 __aeabi_dcmplt
0000d74a g     F .text	000001c2 mbedtls_mpi_mul_mpi
00018080  w    F .text	00000004 .hidden __aeabi_unwind_cpp_pr2
0002426c  w    O .data	0000000c _ZTIN9__gnu_cxx26__concurrence_unlock_errorE
000184c4 g     F .text	00000022 .hidden ___Unwind_Backtrace
000195b4 g     F .text	0000005a __aeabi_ddiv
000040bc g     F .text	00000010 TA_DestroyEntryPoint
00009c4e g     F .text	0000001e mbedtls_mpi_init
00024324 g     O .data	0000002c _ZTVN10__cxxabiv120__si_class_type_infoE
0000a5a4 g     F .text	0000007a mbedtls_mpi_lsb
0000558c g     F .text	00000208 f64_to_ui64_r_minMag
00018c18 g     F .text	00000022 ta_entry_init
00000000       F *UND*	00000000 _assert_log
0001960e g     F .text	0000005a __aeabi_dmul
000103d4 g     F .text	0000001a _ZNK10__cxxabiv117__class_type_info11__do_upcastEPKS0_PKvRNS0_15__upcast_resultE
0001789c g     F .text	00000004 _ZdlPv
00009a04 g     F .text	0000001c TEE_BigIntFMMContextSizeInU32
00010458  w    F .text	00000020 _ZN9__gnu_cxx26__concurrence_unlock_errorD1Ev
0000369e g     F .text	00000032 ta_entry_call_lib_panic
000046f4 g     F .text	00000070 dlclose
00018434 g     F .text	00000022 .hidden ___Unwind_RaiseException
00007e6c g     F .text	00000068 _TEE_MathAPI_Init
00006b18 g     F .text	0000030c __utee_tcb_init
0000bb32 g     F .text	000000ac mbedtls_mpi_add_mpi
00019016 g     F .text	00000026 test_float_d2iz
000079e8 g     F .text	00000020 abort
00018458 g     F .text	00000022 .hidden ___Unwind_Resume
0000f046 g     F .text	00000164 mbedtls_mpi_random
0001b920 g     F .text	000000f0 i64_to_f32
00010b28 g     F .text	00000088 __cxa_end_catch
00000000       F *UND*	00000000 __utee_check_out_annotation
00024b68 g     O .bss	000e1000 ta_heap
00000000         *UND*	00000000 os_test_shlib_tls_b
00008ccc g     F .text	0000010c TEE_BigIntInvMod
0001cede g     F .text	00000050 isxdigit
0000714c g     F .text	0000014c __utee_call_elf_init_fn
00010bd0 g     F .text	00000020 _ZNSt13bad_exceptionD2Ev
000040ec g     F .text	00000018 TA_CloseSessionEntryPoint
00018fe0 g     F .text	00000036 test_float_fcmpgt
0000bbde g     F .text	000000ac mbedtls_mpi_sub_mpi
00000000       F *UND*	00000000 _utee_return
00006e24 g     F .text	00000038 __tls_get_addr
0001d046 g     F .text	00000044 strnlen
00011350 g     F .text	0000000a _ZSt9terminatev
00019c68 g     F .text	00000036 __aeabi_d2f
00003c98 g     F .text	000000a8 i64_to_f64
00004104 g     F .text	000001ce TA_InvokeCommandEntryPoint
0000730c g     F .text	00000020 __utee_call_elf_fini_fn
0001cafa g     F .text	00000142 softfloat_propagateNaNF64UI
00019b8a g     F .text	00000036 __aeabi_d2ulz
000037cc g     F .text	0000008c ta_entry_call_lib_dl_panic
00019980 g     F .text	00000044 __aeabi_fsub
00018a2c g     F .text	000000f4 mempool_alloc
0001ba6c g     F .text	000000cc ui32_to_f64
00000000       F *UND*	00000000 _utee_panic
00010c48 g     F .text	00000002 _ZN10__cxxabiv119__foreign_exceptionD2Ev
00018b20 g     F .text	0000007c mempool_calloc
0001f960 g     O .rodata	00000022 _ZTSN10__cxxabiv117__class_type_infoE
000241f0 g     O .data	00000024 tee_props
0001a32c g     F .text	0000022a f32_mul
00003d40 g     F .text	00000368 softfloat_subMagsF64
00010e34 g     F .text	000004be __gxx_personality_v0
000242bc g     O .data	00000008 _ZTISt9exception
00019a78 g     F .text	0000003c __aeabi_fcmpge
000068ce g     F .text	00000024 TEE_ResetPropertyEnumerator
00000000       F *UND*	00000000 calloc
00000000       F *UND*	00000000 TEE_Malloc
0000515c g     F .text	0000027c f64_to_i64_r_minMag
00000000       F *UND*	00000000 TEE_CheckMemoryAccessRights
00004466 g     F .text	0000003a ta_entry_cxx_exc_mixed
0000673a g     F .text	00000092 TEE_GetPropertyAsUUID
00000000       F *UND*	00000000 _utee_get_property
00011658 g     F .text	00000002 _ZNSt9type_infoD1Ev
00010c48 g     F .text	00000002 _ZN10__cxxabiv119__foreign_exceptionD1Ev
00018948 g     F .text	00000040 write
0000a41a g     F .text	0000006e mbedtls_mpi_lset
0002428c  w    O .data	00000014 _ZTVN9__gnu_cxx26__concurrence_unlock_errorE
00005ecc g     F .text	00000098 softfloat_countLeadingZeros64
0001ea20  w    O .rodata	0000000e _ZTS11MyException
00011664 g     F .text	00000014 _ZNSt9type_infoD0Ev
0001041c g     F .text	00000004 _ZdlPvj
0001955a g     F .text	0000005a __aeabi_dadd
000040cc g     F .text	00000020 TA_OpenSessionEntryPoint
00006e5c g     F .text	00000108 dl_iterate_phdr
00019a3c g     F .text	0000003c __aeabi_fcmple
0001921a g     F .text	00000024 test_float_i2f
00108be0 g       .bss	00000000 __ftrace_buf_end
00019c3c g     F .text	0000002c __aeabi_f2ulz
00018e54 g     F .text	00000030 test_float_fdiv
00105b78 g     O .bss	00000004 ta_param_types
00019d62 g     F .text	00000032 __aeabi_ul2d
00011660 g     F .text	00000004 _ZNKSt9type_info11__do_upcastEPKN10__cxxabiv117__class_type_infoEPPv
0000e0da g     F .text	00000052 mbedtls_mpi_div_int
0001b6ac g     F .text	000000fc f64_to_f32
00011400 g     F .text	00000060 __cxa_init_primary_exception
00018c66 g     F .text	00000030 test_float_ddiv
00011338 g     F .text	00000018 _ZSt13get_terminatev
0000f9ee g     F .text	000000ac mbedtls_mpi_is_prime_ext
0000354c g     F .text	00000078 ta_entry_params
00009950 g     F .text	00000054 TEE_BigIntIsProbablePrime
00003658 g     F .text	00000046 ta_entry_call_lib
0000d90c g     F .text	000000ac mbedtls_mpi_mul_int
0000e5fc g     F .text	00000748 mbedtls_mpi_exp_mod
0000a1fc g     F .text	000000ca mbedtls_mpi_safe_cond_assign
00006346 g     F .text	00000232 TEE_GetPropertyAsString
0000b602 g     F .text	0000013e mbedtls_mpi_lt_mpi_ct
00008004 g     F .text	0000006c TEE_BigIntInit
00010398 g     F .text	0000003a _ZNK10__cxxabiv117__class_type_info12__do_dyncastEiNS0_10__sub_kindEPKS0_PKvS3_S5_RNS0_16__dyncast_resultE
00000000       F *UND*	00000000 __utee_check_outstring_annotation
00000000       F *UND*	00000000 TEE_MemMove
0001982c g     F .text	00000044 __aeabi_dcmpgt
000102f4 g     F .text	00000030 mbedtls_platform_zeroize
00008070 g     F .text	0000007a TEE_BigIntConvertFromOctetString
00010324 g     F .text	00000032 _ZNK10__cxxabiv117__class_type_info11__do_upcastEPKS0_PPv
0000b310 g     F .text	0000012e mbedtls_mpi_cmp_abs
00004f28 g     F .text	00000234 f64_to_i32_r_minMag
0001fa8c g     O .rodata	00000012 _ZTSSt13bad_exception
00000000       F *UND*	00000000 TEE_UnmaskCancellation
0000fdd6 g     F .text	0000051e mbedtls_mpi_self_test
000197e8 g     F .text	00000044 __aeabi_dcmpge
00018d50 g     F .text	00000036 test_float_dcmplt
00024b51 g     O .data	00000001 extF80_roundingPrecision
000196c2 g     F .text	0000005a __aeabi_dsub
00019118 g     F .text	00000022 test_float_f2ulz
0000b740 g     F .text	0000004c mbedtls_mpi_cmp_int
00007c44 g     F .text	000001c6 _base64_dec
0001fb14 g     O .rodata	0000000d _ZTSSt9type_info
00000000       F *UND*	00000000 bget_main_test
00011508 g     F .text	00000018 __cxa_pure_virtual
00010438  w    F .text	00000020 _ZN9__gnu_cxx24__concurrence_lock_errorD2Ev
00008b94 g     F .text	0000006c TEE_BigIntMod
0000e1ca g     F .text	0000011a mbedtls_mpi_mod_int
0000ad44 g     F .text	0000009e mbedtls_mpi_read_binary_le
0001b7a8 g     F .text	0000005e i32_to_f32
00008a28 g     F .text	0000016c TEE_BigIntDiv
00010c6c g     F .text	00000004 _ZGTtNKSt13bad_exception4whatEv
00108be0 g       .bss	00000000 __ftrace_buf_start
0001d08a g     F .text	00000082 strlcpy
00000000 g       .tdata	00000004 os_test_tls_b
000193e0 g     F .text	000000e8 strncmp
000115a8 g     F .text	00000084 _ZNK10__cxxabiv120__si_class_type_info12__do_dyncastEiNS_17__class_type_info10__sub_kindEPKS1_PKvS4_S6_RNS1_16__dyncast_resultE
000045f4 g     F .text	00000100 dlopen
00005f64 g     F .text	0000003c softfloat_raiseFlags
00009ff4 g     F .text	000000f8 mbedtls_mpi_copy
00024260  w    O .data	0000000c _ZTIN9__gnu_cxx24__concurrence_lock_errorE
000067cc g     F .text	00000092 TEE_GetPropertyAsIdentity
00000000       F *UND*	00000000 __vsprintf
000036d0 g     F .text	000000fc ta_entry_call_lib_dl
00019bc0 g     F .text	00000028 __aeabi_f2iz
00018df2 g     F .text	00000036 test_float_dcmpgt
000242d8 g     O .data	00000014 _ZTVN10__cxxabiv119__foreign_exceptionE
000107a4 g     F .text	000000bc __cxa_type_match
00011658 g     F .text	00000002 _ZNSt9type_infoD2Ev
00018f3e g     F .text	00000036 test_float_fcmplt
00010c4c g     F .text	00000014 _ZN10__cxxabiv119__foreign_exceptionD0Ev
0001162c g     F .text	0000002a _ZNK10__cxxabiv120__si_class_type_info11__do_upcastEPKNS_17__class_type_infoEPKvRNS1_15__upcast_resultE
0001c34e g     F .text	00000094 softfloat_normRoundPackToF32
0001bdec g     F .text	0000034c softfloat_addMagsF64
00018cc2 g     F .text	0000002c test_float_drsub
00000000       F *UND*	00000000 realloc
0000a0ec g     F .text	00000042 mbedtls_mpi_swap
000189b8 g     F .text	00000074 mempool_alloc_pool
0001923e g     F .text	00000024 test_float_ui2f
000240ec  w    O .data	00000008 _ZTI19MixedFrameException
000242a8 g     O .data	00000008 _ZTIN10__cxxabiv119__foreign_exceptionE
00008928 g     F .text	000000e0 TEE_BigIntMul
000198b4 g     F .text	00000044 __aeabi_fdiv
00019cd4 g     F .text	0000002e __aeabi_i2d
0000b024 g     F .text	00000182 mbedtls_mpi_shift_l
0000b43e g     F .text	00000172 mbedtls_mpi_cmp_mpi
0001cf8e g     F .text	000000b8 memcmp
00000000       F *UND*	00000000 malloc_add_pool
00011538 g     F .text	00000020 _ZN10__cxxabiv120__si_class_type_infoD1Ev
0000b78c g     F .text	0000018c mbedtls_mpi_add_abs
000099de g     F .text	00000026 TEE_BigIntFMMSizeInU32
00006578 g     F .text	00000098 TEE_GetPropertyAsBool
000099a4 g     F .text	0000001e TEE_BigIntInitFMM
0001165c g     F .text	00000004 _ZNKSt9type_info14__is_pointer_pEv
0001c1cc g     F .text	00000052 softfloat_normSubnormalF32Sig
00007972 g     F .text	00000076 __utee_entry
00006610 g     F .text	00000092 TEE_GetPropertyAsU32
00019db8 g     F .text	00000024 __aeabi_ui2f
0001d10c g       .text	00000000 __text_end
00008dd8 g     F .text	000000c8 TEE_BigIntRelativePrime
0000e12c g     F .text	0000009e mbedtls_mpi_mod_mpi
000190f6 g     F .text	00000022 test_float_f2lz
00024300 g     O .data	00000014 _ZTVSt9exception
00010c34 g     F .text	00000014 _ZN10__cxxabiv115__forced_unwindD0Ev
0001b028 g     F .text	00000178 f64_le
0001c89a g     F .text	000000a6 softfloat_propagateNaNF32UI
00000000       F *UND*	00000000 os_test_shlib_cxx_ctor
00004764 g     F .text	000000aa dlsym
0000685e g     F .text	00000070 TEE_AllocatePropertyEnumerator
00024234 g     O .data	0000002c _ZTVN10__cxxabiv117__class_type_infoE
00011460 g     F .text	00000036 __cxa_throw
0000ed44 g     F .text	000001de mbedtls_mpi_gcd
00000000       F *UND*	00000000 TEE_SetTAPersistentTime
0000ae6a g     F .text	000000d6 mbedtls_mpi_write_binary_le
00000000       F *UND*	00000000 memset
00002c1c g     F .text	000001c0 ta_entry_client
00000000       F *UND*	00000000 TEE_GetTAPersistentTime
00003478 g     F .text	000000d4 ta_entry_ta2ta_memref_mix
00019ddc g     F .text	00000028 __aeabi_l2f
00010c60 g     F .text	00000002 _ZGTtNKSt9exceptionD1Ev
00010c70 g     F .text	00000018 __cxa_get_globals_fast
00004e08 g     F .text	00000090 f64_add
00010bfc g     F .text	0000000c _ZNKSt13bad_exception4whatEv
00019d30 g     F .text	00000032 __aeabi_l2d
0001f9d0  w    O .rodata	00000027 _ZTSN9__gnu_cxx24__concurrence_lock_errorE
00024228 g     O .data	0000000c _ZTIN10__cxxabiv117__class_type_infoE
00000000       F *UND*	00000000 trace_set_level
0001b318 g     F .text	00000394 f64_mul
0001a0d0 g     F .text	000000c4 f32_eq
00019e04 g     F .text	00000028 __aeabi_ul2f
00010bd0 g     F .text	00000020 _ZNSt13bad_exceptionD1Ev
0001c138 g     F .text	00000094 softfloat_normSubnormalF64Sig
00019332 g     F .text	000000ae strcmp
00000000  w      *UND*	00000000 pthread_mutex_unlock
000242c4 g     O .data	00000014 _ZTVN10__cxxabiv115__forced_unwindE
000081f0 g     F .text	000000d4 TEE_BigIntConvertToS32
00008844 g     F .text	00000034 TEE_BigIntSub
00002e7c g     F .text	00000040 ta_entry_wait
000038a0 g     F .text	00000048 ta_entry_get_global_var
00000004 g       .tbss	00000004 os_test_tls_a
00000000  w      *UND*	00000000 __gnu_Unwind_Find_exidx
0001931e g     F .text	00000014 tahead_get_trace_level
00018c3a g     F .text	0000002c test_float_dadd
00002ab0 g     F .text	00000040 ta_entry_panic
0001c21e g     F .text	000000da softfloat_shortShiftRightJam64
000053d8 g     F .text	000001b4 f64_to_ui32_r_minMag
00000000       F *UND*	00000000 tee_map_zi
0001c530 g     F .text	000000da softfloat_shiftRightJam64
00011558 g     F .text	00000014 _ZN10__cxxabiv120__si_class_type_infoD0Ev
0000e518 g     F .text	00000026 mbedtls_mpi_montred
0001cf2e g     F .text	00000032 sprintf
0001c940 g     F .text	00000084 softfloat_f32UIToCommonNaN
000192ea g     F .text	00000010 throwing_c_func
00008170 g     F .text	00000080 TEE_BigIntConvertFromS32
0000bc8a g     F .text	00000050 mbedtls_mpi_add_int
00000000       F *UND*	00000000 os_test_shlib_panic
000042d4 g     F .text	0000002c ta_entry_cxx_ctor_main
0001993c g     F .text	00000044 __aeabi_frsub
00010934 g     F .text	00000046 __cxa_call_terminate
00024b4c g     O .data	00000004 stderr
000099c2 g     F .text	0000001c TEE_BigIntInitFMMContext
00024b60 g     O .bss	00000004 os_test_global
000242a0 g     O .data	00000008 _ZTIN10__cxxabiv115__forced_unwindE
000192d0  w    F .text	0000001a _ZN23MixedFrameExceptionTestC2Ev
000240f4  w    O .data	00000008 _ZTI11MyException
000192ae  w    F .text	00000022 _ZN8CtorTestC2Ev
000199c4 g     F .text	0000003c __aeabi_fcmpeq
00010420  w    F .text	0000000c _ZNK9__gnu_cxx24__concurrence_lock_error4whatEv
00108bde g     O .bss	00000001 softfloat_exceptionFlags
000198f8 g     F .text	00000044 __aeabi_fmul
00010458  w    F .text	00000020 _ZN9__gnu_cxx26__concurrence_unlock_errorD2Ev
0001915e g     F .text	00000024 test_float_f2d
000038e8 g     F .text	000000e0 ta_entry_client_identity
00008a08 g     F .text	00000020 TEE_BigIntSquare
0001b806 g     F .text	0000011a i32_to_f64
000040a8 g     F .text	00000014 TA_CreateEntryPoint
000044ec g     F .text	00000004 __ta_entry
00011398 g     F .text	00000018 _ZSt14get_unexpectedv
00019288 g     F .text	00000026 test_float_ul2f
0000e352 g     F .text	0000001e mbedtls_mpi_montg_init
00000000       F *UND*	00000000 snprintk
00008556 g     F .text	00000038 TEE_BigIntGetBitCount
00018e28 g     F .text	0000002c test_float_fadd
00008c70 g     F .text	00000038 TEE_BigIntMulMod
00018840 g     F .text	0000004c fputc
0000f1aa g     F .text	000004cc mbedtls_mpi_inv_mod
0001fa68 g     O .rodata	00000024 _ZTSN10__cxxabiv119__foreign_exceptionE
00105b7c g     O .bss	00000020 ta_params
000191f2 g     F .text	00000028 test_float_ul2d
0000da8e g     F .text	0000064c mbedtls_mpi_div_mpi
0000a6e4 g     F .text	00000024 mbedtls_mpi_size
0001b1a0 g     F .text	00000178 f64_lt
00019b22 g     F .text	00000032 __aeabi_d2uiz
00018edc g     F .text	0000002c test_float_fsub
00006910 g     F .text	00000034 TEE_StartPropertyEnumerator
00010aa8 g     F .text	0000007e __cxa_begin_catch
0000a4d6 g     F .text	000000ce mbedtls_mpi_set_bit
00010364 g     F .text	00000020 _ZN10__cxxabiv117__class_type_infoD2Ev
0001135c g     F .text	00000008 _ZN10__cxxabiv112__unexpectedEPFvvE
0001ca46 g     F .text	000000b4 softfloat_f64UIToCommonNaN
00000000       F *UND*	00000000 TEE_Free
00019a00 g     F .text	0000003c __aeabi_fcmplt
00018faa g     F .text	00000036 test_float_fcmpge
0000fa9a g     F .text	00000028 mbedtls_mpi_is_prime
00010c1c g     F .text	00000014 _ZNSt13bad_exceptionD0Ev
00024b44 g     O .data	00000004 _ZN10__cxxabiv119__terminate_handlerE
0001787c g     F .text	00000020 __gcclibcxx_demangle_callback
0001971c g     F .text	00000044 __aeabi_dcmpeq
00000000       F *UND*	00000000 _assert_break
00008c00 g     F .text	00000038 TEE_BigIntAddMod
000106c0 g     F .text	0000002e __cxa_allocate_exception
00003c24 g     F .text	00000016 ta_entry_dl_phdr
000188d8 g     F .text	00000070 fwrite
00024318 g     O .data	0000000c _ZTIN10__cxxabiv120__si_class_type_infoE
0000441c g     F .text	0000004a _ZN23MixedFrameExceptionTest4testEv
000184a0 g     F .text	00000022 .hidden _Unwind_ForcedUnwind
00019e2c g     F .text	000002a4 f32_div
00006944 g     F .text	0000010a TEE_GetPropertyName
00004312 g     F .text	00000072 ta_entry_cxx_ctor_shlib_dl
00000000  w      *UND*	00000000 pthread_mutex_lock
000043ec g     F .text	00000030 throw_mfe
00019be8 g     F .text	00000028 __aeabi_f2uiz
00010bcc g     F .text	00000002 _ZNSt9exceptionD1Ev
00004e98 g     F .text	00000090 f64_sub
0001a260 g     F .text	000000cc f32_lt
00000000       F *UND*	00000000 TEE_MemCompare
0001ea08  w    O .rodata	00000016 _ZTS19MixedFrameException
0001903c g     F .text	00000026 test_float_d2uiz
0001913a g     F .text	00000024 test_float_d2f
00105b9c g     O .bss	0000000c __elf_phdr_info
00000000       F *UND*	00000000 TEE_OpenTASession
0001156c g     F .text	0000003a _ZNK10__cxxabiv120__si_class_type_info20__do_find_public_srcEiPKvPKNS_17__class_type_infoES2_
00003048 g     F .text	00000430 ta_entry_ta2ta_memref
00019af0 g     F .text	00000032 __aeabi_d2iz
00018eb0 g     F .text	0000002c test_float_frsub
000112f4 g     F .text	0000000e _ZN10__cxxabiv111__terminateEPFvvE
0000484c g     F .text	0000006c f32_add
00000000       F *UND*	00000000 trace_ext_puts
000242b0 g     O .data	0000000c _ZTISt13bad_exception
00009ca8 g     F .text	0000008c mbedtls_mpi_free
00005e60 g     F .text	0000006c softfloat_countLeadingZeros32
00000000       F *UND*	00000000 _utee_get_property_name_to_index
0001a556 g     F .text	00000194 f32_to_f64
00010438  w    F .text	00000020 _ZN9__gnu_cxx24__concurrence_lock_errorD1Ev
00007a3e g     F .text	0000019a _base64_enc
0000a2c6 g     F .text	00000154 mbedtls_mpi_safe_cond_swap
00018e84 g     F .text	0000002c test_float_fmul
00010c88 g     F .text	00000018 __cxa_get_globals
00024314 g     O .data	00000004 _ZN10__cxxabiv120__unexpected_handlerE
00000000       F *UND*	00000000 strlen
00009690 g     F .text	00000290 TEE_BigIntComputeExtendedGcd
00024350 g     O .data	00000008 _ZTISt9type_info
0001807c  w    F .text	00000004 .hidden __aeabi_unwind_cpp_pr1
00010c68 g     F .text	00000002 _ZGTtNKSt13bad_exceptionD1Ev
0001a6ea g     F .text	00000794 f64_div
0001faa0 g     O .rodata	0000000d _ZTSSt9exception
00019086 g     F .text	00000024 test_float_d2ulz
000178a0 g     F .text	0000001a __cxa_current_exception_type
00010c08 g     F .text	00000014 _ZNSt9exceptionD0Ev
00018d86 g     F .text	00000036 test_float_dcmple
00024278  w    O .data	00000014 _ZTVN9__gnu_cxx24__concurrence_lock_errorE
00019c9e g     F .text	00000036 __aeabi_f2d
0001888c g     F .text	0000004c fputs
00000000       F *UND*	00000000 TEE_GetSystemTime
00000000 g     O .ta_head	00000020 ta_head
00002ed0 g     F .text	0000010a ta_entry_bad_mem_access
00018dbc g     F .text	00000036 test_float_dcmpge
0000b9c2 g     F .text	00000170 mbedtls_mpi_sub_abs
0000efdc g     F .text	0000006a mbedtls_mpi_fill_random
0001a194 g     F .text	000000cc f32_le
000191ca g     F .text	00000028 test_float_l2d
0000aa62 g     F .text	000001fa mbedtls_mpi_write_string
00011678 g     F .text	0000002c _ZNKSt9type_infoeqERKS_
00002ddc g     F .text	000000a0 ta_entry_params_access_rights
00000000       F *UND*	00000000 TEE_CloseTASession
00004384 g     F .text	00000068 ta_entry_cxx_exc_main
0001fa48 g     O .rodata	00000020 _ZTSN10__cxxabiv115__forced_unwindE
0001bbe8 g     F .text	00000076 ui64_to_f64
00019262 g     F .text	00000026 test_float_l2f
00002af0 g     F .text	0000012c ta_entry_client_with_timeout
000116a4 g     F .text	00000004 _ZNKSt9type_info10__do_catchEPKS_PPvj
00019182 g     F .text	00000024 test_float_i2d
000190d0 g     F .text	00000026 test_float_f2uiz
00000000       F *UND*	00000000 free
000116a8 g     F .text	00000110 _ZN9__gnu_cxx27__verbose_terminate_handlerEv
00010384 g     F .text	00000014 _ZN10__cxxabiv117__class_type_infoD0Ev
00108bb0 g     O .bss	00000004 mbedtls_mpi_mempool



Disassembly of section .text:

00000020 <check_returned_prop>:
check_returned_prop():
/home/qemu-sgx/devel/optee/out-br/build/optee_test_ext-1.0/ta/os_test/os_test.c:39
      20:	e96d 7e02 	strd	r7, lr, [sp, #-8]!
      24:	b08a      	sub	sp, #40	; 0x28
      26:	af06      	add	r7, sp, #24
      28:	60f8      	str	r0, [r7, #12]
      2a:	60b9      	str	r1, [r7, #8]
      2c:	607a      	str	r2, [r7, #4]
      2e:	603b      	str	r3, [r7, #0]
/home/qemu-sgx/devel/optee/out-br/build/optee_test_ext-1.0/ta/os_test/os_test.c:40
      30:	687a      	ldr	r2, [r7, #4]
      32:	683b      	ldr	r3, [r7, #0]
      34:	429a      	cmp	r2, r3
      36:	d01f      	beq.n	78 <check_returned_prop+0x58>
/home/qemu-sgx/devel/optee/out-br/build/optee_test_ext-1.0/ta/os_test/os_test.c:41
      38:	68bb      	ldr	r3, [r7, #8]
      3a:	2b00      	cmp	r3, #0
      3c:	d001      	beq.n	42 <check_returned_prop+0x22>
/home/qemu-sgx/devel/optee/out-br/build/optee_test_ext-1.0/ta/os_test/os_test.c:41 (discriminator 1)
      3e:	68bb      	ldr	r3, [r7, #8]
      40:	e001      	b.n	46 <check_returned_prop+0x26>
/home/qemu-sgx/devel/optee/out-br/build/optee_test_ext-1.0/ta/os_test/os_test.c:41 (discriminator 2)
      42:	4b23      	ldr	r3, [pc, #140]	; (d0 <check_returned_prop+0xb0>)
      44:	447b      	add	r3, pc
/home/qemu-sgx/devel/optee/out-br/build/optee_test_ext-1.0/ta/os_test/os_test.c:41 (discriminator 4)
      46:	683a      	ldr	r2, [r7, #0]
      48:	9204      	str	r2, [sp, #16]
      4a:	687a      	ldr	r2, [r7, #4]
      4c:	9203      	str	r2, [sp, #12]
      4e:	9302      	str	r3, [sp, #8]
      50:	68fb      	ldr	r3, [r7, #12]
      52:	9301      	str	r3, [sp, #4]
      54:	4b1f      	ldr	r3, [pc, #124]	; (d4 <check_returned_prop+0xb4>)
      56:	447b      	add	r3, pc
      58:	9300      	str	r3, [sp, #0]
      5a:	f04f 0301 	mov.w	r3, #1
      5e:	f04f 0201 	mov.w	r2, #1
      62:	f04f 0129 	mov.w	r1, #41	; 0x29
      66:	481c      	ldr	r0, [pc, #112]	; (d8 <check_returned_prop+0xb8>)
      68:	4478      	add	r0, pc
      6a:	f01d e884 	blx	1d174 <trace_printf@plt>
/home/qemu-sgx/devel/optee/out-br/build/optee_test_ext-1.0/ta/os_test/os_test.c:44 (discriminator 4)
      6e:	f04f 0300 	mov.w	r3, #0
      72:	f6cf 73ff 	movt	r3, #65535	; 0xffff
      76:	e025      	b.n	c4 <check_returned_prop+0xa4>
/home/qemu-sgx/devel/optee/out-br/build/optee_test_ext-1.0/ta/os_test/os_test.c:46
      78:	69ba      	ldr	r2, [r7, #24]
      7a:	69fb      	ldr	r3, [r7, #28]
      7c:	429a      	cmp	r2, r3
      7e:	d01f      	beq.n	c0 <check_returned_prop+0xa0>
/home/qemu-sgx/devel/optee/out-br/build/optee_test_ext-1.0/ta/os_test/os_test.c:47
      80:	68bb      	ldr	r3, [r7, #8]
      82:	2b00      	cmp	r3, #0
      84:	d001      	beq.n	8a <check_returned_prop+0x6a>
/home/qemu-sgx/devel/optee/out-br/build/optee_test_ext-1.0/ta/os_test/os_test.c:47 (discriminator 1)
      86:	68bb      	ldr	r3, [r7, #8]
      88:	e001      	b.n	8e <check_returned_prop+0x6e>
/home/qemu-sgx/devel/optee/out-br/build/optee_test_ext-1.0/ta/os_test/os_test.c:47 (discriminator 2)
      8a:	4b14      	ldr	r3, [pc, #80]	; (dc <check_returned_prop+0xbc>)
      8c:	447b      	add	r3, pc
/home/qemu-sgx/devel/optee/out-br/build/optee_test_ext-1.0/ta/os_test/os_test.c:47 (discriminator 4)
      8e:	69fa      	ldr	r2, [r7, #28]
      90:	9204      	str	r2, [sp, #16]
      92:	69ba      	ldr	r2, [r7, #24]
      94:	9203      	str	r2, [sp, #12]
      96:	9302      	str	r3, [sp, #8]
      98:	68fb      	ldr	r3, [r7, #12]
      9a:	9301      	str	r3, [sp, #4]
      9c:	4b10      	ldr	r3, [pc, #64]	; (e0 <check_returned_prop+0xc0>)
      9e:	447b      	add	r3, pc
      a0:	9300      	str	r3, [sp, #0]
      a2:	f04f 0301 	mov.w	r3, #1
      a6:	f04f 0201 	mov.w	r2, #1
      aa:	f04f 012f 	mov.w	r1, #47	; 0x2f
      ae:	480d      	ldr	r0, [pc, #52]	; (e4 <check_returned_prop+0xc4>)
      b0:	4478      	add	r0, pc
      b2:	f01d e860 	blx	1d174 <trace_printf@plt>
/home/qemu-sgx/devel/optee/out-br/build/optee_test_ext-1.0/ta/os_test/os_test.c:50 (discriminator 4)
      b6:	f04f 0300 	mov.w	r3, #0
      ba:	f6cf 73ff 	movt	r3, #65535	; 0xffff
      be:	e001      	b.n	c4 <check_returned_prop+0xa4>
/home/qemu-sgx/devel/optee/out-br/build/optee_test_ext-1.0/ta/os_test/os_test.c:52
      c0:	f04f 0300 	mov.w	r3, #0
/home/qemu-sgx/devel/optee/out-br/build/optee_test_ext-1.0/ta/os_test/os_test.c:53
      c4:	4618      	mov	r0, r3
      c6:	f107 0710 	add.w	r7, r7, #16
      ca:	46bd      	mov	sp, r7
      cc:	bd80      	pop	{r7, pc}
      ce:	bf00      	nop
      d0:	0001d358 	.word	0x0001d358
      d4:	0001d34e 	.word	0x0001d34e
      d8:	0001e790 	.word	0x0001e790
      dc:	0001d310 	.word	0x0001d310
      e0:	0001d34e 	.word	0x0001d34e
      e4:	0001e748 	.word	0x0001e748

000000e8 <check_binprop_ones>:
check_binprop_ones():
/home/qemu-sgx/devel/optee/out-br/build/optee_test_ext-1.0/ta/os_test/os_test.c:56
      e8:	e96d 7e02 	strd	r7, lr, [sp, #-8]!
      ec:	b08a      	sub	sp, #40	; 0x28
      ee:	af04      	add	r7, sp, #16
      f0:	60f8      	str	r0, [r7, #12]
      f2:	60b9      	str	r1, [r7, #8]
      f4:	607a      	str	r2, [r7, #4]
/home/qemu-sgx/devel/optee/out-br/build/optee_test_ext-1.0/ta/os_test/os_test.c:57
      f6:	f04f 33ff 	mov.w	r3, #4294967295	; 0xffffffff
      fa:	617b      	str	r3, [r7, #20]
/home/qemu-sgx/devel/optee/out-br/build/optee_test_ext-1.0/ta/os_test/os_test.c:59
      fc:	68fb      	ldr	r3, [r7, #12]
      fe:	2b04      	cmp	r3, #4
     100:	d803      	bhi.n	10a <check_binprop_ones+0x22>
/home/qemu-sgx/devel/optee/out-br/build/optee_test_ext-1.0/ta/os_test/os_test.c:59 (discriminator 1)
     102:	687a      	ldr	r2, [r7, #4]
     104:	68fb      	ldr	r3, [r7, #12]
     106:	429a      	cmp	r2, r3
     108:	d015      	beq.n	136 <check_binprop_ones+0x4e>
/home/qemu-sgx/devel/optee/out-br/build/optee_test_ext-1.0/ta/os_test/os_test.c:60
     10a:	687b      	ldr	r3, [r7, #4]
     10c:	9302      	str	r3, [sp, #8]
     10e:	68fb      	ldr	r3, [r7, #12]
     110:	9301      	str	r3, [sp, #4]
     112:	4b1a      	ldr	r3, [pc, #104]	; (17c <check_binprop_ones+0x94>)
     114:	447b      	add	r3, pc
     116:	9300      	str	r3, [sp, #0]
     118:	f04f 0301 	mov.w	r3, #1
     11c:	f04f 0201 	mov.w	r2, #1
     120:	f04f 013c 	mov.w	r1, #60	; 0x3c
     124:	4816      	ldr	r0, [pc, #88]	; (180 <check_binprop_ones+0x98>)
     126:	4478      	add	r0, pc
     128:	f01d e824 	blx	1d174 <trace_printf@plt>
/home/qemu-sgx/devel/optee/out-br/build/optee_test_ext-1.0/ta/os_test/os_test.c:61
     12c:	f04f 0300 	mov.w	r3, #0
     130:	f6cf 73ff 	movt	r3, #65535	; 0xffff
     134:	e01d      	b.n	172 <check_binprop_ones+0x8a>
/home/qemu-sgx/devel/optee/out-br/build/optee_test_ext-1.0/ta/os_test/os_test.c:63
     136:	f107 0314 	add.w	r3, r7, #20
     13a:	687a      	ldr	r2, [r7, #4]
     13c:	4619      	mov	r1, r3
     13e:	68b8      	ldr	r0, [r7, #8]
     140:	f019 f94e 	bl	193e0 <strncmp>
     144:	4603      	mov	r3, r0
     146:	2b00      	cmp	r3, #0
     148:	d011      	beq.n	16e <check_binprop_ones+0x86>
/home/qemu-sgx/devel/optee/out-br/build/optee_test_ext-1.0/ta/os_test/os_test.c:64
     14a:	4b0e      	ldr	r3, [pc, #56]	; (184 <check_binprop_ones+0x9c>)
     14c:	447b      	add	r3, pc
     14e:	9300      	str	r3, [sp, #0]
     150:	f04f 0301 	mov.w	r3, #1
     154:	f04f 0201 	mov.w	r2, #1
     158:	f04f 0140 	mov.w	r1, #64	; 0x40
     15c:	480a      	ldr	r0, [pc, #40]	; (188 <check_binprop_ones+0xa0>)
     15e:	4478      	add	r0, pc
     160:	f01d e808 	blx	1d174 <trace_printf@plt>
/home/qemu-sgx/devel/optee/out-br/build/optee_test_ext-1.0/ta/os_test/os_test.c:66
     164:	f04f 0300 	mov.w	r3, #0
     168:	f6cf 73ff 	movt	r3, #65535	; 0xffff
     16c:	e001      	b.n	172 <check_binprop_ones+0x8a>
/home/qemu-sgx/devel/optee/out-br/build/optee_test_ext-1.0/ta/os_test/os_test.c:68
     16e:	f04f 0300 	mov.w	r3, #0
/home/qemu-sgx/devel/optee/out-br/build/optee_test_ext-1.0/ta/os_test/os_test.c:69 (discriminator 1)
     172:	4618      	mov	r0, r3
     174:	f107 0718 	add.w	r7, r7, #24
     178:	46bd      	mov	sp, r7
     17a:	bd80      	pop	{r7, pc}
     17c:	0001d31c 	.word	0x0001d31c
     180:	0001e6e6 	.word	0x0001e6e6
     184:	0001d308 	.word	0x0001d308
     188:	0001e6ae 	.word	0x0001e6ae

0000018c <get_binblock_property>:
get_binblock_property():
/home/qemu-sgx/devel/optee/out-br/build/optee_test_ext-1.0/ta/os_test/os_test.c:73
     18c:	e96d 7e02 	strd	r7, lr, [sp, #-8]!
     190:	b08a      	sub	sp, #40	; 0x28
     192:	af04      	add	r7, sp, #16
     194:	60f8      	str	r0, [r7, #12]
     196:	60b9      	str	r1, [r7, #8]
     198:	607a      	str	r2, [r7, #4]
     19a:	603b      	str	r3, [r7, #0]
/home/qemu-sgx/devel/optee/out-br/build/optee_test_ext-1.0/ta/os_test/os_test.c:74
     19c:	f04f 0300 	mov.w	r3, #0
     1a0:	f6cf 73ff 	movt	r3, #65535	; 0xffff
     1a4:	617b      	str	r3, [r7, #20]
/home/qemu-sgx/devel/optee/out-br/build/optee_test_ext-1.0/ta/os_test/os_test.c:75
     1a6:	f04f 0300 	mov.w	r3, #0
     1aa:	613b      	str	r3, [r7, #16]
/home/qemu-sgx/devel/optee/out-br/build/optee_test_ext-1.0/ta/os_test/os_test.c:77
     1ac:	687b      	ldr	r3, [r7, #4]
     1ae:	f04f 0200 	mov.w	r2, #0
     1b2:	601a      	str	r2, [r3, #0]
/home/qemu-sgx/devel/optee/out-br/build/optee_test_ext-1.0/ta/os_test/os_test.c:78
     1b4:	683b      	ldr	r3, [r7, #0]
     1b6:	f04f 0200 	mov.w	r2, #0
     1ba:	601a      	str	r2, [r3, #0]
/home/qemu-sgx/devel/optee/out-br/build/optee_test_ext-1.0/ta/os_test/os_test.c:79
     1bc:	687b      	ldr	r3, [r7, #4]
     1be:	681a      	ldr	r2, [r3, #0]
     1c0:	f107 0310 	add.w	r3, r7, #16
     1c4:	f04f 0100 	mov.w	r1, #0
     1c8:	68f8      	ldr	r0, [r7, #12]
     1ca:	f006 fa6a 	bl	66a2 <TEE_GetPropertyAsBinaryBlock>
     1ce:	6178      	str	r0, [r7, #20]
/home/qemu-sgx/devel/optee/out-br/build/optee_test_ext-1.0/ta/os_test/os_test.c:81
     1d0:	697b      	ldr	r3, [r7, #20]
     1d2:	2b00      	cmp	r3, #0
     1d4:	d105      	bne.n	1e2 <get_binblock_property+0x56>
/home/qemu-sgx/devel/optee/out-br/build/optee_test_ext-1.0/ta/os_test/os_test.c:81 (discriminator 1)
     1d6:	693b      	ldr	r3, [r7, #16]
     1d8:	2b00      	cmp	r3, #0
     1da:	d102      	bne.n	1e2 <get_binblock_property+0x56>
/home/qemu-sgx/devel/optee/out-br/build/optee_test_ext-1.0/ta/os_test/os_test.c:82
     1dc:	f04f 0300 	mov.w	r3, #0
     1e0:	e053      	b.n	28a <get_binblock_property+0xfe>
/home/qemu-sgx/devel/optee/out-br/build/optee_test_ext-1.0/ta/os_test/os_test.c:84
     1e2:	697a      	ldr	r2, [r7, #20]
     1e4:	f04f 0310 	mov.w	r3, #16
     1e8:	f6cf 73ff 	movt	r3, #65535	; 0xffff
     1ec:	429a      	cmp	r2, r3
     1ee:	d018      	beq.n	222 <get_binblock_property+0x96>
/home/qemu-sgx/devel/optee/out-br/build/optee_test_ext-1.0/ta/os_test/os_test.c:85
     1f0:	697b      	ldr	r3, [r7, #20]
     1f2:	9301      	str	r3, [sp, #4]
     1f4:	4b27      	ldr	r3, [pc, #156]	; (294 <get_binblock_property+0x108>)
     1f6:	447b      	add	r3, pc
     1f8:	9300      	str	r3, [sp, #0]
     1fa:	f04f 0301 	mov.w	r3, #1
     1fe:	f04f 0201 	mov.w	r2, #1
     202:	f04f 0155 	mov.w	r1, #85	; 0x55
     206:	4824      	ldr	r0, [pc, #144]	; (298 <get_binblock_property+0x10c>)
     208:	4478      	add	r0, pc
     20a:	f01c efb4 	blx	1d174 <trace_printf@plt>
/home/qemu-sgx/devel/optee/out-br/build/optee_test_ext-1.0/ta/os_test/os_test.c:87
     20e:	697b      	ldr	r3, [r7, #20]
     210:	2b00      	cmp	r3, #0
     212:	d001      	beq.n	218 <get_binblock_property+0x8c>
/home/qemu-sgx/devel/optee/out-br/build/optee_test_ext-1.0/ta/os_test/os_test.c:87 (discriminator 1)
     214:	697b      	ldr	r3, [r7, #20]
     216:	e038      	b.n	28a <get_binblock_property+0xfe>
/home/qemu-sgx/devel/optee/out-br/build/optee_test_ext-1.0/ta/os_test/os_test.c:87 (discriminator 2)
     218:	f04f 0300 	mov.w	r3, #0
     21c:	f6cf 73ff 	movt	r3, #65535	; 0xffff
     220:	e033      	b.n	28a <get_binblock_property+0xfe>
/home/qemu-sgx/devel/optee/out-br/build/optee_test_ext-1.0/ta/os_test/os_test.c:90
     222:	693b      	ldr	r3, [r7, #16]
     224:	f04f 0100 	mov.w	r1, #0
     228:	4618      	mov	r0, r3
     22a:	f01c effe 	blx	1d228 <TEE_Malloc@plt>
     22e:	4602      	mov	r2, r0
     230:	687b      	ldr	r3, [r7, #4]
     232:	601a      	str	r2, [r3, #0]
/home/qemu-sgx/devel/optee/out-br/build/optee_test_ext-1.0/ta/os_test/os_test.c:91
     234:	687b      	ldr	r3, [r7, #4]
     236:	2b00      	cmp	r3, #0
     238:	d104      	bne.n	244 <get_binblock_property+0xb8>
/home/qemu-sgx/devel/optee/out-br/build/optee_test_ext-1.0/ta/os_test/os_test.c:92
     23a:	f04f 030c 	mov.w	r3, #12
     23e:	f6cf 73ff 	movt	r3, #65535	; 0xffff
     242:	e022      	b.n	28a <get_binblock_property+0xfe>
/home/qemu-sgx/devel/optee/out-br/build/optee_test_ext-1.0/ta/os_test/os_test.c:94
     244:	687b      	ldr	r3, [r7, #4]
     246:	681a      	ldr	r2, [r3, #0]
     248:	f107 0310 	add.w	r3, r7, #16
     24c:	f04f 0100 	mov.w	r1, #0
     250:	68f8      	ldr	r0, [r7, #12]
     252:	f006 fa26 	bl	66a2 <TEE_GetPropertyAsBinaryBlock>
     256:	6178      	str	r0, [r7, #20]
/home/qemu-sgx/devel/optee/out-br/build/optee_test_ext-1.0/ta/os_test/os_test.c:95
     258:	697b      	ldr	r3, [r7, #20]
     25a:	2b00      	cmp	r3, #0
     25c:	d011      	beq.n	282 <get_binblock_property+0xf6>
/home/qemu-sgx/devel/optee/out-br/build/optee_test_ext-1.0/ta/os_test/os_test.c:96
     25e:	697b      	ldr	r3, [r7, #20]
     260:	9302      	str	r3, [sp, #8]
     262:	68bb      	ldr	r3, [r7, #8]
     264:	9301      	str	r3, [sp, #4]
     266:	4b0d      	ldr	r3, [pc, #52]	; (29c <get_binblock_property+0x110>)
     268:	447b      	add	r3, pc
     26a:	9300      	str	r3, [sp, #0]
     26c:	f04f 0301 	mov.w	r3, #1
     270:	f04f 0201 	mov.w	r2, #1
     274:	f04f 0160 	mov.w	r1, #96	; 0x60
     278:	4809      	ldr	r0, [pc, #36]	; (2a0 <get_binblock_property+0x114>)
     27a:	4478      	add	r0, pc
     27c:	f01c ef7a 	blx	1d174 <trace_printf@plt>
     280:	e002      	b.n	288 <get_binblock_property+0xfc>
/home/qemu-sgx/devel/optee/out-br/build/optee_test_ext-1.0/ta/os_test/os_test.c:99
     282:	693a      	ldr	r2, [r7, #16]
     284:	683b      	ldr	r3, [r7, #0]
     286:	601a      	str	r2, [r3, #0]
/home/qemu-sgx/devel/optee/out-br/build/optee_test_ext-1.0/ta/os_test/os_test.c:101
     288:	697b      	ldr	r3, [r7, #20]
/home/qemu-sgx/devel/optee/out-br/build/optee_test_ext-1.0/ta/os_test/os_test.c:102 (discriminator 1)
     28a:	4618      	mov	r0, r3
     28c:	f107 0718 	add.w	r7, r7, #24
     290:	46bd      	mov	sp, r7
     292:	bd80      	pop	{r7, pc}
     294:	0001d272 	.word	0x0001d272
     298:	0001e618 	.word	0x0001e618
     29c:	0001d238 	.word	0x0001d238
     2a0:	0001e5a6 	.word	0x0001e5a6

000002a4 <print_properties>:
print_properties():
/home/qemu-sgx/devel/optee/out-br/build/optee_test_ext-1.0/ta/os_test/os_test.c:107
     2a4:	f84d 4d0c 	str.w	r4, [sp, #-12]!
     2a8:	e9cd 7e01 	strd	r7, lr, [sp, #4]
     2ac:	f2ad 4d84 	subw	sp, sp, #1156	; 0x484
     2b0:	af04      	add	r7, sp, #16
     2b2:	f507 648e 	add.w	r4, r7, #1136	; 0x470
     2b6:	f2a4 4464 	subw	r4, r4, #1124	; 0x464
     2ba:	6020      	str	r0, [r4, #0]
     2bc:	f507 608e 	add.w	r0, r7, #1136	; 0x470
     2c0:	f5a0 608d 	sub.w	r0, r0, #1128	; 0x468
     2c4:	6001      	str	r1, [r0, #0]
     2c6:	f507 618e 	add.w	r1, r7, #1136	; 0x470
     2ca:	f2a1 416c 	subw	r1, r1, #1132	; 0x46c
     2ce:	600a      	str	r2, [r1, #0]
     2d0:	f507 628e 	add.w	r2, r7, #1136	; 0x470
     2d4:	f5a2 628e 	sub.w	r2, r2, #1136	; 0x470
     2d8:	6013      	str	r3, [r2, #0]
/home/qemu-sgx/devel/optee/out-br/build/optee_test_ext-1.0/ta/os_test/os_test.c:108
     2da:	f04f 0300 	mov.w	r3, #0
     2de:	f6cf 73ff 	movt	r3, #65535	; 0xffff
     2e2:	f8c7 3468 	str.w	r3, [r7, #1128]	; 0x468
/home/qemu-sgx/devel/optee/out-br/build/optee_test_ext-1.0/ta/os_test/os_test.c:109
     2e6:	f04f 0300 	mov.w	r3, #0
     2ea:	f8c7 346c 	str.w	r3, [r7, #1132]	; 0x46c
/home/qemu-sgx/devel/optee/out-br/build/optee_test_ext-1.0/ta/os_test/os_test.c:111
     2ee:	f507 638e 	add.w	r3, r7, #1136	; 0x470
     2f2:	f5a3 628d 	sub.w	r2, r3, #1128	; 0x468
     2f6:	f507 638e 	add.w	r3, r7, #1136	; 0x470
     2fa:	f2a3 4364 	subw	r3, r3, #1124	; 0x464
     2fe:	6811      	ldr	r1, [r2, #0]
     300:	6818      	ldr	r0, [r3, #0]
     302:	f006 fb05 	bl	6910 <TEE_StartPropertyEnumerator>
/home/qemu-sgx/devel/optee/out-br/build/optee_test_ext-1.0/ta/os_test/os_test.c:114
     306:	f507 638e 	add.w	r3, r7, #1136	; 0x470
     30a:	f2a3 435c 	subw	r3, r3, #1116	; 0x45c
     30e:	f04f 0200 	mov.w	r2, #0
     312:	601a      	str	r2, [r3, #0]
     314:	f103 0304 	add.w	r3, r3, #4
     318:	f04f 02fc 	mov.w	r2, #252	; 0xfc
     31c:	f04f 0100 	mov.w	r1, #0
     320:	4618      	mov	r0, r3
     322:	f01c efca 	blx	1d2b8 <memset@plt>
/home/qemu-sgx/devel/optee/out-br/build/optee_test_ext-1.0/ta/os_test/os_test.c:115
     326:	f507 638e 	add.w	r3, r7, #1136	; 0x470
     32a:	f5a3 7357 	sub.w	r3, r3, #860	; 0x35c
     32e:	f04f 0200 	mov.w	r2, #0
     332:	601a      	str	r2, [r3, #0]
     334:	f103 0304 	add.w	r3, r3, #4
     338:	f04f 02fc 	mov.w	r2, #252	; 0xfc
     33c:	f04f 0100 	mov.w	r1, #0
     340:	4618      	mov	r0, r3
     342:	f01c efba 	blx	1d2b8 <memset@plt>
/home/qemu-sgx/devel/optee/out-br/build/optee_test_ext-1.0/ta/os_test/os_test.c:116
     346:	f507 638e 	add.w	r3, r7, #1136	; 0x470
     34a:	f5a3 7317 	sub.w	r3, r3, #604	; 0x25c
     34e:	f04f 0200 	mov.w	r2, #0
     352:	601a      	str	r2, [r3, #0]
     354:	f103 0304 	add.w	r3, r3, #4
     358:	f04f 02fc 	mov.w	r2, #252	; 0xfc
     35c:	f04f 0100 	mov.w	r1, #0
     360:	4618      	mov	r0, r3
     362:	f01c efaa 	blx	1d2b8 <memset@plt>
/home/qemu-sgx/devel/optee/out-br/build/optee_test_ext-1.0/ta/os_test/os_test.c:117
     366:	f507 638e 	add.w	r3, r7, #1136	; 0x470
     36a:	f5a3 73ae 	sub.w	r3, r3, #348	; 0x15c
     36e:	f04f 0200 	mov.w	r2, #0
     372:	601a      	str	r2, [r3, #0]
     374:	f103 0304 	add.w	r3, r3, #4
     378:	f04f 02fc 	mov.w	r2, #252	; 0xfc
     37c:	f04f 0100 	mov.w	r1, #0
     380:	4618      	mov	r0, r3
     382:	f01c ef9a 	blx	1d2b8 <memset@plt>
/home/qemu-sgx/devel/optee/out-br/build/optee_test_ext-1.0/ta/os_test/os_test.c:118
     386:	f44f 7380 	mov.w	r3, #256	; 0x100
     38a:	f8c7 3464 	str.w	r3, [r7, #1124]	; 0x464
/home/qemu-sgx/devel/optee/out-br/build/optee_test_ext-1.0/ta/os_test/os_test.c:119
     38e:	f04f 0300 	mov.w	r3, #0
     392:	f8c7 3460 	str.w	r3, [r7, #1120]	; 0x460
/home/qemu-sgx/devel/optee/out-br/build/optee_test_ext-1.0/ta/os_test/os_test.c:120
     396:	f44f 7380 	mov.w	r3, #256	; 0x100
     39a:	f8c7 345c 	str.w	r3, [r7, #1116]	; 0x45c
/home/qemu-sgx/devel/optee/out-br/build/optee_test_ext-1.0/ta/os_test/os_test.c:121
     39e:	f44f 7380 	mov.w	r3, #256	; 0x100
     3a2:	f8c7 3458 	str.w	r3, [r7, #1112]	; 0x458
/home/qemu-sgx/devel/optee/out-br/build/optee_test_ext-1.0/ta/os_test/os_test.c:122
     3a6:	f04f 0300 	mov.w	r3, #0
     3aa:	f8c7 3454 	str.w	r3, [r7, #1108]	; 0x454
/home/qemu-sgx/devel/optee/out-br/build/optee_test_ext-1.0/ta/os_test/os_test.c:123
     3ae:	f04f 0300 	mov.w	r3, #0
     3b2:	f8c7 3450 	str.w	r3, [r7, #1104]	; 0x450
/home/qemu-sgx/devel/optee/out-br/build/optee_test_ext-1.0/ta/os_test/os_test.c:125
     3b6:	f207 4264 	addw	r2, r7, #1124	; 0x464
     3ba:	f107 0114 	add.w	r1, r7, #20
     3be:	f507 638e 	add.w	r3, r7, #1136	; 0x470
     3c2:	f2a3 4364 	subw	r3, r3, #1124	; 0x464
     3c6:	6818      	ldr	r0, [r3, #0]
     3c8:	f006 fabc 	bl	6944 <TEE_GetPropertyName>
     3cc:	f8c7 0468 	str.w	r0, [r7, #1128]	; 0x468
/home/qemu-sgx/devel/optee/out-br/build/optee_test_ext-1.0/ta/os_test/os_test.c:126
     3d0:	f8d7 3468 	ldr.w	r3, [r7, #1128]	; 0x468
     3d4:	2b00      	cmp	r3, #0
     3d6:	d015      	beq.n	404 <print_properties+0x160>
/home/qemu-sgx/devel/optee/out-br/build/optee_test_ext-1.0/ta/os_test/os_test.c:127
     3d8:	f8d7 3468 	ldr.w	r3, [r7, #1128]	; 0x468
     3dc:	9301      	str	r3, [sp, #4]
     3de:	f8df 39e8 	ldr.w	r3, [pc, #2536]	; dc8 <print_properties+0xb24>
     3e2:	447b      	add	r3, pc
     3e4:	9300      	str	r3, [sp, #0]
     3e6:	f04f 0301 	mov.w	r3, #1
     3ea:	f04f 0201 	mov.w	r2, #1
     3ee:	f04f 017f 	mov.w	r1, #127	; 0x7f
     3f2:	f8df 09d8 	ldr.w	r0, [pc, #2520]	; dcc <print_properties+0xb28>
     3f6:	4478      	add	r0, pc
     3f8:	f01c eebc 	blx	1d174 <trace_printf@plt>
/home/qemu-sgx/devel/optee/out-br/build/optee_test_ext-1.0/ta/os_test/os_test.c:129
     3fc:	f8d7 3468 	ldr.w	r3, [r7, #1128]	; 0x468
     400:	f000 bcd9 	b.w	db6 <print_properties+0xb12>
/home/qemu-sgx/devel/optee/out-br/build/optee_test_ext-1.0/ta/os_test/os_test.c:131
     404:	f107 0314 	add.w	r3, r7, #20
     408:	4618      	mov	r0, r3
     40a:	f01c efb0 	blx	1d36c <strlen@plt>
     40e:	4603      	mov	r3, r0
     410:	f103 0201 	add.w	r2, r3, #1
     414:	f8d7 3464 	ldr.w	r3, [r7, #1124]	; 0x464
     418:	429a      	cmp	r2, r3
     41a:	d020      	beq.n	45e <print_properties+0x1ba>
/home/qemu-sgx/devel/optee/out-br/build/optee_test_ext-1.0/ta/os_test/os_test.c:132
     41c:	f8d7 4464 	ldr.w	r4, [r7, #1124]	; 0x464
     420:	f107 0314 	add.w	r3, r7, #20
     424:	4618      	mov	r0, r3
     426:	f01c efa2 	blx	1d36c <strlen@plt>
     42a:	4603      	mov	r3, r0
     42c:	f103 0301 	add.w	r3, r3, #1
     430:	9302      	str	r3, [sp, #8]
     432:	9401      	str	r4, [sp, #4]
     434:	f8df 3998 	ldr.w	r3, [pc, #2456]	; dd0 <print_properties+0xb2c>
     438:	447b      	add	r3, pc
     43a:	9300      	str	r3, [sp, #0]
     43c:	f04f 0301 	mov.w	r3, #1
     440:	f04f 0201 	mov.w	r2, #1
     444:	f04f 0184 	mov.w	r1, #132	; 0x84
     448:	f8df 0988 	ldr.w	r0, [pc, #2440]	; dd4 <print_properties+0xb30>
     44c:	4478      	add	r0, pc
     44e:	f01c ee92 	blx	1d174 <trace_printf@plt>
/home/qemu-sgx/devel/optee/out-br/build/optee_test_ext-1.0/ta/os_test/os_test.c:133
     452:	f04f 0300 	mov.w	r3, #0
     456:	f6cf 73ff 	movt	r3, #65535	; 0xffff
     45a:	f000 bcac 	b.w	db6 <print_properties+0xb12>
/home/qemu-sgx/devel/optee/out-br/build/optee_test_ext-1.0/ta/os_test/os_test.c:138
     45e:	f04f 0302 	mov.w	r3, #2
     462:	f8c7 3460 	str.w	r3, [r7, #1120]	; 0x460
/home/qemu-sgx/devel/optee/out-br/build/optee_test_ext-1.0/ta/os_test/os_test.c:139
     466:	f507 628c 	add.w	r2, r7, #1120	; 0x460
     46a:	f507 718a 	add.w	r1, r7, #276	; 0x114
     46e:	f507 638e 	add.w	r3, r7, #1136	; 0x470
     472:	f2a3 4364 	subw	r3, r3, #1124	; 0x464
     476:	6818      	ldr	r0, [r3, #0]
     478:	f006 fa64 	bl	6944 <TEE_GetPropertyName>
     47c:	f8c7 0468 	str.w	r0, [r7, #1128]	; 0x468
/home/qemu-sgx/devel/optee/out-br/build/optee_test_ext-1.0/ta/os_test/os_test.c:140
     480:	f8d7 3460 	ldr.w	r3, [r7, #1120]	; 0x460
     484:	f8d7 2464 	ldr.w	r2, [r7, #1124]	; 0x464
     488:	f107 0114 	add.w	r1, r7, #20
     48c:	9201      	str	r2, [sp, #4]
     48e:	9300      	str	r3, [sp, #0]
     490:	f04f 0310 	mov.w	r3, #16
     494:	f6cf 73ff 	movt	r3, #65535	; 0xffff
     498:	f8d7 2468 	ldr.w	r2, [r7, #1128]	; 0x468
     49c:	f04f 008c 	mov.w	r0, #140	; 0x8c
     4a0:	f7ff fdbe 	bl	20 <check_returned_prop>
     4a4:	f8c7 0468 	str.w	r0, [r7, #1128]	; 0x468
/home/qemu-sgx/devel/optee/out-br/build/optee_test_ext-1.0/ta/os_test/os_test.c:142
     4a8:	f8d7 3468 	ldr.w	r3, [r7, #1128]	; 0x468
     4ac:	2b00      	cmp	r3, #0
     4ae:	d003      	beq.n	4b8 <print_properties+0x214>
/home/qemu-sgx/devel/optee/out-br/build/optee_test_ext-1.0/ta/os_test/os_test.c:143
     4b0:	f8d7 3468 	ldr.w	r3, [r7, #1128]	; 0x468
     4b4:	f000 bc7f 	b.w	db6 <print_properties+0xb12>
/home/qemu-sgx/devel/optee/out-br/build/optee_test_ext-1.0/ta/os_test/os_test.c:146
     4b8:	f8d7 3464 	ldr.w	r3, [r7, #1124]	; 0x464
     4bc:	f103 33ff 	add.w	r3, r3, #4294967295	; 0xffffffff
     4c0:	f8c7 3460 	str.w	r3, [r7, #1120]	; 0x460
/home/qemu-sgx/devel/optee/out-br/build/optee_test_ext-1.0/ta/os_test/os_test.c:147
     4c4:	f507 628c 	add.w	r2, r7, #1120	; 0x460
     4c8:	f507 718a 	add.w	r1, r7, #276	; 0x114
     4cc:	f507 638e 	add.w	r3, r7, #1136	; 0x470
     4d0:	f2a3 4364 	subw	r3, r3, #1124	; 0x464
     4d4:	6818      	ldr	r0, [r3, #0]
     4d6:	f006 fa35 	bl	6944 <TEE_GetPropertyName>
     4da:	f8c7 0468 	str.w	r0, [r7, #1128]	; 0x468
/home/qemu-sgx/devel/optee/out-br/build/optee_test_ext-1.0/ta/os_test/os_test.c:148
     4de:	f8d7 3460 	ldr.w	r3, [r7, #1120]	; 0x460
     4e2:	f8d7 2464 	ldr.w	r2, [r7, #1124]	; 0x464
     4e6:	f107 0114 	add.w	r1, r7, #20
     4ea:	9201      	str	r2, [sp, #4]
     4ec:	9300      	str	r3, [sp, #0]
     4ee:	f04f 0310 	mov.w	r3, #16
     4f2:	f6cf 73ff 	movt	r3, #65535	; 0xffff
     4f6:	f8d7 2468 	ldr.w	r2, [r7, #1128]	; 0x468
     4fa:	f04f 0094 	mov.w	r0, #148	; 0x94
     4fe:	f7ff fd8f 	bl	20 <check_returned_prop>
     502:	f8c7 0468 	str.w	r0, [r7, #1128]	; 0x468
/home/qemu-sgx/devel/optee/out-br/build/optee_test_ext-1.0/ta/os_test/os_test.c:150
     506:	f8d7 3468 	ldr.w	r3, [r7, #1128]	; 0x468
     50a:	2b00      	cmp	r3, #0
     50c:	d003      	beq.n	516 <print_properties+0x272>
/home/qemu-sgx/devel/optee/out-br/build/optee_test_ext-1.0/ta/os_test/os_test.c:151
     50e:	f8d7 3468 	ldr.w	r3, [r7, #1128]	; 0x468
     512:	f000 bc50 	b.w	db6 <print_properties+0xb12>
/home/qemu-sgx/devel/optee/out-br/build/optee_test_ext-1.0/ta/os_test/os_test.c:154
     516:	f8d7 3464 	ldr.w	r3, [r7, #1124]	; 0x464
     51a:	f8c7 3460 	str.w	r3, [r7, #1120]	; 0x460
/home/qemu-sgx/devel/optee/out-br/build/optee_test_ext-1.0/ta/os_test/os_test.c:155
     51e:	f507 628c 	add.w	r2, r7, #1120	; 0x460
     522:	f507 718a 	add.w	r1, r7, #276	; 0x114
     526:	f507 638e 	add.w	r3, r7, #1136	; 0x470
     52a:	f2a3 4364 	subw	r3, r3, #1124	; 0x464
     52e:	6818      	ldr	r0, [r3, #0]
     530:	f006 fa08 	bl	6944 <TEE_GetPropertyName>
     534:	f8c7 0468 	str.w	r0, [r7, #1128]	; 0x468
/home/qemu-sgx/devel/optee/out-br/build/optee_test_ext-1.0/ta/os_test/os_test.c:156
     538:	f8d7 3460 	ldr.w	r3, [r7, #1120]	; 0x460
     53c:	f8d7 2464 	ldr.w	r2, [r7, #1124]	; 0x464
     540:	f107 0114 	add.w	r1, r7, #20
     544:	9201      	str	r2, [sp, #4]
     546:	9300      	str	r3, [sp, #0]
     548:	f04f 0300 	mov.w	r3, #0
     54c:	f8d7 2468 	ldr.w	r2, [r7, #1128]	; 0x468
     550:	f04f 009c 	mov.w	r0, #156	; 0x9c
     554:	f7ff fd64 	bl	20 <check_returned_prop>
     558:	f8c7 0468 	str.w	r0, [r7, #1128]	; 0x468
/home/qemu-sgx/devel/optee/out-br/build/optee_test_ext-1.0/ta/os_test/os_test.c:158
     55c:	f8d7 3468 	ldr.w	r3, [r7, #1128]	; 0x468
     560:	2b00      	cmp	r3, #0
     562:	d003      	beq.n	56c <print_properties+0x2c8>
/home/qemu-sgx/devel/optee/out-br/build/optee_test_ext-1.0/ta/os_test/os_test.c:159
     564:	f8d7 3468 	ldr.w	r3, [r7, #1128]	; 0x468
     568:	f000 bc25 	b.w	db6 <print_properties+0xb12>
/home/qemu-sgx/devel/optee/out-br/build/optee_test_ext-1.0/ta/os_test/os_test.c:162
     56c:	f207 435c 	addw	r3, r7, #1116	; 0x45c
     570:	f507 7205 	add.w	r2, r7, #532	; 0x214
     574:	f507 618e 	add.w	r1, r7, #1136	; 0x470
     578:	f2a1 4064 	subw	r0, r1, #1124	; 0x464
     57c:	f04f 0100 	mov.w	r1, #0
     580:	6800      	ldr	r0, [r0, #0]
     582:	f005 fee0 	bl	6346 <TEE_GetPropertyAsString>
     586:	f8c7 0468 	str.w	r0, [r7, #1128]	; 0x468
/home/qemu-sgx/devel/optee/out-br/build/optee_test_ext-1.0/ta/os_test/os_test.c:163
     58a:	f8d7 445c 	ldr.w	r4, [r7, #1116]	; 0x45c
/home/qemu-sgx/devel/optee/out-br/build/optee_test_ext-1.0/ta/os_test/os_test.c:164
     58e:	f507 7305 	add.w	r3, r7, #532	; 0x214
     592:	4618      	mov	r0, r3
     594:	f01c eeea 	blx	1d36c <strlen@plt>
     598:	4603      	mov	r3, r0
/home/qemu-sgx/devel/optee/out-br/build/optee_test_ext-1.0/ta/os_test/os_test.c:163
     59a:	f103 0301 	add.w	r3, r3, #1
     59e:	f107 0114 	add.w	r1, r7, #20
     5a2:	9301      	str	r3, [sp, #4]
     5a4:	9400      	str	r4, [sp, #0]
     5a6:	f04f 0300 	mov.w	r3, #0
     5aa:	f8d7 2468 	ldr.w	r2, [r7, #1128]	; 0x468
     5ae:	f04f 00a3 	mov.w	r0, #163	; 0xa3
     5b2:	f7ff fd35 	bl	20 <check_returned_prop>
     5b6:	f8c7 0468 	str.w	r0, [r7, #1128]	; 0x468
/home/qemu-sgx/devel/optee/out-br/build/optee_test_ext-1.0/ta/os_test/os_test.c:165
     5ba:	f8d7 3468 	ldr.w	r3, [r7, #1128]	; 0x468
     5be:	2b00      	cmp	r3, #0
     5c0:	d002      	beq.n	5c8 <print_properties+0x324>
/home/qemu-sgx/devel/optee/out-br/build/optee_test_ext-1.0/ta/os_test/os_test.c:166
     5c2:	f8d7 3468 	ldr.w	r3, [r7, #1128]	; 0x468
     5c6:	e3f6      	b.n	db6 <print_properties+0xb12>
/home/qemu-sgx/devel/optee/out-br/build/optee_test_ext-1.0/ta/os_test/os_test.c:168
     5c8:	f507 638b 	add.w	r3, r7, #1112	; 0x458
     5cc:	f507 7245 	add.w	r2, r7, #788	; 0x314
     5d0:	f107 0114 	add.w	r1, r7, #20
     5d4:	f507 608e 	add.w	r0, r7, #1136	; 0x470
     5d8:	f5a0 608d 	sub.w	r0, r0, #1128	; 0x468
     5dc:	6800      	ldr	r0, [r0, #0]
     5de:	f005 feb2 	bl	6346 <TEE_GetPropertyAsString>
     5e2:	f8c7 0468 	str.w	r0, [r7, #1128]	; 0x468
/home/qemu-sgx/devel/optee/out-br/build/optee_test_ext-1.0/ta/os_test/os_test.c:169
     5e6:	f8d7 4458 	ldr.w	r4, [r7, #1112]	; 0x458
/home/qemu-sgx/devel/optee/out-br/build/optee_test_ext-1.0/ta/os_test/os_test.c:170
     5ea:	f507 7345 	add.w	r3, r7, #788	; 0x314
     5ee:	4618      	mov	r0, r3
     5f0:	f01c eebc 	blx	1d36c <strlen@plt>
     5f4:	4603      	mov	r3, r0
/home/qemu-sgx/devel/optee/out-br/build/optee_test_ext-1.0/ta/os_test/os_test.c:169
     5f6:	f103 0301 	add.w	r3, r3, #1
     5fa:	f107 0114 	add.w	r1, r7, #20
     5fe:	9301      	str	r3, [sp, #4]
     600:	9400      	str	r4, [sp, #0]
     602:	f04f 0300 	mov.w	r3, #0
     606:	f8d7 2468 	ldr.w	r2, [r7, #1128]	; 0x468
     60a:	f04f 00a9 	mov.w	r0, #169	; 0xa9
     60e:	f7ff fd07 	bl	20 <check_returned_prop>
     612:	f8c7 0468 	str.w	r0, [r7, #1128]	; 0x468
/home/qemu-sgx/devel/optee/out-br/build/optee_test_ext-1.0/ta/os_test/os_test.c:171
     616:	f8d7 3468 	ldr.w	r3, [r7, #1128]	; 0x468
     61a:	2b00      	cmp	r3, #0
     61c:	d002      	beq.n	624 <print_properties+0x380>
/home/qemu-sgx/devel/optee/out-br/build/optee_test_ext-1.0/ta/os_test/os_test.c:172
     61e:	f8d7 3468 	ldr.w	r3, [r7, #1128]	; 0x468
     622:	e3c8      	b.n	db6 <print_properties+0xb12>
/home/qemu-sgx/devel/optee/out-br/build/optee_test_ext-1.0/ta/os_test/os_test.c:174
     624:	f507 7245 	add.w	r2, r7, #788	; 0x314
     628:	f507 7305 	add.w	r3, r7, #532	; 0x214
     62c:	4611      	mov	r1, r2
     62e:	4618      	mov	r0, r3
     630:	f018 fe7f 	bl	19332 <strcmp>
     634:	4603      	mov	r3, r0
     636:	2b00      	cmp	r3, #0
     638:	d016      	beq.n	668 <print_properties+0x3c4>
/home/qemu-sgx/devel/optee/out-br/build/optee_test_ext-1.0/ta/os_test/os_test.c:175
     63a:	f107 0314 	add.w	r3, r7, #20
     63e:	9301      	str	r3, [sp, #4]
     640:	f8df 3794 	ldr.w	r3, [pc, #1940]	; dd8 <print_properties+0xb34>
     644:	447b      	add	r3, pc
     646:	9300      	str	r3, [sp, #0]
     648:	f04f 0301 	mov.w	r3, #1
     64c:	f04f 0201 	mov.w	r2, #1
     650:	f04f 01af 	mov.w	r1, #175	; 0xaf
     654:	f8df 0784 	ldr.w	r0, [pc, #1924]	; ddc <print_properties+0xb38>
     658:	4478      	add	r0, pc
     65a:	f01c ed8c 	blx	1d174 <trace_printf@plt>
/home/qemu-sgx/devel/optee/out-br/build/optee_test_ext-1.0/ta/os_test/os_test.c:176
     65e:	f04f 0300 	mov.w	r3, #0
     662:	f6cf 73ff 	movt	r3, #65535	; 0xffff
     666:	e3a6      	b.n	db6 <print_properties+0xb12>
/home/qemu-sgx/devel/optee/out-br/build/optee_test_ext-1.0/ta/os_test/os_test.c:180
     668:	f8d7 345c 	ldr.w	r3, [r7, #1116]	; 0x45c
     66c:	2b01      	cmp	r3, #1
     66e:	d92d      	bls.n	6cc <print_properties+0x428>
/home/qemu-sgx/devel/optee/out-br/build/optee_test_ext-1.0/ta/os_test/os_test.c:181
     670:	f04f 0301 	mov.w	r3, #1
     674:	f8c7 3458 	str.w	r3, [r7, #1112]	; 0x458
/home/qemu-sgx/devel/optee/out-br/build/optee_test_ext-1.0/ta/os_test/os_test.c:182
     678:	f507 638b 	add.w	r3, r7, #1112	; 0x458
     67c:	f507 7245 	add.w	r2, r7, #788	; 0x314
     680:	f107 0114 	add.w	r1, r7, #20
     684:	f507 608e 	add.w	r0, r7, #1136	; 0x470
     688:	f5a0 608d 	sub.w	r0, r0, #1128	; 0x468
     68c:	6800      	ldr	r0, [r0, #0]
     68e:	f005 fe5a 	bl	6346 <TEE_GetPropertyAsString>
     692:	f8c7 0468 	str.w	r0, [r7, #1128]	; 0x468
/home/qemu-sgx/devel/optee/out-br/build/optee_test_ext-1.0/ta/os_test/os_test.c:183
     696:	f8d7 3458 	ldr.w	r3, [r7, #1112]	; 0x458
     69a:	f8d7 245c 	ldr.w	r2, [r7, #1116]	; 0x45c
     69e:	f107 0114 	add.w	r1, r7, #20
     6a2:	9201      	str	r2, [sp, #4]
     6a4:	9300      	str	r3, [sp, #0]
     6a6:	f04f 0310 	mov.w	r3, #16
     6aa:	f6cf 73ff 	movt	r3, #65535	; 0xffff
     6ae:	f8d7 2468 	ldr.w	r2, [r7, #1128]	; 0x468
     6b2:	f04f 00b7 	mov.w	r0, #183	; 0xb7
     6b6:	f7ff fcb3 	bl	20 <check_returned_prop>
     6ba:	f8c7 0468 	str.w	r0, [r7, #1128]	; 0x468
/home/qemu-sgx/devel/optee/out-br/build/optee_test_ext-1.0/ta/os_test/os_test.c:186
     6be:	f8d7 3468 	ldr.w	r3, [r7, #1128]	; 0x468
     6c2:	2b00      	cmp	r3, #0
     6c4:	d002      	beq.n	6cc <print_properties+0x428>
/home/qemu-sgx/devel/optee/out-br/build/optee_test_ext-1.0/ta/os_test/os_test.c:187
     6c6:	f8d7 3468 	ldr.w	r3, [r7, #1128]	; 0x468
     6ca:	e374      	b.n	db6 <print_properties+0xb12>
/home/qemu-sgx/devel/optee/out-br/build/optee_test_ext-1.0/ta/os_test/os_test.c:191
     6cc:	f8d7 345c 	ldr.w	r3, [r7, #1116]	; 0x45c
     6d0:	f103 33ff 	add.w	r3, r3, #4294967295	; 0xffffffff
     6d4:	f8c7 3458 	str.w	r3, [r7, #1112]	; 0x458
/home/qemu-sgx/devel/optee/out-br/build/optee_test_ext-1.0/ta/os_test/os_test.c:192
     6d8:	f507 638b 	add.w	r3, r7, #1112	; 0x458
     6dc:	f507 7245 	add.w	r2, r7, #788	; 0x314
     6e0:	f107 0114 	add.w	r1, r7, #20
     6e4:	f507 608e 	add.w	r0, r7, #1136	; 0x470
     6e8:	f5a0 608d 	sub.w	r0, r0, #1128	; 0x468
     6ec:	6800      	ldr	r0, [r0, #0]
     6ee:	f005 fe2a 	bl	6346 <TEE_GetPropertyAsString>
     6f2:	f8c7 0468 	str.w	r0, [r7, #1128]	; 0x468
/home/qemu-sgx/devel/optee/out-br/build/optee_test_ext-1.0/ta/os_test/os_test.c:193
     6f6:	f8d7 3458 	ldr.w	r3, [r7, #1112]	; 0x458
     6fa:	f8d7 245c 	ldr.w	r2, [r7, #1116]	; 0x45c
     6fe:	f107 0114 	add.w	r1, r7, #20
     702:	9201      	str	r2, [sp, #4]
     704:	9300      	str	r3, [sp, #0]
     706:	f04f 0310 	mov.w	r3, #16
     70a:	f6cf 73ff 	movt	r3, #65535	; 0xffff
     70e:	f8d7 2468 	ldr.w	r2, [r7, #1128]	; 0x468
     712:	f04f 00c1 	mov.w	r0, #193	; 0xc1
     716:	f7ff fc83 	bl	20 <check_returned_prop>
     71a:	f8c7 0468 	str.w	r0, [r7, #1128]	; 0x468
/home/qemu-sgx/devel/optee/out-br/build/optee_test_ext-1.0/ta/os_test/os_test.c:195
     71e:	f8d7 3468 	ldr.w	r3, [r7, #1128]	; 0x468
     722:	2b00      	cmp	r3, #0
     724:	d002      	beq.n	72c <print_properties+0x488>
/home/qemu-sgx/devel/optee/out-br/build/optee_test_ext-1.0/ta/os_test/os_test.c:196
     726:	f8d7 3468 	ldr.w	r3, [r7, #1128]	; 0x468
     72a:	e344      	b.n	db6 <print_properties+0xb12>
/home/qemu-sgx/devel/optee/out-br/build/optee_test_ext-1.0/ta/os_test/os_test.c:199
     72c:	f8d7 345c 	ldr.w	r3, [r7, #1116]	; 0x45c
     730:	f8c7 3458 	str.w	r3, [r7, #1112]	; 0x458
/home/qemu-sgx/devel/optee/out-br/build/optee_test_ext-1.0/ta/os_test/os_test.c:200
     734:	f507 638b 	add.w	r3, r7, #1112	; 0x458
     738:	f507 7245 	add.w	r2, r7, #788	; 0x314
     73c:	f107 0114 	add.w	r1, r7, #20
     740:	f507 608e 	add.w	r0, r7, #1136	; 0x470
     744:	f5a0 608d 	sub.w	r0, r0, #1128	; 0x468
     748:	6800      	ldr	r0, [r0, #0]
     74a:	f005 fdfc 	bl	6346 <TEE_GetPropertyAsString>
     74e:	f8c7 0468 	str.w	r0, [r7, #1128]	; 0x468
/home/qemu-sgx/devel/optee/out-br/build/optee_test_ext-1.0/ta/os_test/os_test.c:201
     752:	f8d7 3458 	ldr.w	r3, [r7, #1112]	; 0x458
     756:	f8d7 245c 	ldr.w	r2, [r7, #1116]	; 0x45c
     75a:	f107 0114 	add.w	r1, r7, #20
     75e:	9201      	str	r2, [sp, #4]
     760:	9300      	str	r3, [sp, #0]
     762:	f04f 0300 	mov.w	r3, #0
     766:	f8d7 2468 	ldr.w	r2, [r7, #1128]	; 0x468
     76a:	f04f 00c9 	mov.w	r0, #201	; 0xc9
     76e:	f7ff fc57 	bl	20 <check_returned_prop>
     772:	f8c7 0468 	str.w	r0, [r7, #1128]	; 0x468
/home/qemu-sgx/devel/optee/out-br/build/optee_test_ext-1.0/ta/os_test/os_test.c:202
     776:	f8d7 3468 	ldr.w	r3, [r7, #1128]	; 0x468
     77a:	2b00      	cmp	r3, #0
     77c:	d002      	beq.n	784 <print_properties+0x4e0>
/home/qemu-sgx/devel/optee/out-br/build/optee_test_ext-1.0/ta/os_test/os_test.c:203
     77e:	f8d7 3468 	ldr.w	r3, [r7, #1128]	; 0x468
     782:	e318      	b.n	db6 <print_properties+0xb12>
/home/qemu-sgx/devel/optee/out-br/build/optee_test_ext-1.0/ta/os_test/os_test.c:206
     784:	f107 0314 	add.w	r3, r7, #20
     788:	4619      	mov	r1, r3
     78a:	f8df 3654 	ldr.w	r3, [pc, #1620]	; de0 <print_properties+0xb3c>
     78e:	447b      	add	r3, pc
     790:	4618      	mov	r0, r3
     792:	f018 fdce 	bl	19332 <strcmp>
     796:	4603      	mov	r3, r0
     798:	2b00      	cmp	r3, #0
     79a:	d11d      	bne.n	7d8 <print_properties+0x534>
/home/qemu-sgx/devel/optee/out-br/build/optee_test_ext-1.0/ta/os_test/os_test.c:207 (discriminator 1)
     79c:	f8d7 3458 	ldr.w	r3, [r7, #1112]	; 0x458
/home/qemu-sgx/devel/optee/out-br/build/optee_test_ext-1.0/ta/os_test/os_test.c:206 (discriminator 1)
     7a0:	2b88      	cmp	r3, #136	; 0x88
     7a2:	d019      	beq.n	7d8 <print_properties+0x534>
/home/qemu-sgx/devel/optee/out-br/build/optee_test_ext-1.0/ta/os_test/os_test.c:208
     7a4:	f507 7305 	add.w	r3, r7, #532	; 0x214
     7a8:	9302      	str	r3, [sp, #8]
     7aa:	f107 0314 	add.w	r3, r7, #20
     7ae:	9301      	str	r3, [sp, #4]
     7b0:	f8df 3630 	ldr.w	r3, [pc, #1584]	; de4 <print_properties+0xb40>
     7b4:	447b      	add	r3, pc
     7b6:	9300      	str	r3, [sp, #0]
     7b8:	f04f 0301 	mov.w	r3, #1
     7bc:	f04f 0201 	mov.w	r2, #1
     7c0:	f04f 01d0 	mov.w	r1, #208	; 0xd0
     7c4:	f8df 0620 	ldr.w	r0, [pc, #1568]	; de8 <print_properties+0xb44>
     7c8:	4478      	add	r0, pc
     7ca:	f01c ecd4 	blx	1d174 <trace_printf@plt>
/home/qemu-sgx/devel/optee/out-br/build/optee_test_ext-1.0/ta/os_test/os_test.c:210
     7ce:	f04f 0300 	mov.w	r3, #0
     7d2:	f6cf 73ff 	movt	r3, #65535	; 0xffff
     7d6:	e2ee      	b.n	db6 <print_properties+0xb12>
/home/qemu-sgx/devel/optee/out-br/build/optee_test_ext-1.0/ta/os_test/os_test.c:215
     7d8:	f04f 0300 	mov.w	r3, #0
     7dc:	f8c7 346c 	str.w	r3, [r7, #1132]	; 0x46c
     7e0:	e2c4      	b.n	d6c <print_properties+0xac8>
/home/qemu-sgx/devel/optee/out-br/build/optee_test_ext-1.0/ta/os_test/os_test.c:216
     7e2:	f8d7 246c 	ldr.w	r2, [r7, #1132]	; 0x46c
     7e6:	4613      	mov	r3, r2
     7e8:	ea4f 0343 	mov.w	r3, r3, lsl #1
     7ec:	4413      	add	r3, r2
     7ee:	ea4f 0383 	mov.w	r3, r3, lsl #2
     7f2:	461a      	mov	r2, r3
     7f4:	f507 638e 	add.w	r3, r7, #1136	; 0x470
     7f8:	f2a3 436c 	subw	r3, r3, #1132	; 0x46c
     7fc:	681b      	ldr	r3, [r3, #0]
     7fe:	4413      	add	r3, r2
     800:	681a      	ldr	r2, [r3, #0]
     802:	f107 0314 	add.w	r3, r7, #20
     806:	4611      	mov	r1, r2
     808:	4618      	mov	r0, r3
     80a:	f018 fd92 	bl	19332 <strcmp>
     80e:	4603      	mov	r3, r0
     810:	2b00      	cmp	r3, #0
     812:	f040 829a 	bne.w	d4a <print_properties+0xaa6>
/home/qemu-sgx/devel/optee/out-br/build/optee_test_ext-1.0/ta/os_test/os_test.c:219
     816:	f8d7 246c 	ldr.w	r2, [r7, #1132]	; 0x46c
     81a:	4613      	mov	r3, r2
     81c:	ea4f 0343 	mov.w	r3, r3, lsl #1
     820:	4413      	add	r3, r2
     822:	ea4f 0383 	mov.w	r3, r3, lsl #2
     826:	461a      	mov	r2, r3
     828:	f507 638e 	add.w	r3, r7, #1136	; 0x470
     82c:	f2a3 436c 	subw	r3, r3, #1132	; 0x46c
     830:	681b      	ldr	r3, [r3, #0]
     832:	4413      	add	r3, r2
     834:	7a1b      	ldrb	r3, [r3, #8]
     836:	2b00      	cmp	r3, #0
     838:	d024      	beq.n	884 <print_properties+0x5e0>
/home/qemu-sgx/devel/optee/out-br/build/optee_test_ext-1.0/ta/os_test/os_test.c:220
     83a:	f8d7 246c 	ldr.w	r2, [r7, #1132]	; 0x46c
     83e:	4613      	mov	r3, r2
     840:	ea4f 0343 	mov.w	r3, r3, lsl #1
     844:	4413      	add	r3, r2
     846:	ea4f 0383 	mov.w	r3, r3, lsl #2
     84a:	461a      	mov	r2, r3
     84c:	f507 638e 	add.w	r3, r7, #1136	; 0x470
     850:	f2a3 436c 	subw	r3, r3, #1132	; 0x46c
     854:	681b      	ldr	r3, [r3, #0]
     856:	4413      	add	r3, r2
     858:	681b      	ldr	r3, [r3, #0]
     85a:	9301      	str	r3, [sp, #4]
     85c:	f8df 358c 	ldr.w	r3, [pc, #1420]	; dec <print_properties+0xb48>
     860:	447b      	add	r3, pc
     862:	9300      	str	r3, [sp, #0]
     864:	f04f 0301 	mov.w	r3, #1
     868:	f04f 0201 	mov.w	r2, #1
     86c:	f04f 01dc 	mov.w	r1, #220	; 0xdc
     870:	f8df 057c 	ldr.w	r0, [pc, #1404]	; df0 <print_properties+0xb4c>
     874:	4478      	add	r0, pc
     876:	f01c ec7e 	blx	1d174 <trace_printf@plt>
/home/qemu-sgx/devel/optee/out-br/build/optee_test_ext-1.0/ta/os_test/os_test.c:222
     87a:	f04f 0300 	mov.w	r3, #0
     87e:	f6cf 73ff 	movt	r3, #65535	; 0xffff
     882:	e298      	b.n	db6 <print_properties+0xb12>
/home/qemu-sgx/devel/optee/out-br/build/optee_test_ext-1.0/ta/os_test/os_test.c:224
     884:	f8d7 246c 	ldr.w	r2, [r7, #1132]	; 0x46c
     888:	4613      	mov	r3, r2
     88a:	ea4f 0343 	mov.w	r3, r3, lsl #1
     88e:	4413      	add	r3, r2
     890:	ea4f 0383 	mov.w	r3, r3, lsl #2
     894:	461a      	mov	r2, r3
     896:	f507 638e 	add.w	r3, r7, #1136	; 0x470
     89a:	f2a3 436c 	subw	r3, r3, #1132	; 0x46c
     89e:	681b      	ldr	r3, [r3, #0]
     8a0:	4413      	add	r3, r2
     8a2:	f04f 0201 	mov.w	r2, #1
     8a6:	721a      	strb	r2, [r3, #8]
/home/qemu-sgx/devel/optee/out-br/build/optee_test_ext-1.0/ta/os_test/os_test.c:226
     8a8:	f8d7 246c 	ldr.w	r2, [r7, #1132]	; 0x46c
     8ac:	4613      	mov	r3, r2
     8ae:	ea4f 0343 	mov.w	r3, r3, lsl #1
     8b2:	4413      	add	r3, r2
     8b4:	ea4f 0383 	mov.w	r3, r3, lsl #2
     8b8:	461a      	mov	r2, r3
     8ba:	f507 638e 	add.w	r3, r7, #1136	; 0x470
     8be:	f2a3 436c 	subw	r3, r3, #1132	; 0x46c
     8c2:	681b      	ldr	r3, [r3, #0]
     8c4:	4413      	add	r3, r2
     8c6:	685b      	ldr	r3, [r3, #4]
     8c8:	2b05      	cmp	r3, #5
     8ca:	f200 820a 	bhi.w	ce2 <print_properties+0xa3e>
     8ce:	a202      	add	r2, pc, #8	; (adr r2, 8d8 <print_properties+0x634>)
     8d0:	f852 3023 	ldr.w	r3, [r2, r3, lsl #2]
     8d4:	441a      	add	r2, r3
     8d6:	4710      	bx	r2
     8d8:	00000019 	.word	0x00000019
     8dc:	00000075 	.word	0x00000075
     8e0:	000000d1 	.word	0x000000d1
     8e4:	00000135 	.word	0x00000135
     8e8:	00000477 	.word	0x00000477
     8ec:	00000199 	.word	0x00000199
/home/qemu-sgx/devel/optee/out-br/build/optee_test_ext-1.0/ta/os_test/os_test.c:229
     8f0:	f04f 0300 	mov.w	r3, #0
     8f4:	f887 344f 	strb.w	r3, [r7, #1103]	; 0x44f
/home/qemu-sgx/devel/optee/out-br/build/optee_test_ext-1.0/ta/os_test/os_test.c:232
     8f8:	f207 424f 	addw	r2, r7, #1103	; 0x44f
     8fc:	f507 638e 	add.w	r3, r7, #1136	; 0x470
     900:	f2a3 4364 	subw	r3, r3, #1124	; 0x464
     904:	f04f 0100 	mov.w	r1, #0
     908:	6818      	ldr	r0, [r3, #0]
     90a:	f005 fe35 	bl	6578 <TEE_GetPropertyAsBool>
     90e:	f8c7 0468 	str.w	r0, [r7, #1128]	; 0x468
/home/qemu-sgx/devel/optee/out-br/build/optee_test_ext-1.0/ta/os_test/os_test.c:233
     912:	f8d7 3468 	ldr.w	r3, [r7, #1128]	; 0x468
     916:	2b00      	cmp	r3, #0
     918:	f000 821b 	beq.w	d52 <print_properties+0xaae>
/home/qemu-sgx/devel/optee/out-br/build/optee_test_ext-1.0/ta/os_test/os_test.c:234
     91c:	f8d7 3468 	ldr.w	r3, [r7, #1128]	; 0x468
     920:	9302      	str	r3, [sp, #8]
     922:	f107 0314 	add.w	r3, r7, #20
     926:	9301      	str	r3, [sp, #4]
     928:	f8df 34c8 	ldr.w	r3, [pc, #1224]	; df4 <print_properties+0xb50>
     92c:	447b      	add	r3, pc
     92e:	9300      	str	r3, [sp, #0]
     930:	f04f 0301 	mov.w	r3, #1
     934:	f04f 0201 	mov.w	r2, #1
     938:	f04f 01ea 	mov.w	r1, #234	; 0xea
     93c:	f8df 04b8 	ldr.w	r0, [pc, #1208]	; df8 <print_properties+0xb54>
     940:	4478      	add	r0, pc
     942:	f01c ec18 	blx	1d174 <trace_printf@plt>
/home/qemu-sgx/devel/optee/out-br/build/optee_test_ext-1.0/ta/os_test/os_test.c:237
     946:	f8d7 3468 	ldr.w	r3, [r7, #1128]	; 0x468
     94a:	e234      	b.n	db6 <print_properties+0xb12>
/home/qemu-sgx/devel/optee/out-br/build/optee_test_ext-1.0/ta/os_test/os_test.c:244
     94c:	f04f 0300 	mov.w	r3, #0
     950:	f8c7 3448 	str.w	r3, [r7, #1096]	; 0x448
/home/qemu-sgx/devel/optee/out-br/build/optee_test_ext-1.0/ta/os_test/os_test.c:246
     954:	f507 6289 	add.w	r2, r7, #1096	; 0x448
     958:	f507 638e 	add.w	r3, r7, #1136	; 0x470
     95c:	f2a3 4364 	subw	r3, r3, #1124	; 0x464
     960:	f04f 0100 	mov.w	r1, #0
     964:	6818      	ldr	r0, [r3, #0]
     966:	f005 fe53 	bl	6610 <TEE_GetPropertyAsU32>
     96a:	f8c7 0468 	str.w	r0, [r7, #1128]	; 0x468
/home/qemu-sgx/devel/optee/out-br/build/optee_test_ext-1.0/ta/os_test/os_test.c:247
     96e:	f8d7 3468 	ldr.w	r3, [r7, #1128]	; 0x468
     972:	2b00      	cmp	r3, #0
     974:	f000 81ef 	beq.w	d56 <print_properties+0xab2>
/home/qemu-sgx/devel/optee/out-br/build/optee_test_ext-1.0/ta/os_test/os_test.c:248
     978:	f8d7 3468 	ldr.w	r3, [r7, #1128]	; 0x468
     97c:	9302      	str	r3, [sp, #8]
     97e:	f107 0314 	add.w	r3, r7, #20
     982:	9301      	str	r3, [sp, #4]
     984:	f8df 3474 	ldr.w	r3, [pc, #1140]	; dfc <print_properties+0xb58>
     988:	447b      	add	r3, pc
     98a:	9300      	str	r3, [sp, #0]
     98c:	f04f 0301 	mov.w	r3, #1
     990:	f04f 0201 	mov.w	r2, #1
     994:	f04f 01f8 	mov.w	r1, #248	; 0xf8
     998:	f8df 0464 	ldr.w	r0, [pc, #1124]	; e00 <print_properties+0xb5c>
     99c:	4478      	add	r0, pc
     99e:	f01c ebea 	blx	1d174 <trace_printf@plt>
/home/qemu-sgx/devel/optee/out-br/build/optee_test_ext-1.0/ta/os_test/os_test.c:251
     9a2:	f8d7 3468 	ldr.w	r3, [r7, #1128]	; 0x468
     9a6:	e206      	b.n	db6 <print_properties+0xb12>
/home/qemu-sgx/devel/optee/out-br/build/optee_test_ext-1.0/ta/os_test/os_test.c:258
     9a8:	f507 6387 	add.w	r3, r7, #1080	; 0x438
     9ac:	efc0 0010 	vmov.i32	d16, #0	; 0x00000000
     9b0:	edc3 0b00 	vstr	d16, [r3]
     9b4:	edc3 0b02 	vstr	d16, [r3, #8]
/home/qemu-sgx/devel/optee/out-br/build/optee_test_ext-1.0/ta/os_test/os_test.c:261
     9b8:	f507 6287 	add.w	r2, r7, #1080	; 0x438
     9bc:	f507 638e 	add.w	r3, r7, #1136	; 0x470
     9c0:	f2a3 4364 	subw	r3, r3, #1124	; 0x464
     9c4:	f04f 0100 	mov.w	r1, #0
     9c8:	6818      	ldr	r0, [r3, #0]
     9ca:	f005 feb6 	bl	673a <TEE_GetPropertyAsUUID>
     9ce:	f8c7 0468 	str.w	r0, [r7, #1128]	; 0x468
/home/qemu-sgx/devel/optee/out-br/build/optee_test_ext-1.0/ta/os_test/os_test.c:262
     9d2:	f8d7 3468 	ldr.w	r3, [r7, #1128]	; 0x468
     9d6:	2b00      	cmp	r3, #0
     9d8:	f000 81bf 	beq.w	d5a <print_properties+0xab6>
/home/qemu-sgx/devel/optee/out-br/build/optee_test_ext-1.0/ta/os_test/os_test.c:263
     9dc:	f8d7 3468 	ldr.w	r3, [r7, #1128]	; 0x468
     9e0:	9302      	str	r3, [sp, #8]
     9e2:	f107 0314 	add.w	r3, r7, #20
     9e6:	9301      	str	r3, [sp, #4]
     9e8:	f8df 3418 	ldr.w	r3, [pc, #1048]	; e04 <print_properties+0xb60>
     9ec:	447b      	add	r3, pc
     9ee:	9300      	str	r3, [sp, #0]
     9f0:	f04f 0301 	mov.w	r3, #1
     9f4:	f04f 0201 	mov.w	r2, #1
     9f8:	f240 1107 	movw	r1, #263	; 0x107
     9fc:	f8df 0408 	ldr.w	r0, [pc, #1032]	; e08 <print_properties+0xb64>
     a00:	4478      	add	r0, pc
     a02:	f01c ebb8 	blx	1d174 <trace_printf@plt>
/home/qemu-sgx/devel/optee/out-br/build/optee_test_ext-1.0/ta/os_test/os_test.c:266
     a06:	f8d7 3468 	ldr.w	r3, [r7, #1128]	; 0x468
     a0a:	e1d4      	b.n	db6 <print_properties+0xb12>
/home/qemu-sgx/devel/optee/out-br/build/optee_test_ext-1.0/ta/os_test/os_test.c:273
     a0c:	f207 4324 	addw	r3, r7, #1060	; 0x424
     a10:	efc0 0010 	vmov.i32	d16, #0	; 0x00000000
     a14:	edc3 0b00 	vstr	d16, [r3]
     a18:	edc3 0b02 	vstr	d16, [r3, #8]
     a1c:	edc3 0b03 	vstr	d16, [r3, #12]
/home/qemu-sgx/devel/optee/out-br/build/optee_test_ext-1.0/ta/os_test/os_test.c:276
     a20:	f207 4224 	addw	r2, r7, #1060	; 0x424
     a24:	f507 638e 	add.w	r3, r7, #1136	; 0x470
     a28:	f2a3 4364 	subw	r3, r3, #1124	; 0x464
     a2c:	f04f 0100 	mov.w	r1, #0
     a30:	6818      	ldr	r0, [r3, #0]
     a32:	f005 fecb 	bl	67cc <TEE_GetPropertyAsIdentity>
     a36:	f8c7 0468 	str.w	r0, [r7, #1128]	; 0x468
/home/qemu-sgx/devel/optee/out-br/build/optee_test_ext-1.0/ta/os_test/os_test.c:278
     a3a:	f8d7 3468 	ldr.w	r3, [r7, #1128]	; 0x468
     a3e:	2b00      	cmp	r3, #0
     a40:	f000 818d 	beq.w	d5e <print_properties+0xaba>
/home/qemu-sgx/devel/optee/out-br/build/optee_test_ext-1.0/ta/os_test/os_test.c:279
     a44:	f8d7 3468 	ldr.w	r3, [r7, #1128]	; 0x468
     a48:	9302      	str	r3, [sp, #8]
     a4a:	f107 0314 	add.w	r3, r7, #20
     a4e:	9301      	str	r3, [sp, #4]
     a50:	4bee      	ldr	r3, [pc, #952]	; (e0c <print_properties+0xb68>)
     a52:	447b      	add	r3, pc
     a54:	9300      	str	r3, [sp, #0]
     a56:	f04f 0301 	mov.w	r3, #1
     a5a:	f04f 0201 	mov.w	r2, #1
     a5e:	f240 1117 	movw	r1, #279	; 0x117
     a62:	48eb      	ldr	r0, [pc, #940]	; (e10 <print_properties+0xb6c>)
     a64:	4478      	add	r0, pc
     a66:	f01c eb86 	blx	1d174 <trace_printf@plt>
/home/qemu-sgx/devel/optee/out-br/build/optee_test_ext-1.0/ta/os_test/os_test.c:282
     a6a:	f8d7 3468 	ldr.w	r3, [r7, #1128]	; 0x468
     a6e:	e1a2      	b.n	db6 <print_properties+0xb12>
/home/qemu-sgx/devel/optee/out-br/build/optee_test_ext-1.0/ta/os_test/os_test.c:292
     a70:	f507 638a 	add.w	r3, r7, #1104	; 0x450
     a74:	f207 4254 	addw	r2, r7, #1108	; 0x454
     a78:	f107 0114 	add.w	r1, r7, #20
     a7c:	f507 608e 	add.w	r0, r7, #1136	; 0x470
     a80:	f2a0 4064 	subw	r0, r0, #1124	; 0x464
     a84:	6800      	ldr	r0, [r0, #0]
     a86:	f7ff fb81 	bl	18c <get_binblock_property>
     a8a:	f8c7 0468 	str.w	r0, [r7, #1128]	; 0x468
/home/qemu-sgx/devel/optee/out-br/build/optee_test_ext-1.0/ta/os_test/os_test.c:293
     a8e:	f8d7 3468 	ldr.w	r3, [r7, #1128]	; 0x468
     a92:	2b00      	cmp	r3, #0
     a94:	d002      	beq.n	a9c <print_properties+0x7f8>
/home/qemu-sgx/devel/optee/out-br/build/optee_test_ext-1.0/ta/os_test/os_test.c:294
     a96:	f8d7 3468 	ldr.w	r3, [r7, #1128]	; 0x468
     a9a:	e18c      	b.n	db6 <print_properties+0xb12>
/home/qemu-sgx/devel/optee/out-br/build/optee_test_ext-1.0/ta/os_test/os_test.c:296
     a9c:	f107 0314 	add.w	r3, r7, #20
     aa0:	4619      	mov	r1, r3
     aa2:	4bdc      	ldr	r3, [pc, #880]	; (e14 <print_properties+0xb70>)
     aa4:	447b      	add	r3, pc
     aa6:	4618      	mov	r0, r3
     aa8:	f018 fc43 	bl	19332 <strcmp>
     aac:	4603      	mov	r3, r0
     aae:	2b00      	cmp	r3, #0
     ab0:	d14a      	bne.n	b48 <print_properties+0x8a4>
/home/qemu-sgx/devel/optee/out-br/build/optee_test_ext-1.0/ta/os_test/os_test.c:297
     ab2:	4ad9      	ldr	r2, [pc, #868]	; (e18 <print_properties+0xb74>)
     ab4:	447a      	add	r2, pc
     ab6:	f207 4314 	addw	r3, r7, #1044	; 0x414
     aba:	e9d2 0100 	ldrd	r0, r1, [r2]
     abe:	e9c3 0100 	strd	r0, r1, [r3]
     ac2:	6891      	ldr	r1, [r2, #8]
     ac4:	6099      	str	r1, [r3, #8]
     ac6:	7b12      	ldrb	r2, [r2, #12]
     ac8:	731a      	strb	r2, [r3, #12]
/home/qemu-sgx/devel/optee/out-br/build/optee_test_ext-1.0/ta/os_test/os_test.c:299
     aca:	f207 4314 	addw	r3, r7, #1044	; 0x414
     ace:	4618      	mov	r0, r3
     ad0:	f01c ec4c 	blx	1d36c <strlen@plt>
     ad4:	4602      	mov	r2, r0
     ad6:	f8d7 3450 	ldr.w	r3, [r7, #1104]	; 0x450
     ada:	429a      	cmp	r2, r3
     adc:	d10c      	bne.n	af8 <print_properties+0x854>
/home/qemu-sgx/devel/optee/out-br/build/optee_test_ext-1.0/ta/os_test/os_test.c:300 (discriminator 1)
     ade:	f8d7 1454 	ldr.w	r1, [r7, #1108]	; 0x454
     ae2:	f8d7 2450 	ldr.w	r2, [r7, #1104]	; 0x450
     ae6:	f207 4314 	addw	r3, r7, #1044	; 0x414
     aea:	4618      	mov	r0, r3
     aec:	f01c ec26 	blx	1d33c <TEE_MemCompare@plt>
     af0:	4603      	mov	r3, r0
/home/qemu-sgx/devel/optee/out-br/build/optee_test_ext-1.0/ta/os_test/os_test.c:299 (discriminator 1)
     af2:	2b00      	cmp	r3, #0
     af4:	f000 80ef 	beq.w	cd6 <print_properties+0xa32>
/home/qemu-sgx/devel/optee/out-br/build/optee_test_ext-1.0/ta/os_test/os_test.c:302
     af8:	f207 4314 	addw	r3, r7, #1044	; 0x414
     afc:	9302      	str	r3, [sp, #8]
     afe:	f107 0314 	add.w	r3, r7, #20
     b02:	9301      	str	r3, [sp, #4]
     b04:	4bc5      	ldr	r3, [pc, #788]	; (e1c <print_properties+0xb78>)
     b06:	447b      	add	r3, pc
     b08:	9300      	str	r3, [sp, #0]
     b0a:	f04f 0301 	mov.w	r3, #1
     b0e:	f04f 0201 	mov.w	r2, #1
     b12:	f44f 7197 	mov.w	r1, #302	; 0x12e
     b16:	48c2      	ldr	r0, [pc, #776]	; (e20 <print_properties+0xb7c>)
     b18:	4478      	add	r0, pc
     b1a:	f01c eb2c 	blx	1d174 <trace_printf@plt>
/home/qemu-sgx/devel/optee/out-br/build/optee_test_ext-1.0/ta/os_test/os_test.c:304
     b1e:	f8d7 3454 	ldr.w	r3, [r7, #1108]	; 0x454
     b22:	9301      	str	r3, [sp, #4]
     b24:	4bbf      	ldr	r3, [pc, #764]	; (e24 <print_properties+0xb80>)
     b26:	447b      	add	r3, pc
     b28:	9300      	str	r3, [sp, #0]
     b2a:	f04f 0301 	mov.w	r3, #1
     b2e:	f04f 0201 	mov.w	r2, #1
     b32:	f44f 7198 	mov.w	r1, #304	; 0x130
     b36:	48bc      	ldr	r0, [pc, #752]	; (e28 <print_properties+0xb84>)
     b38:	4478      	add	r0, pc
     b3a:	f01c eb1c 	blx	1d174 <trace_printf@plt>
/home/qemu-sgx/devel/optee/out-br/build/optee_test_ext-1.0/ta/os_test/os_test.c:305
     b3e:	f04f 0300 	mov.w	r3, #0
     b42:	f6cf 73ff 	movt	r3, #65535	; 0xffff
     b46:	e136      	b.n	db6 <print_properties+0xb12>
/home/qemu-sgx/devel/optee/out-br/build/optee_test_ext-1.0/ta/os_test/os_test.c:307
     b48:	f107 0314 	add.w	r3, r7, #20
     b4c:	4619      	mov	r1, r3
     b4e:	4bb7      	ldr	r3, [pc, #732]	; (e2c <print_properties+0xb88>)
     b50:	447b      	add	r3, pc
     b52:	4618      	mov	r0, r3
     b54:	f018 fbed 	bl	19332 <strcmp>
     b58:	4603      	mov	r3, r0
     b5a:	2b00      	cmp	r3, #0
     b5c:	d112      	bne.n	b84 <print_properties+0x8e0>
/home/qemu-sgx/devel/optee/out-br/build/optee_test_ext-1.0/ta/os_test/os_test.c:309
     b5e:	f8d7 3454 	ldr.w	r3, [r7, #1108]	; 0x454
     b62:	f8d7 2450 	ldr.w	r2, [r7, #1104]	; 0x450
     b66:	4619      	mov	r1, r3
     b68:	f04f 0001 	mov.w	r0, #1
     b6c:	f7ff fabc 	bl	e8 <check_binprop_ones>
     b70:	f8c7 0468 	str.w	r0, [r7, #1128]	; 0x468
/home/qemu-sgx/devel/optee/out-br/build/optee_test_ext-1.0/ta/os_test/os_test.c:310
     b74:	f8d7 3468 	ldr.w	r3, [r7, #1128]	; 0x468
     b78:	2b00      	cmp	r3, #0
     b7a:	f000 80ac 	beq.w	cd6 <print_properties+0xa32>
/home/qemu-sgx/devel/optee/out-br/build/optee_test_ext-1.0/ta/os_test/os_test.c:311
     b7e:	f8d7 3468 	ldr.w	r3, [r7, #1128]	; 0x468
     b82:	e118      	b.n	db6 <print_properties+0xb12>
/home/qemu-sgx/devel/optee/out-br/build/optee_test_ext-1.0/ta/os_test/os_test.c:312
     b84:	f107 0314 	add.w	r3, r7, #20
     b88:	4619      	mov	r1, r3
     b8a:	4ba9      	ldr	r3, [pc, #676]	; (e30 <print_properties+0xb8c>)
     b8c:	447b      	add	r3, pc
     b8e:	4618      	mov	r0, r3
     b90:	f018 fbcf 	bl	19332 <strcmp>
     b94:	4603      	mov	r3, r0
     b96:	2b00      	cmp	r3, #0
     b98:	d112      	bne.n	bc0 <print_properties+0x91c>
/home/qemu-sgx/devel/optee/out-br/build/optee_test_ext-1.0/ta/os_test/os_test.c:314
     b9a:	f8d7 3454 	ldr.w	r3, [r7, #1108]	; 0x454
     b9e:	f8d7 2450 	ldr.w	r2, [r7, #1104]	; 0x450
     ba2:	4619      	mov	r1, r3
     ba4:	f04f 0002 	mov.w	r0, #2
     ba8:	f7ff fa9e 	bl	e8 <check_binprop_ones>
     bac:	f8c7 0468 	str.w	r0, [r7, #1128]	; 0x468
/home/qemu-sgx/devel/optee/out-br/build/optee_test_ext-1.0/ta/os_test/os_test.c:315
     bb0:	f8d7 3468 	ldr.w	r3, [r7, #1128]	; 0x468
     bb4:	2b00      	cmp	r3, #0
     bb6:	f000 808e 	beq.w	cd6 <print_properties+0xa32>
/home/qemu-sgx/devel/optee/out-br/build/optee_test_ext-1.0/ta/os_test/os_test.c:316
     bba:	f8d7 3468 	ldr.w	r3, [r7, #1128]	; 0x468
     bbe:	e0fa      	b.n	db6 <print_properties+0xb12>
/home/qemu-sgx/devel/optee/out-br/build/optee_test_ext-1.0/ta/os_test/os_test.c:317
     bc0:	f107 0314 	add.w	r3, r7, #20
     bc4:	4619      	mov	r1, r3
     bc6:	4b9b      	ldr	r3, [pc, #620]	; (e34 <print_properties+0xb90>)
     bc8:	447b      	add	r3, pc
     bca:	4618      	mov	r0, r3
     bcc:	f018 fbb1 	bl	19332 <strcmp>
     bd0:	4603      	mov	r3, r0
     bd2:	2b00      	cmp	r3, #0
     bd4:	d111      	bne.n	bfa <print_properties+0x956>
/home/qemu-sgx/devel/optee/out-br/build/optee_test_ext-1.0/ta/os_test/os_test.c:319
     bd6:	f8d7 3454 	ldr.w	r3, [r7, #1108]	; 0x454
     bda:	f8d7 2450 	ldr.w	r2, [r7, #1104]	; 0x450
     bde:	4619      	mov	r1, r3
     be0:	f04f 0003 	mov.w	r0, #3
     be4:	f7ff fa80 	bl	e8 <check_binprop_ones>
     be8:	f8c7 0468 	str.w	r0, [r7, #1128]	; 0x468
/home/qemu-sgx/devel/optee/out-br/build/optee_test_ext-1.0/ta/os_test/os_test.c:320
     bec:	f8d7 3468 	ldr.w	r3, [r7, #1128]	; 0x468
     bf0:	2b00      	cmp	r3, #0
     bf2:	d070      	beq.n	cd6 <print_properties+0xa32>
/home/qemu-sgx/devel/optee/out-br/build/optee_test_ext-1.0/ta/os_test/os_test.c:321
     bf4:	f8d7 3468 	ldr.w	r3, [r7, #1128]	; 0x468
     bf8:	e0dd      	b.n	db6 <print_properties+0xb12>
/home/qemu-sgx/devel/optee/out-br/build/optee_test_ext-1.0/ta/os_test/os_test.c:322
     bfa:	f107 0314 	add.w	r3, r7, #20
     bfe:	4619      	mov	r1, r3
     c00:	4b8d      	ldr	r3, [pc, #564]	; (e38 <print_properties+0xb94>)
     c02:	447b      	add	r3, pc
     c04:	4618      	mov	r0, r3
     c06:	f018 fb94 	bl	19332 <strcmp>
     c0a:	4603      	mov	r3, r0
     c0c:	2b00      	cmp	r3, #0
     c0e:	d111      	bne.n	c34 <print_properties+0x990>
/home/qemu-sgx/devel/optee/out-br/build/optee_test_ext-1.0/ta/os_test/os_test.c:324
     c10:	f8d7 3454 	ldr.w	r3, [r7, #1108]	; 0x454
     c14:	f8d7 2450 	ldr.w	r2, [r7, #1104]	; 0x450
     c18:	4619      	mov	r1, r3
     c1a:	f04f 0004 	mov.w	r0, #4
     c1e:	f7ff fa63 	bl	e8 <check_binprop_ones>
     c22:	f8c7 0468 	str.w	r0, [r7, #1128]	; 0x468
/home/qemu-sgx/devel/optee/out-br/build/optee_test_ext-1.0/ta/os_test/os_test.c:325
     c26:	f8d7 3468 	ldr.w	r3, [r7, #1128]	; 0x468
     c2a:	2b00      	cmp	r3, #0
     c2c:	d053      	beq.n	cd6 <print_properties+0xa32>
/home/qemu-sgx/devel/optee/out-br/build/optee_test_ext-1.0/ta/os_test/os_test.c:326
     c2e:	f8d7 3468 	ldr.w	r3, [r7, #1128]	; 0x468
     c32:	e0c0      	b.n	db6 <print_properties+0xb12>
/home/qemu-sgx/devel/optee/out-br/build/optee_test_ext-1.0/ta/os_test/os_test.c:327
     c34:	f107 0314 	add.w	r3, r7, #20
     c38:	4619      	mov	r1, r3
     c3a:	4b80      	ldr	r3, [pc, #512]	; (e3c <print_properties+0xb98>)
     c3c:	447b      	add	r3, pc
     c3e:	4618      	mov	r0, r3
     c40:	f018 fb77 	bl	19332 <strcmp>
     c44:	4603      	mov	r3, r0
     c46:	2b00      	cmp	r3, #0
     c48:	d015      	beq.n	c76 <print_properties+0x9d2>
/home/qemu-sgx/devel/optee/out-br/build/optee_test_ext-1.0/ta/os_test/os_test.c:328 (discriminator 1)
     c4a:	f107 0314 	add.w	r3, r7, #20
     c4e:	4619      	mov	r1, r3
     c50:	4b7b      	ldr	r3, [pc, #492]	; (e40 <print_properties+0xb9c>)
     c52:	447b      	add	r3, pc
     c54:	4618      	mov	r0, r3
     c56:	f018 fb6c 	bl	19332 <strcmp>
     c5a:	4603      	mov	r3, r0
/home/qemu-sgx/devel/optee/out-br/build/optee_test_ext-1.0/ta/os_test/os_test.c:327 (discriminator 1)
     c5c:	2b00      	cmp	r3, #0
     c5e:	d00a      	beq.n	c76 <print_properties+0x9d2>
/home/qemu-sgx/devel/optee/out-br/build/optee_test_ext-1.0/ta/os_test/os_test.c:329
     c60:	f107 0314 	add.w	r3, r7, #20
     c64:	4619      	mov	r1, r3
     c66:	4b77      	ldr	r3, [pc, #476]	; (e44 <print_properties+0xba0>)
     c68:	447b      	add	r3, pc
     c6a:	4618      	mov	r0, r3
     c6c:	f018 fb61 	bl	19332 <strcmp>
     c70:	4603      	mov	r3, r0
/home/qemu-sgx/devel/optee/out-br/build/optee_test_ext-1.0/ta/os_test/os_test.c:328
     c72:	2b00      	cmp	r3, #0
     c74:	d11b      	bne.n	cae <print_properties+0xa0a>
/home/qemu-sgx/devel/optee/out-br/build/optee_test_ext-1.0/ta/os_test/os_test.c:330
     c76:	f8d7 3450 	ldr.w	r3, [r7, #1104]	; 0x450
     c7a:	2b00      	cmp	r3, #0
     c7c:	d02b      	beq.n	cd6 <print_properties+0xa32>
/home/qemu-sgx/devel/optee/out-br/build/optee_test_ext-1.0/ta/os_test/os_test.c:331
     c7e:	f8d7 3450 	ldr.w	r3, [r7, #1104]	; 0x450
     c82:	9302      	str	r3, [sp, #8]
     c84:	f107 0314 	add.w	r3, r7, #20
     c88:	9301      	str	r3, [sp, #4]
     c8a:	4b6f      	ldr	r3, [pc, #444]	; (e48 <print_properties+0xba4>)
     c8c:	447b      	add	r3, pc
     c8e:	9300      	str	r3, [sp, #0]
     c90:	f04f 0301 	mov.w	r3, #1
     c94:	f04f 0201 	mov.w	r2, #1
     c98:	f240 114b 	movw	r1, #331	; 0x14b
     c9c:	486b      	ldr	r0, [pc, #428]	; (e4c <print_properties+0xba8>)
     c9e:	4478      	add	r0, pc
     ca0:	f01c ea68 	blx	1d174 <trace_printf@plt>
/home/qemu-sgx/devel/optee/out-br/build/optee_test_ext-1.0/ta/os_test/os_test.c:333
     ca4:	f04f 0300 	mov.w	r3, #0
     ca8:	f6cf 73ff 	movt	r3, #65535	; 0xffff
     cac:	e083      	b.n	db6 <print_properties+0xb12>
/home/qemu-sgx/devel/optee/out-br/build/optee_test_ext-1.0/ta/os_test/os_test.c:336
     cae:	f107 0314 	add.w	r3, r7, #20
     cb2:	9301      	str	r3, [sp, #4]
     cb4:	4b66      	ldr	r3, [pc, #408]	; (e50 <print_properties+0xbac>)
     cb6:	447b      	add	r3, pc
     cb8:	9300      	str	r3, [sp, #0]
     cba:	f04f 0301 	mov.w	r3, #1
     cbe:	f04f 0201 	mov.w	r2, #1
     cc2:	f44f 71a8 	mov.w	r1, #336	; 0x150
     cc6:	4863      	ldr	r0, [pc, #396]	; (e54 <print_properties+0xbb0>)
     cc8:	4478      	add	r0, pc
     cca:	f01c ea54 	blx	1d174 <trace_printf@plt>
/home/qemu-sgx/devel/optee/out-br/build/optee_test_ext-1.0/ta/os_test/os_test.c:337
     cce:	f04f 0000 	mov.w	r0, #0
     cd2:	f01c ea5c 	blx	1d18c <TEE_Panic@plt>
/home/qemu-sgx/devel/optee/out-br/build/optee_test_ext-1.0/ta/os_test/os_test.c:340
     cd6:	f8d7 3454 	ldr.w	r3, [r7, #1108]	; 0x454
     cda:	4618      	mov	r0, r3
     cdc:	f01c eb1c 	blx	1d318 <TEE_Free@plt>
/home/qemu-sgx/devel/optee/out-br/build/optee_test_ext-1.0/ta/os_test/os_test.c:341
     ce0:	e03e      	b.n	d60 <print_properties+0xabc>
/home/qemu-sgx/devel/optee/out-br/build/optee_test_ext-1.0/ta/os_test/os_test.c:344
     ce2:	f8d7 246c 	ldr.w	r2, [r7, #1132]	; 0x46c
     ce6:	4613      	mov	r3, r2
     ce8:	ea4f 0343 	mov.w	r3, r3, lsl #1
     cec:	4413      	add	r3, r2
     cee:	ea4f 0383 	mov.w	r3, r3, lsl #2
     cf2:	461a      	mov	r2, r3
     cf4:	f507 638e 	add.w	r3, r7, #1136	; 0x470
     cf8:	f2a3 436c 	subw	r3, r3, #1132	; 0x46c
     cfc:	681b      	ldr	r3, [r3, #0]
     cfe:	4413      	add	r3, r2
     d00:	6859      	ldr	r1, [r3, #4]
     d02:	f8d7 246c 	ldr.w	r2, [r7, #1132]	; 0x46c
     d06:	4613      	mov	r3, r2
     d08:	ea4f 0343 	mov.w	r3, r3, lsl #1
     d0c:	4413      	add	r3, r2
     d0e:	ea4f 0383 	mov.w	r3, r3, lsl #2
     d12:	461a      	mov	r2, r3
     d14:	f507 638e 	add.w	r3, r7, #1136	; 0x470
     d18:	f2a3 436c 	subw	r3, r3, #1132	; 0x46c
     d1c:	681b      	ldr	r3, [r3, #0]
     d1e:	4413      	add	r3, r2
     d20:	681b      	ldr	r3, [r3, #0]
     d22:	9302      	str	r3, [sp, #8]
     d24:	9101      	str	r1, [sp, #4]
     d26:	4b4c      	ldr	r3, [pc, #304]	; (e58 <print_properties+0xbb4>)
     d28:	447b      	add	r3, pc
     d2a:	9300      	str	r3, [sp, #0]
     d2c:	f04f 0301 	mov.w	r3, #1
     d30:	f04f 0201 	mov.w	r2, #1
     d34:	f44f 71ac 	mov.w	r1, #344	; 0x158
     d38:	4848      	ldr	r0, [pc, #288]	; (e5c <print_properties+0xbb8>)
     d3a:	4478      	add	r0, pc
     d3c:	f01c ea1a 	blx	1d174 <trace_printf@plt>
/home/qemu-sgx/devel/optee/out-br/build/optee_test_ext-1.0/ta/os_test/os_test.c:346
     d40:	f04f 0300 	mov.w	r3, #0
     d44:	f6cf 73ff 	movt	r3, #65535	; 0xffff
     d48:	e035      	b.n	db6 <print_properties+0xb12>
/home/qemu-sgx/devel/optee/out-br/build/optee_test_ext-1.0/ta/os_test/os_test.c:217
     d4a:	bf00      	nop
     d4c:	e008      	b.n	d60 <print_properties+0xabc>
/home/qemu-sgx/devel/optee/out-br/build/optee_test_ext-1.0/ta/os_test/os_test.c:289
     d4e:	bf00      	nop
     d50:	e006      	b.n	d60 <print_properties+0xabc>
/home/qemu-sgx/devel/optee/out-br/build/optee_test_ext-1.0/ta/os_test/os_test.c:240
     d52:	bf00      	nop
     d54:	e004      	b.n	d60 <print_properties+0xabc>
/home/qemu-sgx/devel/optee/out-br/build/optee_test_ext-1.0/ta/os_test/os_test.c:254
     d56:	bf00      	nop
     d58:	e002      	b.n	d60 <print_properties+0xabc>
/home/qemu-sgx/devel/optee/out-br/build/optee_test_ext-1.0/ta/os_test/os_test.c:269
     d5a:	bf00      	nop
     d5c:	e000      	b.n	d60 <print_properties+0xabc>
/home/qemu-sgx/devel/optee/out-br/build/optee_test_ext-1.0/ta/os_test/os_test.c:285
     d5e:	bf00      	nop
/home/qemu-sgx/devel/optee/out-br/build/optee_test_ext-1.0/ta/os_test/os_test.c:215 (discriminator 2)
     d60:	f8d7 346c 	ldr.w	r3, [r7, #1132]	; 0x46c
     d64:	f103 0301 	add.w	r3, r3, #1
     d68:	f8c7 346c 	str.w	r3, [r7, #1132]	; 0x46c
/home/qemu-sgx/devel/optee/out-br/build/optee_test_ext-1.0/ta/os_test/os_test.c:215 (discriminator 1)
     d6c:	f507 638e 	add.w	r3, r7, #1136	; 0x470
     d70:	f5a3 638e 	sub.w	r3, r3, #1136	; 0x470
     d74:	f8d7 246c 	ldr.w	r2, [r7, #1132]	; 0x46c
     d78:	681b      	ldr	r3, [r3, #0]
     d7a:	429a      	cmp	r2, r3
     d7c:	f4ff ad31 	bcc.w	7e2 <print_properties+0x53e>
/home/qemu-sgx/devel/optee/out-br/build/optee_test_ext-1.0/ta/os_test/os_test.c:350
     d80:	f507 638e 	add.w	r3, r7, #1136	; 0x470
     d84:	f2a3 4364 	subw	r3, r3, #1124	; 0x464
     d88:	6818      	ldr	r0, [r3, #0]
     d8a:	f005 fe60 	bl	6a4e <TEE_GetNextProperty>
     d8e:	f8c7 0468 	str.w	r0, [r7, #1128]	; 0x468
/home/qemu-sgx/devel/optee/out-br/build/optee_test_ext-1.0/ta/os_test/os_test.c:351
     d92:	f8d7 3468 	ldr.w	r3, [r7, #1128]	; 0x468
     d96:	2b00      	cmp	r3, #0
     d98:	f43f aab5 	beq.w	306 <print_properties+0x62>
/home/qemu-sgx/devel/optee/out-br/build/optee_test_ext-1.0/ta/os_test/os_test.c:352
     d9c:	f8d7 2468 	ldr.w	r2, [r7, #1128]	; 0x468
     da0:	f04f 0308 	mov.w	r3, #8
     da4:	f6cf 73ff 	movt	r3, #65535	; 0xffff
     da8:	429a      	cmp	r2, r3
     daa:	d102      	bne.n	db2 <print_properties+0xb0e>
/home/qemu-sgx/devel/optee/out-br/build/optee_test_ext-1.0/ta/os_test/os_test.c:353
     dac:	f04f 0300 	mov.w	r3, #0
     db0:	e001      	b.n	db6 <print_properties+0xb12>
/home/qemu-sgx/devel/optee/out-br/build/optee_test_ext-1.0/ta/os_test/os_test.c:354
     db2:	f8d7 3468 	ldr.w	r3, [r7, #1128]	; 0x468
/home/qemu-sgx/devel/optee/out-br/build/optee_test_ext-1.0/ta/os_test/os_test.c:357
     db6:	4618      	mov	r0, r3
     db8:	f207 4774 	addw	r7, r7, #1140	; 0x474
     dbc:	46bd      	mov	sp, r7
     dbe:	e9dd 4700 	ldrd	r4, r7, [sp]
     dc2:	b002      	add	sp, #8
     dc4:	f85d fb04 	ldr.w	pc, [sp], #4
     dc8:	0001d0f2 	.word	0x0001d0f2
     dcc:	0001e442 	.word	0x0001e442
     dd0:	0001d0c0 	.word	0x0001d0c0
     dd4:	0001e3ec 	.word	0x0001e3ec
     dd8:	0001ced4 	.word	0x0001ced4
     ddc:	0001e1e0 	.word	0x0001e1e0
     de0:	0001cda2 	.word	0x0001cda2
     de4:	0001cd8c 	.word	0x0001cd8c
     de8:	0001e070 	.word	0x0001e070
     dec:	0001cd1c 	.word	0x0001cd1c
     df0:	0001dfc4 	.word	0x0001dfc4
     df4:	0001cc70 	.word	0x0001cc70
     df8:	0001def8 	.word	0x0001def8
     dfc:	0001cc40 	.word	0x0001cc40
     e00:	0001de9c 	.word	0x0001de9c
     e04:	0001cc08 	.word	0x0001cc08
     e08:	0001de38 	.word	0x0001de38
     e0c:	0001cbce 	.word	0x0001cbce
     e10:	0001ddd4 	.word	0x0001ddd4
     e14:	0001cbac 	.word	0x0001cbac
     e18:	0001cd0c 	.word	0x0001cd0c
     e1c:	0001cb5e 	.word	0x0001cb5e
     e20:	0001dd20 	.word	0x0001dd20
     e24:	0001cb66 	.word	0x0001cb66
     e28:	0001dd00 	.word	0x0001dd00
     e2c:	0001cb48 	.word	0x0001cb48
     e30:	0001cb2c 	.word	0x0001cb2c
     e34:	0001cb10 	.word	0x0001cb10
     e38:	0001caf6 	.word	0x0001caf6
     e3c:	0001cadc 	.word	0x0001cadc
     e40:	0001cae2 	.word	0x0001cae2
     e44:	0001cae8 	.word	0x0001cae8
     e48:	0001cae0 	.word	0x0001cae0
     e4c:	0001db9a 	.word	0x0001db9a
     e50:	0001cad2 	.word	0x0001cad2
     e54:	0001db70 	.word	0x0001db70
     e58:	0001ca7c 	.word	0x0001ca7c
     e5c:	0001dafe 	.word	0x0001dafe

00000e60 <test_malloc>:
test_malloc():
/home/qemu-sgx/devel/optee/out-br/build/optee_test_ext-1.0/ta/os_test/os_test.c:360
     e60:	e96d 7e02 	strd	r7, lr, [sp, #-8]!
     e64:	b084      	sub	sp, #16
     e66:	af02      	add	r7, sp, #8
/home/qemu-sgx/devel/optee/out-br/build/optee_test_ext-1.0/ta/os_test/os_test.c:361
     e68:	f04f 0100 	mov.w	r1, #0
     e6c:	f04f 0004 	mov.w	r0, #4
     e70:	f01c e9da 	blx	1d228 <TEE_Malloc@plt>
     e74:	6078      	str	r0, [r7, #4]
/home/qemu-sgx/devel/optee/out-br/build/optee_test_ext-1.0/ta/os_test/os_test.c:363
     e76:	687b      	ldr	r3, [r7, #4]
     e78:	2b00      	cmp	r3, #0
     e7a:	d111      	bne.n	ea0 <test_malloc+0x40>
/home/qemu-sgx/devel/optee/out-br/build/optee_test_ext-1.0/ta/os_test/os_test.c:364
     e7c:	4b0f      	ldr	r3, [pc, #60]	; (ebc <test_malloc+0x5c>)
     e7e:	447b      	add	r3, pc
     e80:	9300      	str	r3, [sp, #0]
     e82:	f04f 0301 	mov.w	r3, #1
     e86:	f04f 0201 	mov.w	r2, #1
     e8a:	f44f 71b6 	mov.w	r1, #364	; 0x16c
     e8e:	480c      	ldr	r0, [pc, #48]	; (ec0 <test_malloc+0x60>)
     e90:	4478      	add	r0, pc
     e92:	f01c e970 	blx	1d174 <trace_printf@plt>
/home/qemu-sgx/devel/optee/out-br/build/optee_test_ext-1.0/ta/os_test/os_test.c:365
     e96:	f04f 030c 	mov.w	r3, #12
     e9a:	f6cf 73ff 	movt	r3, #65535	; 0xffff
     e9e:	e008      	b.n	eb2 <test_malloc+0x52>
/home/qemu-sgx/devel/optee/out-br/build/optee_test_ext-1.0/ta/os_test/os_test.c:367
     ea0:	6878      	ldr	r0, [r7, #4]
     ea2:	f01c ea3a 	blx	1d318 <TEE_Free@plt>
/home/qemu-sgx/devel/optee/out-br/build/optee_test_ext-1.0/ta/os_test/os_test.c:368
     ea6:	f04f 0000 	mov.w	r0, #0
     eaa:	f01c ea36 	blx	1d318 <TEE_Free@plt>
/home/qemu-sgx/devel/optee/out-br/build/optee_test_ext-1.0/ta/os_test/os_test.c:370
     eae:	f04f 0300 	mov.w	r3, #0
/home/qemu-sgx/devel/optee/out-br/build/optee_test_ext-1.0/ta/os_test/os_test.c:371
     eb2:	4618      	mov	r0, r3
     eb4:	f107 0708 	add.w	r7, r7, #8
     eb8:	46bd      	mov	sp, r7
     eba:	bd80      	pop	{r7, pc}
     ebc:	0001c952 	.word	0x0001c952
     ec0:	0001d9bc 	.word	0x0001d9bc

00000ec4 <test_properties>:
test_properties():
/home/qemu-sgx/devel/optee/out-br/build/optee_test_ext-1.0/ta/os_test/os_test.c:374
     ec4:	e96d 7e02 	strd	r7, lr, [sp, #-8]!
     ec8:	b0f2      	sub	sp, #456	; 0x1c8
     eca:	af02      	add	r7, sp, #8
/home/qemu-sgx/devel/optee/out-br/build/optee_test_ext-1.0/ta/os_test/os_test.c:375
     ecc:	f04f 0300 	mov.w	r3, #0
     ed0:	f6cf 73ff 	movt	r3, #65535	; 0xffff
     ed4:	f8c7 31bc 	str.w	r3, [r7, #444]	; 0x1bc
/home/qemu-sgx/devel/optee/out-br/build/optee_test_ext-1.0/ta/os_test/os_test.c:376
     ed8:	f04f 0300 	mov.w	r3, #0
     edc:	f8c7 31b0 	str.w	r3, [r7, #432]	; 0x1b0
/home/qemu-sgx/devel/optee/out-br/build/optee_test_ext-1.0/ta/os_test/os_test.c:377
     ee0:	f507 73e0 	add.w	r3, r7, #448	; 0x1c0
     ee4:	f5a3 73e0 	sub.w	r3, r3, #448	; 0x1c0
     ee8:	4618      	mov	r0, r3
     eea:	f44f 73d8 	mov.w	r3, #432	; 0x1b0
     eee:	461a      	mov	r2, r3
     ef0:	f04f 0100 	mov.w	r1, #0
     ef4:	f01c e9e0 	blx	1d2b8 <memset@plt>
     ef8:	f507 73e0 	add.w	r3, r7, #448	; 0x1c0
     efc:	f5a3 73e0 	sub.w	r3, r3, #448	; 0x1c0
     f00:	f8df 25a0 	ldr.w	r2, [pc, #1440]	; 14a4 <test_properties+0x5e0>
     f04:	447a      	add	r2, pc
     f06:	601a      	str	r2, [r3, #0]
     f08:	f507 73e0 	add.w	r3, r7, #448	; 0x1c0
     f0c:	f5a3 73e0 	sub.w	r3, r3, #448	; 0x1c0
     f10:	f04f 0202 	mov.w	r2, #2
     f14:	605a      	str	r2, [r3, #4]
     f16:	f507 73e0 	add.w	r3, r7, #448	; 0x1c0
     f1a:	f5a3 73e0 	sub.w	r3, r3, #448	; 0x1c0
     f1e:	f8df 2588 	ldr.w	r2, [pc, #1416]	; 14a8 <test_properties+0x5e4>
     f22:	447a      	add	r2, pc
     f24:	60da      	str	r2, [r3, #12]
     f26:	f507 73e0 	add.w	r3, r7, #448	; 0x1c0
     f2a:	f5a3 73e0 	sub.w	r3, r3, #448	; 0x1c0
     f2e:	f8df 257c 	ldr.w	r2, [pc, #1404]	; 14ac <test_properties+0x5e8>
     f32:	447a      	add	r2, pc
     f34:	619a      	str	r2, [r3, #24]
     f36:	f507 73e0 	add.w	r3, r7, #448	; 0x1c0
     f3a:	f5a3 73e0 	sub.w	r3, r3, #448	; 0x1c0
     f3e:	f8df 2570 	ldr.w	r2, [pc, #1392]	; 14b0 <test_properties+0x5ec>
     f42:	447a      	add	r2, pc
     f44:	625a      	str	r2, [r3, #36]	; 0x24
     f46:	f507 73e0 	add.w	r3, r7, #448	; 0x1c0
     f4a:	f5a3 73e0 	sub.w	r3, r3, #448	; 0x1c0
     f4e:	f8df 2564 	ldr.w	r2, [pc, #1380]	; 14b4 <test_properties+0x5f0>
     f52:	447a      	add	r2, pc
     f54:	631a      	str	r2, [r3, #48]	; 0x30
     f56:	f507 73e0 	add.w	r3, r7, #448	; 0x1c0
     f5a:	f5a3 73e0 	sub.w	r3, r3, #448	; 0x1c0
     f5e:	f04f 0201 	mov.w	r2, #1
     f62:	635a      	str	r2, [r3, #52]	; 0x34
     f64:	f507 73e0 	add.w	r3, r7, #448	; 0x1c0
     f68:	f5a3 73e0 	sub.w	r3, r3, #448	; 0x1c0
     f6c:	f8df 2548 	ldr.w	r2, [pc, #1352]	; 14b8 <test_properties+0x5f4>
     f70:	447a      	add	r2, pc
     f72:	63da      	str	r2, [r3, #60]	; 0x3c
     f74:	f507 73e0 	add.w	r3, r7, #448	; 0x1c0
     f78:	f5a3 73e0 	sub.w	r3, r3, #448	; 0x1c0
     f7c:	f04f 0201 	mov.w	r2, #1
     f80:	641a      	str	r2, [r3, #64]	; 0x40
     f82:	f507 73e0 	add.w	r3, r7, #448	; 0x1c0
     f86:	f5a3 73e0 	sub.w	r3, r3, #448	; 0x1c0
     f8a:	f8df 2530 	ldr.w	r2, [pc, #1328]	; 14bc <test_properties+0x5f8>
     f8e:	447a      	add	r2, pc
     f90:	649a      	str	r2, [r3, #72]	; 0x48
     f92:	f507 73e0 	add.w	r3, r7, #448	; 0x1c0
     f96:	f5a3 73e0 	sub.w	r3, r3, #448	; 0x1c0
     f9a:	f04f 0204 	mov.w	r2, #4
     f9e:	64da      	str	r2, [r3, #76]	; 0x4c
     fa0:	f507 73e0 	add.w	r3, r7, #448	; 0x1c0
     fa4:	f5a3 73e0 	sub.w	r3, r3, #448	; 0x1c0
     fa8:	f8df 2514 	ldr.w	r2, [pc, #1300]	; 14c0 <test_properties+0x5fc>
     fac:	447a      	add	r2, pc
     fae:	655a      	str	r2, [r3, #84]	; 0x54
     fb0:	f507 73e0 	add.w	r3, r7, #448	; 0x1c0
     fb4:	f5a3 73e0 	sub.w	r3, r3, #448	; 0x1c0
     fb8:	f04f 0204 	mov.w	r2, #4
     fbc:	659a      	str	r2, [r3, #88]	; 0x58
     fbe:	f507 73e0 	add.w	r3, r7, #448	; 0x1c0
     fc2:	f5a3 73e0 	sub.w	r3, r3, #448	; 0x1c0
     fc6:	f8df 24fc 	ldr.w	r2, [pc, #1276]	; 14c4 <test_properties+0x600>
     fca:	447a      	add	r2, pc
     fcc:	661a      	str	r2, [r3, #96]	; 0x60
     fce:	f507 73e0 	add.w	r3, r7, #448	; 0x1c0
     fd2:	f5a3 73e0 	sub.w	r3, r3, #448	; 0x1c0
     fd6:	f04f 0203 	mov.w	r2, #3
     fda:	665a      	str	r2, [r3, #100]	; 0x64
     fdc:	f507 73e0 	add.w	r3, r7, #448	; 0x1c0
     fe0:	f5a3 73e0 	sub.w	r3, r3, #448	; 0x1c0
     fe4:	f8df 24e0 	ldr.w	r2, [pc, #1248]	; 14c8 <test_properties+0x604>
     fe8:	447a      	add	r2, pc
     fea:	66da      	str	r2, [r3, #108]	; 0x6c
     fec:	f507 73e0 	add.w	r3, r7, #448	; 0x1c0
     ff0:	f5a3 73e0 	sub.w	r3, r3, #448	; 0x1c0
     ff4:	f04f 0204 	mov.w	r2, #4
     ff8:	671a      	str	r2, [r3, #112]	; 0x70
     ffa:	f507 73e0 	add.w	r3, r7, #448	; 0x1c0
     ffe:	f5a3 73e0 	sub.w	r3, r3, #448	; 0x1c0
    1002:	f8df 24c8 	ldr.w	r2, [pc, #1224]	; 14cc <test_properties+0x608>
    1006:	447a      	add	r2, pc
    1008:	679a      	str	r2, [r3, #120]	; 0x78
    100a:	f507 73e0 	add.w	r3, r7, #448	; 0x1c0
    100e:	f5a3 73e0 	sub.w	r3, r3, #448	; 0x1c0
    1012:	f04f 0204 	mov.w	r2, #4
    1016:	67da      	str	r2, [r3, #124]	; 0x7c
    1018:	f507 73e0 	add.w	r3, r7, #448	; 0x1c0
    101c:	f5a3 73e0 	sub.w	r3, r3, #448	; 0x1c0
    1020:	f8df 24ac 	ldr.w	r2, [pc, #1196]	; 14d0 <test_properties+0x60c>
    1024:	447a      	add	r2, pc
    1026:	f8c3 2084 	str.w	r2, [r3, #132]	; 0x84
    102a:	f507 73e0 	add.w	r3, r7, #448	; 0x1c0
    102e:	f5a3 73e0 	sub.w	r3, r3, #448	; 0x1c0
    1032:	f04f 0202 	mov.w	r2, #2
    1036:	f8c3 2088 	str.w	r2, [r3, #136]	; 0x88
    103a:	f507 73e0 	add.w	r3, r7, #448	; 0x1c0
    103e:	f5a3 73e0 	sub.w	r3, r3, #448	; 0x1c0
    1042:	f8df 2490 	ldr.w	r2, [pc, #1168]	; 14d4 <test_properties+0x610>
    1046:	447a      	add	r2, pc
    1048:	f8c3 2090 	str.w	r2, [r3, #144]	; 0x90
    104c:	f507 73e0 	add.w	r3, r7, #448	; 0x1c0
    1050:	f5a3 73e0 	sub.w	r3, r3, #448	; 0x1c0
    1054:	f04f 0201 	mov.w	r2, #1
    1058:	f8c3 2094 	str.w	r2, [r3, #148]	; 0x94
    105c:	f507 73e0 	add.w	r3, r7, #448	; 0x1c0
    1060:	f5a3 73e0 	sub.w	r3, r3, #448	; 0x1c0
    1064:	f8df 2470 	ldr.w	r2, [pc, #1136]	; 14d8 <test_properties+0x614>
    1068:	447a      	add	r2, pc
    106a:	f8c3 209c 	str.w	r2, [r3, #156]	; 0x9c
    106e:	f507 73e0 	add.w	r3, r7, #448	; 0x1c0
    1072:	f5a3 73e0 	sub.w	r3, r3, #448	; 0x1c0
    1076:	f04f 0201 	mov.w	r2, #1
    107a:	f8c3 20a0 	str.w	r2, [r3, #160]	; 0xa0
    107e:	f507 73e0 	add.w	r3, r7, #448	; 0x1c0
    1082:	f5a3 73e0 	sub.w	r3, r3, #448	; 0x1c0
    1086:	f8df 2454 	ldr.w	r2, [pc, #1108]	; 14dc <test_properties+0x618>
    108a:	447a      	add	r2, pc
    108c:	f8c3 20a8 	str.w	r2, [r3, #168]	; 0xa8
    1090:	f507 73e0 	add.w	r3, r7, #448	; 0x1c0
    1094:	f5a3 73e0 	sub.w	r3, r3, #448	; 0x1c0
    1098:	f04f 0201 	mov.w	r2, #1
    109c:	f8c3 20ac 	str.w	r2, [r3, #172]	; 0xac
    10a0:	f507 73e0 	add.w	r3, r7, #448	; 0x1c0
    10a4:	f5a3 73e0 	sub.w	r3, r3, #448	; 0x1c0
    10a8:	f8df 2434 	ldr.w	r2, [pc, #1076]	; 14e0 <test_properties+0x61c>
    10ac:	447a      	add	r2, pc
    10ae:	f8c3 20b4 	str.w	r2, [r3, #180]	; 0xb4
    10b2:	f507 73e0 	add.w	r3, r7, #448	; 0x1c0
    10b6:	f5a3 73e0 	sub.w	r3, r3, #448	; 0x1c0
    10ba:	f8df 2428 	ldr.w	r2, [pc, #1064]	; 14e4 <test_properties+0x620>
    10be:	447a      	add	r2, pc
    10c0:	f8c3 20c0 	str.w	r2, [r3, #192]	; 0xc0
    10c4:	f507 73e0 	add.w	r3, r7, #448	; 0x1c0
    10c8:	f5a3 73e0 	sub.w	r3, r3, #448	; 0x1c0
    10cc:	f04f 0201 	mov.w	r2, #1
    10d0:	f8c3 20c4 	str.w	r2, [r3, #196]	; 0xc4
    10d4:	f507 73e0 	add.w	r3, r7, #448	; 0x1c0
    10d8:	f5a3 73e0 	sub.w	r3, r3, #448	; 0x1c0
    10dc:	f8df 2408 	ldr.w	r2, [pc, #1032]	; 14e8 <test_properties+0x624>
    10e0:	447a      	add	r2, pc
    10e2:	f8c3 20cc 	str.w	r2, [r3, #204]	; 0xcc
    10e6:	f507 73e0 	add.w	r3, r7, #448	; 0x1c0
    10ea:	f5a3 73e0 	sub.w	r3, r3, #448	; 0x1c0
    10ee:	f04f 0204 	mov.w	r2, #4
    10f2:	f8c3 20d0 	str.w	r2, [r3, #208]	; 0xd0
    10f6:	f507 73e0 	add.w	r3, r7, #448	; 0x1c0
    10fa:	f5a3 73e0 	sub.w	r3, r3, #448	; 0x1c0
    10fe:	4afb      	ldr	r2, [pc, #1004]	; (14ec <test_properties+0x628>)
    1100:	447a      	add	r2, pc
    1102:	f8c3 20d8 	str.w	r2, [r3, #216]	; 0xd8
    1106:	f507 73e0 	add.w	r3, r7, #448	; 0x1c0
    110a:	f5a3 73e0 	sub.w	r3, r3, #448	; 0x1c0
    110e:	f04f 0201 	mov.w	r2, #1
    1112:	f8c3 20dc 	str.w	r2, [r3, #220]	; 0xdc
    1116:	f507 73e0 	add.w	r3, r7, #448	; 0x1c0
    111a:	f5a3 73e0 	sub.w	r3, r3, #448	; 0x1c0
    111e:	4af4      	ldr	r2, [pc, #976]	; (14f0 <test_properties+0x62c>)
    1120:	447a      	add	r2, pc
    1122:	f8c3 20e4 	str.w	r2, [r3, #228]	; 0xe4
    1126:	f507 73e0 	add.w	r3, r7, #448	; 0x1c0
    112a:	f5a3 73e0 	sub.w	r3, r3, #448	; 0x1c0
    112e:	f04f 0204 	mov.w	r2, #4
    1132:	f8c3 20e8 	str.w	r2, [r3, #232]	; 0xe8
    1136:	f507 73e0 	add.w	r3, r7, #448	; 0x1c0
    113a:	f5a3 73e0 	sub.w	r3, r3, #448	; 0x1c0
    113e:	4aed      	ldr	r2, [pc, #948]	; (14f4 <test_properties+0x630>)
    1140:	447a      	add	r2, pc
    1142:	f8c3 20f0 	str.w	r2, [r3, #240]	; 0xf0
    1146:	f507 73e0 	add.w	r3, r7, #448	; 0x1c0
    114a:	f5a3 73e0 	sub.w	r3, r3, #448	; 0x1c0
    114e:	f04f 0204 	mov.w	r2, #4
    1152:	f8c3 20f4 	str.w	r2, [r3, #244]	; 0xf4
    1156:	f507 73e0 	add.w	r3, r7, #448	; 0x1c0
    115a:	f5a3 73e0 	sub.w	r3, r3, #448	; 0x1c0
    115e:	4ae6      	ldr	r2, [pc, #920]	; (14f8 <test_properties+0x634>)
    1160:	447a      	add	r2, pc
    1162:	f8c3 20fc 	str.w	r2, [r3, #252]	; 0xfc
    1166:	f507 73e0 	add.w	r3, r7, #448	; 0x1c0
    116a:	f5a3 73e0 	sub.w	r3, r3, #448	; 0x1c0
    116e:	f04f 0201 	mov.w	r2, #1
    1172:	f8c3 2100 	str.w	r2, [r3, #256]	; 0x100
    1176:	f507 73e0 	add.w	r3, r7, #448	; 0x1c0
    117a:	f5a3 73e0 	sub.w	r3, r3, #448	; 0x1c0
    117e:	4adf      	ldr	r2, [pc, #892]	; (14fc <test_properties+0x638>)
    1180:	447a      	add	r2, pc
    1182:	f8c3 2108 	str.w	r2, [r3, #264]	; 0x108
    1186:	f507 73e0 	add.w	r3, r7, #448	; 0x1c0
    118a:	f5a3 73e0 	sub.w	r3, r3, #448	; 0x1c0
    118e:	f04f 0204 	mov.w	r2, #4
    1192:	f8c3 210c 	str.w	r2, [r3, #268]	; 0x10c
    1196:	f507 73e0 	add.w	r3, r7, #448	; 0x1c0
    119a:	f5a3 73e0 	sub.w	r3, r3, #448	; 0x1c0
    119e:	4ad8      	ldr	r2, [pc, #864]	; (1500 <test_properties+0x63c>)
    11a0:	447a      	add	r2, pc
    11a2:	f8c3 2114 	str.w	r2, [r3, #276]	; 0x114
    11a6:	f507 73e0 	add.w	r3, r7, #448	; 0x1c0
    11aa:	f5a3 73e0 	sub.w	r3, r3, #448	; 0x1c0
    11ae:	4ad5      	ldr	r2, [pc, #852]	; (1504 <test_properties+0x640>)
    11b0:	447a      	add	r2, pc
    11b2:	f8c3 2120 	str.w	r2, [r3, #288]	; 0x120
    11b6:	f507 73e0 	add.w	r3, r7, #448	; 0x1c0
    11ba:	f5a3 73e0 	sub.w	r3, r3, #448	; 0x1c0
    11be:	f04f 0201 	mov.w	r2, #1
    11c2:	f8c3 2124 	str.w	r2, [r3, #292]	; 0x124
    11c6:	f507 73e0 	add.w	r3, r7, #448	; 0x1c0
    11ca:	f5a3 73e0 	sub.w	r3, r3, #448	; 0x1c0
    11ce:	4ace      	ldr	r2, [pc, #824]	; (1508 <test_properties+0x644>)
    11d0:	447a      	add	r2, pc
    11d2:	f8c3 212c 	str.w	r2, [r3, #300]	; 0x12c
    11d6:	f507 73e0 	add.w	r3, r7, #448	; 0x1c0
    11da:	f5a3 73e0 	sub.w	r3, r3, #448	; 0x1c0
    11de:	f04f 0202 	mov.w	r2, #2
    11e2:	f8c3 2130 	str.w	r2, [r3, #304]	; 0x130
    11e6:	f507 73e0 	add.w	r3, r7, #448	; 0x1c0
    11ea:	f5a3 73e0 	sub.w	r3, r3, #448	; 0x1c0
    11ee:	4ac7      	ldr	r2, [pc, #796]	; (150c <test_properties+0x648>)
    11f0:	447a      	add	r2, pc
    11f2:	f8c3 2138 	str.w	r2, [r3, #312]	; 0x138
    11f6:	f507 73e0 	add.w	r3, r7, #448	; 0x1c0
    11fa:	f5a3 73e0 	sub.w	r3, r3, #448	; 0x1c0
    11fe:	f04f 0203 	mov.w	r2, #3
    1202:	f8c3 213c 	str.w	r2, [r3, #316]	; 0x13c
    1206:	f507 73e0 	add.w	r3, r7, #448	; 0x1c0
    120a:	f5a3 73e0 	sub.w	r3, r3, #448	; 0x1c0
    120e:	4ac0      	ldr	r2, [pc, #768]	; (1510 <test_properties+0x64c>)
    1210:	447a      	add	r2, pc
    1212:	f8c3 2144 	str.w	r2, [r3, #324]	; 0x144
    1216:	f507 73e0 	add.w	r3, r7, #448	; 0x1c0
    121a:	f5a3 73e0 	sub.w	r3, r3, #448	; 0x1c0
    121e:	f04f 0204 	mov.w	r2, #4
    1222:	f8c3 2148 	str.w	r2, [r3, #328]	; 0x148
    1226:	f507 73e0 	add.w	r3, r7, #448	; 0x1c0
    122a:	f5a3 73e0 	sub.w	r3, r3, #448	; 0x1c0
    122e:	4ab9      	ldr	r2, [pc, #740]	; (1514 <test_properties+0x650>)
    1230:	447a      	add	r2, pc
    1232:	f8c3 2150 	str.w	r2, [r3, #336]	; 0x150
    1236:	f507 73e0 	add.w	r3, r7, #448	; 0x1c0
    123a:	f5a3 73e0 	sub.w	r3, r3, #448	; 0x1c0
    123e:	f04f 0205 	mov.w	r2, #5
    1242:	f8c3 2154 	str.w	r2, [r3, #340]	; 0x154
    1246:	f507 73e0 	add.w	r3, r7, #448	; 0x1c0
    124a:	f5a3 73e0 	sub.w	r3, r3, #448	; 0x1c0
    124e:	4ab2      	ldr	r2, [pc, #712]	; (1518 <test_properties+0x654>)
    1250:	447a      	add	r2, pc
    1252:	f8c3 215c 	str.w	r2, [r3, #348]	; 0x15c
    1256:	f507 73e0 	add.w	r3, r7, #448	; 0x1c0
    125a:	f5a3 73e0 	sub.w	r3, r3, #448	; 0x1c0
    125e:	f04f 0205 	mov.w	r2, #5
    1262:	f8c3 2160 	str.w	r2, [r3, #352]	; 0x160
    1266:	f507 73e0 	add.w	r3, r7, #448	; 0x1c0
    126a:	f5a3 73e0 	sub.w	r3, r3, #448	; 0x1c0
    126e:	4aab      	ldr	r2, [pc, #684]	; (151c <test_properties+0x658>)
    1270:	447a      	add	r2, pc
    1272:	f8c3 2168 	str.w	r2, [r3, #360]	; 0x168
    1276:	f507 73e0 	add.w	r3, r7, #448	; 0x1c0
    127a:	f5a3 73e0 	sub.w	r3, r3, #448	; 0x1c0
    127e:	f04f 0205 	mov.w	r2, #5
    1282:	f8c3 216c 	str.w	r2, [r3, #364]	; 0x16c
    1286:	f507 73e0 	add.w	r3, r7, #448	; 0x1c0
    128a:	f5a3 73e0 	sub.w	r3, r3, #448	; 0x1c0
    128e:	4aa4      	ldr	r2, [pc, #656]	; (1520 <test_properties+0x65c>)
    1290:	447a      	add	r2, pc
    1292:	f8c3 2174 	str.w	r2, [r3, #372]	; 0x174
    1296:	f507 73e0 	add.w	r3, r7, #448	; 0x1c0
    129a:	f5a3 73e0 	sub.w	r3, r3, #448	; 0x1c0
    129e:	f04f 0205 	mov.w	r2, #5
    12a2:	f8c3 2178 	str.w	r2, [r3, #376]	; 0x178
    12a6:	f507 73e0 	add.w	r3, r7, #448	; 0x1c0
    12aa:	f5a3 73e0 	sub.w	r3, r3, #448	; 0x1c0
    12ae:	4a9d      	ldr	r2, [pc, #628]	; (1524 <test_properties+0x660>)
    12b0:	447a      	add	r2, pc
    12b2:	f8c3 2180 	str.w	r2, [r3, #384]	; 0x180
    12b6:	f507 73e0 	add.w	r3, r7, #448	; 0x1c0
    12ba:	f5a3 73e0 	sub.w	r3, r3, #448	; 0x1c0
    12be:	f04f 0205 	mov.w	r2, #5
    12c2:	f8c3 2184 	str.w	r2, [r3, #388]	; 0x184
    12c6:	f507 73e0 	add.w	r3, r7, #448	; 0x1c0
    12ca:	f5a3 73e0 	sub.w	r3, r3, #448	; 0x1c0
    12ce:	4a96      	ldr	r2, [pc, #600]	; (1528 <test_properties+0x664>)
    12d0:	447a      	add	r2, pc
    12d2:	f8c3 218c 	str.w	r2, [r3, #396]	; 0x18c
    12d6:	f507 73e0 	add.w	r3, r7, #448	; 0x1c0
    12da:	f5a3 73e0 	sub.w	r3, r3, #448	; 0x1c0
    12de:	f04f 0205 	mov.w	r2, #5
    12e2:	f8c3 2190 	str.w	r2, [r3, #400]	; 0x190
    12e6:	f507 73e0 	add.w	r3, r7, #448	; 0x1c0
    12ea:	f5a3 73e0 	sub.w	r3, r3, #448	; 0x1c0
    12ee:	4a8f      	ldr	r2, [pc, #572]	; (152c <test_properties+0x668>)
    12f0:	447a      	add	r2, pc
    12f2:	f8c3 2198 	str.w	r2, [r3, #408]	; 0x198
    12f6:	f507 73e0 	add.w	r3, r7, #448	; 0x1c0
    12fa:	f5a3 73e0 	sub.w	r3, r3, #448	; 0x1c0
    12fe:	f04f 0205 	mov.w	r2, #5
    1302:	f8c3 219c 	str.w	r2, [r3, #412]	; 0x19c
    1306:	f507 73e0 	add.w	r3, r7, #448	; 0x1c0
    130a:	f5a3 73e0 	sub.w	r3, r3, #448	; 0x1c0
    130e:	4a88      	ldr	r2, [pc, #544]	; (1530 <test_properties+0x66c>)
    1310:	447a      	add	r2, pc
    1312:	f8c3 21a4 	str.w	r2, [r3, #420]	; 0x1a4
    1316:	f507 73e0 	add.w	r3, r7, #448	; 0x1c0
    131a:	f5a3 73e0 	sub.w	r3, r3, #448	; 0x1c0
    131e:	f04f 0205 	mov.w	r2, #5
    1322:	f8c3 21a8 	str.w	r2, [r3, #424]	; 0x1a8
/home/qemu-sgx/devel/optee/out-br/build/optee_test_ext-1.0/ta/os_test/os_test.c:415
    1326:	f04f 0324 	mov.w	r3, #36	; 0x24
    132a:	f8c7 31b4 	str.w	r3, [r7, #436]	; 0x1b4
/home/qemu-sgx/devel/optee/out-br/build/optee_test_ext-1.0/ta/os_test/os_test.c:416
    132e:	f04f 0300 	mov.w	r3, #0
    1332:	f8c7 31b8 	str.w	r3, [r7, #440]	; 0x1b8
/home/qemu-sgx/devel/optee/out-br/build/optee_test_ext-1.0/ta/os_test/os_test.c:418
    1336:	f507 73d8 	add.w	r3, r7, #432	; 0x1b0
    133a:	4618      	mov	r0, r3
    133c:	f005 fa8f 	bl	685e <TEE_AllocatePropertyEnumerator>
    1340:	f8c7 01bc 	str.w	r0, [r7, #444]	; 0x1bc
/home/qemu-sgx/devel/optee/out-br/build/optee_test_ext-1.0/ta/os_test/os_test.c:419
    1344:	f8d7 31bc 	ldr.w	r3, [r7, #444]	; 0x1bc
    1348:	2b00      	cmp	r3, #0
    134a:	d014      	beq.n	1376 <test_properties+0x4b2>
/home/qemu-sgx/devel/optee/out-br/build/optee_test_ext-1.0/ta/os_test/os_test.c:420
    134c:	f8d7 31bc 	ldr.w	r3, [r7, #444]	; 0x1bc
    1350:	9301      	str	r3, [sp, #4]
    1352:	4b78      	ldr	r3, [pc, #480]	; (1534 <test_properties+0x670>)
    1354:	447b      	add	r3, pc
    1356:	9300      	str	r3, [sp, #0]
    1358:	f04f 0301 	mov.w	r3, #1
    135c:	f04f 0201 	mov.w	r2, #1
    1360:	f44f 71d2 	mov.w	r1, #420	; 0x1a4
    1364:	4874      	ldr	r0, [pc, #464]	; (1538 <test_properties+0x674>)
    1366:	4478      	add	r0, pc
    1368:	f01b ef04 	blx	1d174 <trace_printf@plt>
/home/qemu-sgx/devel/optee/out-br/build/optee_test_ext-1.0/ta/os_test/os_test.c:422
    136c:	f04f 0300 	mov.w	r3, #0
    1370:	f6cf 73ff 	movt	r3, #65535	; 0xffff
    1374:	e091      	b.n	149a <test_properties+0x5d6>
/home/qemu-sgx/devel/optee/out-br/build/optee_test_ext-1.0/ta/os_test/os_test.c:425
    1376:	4b71      	ldr	r3, [pc, #452]	; (153c <test_properties+0x678>)
    1378:	447b      	add	r3, pc
    137a:	4618      	mov	r0, r3
    137c:	f01b ef12 	blx	1d1a4 <puts@plt>
/home/qemu-sgx/devel/optee/out-br/build/optee_test_ext-1.0/ta/os_test/os_test.c:426
    1380:	f8d7 01b0 	ldr.w	r0, [r7, #432]	; 0x1b0
    1384:	463a      	mov	r2, r7
    1386:	f8d7 31b4 	ldr.w	r3, [r7, #436]	; 0x1b4
    138a:	f04f 31ff 	mov.w	r1, #4294967295	; 0xffffffff
    138e:	f7fe ff89 	bl	2a4 <print_properties>
    1392:	f8c7 01bc 	str.w	r0, [r7, #444]	; 0x1bc
/home/qemu-sgx/devel/optee/out-br/build/optee_test_ext-1.0/ta/os_test/os_test.c:427
    1396:	f8d7 31bc 	ldr.w	r3, [r7, #444]	; 0x1bc
    139a:	2b00      	cmp	r3, #0
    139c:	d171      	bne.n	1482 <test_properties+0x5be>
/home/qemu-sgx/devel/optee/out-br/build/optee_test_ext-1.0/ta/os_test/os_test.c:430
    139e:	4b68      	ldr	r3, [pc, #416]	; (1540 <test_properties+0x67c>)
    13a0:	447b      	add	r3, pc
    13a2:	4618      	mov	r0, r3
    13a4:	f01b eefe 	blx	1d1a4 <puts@plt>
/home/qemu-sgx/devel/optee/out-br/build/optee_test_ext-1.0/ta/os_test/os_test.c:431
    13a8:	f8d7 01b0 	ldr.w	r0, [r7, #432]	; 0x1b0
    13ac:	463a      	mov	r2, r7
    13ae:	f8d7 31b4 	ldr.w	r3, [r7, #436]	; 0x1b4
    13b2:	f06f 0101 	mvn.w	r1, #1
    13b6:	f7fe ff75 	bl	2a4 <print_properties>
    13ba:	f8c7 01bc 	str.w	r0, [r7, #444]	; 0x1bc
/home/qemu-sgx/devel/optee/out-br/build/optee_test_ext-1.0/ta/os_test/os_test.c:433
    13be:	f8d7 31bc 	ldr.w	r3, [r7, #444]	; 0x1bc
    13c2:	2b00      	cmp	r3, #0
    13c4:	d15f      	bne.n	1486 <test_properties+0x5c2>
/home/qemu-sgx/devel/optee/out-br/build/optee_test_ext-1.0/ta/os_test/os_test.c:436
    13c6:	4b5f      	ldr	r3, [pc, #380]	; (1544 <test_properties+0x680>)
    13c8:	447b      	add	r3, pc
    13ca:	4618      	mov	r0, r3
    13cc:	f01b eeea 	blx	1d1a4 <puts@plt>
/home/qemu-sgx/devel/optee/out-br/build/optee_test_ext-1.0/ta/os_test/os_test.c:437
    13d0:	f8d7 01b0 	ldr.w	r0, [r7, #432]	; 0x1b0
    13d4:	463a      	mov	r2, r7
    13d6:	f8d7 31b4 	ldr.w	r3, [r7, #436]	; 0x1b4
    13da:	f06f 0102 	mvn.w	r1, #2
    13de:	f7fe ff61 	bl	2a4 <print_properties>
    13e2:	f8c7 01bc 	str.w	r0, [r7, #444]	; 0x1bc
/home/qemu-sgx/devel/optee/out-br/build/optee_test_ext-1.0/ta/os_test/os_test.c:439
    13e6:	f8d7 31bc 	ldr.w	r3, [r7, #444]	; 0x1bc
    13ea:	2b00      	cmp	r3, #0
    13ec:	d14d      	bne.n	148a <test_properties+0x5c6>
/home/qemu-sgx/devel/optee/out-br/build/optee_test_ext-1.0/ta/os_test/os_test.c:442
    13ee:	f04f 0300 	mov.w	r3, #0
    13f2:	f8c7 31b8 	str.w	r3, [r7, #440]	; 0x1b8
    13f6:	e03d      	b.n	1474 <test_properties+0x5b0>
/home/qemu-sgx/devel/optee/out-br/build/optee_test_ext-1.0/ta/os_test/os_test.c:443
    13f8:	f507 73e0 	add.w	r3, r7, #448	; 0x1c0
    13fc:	f5a3 71e0 	sub.w	r1, r3, #448	; 0x1c0
    1400:	f8d7 21b8 	ldr.w	r2, [r7, #440]	; 0x1b8
    1404:	4613      	mov	r3, r2
    1406:	ea4f 0343 	mov.w	r3, r3, lsl #1
    140a:	4413      	add	r3, r2
    140c:	ea4f 0383 	mov.w	r3, r3, lsl #2
    1410:	440b      	add	r3, r1
    1412:	f103 0308 	add.w	r3, r3, #8
    1416:	781b      	ldrb	r3, [r3, #0]
    1418:	f083 0301 	eor.w	r3, r3, #1
    141c:	b2db      	uxtb	r3, r3
    141e:	2b00      	cmp	r3, #0
    1420:	d022      	beq.n	1468 <test_properties+0x5a4>
/home/qemu-sgx/devel/optee/out-br/build/optee_test_ext-1.0/ta/os_test/os_test.c:444
    1422:	f507 73e0 	add.w	r3, r7, #448	; 0x1c0
    1426:	f5a3 71e0 	sub.w	r1, r3, #448	; 0x1c0
    142a:	f8d7 21b8 	ldr.w	r2, [r7, #440]	; 0x1b8
    142e:	4613      	mov	r3, r2
    1430:	ea4f 0343 	mov.w	r3, r3, lsl #1
    1434:	4413      	add	r3, r2
    1436:	ea4f 0383 	mov.w	r3, r3, lsl #2
    143a:	440b      	add	r3, r1
    143c:	681b      	ldr	r3, [r3, #0]
    143e:	9301      	str	r3, [sp, #4]
    1440:	4b41      	ldr	r3, [pc, #260]	; (1548 <test_properties+0x684>)
    1442:	447b      	add	r3, pc
    1444:	9300      	str	r3, [sp, #0]
    1446:	f04f 0301 	mov.w	r3, #1
    144a:	f04f 0201 	mov.w	r2, #1
    144e:	f44f 71de 	mov.w	r1, #444	; 0x1bc
    1452:	483e      	ldr	r0, [pc, #248]	; (154c <test_properties+0x688>)
    1454:	4478      	add	r0, pc
    1456:	f01b ee8e 	blx	1d174 <trace_printf@plt>
/home/qemu-sgx/devel/optee/out-br/build/optee_test_ext-1.0/ta/os_test/os_test.c:445
    145a:	f04f 0300 	mov.w	r3, #0
    145e:	f6cf 73ff 	movt	r3, #65535	; 0xffff
    1462:	f8c7 31bc 	str.w	r3, [r7, #444]	; 0x1bc
/home/qemu-sgx/devel/optee/out-br/build/optee_test_ext-1.0/ta/os_test/os_test.c:446
    1466:	e011      	b.n	148c <test_properties+0x5c8>
/home/qemu-sgx/devel/optee/out-br/build/optee_test_ext-1.0/ta/os_test/os_test.c:442 (discriminator 2)
    1468:	f8d7 31b8 	ldr.w	r3, [r7, #440]	; 0x1b8
    146c:	f103 0301 	add.w	r3, r3, #1
    1470:	f8c7 31b8 	str.w	r3, [r7, #440]	; 0x1b8
/home/qemu-sgx/devel/optee/out-br/build/optee_test_ext-1.0/ta/os_test/os_test.c:442 (discriminator 1)
    1474:	f8d7 21b8 	ldr.w	r2, [r7, #440]	; 0x1b8
    1478:	f8d7 31b4 	ldr.w	r3, [r7, #436]	; 0x1b4
    147c:	429a      	cmp	r2, r3
    147e:	d3bb      	bcc.n	13f8 <test_properties+0x534>
/home/qemu-sgx/devel/optee/out-br/build/optee_test_ext-1.0/ta/os_test/os_test.c:450
    1480:	e004      	b.n	148c <test_properties+0x5c8>
/home/qemu-sgx/devel/optee/out-br/build/optee_test_ext-1.0/ta/os_test/os_test.c:428
    1482:	bf00      	nop
    1484:	e002      	b.n	148c <test_properties+0x5c8>
/home/qemu-sgx/devel/optee/out-br/build/optee_test_ext-1.0/ta/os_test/os_test.c:434
    1486:	bf00      	nop
    1488:	e000      	b.n	148c <test_properties+0x5c8>
/home/qemu-sgx/devel/optee/out-br/build/optee_test_ext-1.0/ta/os_test/os_test.c:440
    148a:	bf00      	nop
/home/qemu-sgx/devel/optee/out-br/build/optee_test_ext-1.0/ta/os_test/os_test.c:451
    148c:	f8d7 31b0 	ldr.w	r3, [r7, #432]	; 0x1b0
    1490:	4618      	mov	r0, r3
    1492:	f005 fa2e 	bl	68f2 <TEE_FreePropertyEnumerator>
/home/qemu-sgx/devel/optee/out-br/build/optee_test_ext-1.0/ta/os_test/os_test.c:452
    1496:	f8d7 31bc 	ldr.w	r3, [r7, #444]	; 0x1bc
/home/qemu-sgx/devel/optee/out-br/build/optee_test_ext-1.0/ta/os_test/os_test.c:453 (discriminator 1)
    149a:	4618      	mov	r0, r3
    149c:	f507 77e0 	add.w	r7, r7, #448	; 0x1c0
    14a0:	46bd      	mov	sp, r7
    14a2:	bd80      	pop	{r7, pc}
    14a4:	0001c8e0 	.word	0x0001c8e0
    14a8:	0001c8d2 	.word	0x0001c8d2
    14ac:	0001c8da 	.word	0x0001c8da
    14b0:	0001c8de 	.word	0x0001c8de
    14b4:	0001c8ea 	.word	0x0001c8ea
    14b8:	0001c8dc 	.word	0x0001c8dc
    14bc:	0001c8d2 	.word	0x0001c8d2
    14c0:	0001c8c4 	.word	0x0001c8c4
    14c4:	0001c8ba 	.word	0x0001c8ba
    14c8:	0001c8b0 	.word	0x0001c8b0
    14cc:	0001c8a6 	.word	0x0001c8a6
    14d0:	0001c89c 	.word	0x0001c89c
    14d4:	0001c88e 	.word	0x0001c88e
    14d8:	0001c890 	.word	0x0001c890
    14dc:	0001c89a 	.word	0x0001c89a
    14e0:	0001c894 	.word	0x0001c894
    14e4:	0001c89e 	.word	0x0001c89e
    14e8:	0001c8b0 	.word	0x0001c8b0
    14ec:	0001c8bc 	.word	0x0001c8bc
    14f0:	0001c8cc 	.word	0x0001c8cc
    14f4:	0001c8cc 	.word	0x0001c8cc
    14f8:	0001c8d4 	.word	0x0001c8d4
    14fc:	0001c8e4 	.word	0x0001c8e4
    1500:	0001c8e4 	.word	0x0001c8e4
    1504:	0001c8e0 	.word	0x0001c8e0
    1508:	0001c8cc 	.word	0x0001c8cc
    150c:	0001c8b8 	.word	0x0001c8b8
    1510:	0001c320 	.word	0x0001c320
    1514:	0001c420 	.word	0x0001c420
    1518:	0001c448 	.word	0x0001c448
    151c:	0001c448 	.word	0x0001c448
    1520:	0001c448 	.word	0x0001c448
    1524:	0001c448 	.word	0x0001c448
    1528:	0001c448 	.word	0x0001c448
    152c:	0001c444 	.word	0x0001c444
    1530:	0001c440 	.word	0x0001c440
    1534:	0001c760 	.word	0x0001c760
    1538:	0001d4f2 	.word	0x0001d4f2
    153c:	0001c76c 	.word	0x0001c76c
    1540:	0001c768 	.word	0x0001c768
    1544:	0001c768 	.word	0x0001c768
    1548:	0001c716 	.word	0x0001c716
    154c:	0001d404 	.word	0x0001d404

00001550 <test_mem_access_right>:
test_mem_access_right():
/home/qemu-sgx/devel/optee/out-br/build/optee_test_ext-1.0/ta/os_test/os_test.c:457
    1550:	e96d 7e02 	strd	r7, lr, [sp, #-8]!
    1554:	b09a      	sub	sp, #104	; 0x68
    1556:	af02      	add	r7, sp, #8
    1558:	6078      	str	r0, [r7, #4]
    155a:	6039      	str	r1, [r7, #0]
/home/qemu-sgx/devel/optee/out-br/build/optee_test_ext-1.0/ta/os_test/os_test.c:459
    155c:	f04f 0300 	mov.w	r3, #0
    1560:	f6cf 73ff 	movt	r3, #65535	; 0xffff
    1564:	65fb      	str	r3, [r7, #92]	; 0x5c
/home/qemu-sgx/devel/optee/out-br/build/optee_test_ext-1.0/ta/os_test/os_test.c:460
    1566:	f04f 0300 	mov.w	r3, #0
    156a:	653b      	str	r3, [r7, #80]	; 0x50
/home/qemu-sgx/devel/optee/out-br/build/optee_test_ext-1.0/ta/os_test/os_test.c:461
    156c:	f04f 0300 	mov.w	r3, #0
    1570:	65bb      	str	r3, [r7, #88]	; 0x58
/home/qemu-sgx/devel/optee/out-br/build/optee_test_ext-1.0/ta/os_test/os_test.c:462
    1572:	f107 0330 	add.w	r3, r7, #48	; 0x30
    1576:	efc0 0010 	vmov.i32	d16, #0	; 0x00000000
    157a:	edc3 0b00 	vstr	d16, [r3]
    157e:	edc3 0b02 	vstr	d16, [r3, #8]
    1582:	edc3 0b04 	vstr	d16, [r3, #16]
    1586:	edc3 0b06 	vstr	d16, [r3, #24]
/home/qemu-sgx/devel/optee/out-br/build/optee_test_ext-1.0/ta/os_test/os_test.c:463
    158a:	f04f 0300 	mov.w	r3, #0
    158e:	613b      	str	r3, [r7, #16]
    1590:	f107 0314 	add.w	r3, r7, #20
    1594:	efc0 0010 	vmov.i32	d16, #0	; 0x00000000
    1598:	edc3 0b00 	vstr	d16, [r3]
    159c:	edc3 0b02 	vstr	d16, [r3, #8]
    15a0:	edc3 0b04 	vstr	d16, [r3, #16]
    15a4:	edc3 0b05 	vstr	d16, [r3, #20]
/home/qemu-sgx/devel/optee/out-br/build/optee_test_ext-1.0/ta/os_test/os_test.c:464
    15a8:	f04f 0300 	mov.w	r3, #0
    15ac:	60fb      	str	r3, [r7, #12]
/home/qemu-sgx/devel/optee/out-br/build/optee_test_ext-1.0/ta/os_test/os_test.c:465
    15ae:	f04f 0300 	mov.w	r3, #0
    15b2:	657b      	str	r3, [r7, #84]	; 0x54
/home/qemu-sgx/devel/optee/out-br/build/optee_test_ext-1.0/ta/os_test/os_test.c:467
    15b4:	687b      	ldr	r3, [r7, #4]
    15b6:	2b05      	cmp	r3, #5
    15b8:	d004      	beq.n	15c4 <test_mem_access_right+0x74>
/home/qemu-sgx/devel/optee/out-br/build/optee_test_ext-1.0/ta/os_test/os_test.c:469
    15ba:	f04f 0300 	mov.w	r3, #0
    15be:	f6cf 73ff 	movt	r3, #65535	; 0xffff
    15c2:	e0ec      	b.n	179e <test_mem_access_right+0x24e>
/home/qemu-sgx/devel/optee/out-br/build/optee_test_ext-1.0/ta/os_test/os_test.c:472
    15c4:	683b      	ldr	r3, [r7, #0]
    15c6:	6819      	ldr	r1, [r3, #0]
    15c8:	683b      	ldr	r3, [r7, #0]
    15ca:	685b      	ldr	r3, [r3, #4]
    15cc:	461a      	mov	r2, r3
    15ce:	f04f 0005 	mov.w	r0, #5
    15d2:	f01b ee30 	blx	1d234 <TEE_CheckMemoryAccessRights@plt>
    15d6:	65f8      	str	r0, [r7, #92]	; 0x5c
/home/qemu-sgx/devel/optee/out-br/build/optee_test_ext-1.0/ta/os_test/os_test.c:476
    15d8:	6dfb      	ldr	r3, [r7, #92]	; 0x5c
    15da:	2b00      	cmp	r3, #0
    15dc:	d001      	beq.n	15e2 <test_mem_access_right+0x92>
/home/qemu-sgx/devel/optee/out-br/build/optee_test_ext-1.0/ta/os_test/os_test.c:477
    15de:	6dfb      	ldr	r3, [r7, #92]	; 0x5c
    15e0:	e0dd      	b.n	179e <test_mem_access_right+0x24e>
/home/qemu-sgx/devel/optee/out-br/build/optee_test_ext-1.0/ta/os_test/os_test.c:479
    15e2:	683b      	ldr	r3, [r7, #0]
    15e4:	6819      	ldr	r1, [r3, #0]
    15e6:	683b      	ldr	r3, [r7, #0]
    15e8:	685b      	ldr	r3, [r3, #4]
    15ea:	461a      	mov	r2, r3
    15ec:	f04f 0001 	mov.w	r0, #1
    15f0:	f01b ee20 	blx	1d234 <TEE_CheckMemoryAccessRights@plt>
    15f4:	65f8      	str	r0, [r7, #92]	; 0x5c
/home/qemu-sgx/devel/optee/out-br/build/optee_test_ext-1.0/ta/os_test/os_test.c:482
    15f6:	6dfa      	ldr	r2, [r7, #92]	; 0x5c
    15f8:	f04f 0301 	mov.w	r3, #1
    15fc:	f6cf 73ff 	movt	r3, #65535	; 0xffff
    1600:	429a      	cmp	r2, r3
    1602:	d004      	beq.n	160e <test_mem_access_right+0xbe>
/home/qemu-sgx/devel/optee/out-br/build/optee_test_ext-1.0/ta/os_test/os_test.c:483
    1604:	f04f 0300 	mov.w	r3, #0
    1608:	f6cf 73ff 	movt	r3, #65535	; 0xffff
    160c:	e0c7      	b.n	179e <test_mem_access_right+0x24e>
/home/qemu-sgx/devel/optee/out-br/build/optee_test_ext-1.0/ta/os_test/os_test.c:486
    160e:	f04f 0210 	mov.w	r2, #16
    1612:	4b65      	ldr	r3, [pc, #404]	; (17a8 <test_mem_access_right+0x258>)
    1614:	447b      	add	r3, pc
    1616:	4619      	mov	r1, r3
    1618:	f04f 0001 	mov.w	r0, #1
    161c:	f01b ee0a 	blx	1d234 <TEE_CheckMemoryAccessRights@plt>
    1620:	65f8      	str	r0, [r7, #92]	; 0x5c
/home/qemu-sgx/devel/optee/out-br/build/optee_test_ext-1.0/ta/os_test/os_test.c:488
    1622:	6dfb      	ldr	r3, [r7, #92]	; 0x5c
    1624:	2b00      	cmp	r3, #0
    1626:	d001      	beq.n	162c <test_mem_access_right+0xdc>
/home/qemu-sgx/devel/optee/out-br/build/optee_test_ext-1.0/ta/os_test/os_test.c:489
    1628:	6dfb      	ldr	r3, [r7, #92]	; 0x5c
    162a:	e0b8      	b.n	179e <test_mem_access_right+0x24e>
/home/qemu-sgx/devel/optee/out-br/build/optee_test_ext-1.0/ta/os_test/os_test.c:491
    162c:	f04f 0210 	mov.w	r2, #16
    1630:	4b5e      	ldr	r3, [pc, #376]	; (17ac <test_mem_access_right+0x25c>)
    1632:	447b      	add	r3, pc
    1634:	4619      	mov	r1, r3
    1636:	f04f 0002 	mov.w	r0, #2
    163a:	f01b edfc 	blx	1d234 <TEE_CheckMemoryAccessRights@plt>
    163e:	65f8      	str	r0, [r7, #92]	; 0x5c
/home/qemu-sgx/devel/optee/out-br/build/optee_test_ext-1.0/ta/os_test/os_test.c:493
    1640:	6dfb      	ldr	r3, [r7, #92]	; 0x5c
    1642:	2b00      	cmp	r3, #0
    1644:	d104      	bne.n	1650 <test_mem_access_right+0x100>
/home/qemu-sgx/devel/optee/out-br/build/optee_test_ext-1.0/ta/os_test/os_test.c:494
    1646:	f04f 0300 	mov.w	r3, #0
    164a:	f6cf 73ff 	movt	r3, #65535	; 0xffff
    164e:	e0a6      	b.n	179e <test_mem_access_right+0x24e>
/home/qemu-sgx/devel/optee/out-br/build/optee_test_ext-1.0/ta/os_test/os_test.c:496
    1650:	f107 0350 	add.w	r3, r7, #80	; 0x50
    1654:	f04f 0204 	mov.w	r2, #4
    1658:	4619      	mov	r1, r3
    165a:	f04f 0003 	mov.w	r0, #3
    165e:	f01b edea 	blx	1d234 <TEE_CheckMemoryAccessRights@plt>
    1662:	65f8      	str	r0, [r7, #92]	; 0x5c
/home/qemu-sgx/devel/optee/out-br/build/optee_test_ext-1.0/ta/os_test/os_test.c:499
    1664:	6dfb      	ldr	r3, [r7, #92]	; 0x5c
    1666:	2b00      	cmp	r3, #0
    1668:	d001      	beq.n	166e <test_mem_access_right+0x11e>
/home/qemu-sgx/devel/optee/out-br/build/optee_test_ext-1.0/ta/os_test/os_test.c:500
    166a:	6dfb      	ldr	r3, [r7, #92]	; 0x5c
    166c:	e097      	b.n	179e <test_mem_access_right+0x24e>
/home/qemu-sgx/devel/optee/out-br/build/optee_test_ext-1.0/ta/os_test/os_test.c:502
    166e:	f04f 0100 	mov.w	r1, #0
    1672:	f04f 0010 	mov.w	r0, #16
    1676:	f01b edd8 	blx	1d228 <TEE_Malloc@plt>
    167a:	6578      	str	r0, [r7, #84]	; 0x54
/home/qemu-sgx/devel/optee/out-br/build/optee_test_ext-1.0/ta/os_test/os_test.c:503
    167c:	6d7b      	ldr	r3, [r7, #84]	; 0x54
    167e:	2b00      	cmp	r3, #0
    1680:	d104      	bne.n	168c <test_mem_access_right+0x13c>
/home/qemu-sgx/devel/optee/out-br/build/optee_test_ext-1.0/ta/os_test/os_test.c:504
    1682:	f04f 030c 	mov.w	r3, #12
    1686:	f6cf 73ff 	movt	r3, #65535	; 0xffff
    168a:	e088      	b.n	179e <test_mem_access_right+0x24e>
/home/qemu-sgx/devel/optee/out-br/build/optee_test_ext-1.0/ta/os_test/os_test.c:506
    168c:	f04f 0210 	mov.w	r2, #16
    1690:	6d79      	ldr	r1, [r7, #84]	; 0x54
    1692:	f04f 0003 	mov.w	r0, #3
    1696:	f01b edce 	blx	1d234 <TEE_CheckMemoryAccessRights@plt>
    169a:	65f8      	str	r0, [r7, #92]	; 0x5c
/home/qemu-sgx/devel/optee/out-br/build/optee_test_ext-1.0/ta/os_test/os_test.c:509
    169c:	6d78      	ldr	r0, [r7, #84]	; 0x54
    169e:	f01b ee3c 	blx	1d318 <TEE_Free@plt>
/home/qemu-sgx/devel/optee/out-br/build/optee_test_ext-1.0/ta/os_test/os_test.c:510
    16a2:	6dfb      	ldr	r3, [r7, #92]	; 0x5c
    16a4:	2b00      	cmp	r3, #0
    16a6:	d001      	beq.n	16ac <test_mem_access_right+0x15c>
/home/qemu-sgx/devel/optee/out-br/build/optee_test_ext-1.0/ta/os_test/os_test.c:511
    16a8:	6dfb      	ldr	r3, [r7, #92]	; 0x5c
    16aa:	e078      	b.n	179e <test_mem_access_right+0x24e>
/home/qemu-sgx/devel/optee/out-br/build/optee_test_ext-1.0/ta/os_test/os_test.c:514
    16ac:	f04f 0201 	mov.w	r2, #1
    16b0:	f04f 0100 	mov.w	r1, #0
    16b4:	f04f 0001 	mov.w	r0, #1
    16b8:	f01b edbc 	blx	1d234 <TEE_CheckMemoryAccessRights@plt>
    16bc:	65f8      	str	r0, [r7, #92]	; 0x5c
/home/qemu-sgx/devel/optee/out-br/build/optee_test_ext-1.0/ta/os_test/os_test.c:516
    16be:	6dfb      	ldr	r3, [r7, #92]	; 0x5c
    16c0:	2b00      	cmp	r3, #0
    16c2:	d104      	bne.n	16ce <test_mem_access_right+0x17e>
/home/qemu-sgx/devel/optee/out-br/build/optee_test_ext-1.0/ta/os_test/os_test.c:517
    16c4:	f04f 0300 	mov.w	r3, #0
    16c8:	f6cf 73ff 	movt	r3, #65535	; 0xffff
    16cc:	e067      	b.n	179e <test_mem_access_right+0x24e>
/home/qemu-sgx/devel/optee/out-br/build/optee_test_ext-1.0/ta/os_test/os_test.c:519
    16ce:	f04f 0201 	mov.w	r2, #1
    16d2:	f44f 2180 	mov.w	r1, #262144	; 0x40000
    16d6:	f04f 0001 	mov.w	r0, #1
    16da:	f01b edac 	blx	1d234 <TEE_CheckMemoryAccessRights@plt>
    16de:	65f8      	str	r0, [r7, #92]	; 0x5c
/home/qemu-sgx/devel/optee/out-br/build/optee_test_ext-1.0/ta/os_test/os_test.c:521
    16e0:	6dfb      	ldr	r3, [r7, #92]	; 0x5c
    16e2:	2b00      	cmp	r3, #0
    16e4:	d104      	bne.n	16f0 <test_mem_access_right+0x1a0>
/home/qemu-sgx/devel/optee/out-br/build/optee_test_ext-1.0/ta/os_test/os_test.c:522
    16e6:	f04f 0300 	mov.w	r3, #0
    16ea:	f6cf 73ff 	movt	r3, #65535	; 0xffff
    16ee:	e056      	b.n	179e <test_mem_access_right+0x24e>
/home/qemu-sgx/devel/optee/out-br/build/optee_test_ext-1.0/ta/os_test/os_test.c:524
    16f0:	f107 0350 	add.w	r3, r7, #80	; 0x50
    16f4:	9301      	str	r3, [sp, #4]
    16f6:	f107 030c 	add.w	r3, r7, #12
    16fa:	9300      	str	r3, [sp, #0]
    16fc:	f04f 0300 	mov.w	r3, #0
    1700:	f04f 0200 	mov.w	r2, #0
    1704:	f04f 31ff 	mov.w	r1, #4294967295	; 0xffffffff
    1708:	4829      	ldr	r0, [pc, #164]	; (17b0 <test_mem_access_right+0x260>)
    170a:	4478      	add	r0, pc
    170c:	f01b ee1c 	blx	1d348 <TEE_OpenTASession@plt>
    1710:	65f8      	str	r0, [r7, #92]	; 0x5c
/home/qemu-sgx/devel/optee/out-br/build/optee_test_ext-1.0/ta/os_test/os_test.c:526
    1712:	6dfb      	ldr	r3, [r7, #92]	; 0x5c
    1714:	2b00      	cmp	r3, #0
    1716:	d00d      	beq.n	1734 <test_mem_access_right+0x1e4>
/home/qemu-sgx/devel/optee/out-br/build/optee_test_ext-1.0/ta/os_test/os_test.c:527
    1718:	4b26      	ldr	r3, [pc, #152]	; (17b4 <test_mem_access_right+0x264>)
    171a:	447b      	add	r3, pc
    171c:	9300      	str	r3, [sp, #0]
    171e:	f04f 0301 	mov.w	r3, #1
    1722:	f04f 0201 	mov.w	r2, #1
    1726:	f240 210f 	movw	r1, #527	; 0x20f
    172a:	4823      	ldr	r0, [pc, #140]	; (17b8 <test_mem_access_right+0x268>)
    172c:	4478      	add	r0, pc
    172e:	f01b ed22 	blx	1d174 <trace_printf@plt>
/home/qemu-sgx/devel/optee/out-br/build/optee_test_ext-1.0/ta/os_test/os_test.c:528
    1732:	e02f      	b.n	1794 <test_mem_access_right+0x244>
/home/qemu-sgx/devel/optee/out-br/build/optee_test_ext-1.0/ta/os_test/os_test.c:531
    1734:	f04f 0355 	mov.w	r3, #85	; 0x55
    1738:	65bb      	str	r3, [r7, #88]	; 0x58
/home/qemu-sgx/devel/optee/out-br/build/optee_test_ext-1.0/ta/os_test/os_test.c:533
    173a:	f107 0310 	add.w	r3, r7, #16
    173e:	633b      	str	r3, [r7, #48]	; 0x30
/home/qemu-sgx/devel/optee/out-br/build/optee_test_ext-1.0/ta/os_test/os_test.c:534
    1740:	f04f 0320 	mov.w	r3, #32
    1744:	637b      	str	r3, [r7, #52]	; 0x34
/home/qemu-sgx/devel/optee/out-br/build/optee_test_ext-1.0/ta/os_test/os_test.c:535
    1746:	f04f 0300 	mov.w	r3, #0
    174a:	63bb      	str	r3, [r7, #56]	; 0x38
/home/qemu-sgx/devel/optee/out-br/build/optee_test_ext-1.0/ta/os_test/os_test.c:536
    174c:	f04f 0300 	mov.w	r3, #0
    1750:	63fb      	str	r3, [r7, #60]	; 0x3c
/home/qemu-sgx/devel/optee/out-br/build/optee_test_ext-1.0/ta/os_test/os_test.c:537
    1752:	68f8      	ldr	r0, [r7, #12]
    1754:	f107 0350 	add.w	r3, r7, #80	; 0x50
    1758:	9301      	str	r3, [sp, #4]
    175a:	f107 0330 	add.w	r3, r7, #48	; 0x30
    175e:	9300      	str	r3, [sp, #0]
    1760:	6dbb      	ldr	r3, [r7, #88]	; 0x58
    1762:	f04f 0208 	mov.w	r2, #8
    1766:	f04f 31ff 	mov.w	r1, #4294967295	; 0xffffffff
    176a:	f01b ece6 	blx	1d138 <TEE_InvokeTACommand@plt>
    176e:	65f8      	str	r0, [r7, #92]	; 0x5c
/home/qemu-sgx/devel/optee/out-br/build/optee_test_ext-1.0/ta/os_test/os_test.c:540
    1770:	6dfb      	ldr	r3, [r7, #92]	; 0x5c
    1772:	2b00      	cmp	r3, #0
    1774:	d00d      	beq.n	1792 <test_mem_access_right+0x242>
/home/qemu-sgx/devel/optee/out-br/build/optee_test_ext-1.0/ta/os_test/os_test.c:541
    1776:	4b11      	ldr	r3, [pc, #68]	; (17bc <test_mem_access_right+0x26c>)
    1778:	447b      	add	r3, pc
    177a:	9300      	str	r3, [sp, #0]
    177c:	f04f 0301 	mov.w	r3, #1
    1780:	f04f 0201 	mov.w	r2, #1
    1784:	f240 211d 	movw	r1, #541	; 0x21d
    1788:	480d      	ldr	r0, [pc, #52]	; (17c0 <test_mem_access_right+0x270>)
    178a:	4478      	add	r0, pc
    178c:	f01b ecf2 	blx	1d174 <trace_printf@plt>
/home/qemu-sgx/devel/optee/out-br/build/optee_test_ext-1.0/ta/os_test/os_test.c:542
    1790:	e000      	b.n	1794 <test_mem_access_right+0x244>
/home/qemu-sgx/devel/optee/out-br/build/optee_test_ext-1.0/ta/os_test/os_test.c:545
    1792:	bf00      	nop
/home/qemu-sgx/devel/optee/out-br/build/optee_test_ext-1.0/ta/os_test/os_test.c:546
    1794:	68fb      	ldr	r3, [r7, #12]
    1796:	4618      	mov	r0, r3
    1798:	f01b edf4 	blx	1d384 <TEE_CloseTASession@plt>
/home/qemu-sgx/devel/optee/out-br/build/optee_test_ext-1.0/ta/os_test/os_test.c:547
    179c:	6dfb      	ldr	r3, [r7, #92]	; 0x5c
/home/qemu-sgx/devel/optee/out-br/build/optee_test_ext-1.0/ta/os_test/os_test.c:548 (discriminator 1)
    179e:	4618      	mov	r0, r3
    17a0:	f107 0760 	add.w	r7, r7, #96	; 0x60
    17a4:	46bd      	mov	sp, r7
    17a6:	bd80      	pop	{r7, pc}
    17a8:	0001d254 	.word	0x0001d254
    17ac:	0001d236 	.word	0x0001d236
    17b0:	0001d15e 	.word	0x0001d15e
    17b4:	0001c452 	.word	0x0001c452
    17b8:	0001d14c 	.word	0x0001d14c
    17bc:	0001c428 	.word	0x0001c428
    17c0:	0001d0ee 	.word	0x0001d0ee

000017c4 <test_time>:
test_time():
/home/qemu-sgx/devel/optee/out-br/build/optee_test_ext-1.0/ta/os_test/os_test.c:551
    17c4:	e96d 7e02 	strd	r7, lr, [sp, #-8]!
    17c8:	b08c      	sub	sp, #48	; 0x30
    17ca:	af06      	add	r7, sp, #24
/home/qemu-sgx/devel/optee/out-br/build/optee_test_ext-1.0/ta/os_test/os_test.c:552
    17cc:	f04f 0300 	mov.w	r3, #0
    17d0:	f6cf 73ff 	movt	r3, #65535	; 0xffff
    17d4:	617b      	str	r3, [r7, #20]
/home/qemu-sgx/devel/optee/out-br/build/optee_test_ext-1.0/ta/os_test/os_test.c:553
    17d6:	f107 030c 	add.w	r3, r7, #12
    17da:	efc0 0010 	vmov.i32	d16, #0	; 0x00000000
    17de:	edc3 0b00 	vstr	d16, [r3]
/home/qemu-sgx/devel/optee/out-br/build/optee_test_ext-1.0/ta/os_test/os_test.c:554
    17e2:	f107 0304 	add.w	r3, r7, #4
    17e6:	efc0 0010 	vmov.i32	d16, #0	; 0x00000000
    17ea:	edc3 0b00 	vstr	d16, [r3]
/home/qemu-sgx/devel/optee/out-br/build/optee_test_ext-1.0/ta/os_test/os_test.c:558
    17ee:	f107 0304 	add.w	r3, r7, #4
    17f2:	4618      	mov	r0, r3
    17f4:	f01b edc0 	blx	1d378 <TEE_GetSystemTime@plt>
/home/qemu-sgx/devel/optee/out-br/build/optee_test_ext-1.0/ta/os_test/os_test.c:559
    17f8:	687b      	ldr	r3, [r7, #4]
/home/qemu-sgx/devel/optee/out-br/build/optee_test_ext-1.0/ta/os_test/os_test.c:560
    17fa:	68ba      	ldr	r2, [r7, #8]
/home/qemu-sgx/devel/optee/out-br/build/optee_test_ext-1.0/ta/os_test/os_test.c:559
    17fc:	4619      	mov	r1, r3
    17fe:	4ba0      	ldr	r3, [pc, #640]	; (1a80 <test_time+0x2bc>)
    1800:	447b      	add	r3, pc
    1802:	4618      	mov	r0, r3
    1804:	f01b ec92 	blx	1d12c <printf@plt>
/home/qemu-sgx/devel/optee/out-br/build/optee_test_ext-1.0/ta/os_test/os_test.c:562
    1808:	f107 030c 	add.w	r3, r7, #12
    180c:	4618      	mov	r0, r3
    180e:	f01b ecd0 	blx	1d1b0 <TEE_GetREETime@plt>
/home/qemu-sgx/devel/optee/out-br/build/optee_test_ext-1.0/ta/os_test/os_test.c:563
    1812:	68fb      	ldr	r3, [r7, #12]
/home/qemu-sgx/devel/optee/out-br/build/optee_test_ext-1.0/ta/os_test/os_test.c:564
    1814:	693a      	ldr	r2, [r7, #16]
/home/qemu-sgx/devel/optee/out-br/build/optee_test_ext-1.0/ta/os_test/os_test.c:563
    1816:	4619      	mov	r1, r3
    1818:	4b9a      	ldr	r3, [pc, #616]	; (1a84 <test_time+0x2c0>)
    181a:	447b      	add	r3, pc
    181c:	4618      	mov	r0, r3
    181e:	f01b ec86 	blx	1d12c <printf@plt>
/home/qemu-sgx/devel/optee/out-br/build/optee_test_ext-1.0/ta/os_test/os_test.c:566
    1822:	f107 030c 	add.w	r3, r7, #12
    1826:	4618      	mov	r0, r3
    1828:	f01b ed4c 	blx	1d2c4 <TEE_GetTAPersistentTime@plt>
    182c:	6178      	str	r0, [r7, #20]
/home/qemu-sgx/devel/optee/out-br/build/optee_test_ext-1.0/ta/os_test/os_test.c:567
    182e:	697a      	ldr	r2, [r7, #20]
    1830:	f245 0301 	movw	r3, #20481	; 0x5001
    1834:	f6cf 73ff 	movt	r3, #65535	; 0xffff
    1838:	429a      	cmp	r2, r3
    183a:	d042      	beq.n	18c2 <test_time+0xfe>
    183c:	697a      	ldr	r2, [r7, #20]
    183e:	f245 0301 	movw	r3, #20481	; 0x5001
    1842:	f6cf 73ff 	movt	r3, #65535	; 0xffff
    1846:	429a      	cmp	r2, r3
    1848:	d849      	bhi.n	18de <test_time+0x11a>
    184a:	697b      	ldr	r3, [r7, #20]
    184c:	f513 4f30 	cmn.w	r3, #45056	; 0xb000
    1850:	d029      	beq.n	18a6 <test_time+0xe2>
    1852:	697b      	ldr	r3, [r7, #20]
    1854:	f513 4f30 	cmn.w	r3, #45056	; 0xb000
    1858:	d841      	bhi.n	18de <test_time+0x11a>
    185a:	697b      	ldr	r3, [r7, #20]
    185c:	2b00      	cmp	r3, #0
    185e:	d007      	beq.n	1870 <test_time+0xac>
    1860:	697a      	ldr	r2, [r7, #20]
    1862:	f243 030f 	movw	r3, #12303	; 0x300f
    1866:	f6cf 73ff 	movt	r3, #65535	; 0xffff
    186a:	429a      	cmp	r2, r3
    186c:	d009      	beq.n	1882 <test_time+0xbe>
    186e:	e036      	b.n	18de <test_time+0x11a>
/home/qemu-sgx/devel/optee/out-br/build/optee_test_ext-1.0/ta/os_test/os_test.c:569
    1870:	68fb      	ldr	r3, [r7, #12]
/home/qemu-sgx/devel/optee/out-br/build/optee_test_ext-1.0/ta/os_test/os_test.c:570
    1872:	693a      	ldr	r2, [r7, #16]
/home/qemu-sgx/devel/optee/out-br/build/optee_test_ext-1.0/ta/os_test/os_test.c:569
    1874:	4619      	mov	r1, r3
    1876:	4b84      	ldr	r3, [pc, #528]	; (1a88 <test_time+0x2c4>)
    1878:	447b      	add	r3, pc
    187a:	4618      	mov	r0, r3
    187c:	f01b ec56 	blx	1d12c <printf@plt>
/home/qemu-sgx/devel/optee/out-br/build/optee_test_ext-1.0/ta/os_test/os_test.c:571
    1880:	e02f      	b.n	18e2 <test_time+0x11e>
/home/qemu-sgx/devel/optee/out-br/build/optee_test_ext-1.0/ta/os_test/os_test.c:573
    1882:	68fb      	ldr	r3, [r7, #12]
    1884:	693a      	ldr	r2, [r7, #16]
    1886:	9202      	str	r2, [sp, #8]
    1888:	9301      	str	r3, [sp, #4]
    188a:	4b80      	ldr	r3, [pc, #512]	; (1a8c <test_time+0x2c8>)
    188c:	447b      	add	r3, pc
    188e:	9300      	str	r3, [sp, #0]
    1890:	f04f 0301 	mov.w	r3, #1
    1894:	f04f 0201 	mov.w	r2, #1
    1898:	f240 213d 	movw	r1, #573	; 0x23d
    189c:	487c      	ldr	r0, [pc, #496]	; (1a90 <test_time+0x2cc>)
    189e:	4478      	add	r0, pc
    18a0:	f01b ec68 	blx	1d174 <trace_printf@plt>
/home/qemu-sgx/devel/optee/out-br/build/optee_test_ext-1.0/ta/os_test/os_test.c:575
    18a4:	e01d      	b.n	18e2 <test_time+0x11e>
/home/qemu-sgx/devel/optee/out-br/build/optee_test_ext-1.0/ta/os_test/os_test.c:577
    18a6:	4b7b      	ldr	r3, [pc, #492]	; (1a94 <test_time+0x2d0>)
    18a8:	447b      	add	r3, pc
    18aa:	9300      	str	r3, [sp, #0]
    18ac:	f04f 0301 	mov.w	r3, #1
    18b0:	f04f 0201 	mov.w	r2, #1
    18b4:	f240 2141 	movw	r1, #577	; 0x241
    18b8:	4877      	ldr	r0, [pc, #476]	; (1a98 <test_time+0x2d4>)
    18ba:	4478      	add	r0, pc
    18bc:	f01b ec5a 	blx	1d174 <trace_printf@plt>
/home/qemu-sgx/devel/optee/out-br/build/optee_test_ext-1.0/ta/os_test/os_test.c:578
    18c0:	e00f      	b.n	18e2 <test_time+0x11e>
/home/qemu-sgx/devel/optee/out-br/build/optee_test_ext-1.0/ta/os_test/os_test.c:580
    18c2:	4b76      	ldr	r3, [pc, #472]	; (1a9c <test_time+0x2d8>)
    18c4:	447b      	add	r3, pc
    18c6:	9300      	str	r3, [sp, #0]
    18c8:	f04f 0301 	mov.w	r3, #1
    18cc:	f04f 0201 	mov.w	r2, #1
    18d0:	f44f 7111 	mov.w	r1, #580	; 0x244
    18d4:	4872      	ldr	r0, [pc, #456]	; (1aa0 <test_time+0x2dc>)
    18d6:	4478      	add	r0, pc
    18d8:	f01b ec4c 	blx	1d174 <trace_printf@plt>
/home/qemu-sgx/devel/optee/out-br/build/optee_test_ext-1.0/ta/os_test/os_test.c:581
    18dc:	e001      	b.n	18e2 <test_time+0x11e>
/home/qemu-sgx/devel/optee/out-br/build/optee_test_ext-1.0/ta/os_test/os_test.c:583
    18de:	697b      	ldr	r3, [r7, #20]
    18e0:	e0c8      	b.n	1a74 <test_time+0x2b0>
/home/qemu-sgx/devel/optee/out-br/build/optee_test_ext-1.0/ta/os_test/os_test.c:586
    18e2:	4b70      	ldr	r3, [pc, #448]	; (1aa4 <test_time+0x2e0>)
    18e4:	447b      	add	r3, pc
    18e6:	4618      	mov	r0, r3
    18e8:	f01b ece0 	blx	1d2ac <TEE_SetTAPersistentTime@plt>
    18ec:	6178      	str	r0, [r7, #20]
/home/qemu-sgx/devel/optee/out-br/build/optee_test_ext-1.0/ta/os_test/os_test.c:587
    18ee:	697b      	ldr	r3, [r7, #20]
    18f0:	2b00      	cmp	r3, #0
    18f2:	d00e      	beq.n	1912 <test_time+0x14e>
/home/qemu-sgx/devel/optee/out-br/build/optee_test_ext-1.0/ta/os_test/os_test.c:588
    18f4:	4b6c      	ldr	r3, [pc, #432]	; (1aa8 <test_time+0x2e4>)
    18f6:	447b      	add	r3, pc
    18f8:	9300      	str	r3, [sp, #0]
    18fa:	f04f 0301 	mov.w	r3, #1
    18fe:	f04f 0201 	mov.w	r2, #1
    1902:	f44f 7113 	mov.w	r1, #588	; 0x24c
    1906:	4869      	ldr	r0, [pc, #420]	; (1aac <test_time+0x2e8>)
    1908:	4478      	add	r0, pc
    190a:	f01b ec34 	blx	1d174 <trace_printf@plt>
/home/qemu-sgx/devel/optee/out-br/build/optee_test_ext-1.0/ta/os_test/os_test.c:589
    190e:	697b      	ldr	r3, [r7, #20]
    1910:	e0b0      	b.n	1a74 <test_time+0x2b0>
/home/qemu-sgx/devel/optee/out-br/build/optee_test_ext-1.0/ta/os_test/os_test.c:592
    1912:	f107 030c 	add.w	r3, r7, #12
    1916:	4618      	mov	r0, r3
    1918:	f01b ecd4 	blx	1d2c4 <TEE_GetTAPersistentTime@plt>
    191c:	6178      	str	r0, [r7, #20]
/home/qemu-sgx/devel/optee/out-br/build/optee_test_ext-1.0/ta/os_test/os_test.c:593
    191e:	697b      	ldr	r3, [r7, #20]
    1920:	2b00      	cmp	r3, #0
    1922:	d00e      	beq.n	1942 <test_time+0x17e>
/home/qemu-sgx/devel/optee/out-br/build/optee_test_ext-1.0/ta/os_test/os_test.c:594
    1924:	4b62      	ldr	r3, [pc, #392]	; (1ab0 <test_time+0x2ec>)
    1926:	447b      	add	r3, pc
    1928:	9300      	str	r3, [sp, #0]
    192a:	f04f 0301 	mov.w	r3, #1
    192e:	f04f 0201 	mov.w	r2, #1
    1932:	f240 2152 	movw	r1, #594	; 0x252
    1936:	485f      	ldr	r0, [pc, #380]	; (1ab4 <test_time+0x2f0>)
    1938:	4478      	add	r0, pc
    193a:	f01b ec1c 	blx	1d174 <trace_printf@plt>
/home/qemu-sgx/devel/optee/out-br/build/optee_test_ext-1.0/ta/os_test/os_test.c:595
    193e:	697b      	ldr	r3, [r7, #20]
    1940:	e098      	b.n	1a74 <test_time+0x2b0>
/home/qemu-sgx/devel/optee/out-br/build/optee_test_ext-1.0/ta/os_test/os_test.c:597
    1942:	68fb      	ldr	r3, [r7, #12]
/home/qemu-sgx/devel/optee/out-br/build/optee_test_ext-1.0/ta/os_test/os_test.c:598
    1944:	693a      	ldr	r2, [r7, #16]
/home/qemu-sgx/devel/optee/out-br/build/optee_test_ext-1.0/ta/os_test/os_test.c:597
    1946:	4619      	mov	r1, r3
    1948:	4b5b      	ldr	r3, [pc, #364]	; (1ab8 <test_time+0x2f4>)
    194a:	447b      	add	r3, pc
    194c:	4618      	mov	r0, r3
    194e:	f01b ebee 	blx	1d12c <printf@plt>
/home/qemu-sgx/devel/optee/out-br/build/optee_test_ext-1.0/ta/os_test/os_test.c:604
    1952:	68fb      	ldr	r3, [r7, #12]
    1954:	2b01      	cmp	r3, #1
    1956:	d803      	bhi.n	1960 <test_time+0x19c>
/home/qemu-sgx/devel/optee/out-br/build/optee_test_ext-1.0/ta/os_test/os_test.c:604 (discriminator 1)
    1958:	693b      	ldr	r3, [r7, #16]
    195a:	f5b3 7f7a 	cmp.w	r3, #1000	; 0x3e8
    195e:	d315      	bcc.n	198c <test_time+0x1c8>
/home/qemu-sgx/devel/optee/out-br/build/optee_test_ext-1.0/ta/os_test/os_test.c:605
    1960:	68fb      	ldr	r3, [r7, #12]
    1962:	693a      	ldr	r2, [r7, #16]
    1964:	9202      	str	r2, [sp, #8]
    1966:	9301      	str	r3, [sp, #4]
    1968:	4b54      	ldr	r3, [pc, #336]	; (1abc <test_time+0x2f8>)
    196a:	447b      	add	r3, pc
    196c:	9300      	str	r3, [sp, #0]
    196e:	f04f 0301 	mov.w	r3, #1
    1972:	f04f 0201 	mov.w	r2, #1
    1976:	f240 215d 	movw	r1, #605	; 0x25d
    197a:	4851      	ldr	r0, [pc, #324]	; (1ac0 <test_time+0x2fc>)
    197c:	4478      	add	r0, pc
    197e:	f01b ebfa 	blx	1d174 <trace_printf@plt>
/home/qemu-sgx/devel/optee/out-br/build/optee_test_ext-1.0/ta/os_test/os_test.c:607
    1982:	f04f 0307 	mov.w	r3, #7
    1986:	f6cf 73ff 	movt	r3, #65535	; 0xffff
    198a:	e073      	b.n	1a74 <test_time+0x2b0>
/home/qemu-sgx/devel/optee/out-br/build/optee_test_ext-1.0/ta/os_test/os_test.c:610
    198c:	4b4d      	ldr	r3, [pc, #308]	; (1ac4 <test_time+0x300>)
    198e:	447b      	add	r3, pc
    1990:	4618      	mov	r0, r3
    1992:	f01b ec8c 	blx	1d2ac <TEE_SetTAPersistentTime@plt>
    1996:	6178      	str	r0, [r7, #20]
/home/qemu-sgx/devel/optee/out-br/build/optee_test_ext-1.0/ta/os_test/os_test.c:611
    1998:	697b      	ldr	r3, [r7, #20]
    199a:	2b00      	cmp	r3, #0
    199c:	d00e      	beq.n	19bc <test_time+0x1f8>
/home/qemu-sgx/devel/optee/out-br/build/optee_test_ext-1.0/ta/os_test/os_test.c:612
    199e:	4b4a      	ldr	r3, [pc, #296]	; (1ac8 <test_time+0x304>)
    19a0:	447b      	add	r3, pc
    19a2:	9300      	str	r3, [sp, #0]
    19a4:	f04f 0301 	mov.w	r3, #1
    19a8:	f04f 0201 	mov.w	r2, #1
    19ac:	f44f 7119 	mov.w	r1, #612	; 0x264
    19b0:	4846      	ldr	r0, [pc, #280]	; (1acc <test_time+0x308>)
    19b2:	4478      	add	r0, pc
    19b4:	f01b ebde 	blx	1d174 <trace_printf@plt>
/home/qemu-sgx/devel/optee/out-br/build/optee_test_ext-1.0/ta/os_test/os_test.c:613
    19b8:	697b      	ldr	r3, [r7, #20]
    19ba:	e05b      	b.n	1a74 <test_time+0x2b0>
/home/qemu-sgx/devel/optee/out-br/build/optee_test_ext-1.0/ta/os_test/os_test.c:616
    19bc:	f44f 707a 	mov.w	r0, #1000	; 0x3e8
    19c0:	f01b ec0e 	blx	1d1e0 <TEE_Wait@plt>
    19c4:	6178      	str	r0, [r7, #20]
/home/qemu-sgx/devel/optee/out-br/build/optee_test_ext-1.0/ta/os_test/os_test.c:617
    19c6:	697b      	ldr	r3, [r7, #20]
    19c8:	2b00      	cmp	r3, #0
    19ca:	d00c      	beq.n	19e6 <test_time+0x222>
/home/qemu-sgx/devel/optee/out-br/build/optee_test_ext-1.0/ta/os_test/os_test.c:618
    19cc:	4b40      	ldr	r3, [pc, #256]	; (1ad0 <test_time+0x30c>)
    19ce:	447b      	add	r3, pc
    19d0:	9300      	str	r3, [sp, #0]
    19d2:	f04f 0301 	mov.w	r3, #1
    19d6:	f04f 0201 	mov.w	r2, #1
    19da:	f240 216a 	movw	r1, #618	; 0x26a
    19de:	483d      	ldr	r0, [pc, #244]	; (1ad4 <test_time+0x310>)
    19e0:	4478      	add	r0, pc
    19e2:	f01b ebc8 	blx	1d174 <trace_printf@plt>
/home/qemu-sgx/devel/optee/out-br/build/optee_test_ext-1.0/ta/os_test/os_test.c:620
    19e6:	f107 030c 	add.w	r3, r7, #12
    19ea:	4618      	mov	r0, r3
    19ec:	f01b ec6a 	blx	1d2c4 <TEE_GetTAPersistentTime@plt>
    19f0:	6178      	str	r0, [r7, #20]
/home/qemu-sgx/devel/optee/out-br/build/optee_test_ext-1.0/ta/os_test/os_test.c:621
    19f2:	697a      	ldr	r2, [r7, #20]
    19f4:	f243 030f 	movw	r3, #12303	; 0x300f
    19f8:	f6cf 73ff 	movt	r3, #65535	; 0xffff
    19fc:	429a      	cmp	r2, r3
    19fe:	d011      	beq.n	1a24 <test_time+0x260>
/home/qemu-sgx/devel/optee/out-br/build/optee_test_ext-1.0/ta/os_test/os_test.c:622
    1a00:	4b35      	ldr	r3, [pc, #212]	; (1ad8 <test_time+0x314>)
    1a02:	447b      	add	r3, pc
    1a04:	9300      	str	r3, [sp, #0]
    1a06:	f04f 0301 	mov.w	r3, #1
    1a0a:	f04f 0201 	mov.w	r2, #1
    1a0e:	f240 216e 	movw	r1, #622	; 0x26e
    1a12:	4832      	ldr	r0, [pc, #200]	; (1adc <test_time+0x318>)
    1a14:	4478      	add	r0, pc
    1a16:	f01b ebae 	blx	1d174 <trace_printf@plt>
/home/qemu-sgx/devel/optee/out-br/build/optee_test_ext-1.0/ta/os_test/os_test.c:623
    1a1a:	f04f 0307 	mov.w	r3, #7
    1a1e:	f6cf 73ff 	movt	r3, #65535	; 0xffff
    1a22:	e027      	b.n	1a74 <test_time+0x2b0>
/home/qemu-sgx/devel/optee/out-br/build/optee_test_ext-1.0/ta/os_test/os_test.c:625
    1a24:	68fb      	ldr	r3, [r7, #12]
/home/qemu-sgx/devel/optee/out-br/build/optee_test_ext-1.0/ta/os_test/os_test.c:626
    1a26:	693a      	ldr	r2, [r7, #16]
/home/qemu-sgx/devel/optee/out-br/build/optee_test_ext-1.0/ta/os_test/os_test.c:625
    1a28:	4619      	mov	r1, r3
    1a2a:	4b2d      	ldr	r3, [pc, #180]	; (1ae0 <test_time+0x31c>)
    1a2c:	447b      	add	r3, pc
    1a2e:	4618      	mov	r0, r3
    1a30:	f01b eb7c 	blx	1d12c <printf@plt>
/home/qemu-sgx/devel/optee/out-br/build/optee_test_ext-1.0/ta/os_test/os_test.c:628
    1a34:	68fa      	ldr	r2, [r7, #12]
    1a36:	687b      	ldr	r3, [r7, #4]
    1a38:	429a      	cmp	r2, r3
    1a3a:	d919      	bls.n	1a70 <test_time+0x2ac>
/home/qemu-sgx/devel/optee/out-br/build/optee_test_ext-1.0/ta/os_test/os_test.c:629
    1a3c:	68fb      	ldr	r3, [r7, #12]
    1a3e:	693a      	ldr	r2, [r7, #16]
    1a40:	6879      	ldr	r1, [r7, #4]
    1a42:	68b8      	ldr	r0, [r7, #8]
    1a44:	9004      	str	r0, [sp, #16]
    1a46:	9103      	str	r1, [sp, #12]
    1a48:	9202      	str	r2, [sp, #8]
    1a4a:	9301      	str	r3, [sp, #4]
    1a4c:	4b25      	ldr	r3, [pc, #148]	; (1ae4 <test_time+0x320>)
    1a4e:	447b      	add	r3, pc
    1a50:	9300      	str	r3, [sp, #0]
    1a52:	f04f 0301 	mov.w	r3, #1
    1a56:	f04f 0201 	mov.w	r2, #1
    1a5a:	f240 2175 	movw	r1, #629	; 0x275
    1a5e:	4822      	ldr	r0, [pc, #136]	; (1ae8 <test_time+0x324>)
    1a60:	4478      	add	r0, pc
    1a62:	f01b eb88 	blx	1d174 <trace_printf@plt>
/home/qemu-sgx/devel/optee/out-br/build/optee_test_ext-1.0/ta/os_test/os_test.c:632
    1a66:	f04f 0307 	mov.w	r3, #7
    1a6a:	f6cf 73ff 	movt	r3, #65535	; 0xffff
    1a6e:	e001      	b.n	1a74 <test_time+0x2b0>
/home/qemu-sgx/devel/optee/out-br/build/optee_test_ext-1.0/ta/os_test/os_test.c:635
    1a70:	f04f 0300 	mov.w	r3, #0
/home/qemu-sgx/devel/optee/out-br/build/optee_test_ext-1.0/ta/os_test/os_test.c:636 (discriminator 1)
    1a74:	4618      	mov	r0, r3
    1a76:	f107 0718 	add.w	r7, r7, #24
    1a7a:	46bd      	mov	sp, r7
    1a7c:	bd80      	pop	{r7, pc}
    1a7e:	bf00      	nop
    1a80:	0001c3d4 	.word	0x0001c3d4
    1a84:	0001c3d2 	.word	0x0001c3d2
    1a88:	0001c388 	.word	0x0001c388
    1a8c:	0001c38c 	.word	0x0001c38c
    1a90:	0001cff2 	.word	0x0001cff2
    1a94:	0001c394 	.word	0x0001c394
    1a98:	0001cfd6 	.word	0x0001cfd6
    1a9c:	0001c38c 	.word	0x0001c38c
    1aa0:	0001cfba 	.word	0x0001cfba
    1aa4:	0001cfb8 	.word	0x0001cfb8
    1aa8:	0001c372 	.word	0x0001c372
    1aac:	0001cf88 	.word	0x0001cf88
    1ab0:	0001c366 	.word	0x0001c366
    1ab4:	0001cf58 	.word	0x0001cf58
    1ab8:	0001c36a 	.word	0x0001c36a
    1abc:	0001c35e 	.word	0x0001c35e
    1ac0:	0001cf14 	.word	0x0001cf14
    1ac4:	0001cf16 	.word	0x0001cf16
    1ac8:	0001c34c 	.word	0x0001c34c
    1acc:	0001cede 	.word	0x0001cede
    1ad0:	0001c346 	.word	0x0001c346
    1ad4:	0001ceb0 	.word	0x0001ceb0
    1ad8:	0001c32a 	.word	0x0001c32a
    1adc:	0001ce7c 	.word	0x0001ce7c
    1ae0:	0001c288 	.word	0x0001c288
    1ae4:	0001c302 	.word	0x0001c302
    1ae8:	0001ce30 	.word	0x0001ce30

00001aec <my_dcmpeq>:
my_dcmpeq():
/home/qemu-sgx/devel/optee/out-br/build/optee_test_ext-1.0/ta/os_test/os_test.c:640
    1aec:	f84d 7d04 	str.w	r7, [sp, #-4]!
    1af0:	b087      	sub	sp, #28
    1af2:	af00      	add	r7, sp, #0
    1af4:	ed87 0b04 	vstr	d0, [r7, #16]
    1af8:	ed87 1b02 	vstr	d1, [r7, #8]
    1afc:	ed87 2b00 	vstr	d2, [r7]
/home/qemu-sgx/devel/optee/out-br/build/optee_test_ext-1.0/ta/os_test/os_test.c:641
    1b00:	edd7 1b02 	vldr	d17, [r7, #8]
    1b04:	edd7 0b00 	vldr	d16, [r7]
    1b08:	ee71 0be0 	vsub.f64	d16, d17, d16
    1b0c:	edd7 1b04 	vldr	d17, [r7, #16]
    1b10:	eef4 1be0 	vcmpe.f64	d17, d16
    1b14:	eef1 fa10 	vmrs	APSR_nzcv, fpscr
    1b18:	dd0f      	ble.n	1b3a <my_dcmpeq+0x4e>
/home/qemu-sgx/devel/optee/out-br/build/optee_test_ext-1.0/ta/os_test/os_test.c:641 (discriminator 1)
    1b1a:	edd7 1b02 	vldr	d17, [r7, #8]
    1b1e:	edd7 0b00 	vldr	d16, [r7]
    1b22:	ee71 0ba0 	vadd.f64	d16, d17, d16
    1b26:	edd7 1b04 	vldr	d17, [r7, #16]
    1b2a:	eef4 1be0 	vcmpe.f64	d17, d16
    1b2e:	eef1 fa10 	vmrs	APSR_nzcv, fpscr
    1b32:	d502      	bpl.n	1b3a <my_dcmpeq+0x4e>
/home/qemu-sgx/devel/optee/out-br/build/optee_test_ext-1.0/ta/os_test/os_test.c:641 (discriminator 3)
    1b34:	f04f 0301 	mov.w	r3, #1
    1b38:	e001      	b.n	1b3e <my_dcmpeq+0x52>
/home/qemu-sgx/devel/optee/out-br/build/optee_test_ext-1.0/ta/os_test/os_test.c:641 (discriminator 4)
    1b3a:	f04f 0300 	mov.w	r3, #0
/home/qemu-sgx/devel/optee/out-br/build/optee_test_ext-1.0/ta/os_test/os_test.c:641 (discriminator 6)
    1b3e:	f003 0301 	and.w	r3, r3, #1
    1b42:	b2db      	uxtb	r3, r3
/home/qemu-sgx/devel/optee/out-br/build/optee_test_ext-1.0/ta/os_test/os_test.c:642 (discriminator 6)
    1b44:	4618      	mov	r0, r3
    1b46:	f107 071c 	add.w	r7, r7, #28
    1b4a:	46bd      	mov	sp, r7
    1b4c:	f85d 7b04 	ldr.w	r7, [sp], #4
    1b50:	4770      	bx	lr

00001b52 <my_fcmpeq>:
my_fcmpeq():
/home/qemu-sgx/devel/optee/out-br/build/optee_test_ext-1.0/ta/os_test/os_test.c:645
    1b52:	f84d 7d04 	str.w	r7, [sp, #-4]!
    1b56:	b085      	sub	sp, #20
    1b58:	af00      	add	r7, sp, #0
    1b5a:	ed87 0a03 	vstr	s0, [r7, #12]
    1b5e:	edc7 0a02 	vstr	s1, [r7, #8]
    1b62:	ed87 1a01 	vstr	s2, [r7, #4]
/home/qemu-sgx/devel/optee/out-br/build/optee_test_ext-1.0/ta/os_test/os_test.c:646
    1b66:	ed97 7a02 	vldr	s14, [r7, #8]
    1b6a:	edd7 7a01 	vldr	s15, [r7, #4]
    1b6e:	ee77 7a67 	vsub.f32	s15, s14, s15
    1b72:	ed97 7a03 	vldr	s14, [r7, #12]
    1b76:	eeb4 7ae7 	vcmpe.f32	s14, s15
    1b7a:	eef1 fa10 	vmrs	APSR_nzcv, fpscr
    1b7e:	dd0f      	ble.n	1ba0 <my_fcmpeq+0x4e>
/home/qemu-sgx/devel/optee/out-br/build/optee_test_ext-1.0/ta/os_test/os_test.c:646 (discriminator 1)
    1b80:	ed97 7a02 	vldr	s14, [r7, #8]
    1b84:	edd7 7a01 	vldr	s15, [r7, #4]
    1b88:	ee77 7a27 	vadd.f32	s15, s14, s15
    1b8c:	ed97 7a03 	vldr	s14, [r7, #12]
    1b90:	eeb4 7ae7 	vcmpe.f32	s14, s15
    1b94:	eef1 fa10 	vmrs	APSR_nzcv, fpscr
    1b98:	d502      	bpl.n	1ba0 <my_fcmpeq+0x4e>
/home/qemu-sgx/devel/optee/out-br/build/optee_test_ext-1.0/ta/os_test/os_test.c:646 (discriminator 3)
    1b9a:	f04f 0301 	mov.w	r3, #1
    1b9e:	e001      	b.n	1ba4 <my_fcmpeq+0x52>
/home/qemu-sgx/devel/optee/out-br/build/optee_test_ext-1.0/ta/os_test/os_test.c:646 (discriminator 4)
    1ba0:	f04f 0300 	mov.w	r3, #0
/home/qemu-sgx/devel/optee/out-br/build/optee_test_ext-1.0/ta/os_test/os_test.c:646 (discriminator 6)
    1ba4:	f003 0301 	and.w	r3, r3, #1
    1ba8:	b2db      	uxtb	r3, r3
/home/qemu-sgx/devel/optee/out-br/build/optee_test_ext-1.0/ta/os_test/os_test.c:647 (discriminator 6)
    1baa:	4618      	mov	r0, r3
    1bac:	f107 0714 	add.w	r7, r7, #20
    1bb0:	46bd      	mov	sp, r7
    1bb2:	f85d 7b04 	ldr.w	r7, [sp], #4
    1bb6:	4770      	bx	lr

00001bb8 <test_float>:
test_float():
/home/qemu-sgx/devel/optee/out-br/build/optee_test_ext-1.0/ta/os_test/os_test.c:651
    1bb8:	e96d 7e02 	strd	r7, lr, [sp, #-8]!
    1bbc:	b082      	sub	sp, #8
    1bbe:	af02      	add	r7, sp, #8
/home/qemu-sgx/devel/optee/out-br/build/optee_test_ext-1.0/ta/os_test/os_test.c:666
    1bc0:	ed9f 1bd1 	vldr	d1, [pc, #836]	; 1f08 <test_float+0x350>
    1bc4:	ed9f 0bd2 	vldr	d0, [pc, #840]	; 1f10 <test_float+0x358>
    1bc8:	f017 f837 	bl	18c3a <test_float_dadd>
    1bcc:	eef0 0b40 	vmov.f64	d16, d0
    1bd0:	ed9f 2bd1 	vldr	d2, [pc, #836]	; 1f18 <test_float+0x360>
    1bd4:	ed9f 1bd2 	vldr	d1, [pc, #840]	; 1f20 <test_float+0x368>
    1bd8:	eeb0 0b60 	vmov.f64	d0, d16
    1bdc:	f7ff ff86 	bl	1aec <my_dcmpeq>
    1be0:	4603      	mov	r3, r0
    1be2:	f083 0301 	eor.w	r3, r3, #1
    1be6:	b2db      	uxtb	r3, r3
    1be8:	2b00      	cmp	r3, #0
    1bea:	d015      	beq.n	1c18 <test_float+0x60>
/home/qemu-sgx/devel/optee/out-br/build/optee_test_ext-1.0/ta/os_test/os_test.c:666 (discriminator 1)
    1bec:	4bd7      	ldr	r3, [pc, #860]	; (1f4c <test_float+0x394>)
    1bee:	447b      	add	r3, pc
    1bf0:	9301      	str	r3, [sp, #4]
    1bf2:	4bd7      	ldr	r3, [pc, #860]	; (1f50 <test_float+0x398>)
    1bf4:	447b      	add	r3, pc
    1bf6:	9300      	str	r3, [sp, #0]
    1bf8:	f04f 0301 	mov.w	r3, #1
    1bfc:	f04f 0201 	mov.w	r2, #1
    1c00:	f240 219a 	movw	r1, #666	; 0x29a
    1c04:	48d3      	ldr	r0, [pc, #844]	; (1f54 <test_float+0x39c>)
    1c06:	4478      	add	r0, pc
    1c08:	f01b eab4 	blx	1d174 <trace_printf@plt>
    1c0c:	f04f 0300 	mov.w	r3, #0
    1c10:	f6cf 73ff 	movt	r3, #65535	; 0xffff
    1c14:	f000 be6f 	b.w	28f6 <test_float+0xd3e>
/home/qemu-sgx/devel/optee/out-br/build/optee_test_ext-1.0/ta/os_test/os_test.c:667
    1c18:	ed9f 1bbb 	vldr	d1, [pc, #748]	; 1f08 <test_float+0x350>
    1c1c:	ed9f 0bbc 	vldr	d0, [pc, #752]	; 1f10 <test_float+0x358>
    1c20:	f017 f821 	bl	18c66 <test_float_ddiv>
    1c24:	eef0 0b40 	vmov.f64	d16, d0
    1c28:	ed9f 2bbb 	vldr	d2, [pc, #748]	; 1f18 <test_float+0x360>
    1c2c:	ed9f 1bbe 	vldr	d1, [pc, #760]	; 1f28 <test_float+0x370>
    1c30:	eeb0 0b60 	vmov.f64	d0, d16
    1c34:	f7ff ff5a 	bl	1aec <my_dcmpeq>
    1c38:	4603      	mov	r3, r0
    1c3a:	f083 0301 	eor.w	r3, r3, #1
    1c3e:	b2db      	uxtb	r3, r3
    1c40:	2b00      	cmp	r3, #0
    1c42:	d015      	beq.n	1c70 <test_float+0xb8>
/home/qemu-sgx/devel/optee/out-br/build/optee_test_ext-1.0/ta/os_test/os_test.c:667 (discriminator 1)
    1c44:	4bc4      	ldr	r3, [pc, #784]	; (1f58 <test_float+0x3a0>)
    1c46:	447b      	add	r3, pc
    1c48:	9301      	str	r3, [sp, #4]
    1c4a:	4bc4      	ldr	r3, [pc, #784]	; (1f5c <test_float+0x3a4>)
    1c4c:	447b      	add	r3, pc
    1c4e:	9300      	str	r3, [sp, #0]
    1c50:	f04f 0301 	mov.w	r3, #1
    1c54:	f04f 0201 	mov.w	r2, #1
    1c58:	f240 219b 	movw	r1, #667	; 0x29b
    1c5c:	48c0      	ldr	r0, [pc, #768]	; (1f60 <test_float+0x3a8>)
    1c5e:	4478      	add	r0, pc
    1c60:	f01b ea88 	blx	1d174 <trace_printf@plt>
    1c64:	f04f 0300 	mov.w	r3, #0
    1c68:	f6cf 73ff 	movt	r3, #65535	; 0xffff
    1c6c:	f000 be43 	b.w	28f6 <test_float+0xd3e>
/home/qemu-sgx/devel/optee/out-br/build/optee_test_ext-1.0/ta/os_test/os_test.c:668
    1c70:	ed9f 1ba5 	vldr	d1, [pc, #660]	; 1f08 <test_float+0x350>
    1c74:	ed9f 0ba6 	vldr	d0, [pc, #664]	; 1f10 <test_float+0x358>
    1c78:	f017 f80d 	bl	18c96 <test_float_dmul>
    1c7c:	eef0 0b40 	vmov.f64	d16, d0
    1c80:	ed9f 2ba5 	vldr	d2, [pc, #660]	; 1f18 <test_float+0x360>
    1c84:	ed9f 1baa 	vldr	d1, [pc, #680]	; 1f30 <test_float+0x378>
    1c88:	eeb0 0b60 	vmov.f64	d0, d16
    1c8c:	f7ff ff2e 	bl	1aec <my_dcmpeq>
    1c90:	4603      	mov	r3, r0
    1c92:	f083 0301 	eor.w	r3, r3, #1
    1c96:	b2db      	uxtb	r3, r3
    1c98:	2b00      	cmp	r3, #0
    1c9a:	d015      	beq.n	1cc8 <test_float+0x110>
/home/qemu-sgx/devel/optee/out-br/build/optee_test_ext-1.0/ta/os_test/os_test.c:668 (discriminator 1)
    1c9c:	4bb1      	ldr	r3, [pc, #708]	; (1f64 <test_float+0x3ac>)
    1c9e:	447b      	add	r3, pc
    1ca0:	9301      	str	r3, [sp, #4]
    1ca2:	4bb1      	ldr	r3, [pc, #708]	; (1f68 <test_float+0x3b0>)
    1ca4:	447b      	add	r3, pc
    1ca6:	9300      	str	r3, [sp, #0]
    1ca8:	f04f 0301 	mov.w	r3, #1
    1cac:	f04f 0201 	mov.w	r2, #1
    1cb0:	f44f 7127 	mov.w	r1, #668	; 0x29c
    1cb4:	48ad      	ldr	r0, [pc, #692]	; (1f6c <test_float+0x3b4>)
    1cb6:	4478      	add	r0, pc
    1cb8:	f01b ea5c 	blx	1d174 <trace_printf@plt>
    1cbc:	f04f 0300 	mov.w	r3, #0
    1cc0:	f6cf 73ff 	movt	r3, #65535	; 0xffff
    1cc4:	f000 be17 	b.w	28f6 <test_float+0xd3e>
/home/qemu-sgx/devel/optee/out-br/build/optee_test_ext-1.0/ta/os_test/os_test.c:669
    1cc8:	ed9f 1b8f 	vldr	d1, [pc, #572]	; 1f08 <test_float+0x350>
    1ccc:	ed9f 0b90 	vldr	d0, [pc, #576]	; 1f10 <test_float+0x358>
    1cd0:	f016 fff7 	bl	18cc2 <test_float_drsub>
    1cd4:	eef0 0b40 	vmov.f64	d16, d0
    1cd8:	ed9f 2b8f 	vldr	d2, [pc, #572]	; 1f18 <test_float+0x360>
    1cdc:	ed9f 1b96 	vldr	d1, [pc, #600]	; 1f38 <test_float+0x380>
    1ce0:	eeb0 0b60 	vmov.f64	d0, d16
    1ce4:	f7ff ff02 	bl	1aec <my_dcmpeq>
    1ce8:	4603      	mov	r3, r0
    1cea:	f083 0301 	eor.w	r3, r3, #1
    1cee:	b2db      	uxtb	r3, r3
    1cf0:	2b00      	cmp	r3, #0
    1cf2:	d015      	beq.n	1d20 <test_float+0x168>
/home/qemu-sgx/devel/optee/out-br/build/optee_test_ext-1.0/ta/os_test/os_test.c:669 (discriminator 1)
    1cf4:	4b9e      	ldr	r3, [pc, #632]	; (1f70 <test_float+0x3b8>)
    1cf6:	447b      	add	r3, pc
    1cf8:	9301      	str	r3, [sp, #4]
    1cfa:	4b9e      	ldr	r3, [pc, #632]	; (1f74 <test_float+0x3bc>)
    1cfc:	447b      	add	r3, pc
    1cfe:	9300      	str	r3, [sp, #0]
    1d00:	f04f 0301 	mov.w	r3, #1
    1d04:	f04f 0201 	mov.w	r2, #1
    1d08:	f240 219d 	movw	r1, #669	; 0x29d
    1d0c:	489a      	ldr	r0, [pc, #616]	; (1f78 <test_float+0x3c0>)
    1d0e:	4478      	add	r0, pc
    1d10:	f01b ea30 	blx	1d174 <trace_printf@plt>
    1d14:	f04f 0300 	mov.w	r3, #0
    1d18:	f6cf 73ff 	movt	r3, #65535	; 0xffff
    1d1c:	f000 bdeb 	b.w	28f6 <test_float+0xd3e>
/home/qemu-sgx/devel/optee/out-br/build/optee_test_ext-1.0/ta/os_test/os_test.c:670
    1d20:	ed9f 1b79 	vldr	d1, [pc, #484]	; 1f08 <test_float+0x350>
    1d24:	ed9f 0b7a 	vldr	d0, [pc, #488]	; 1f10 <test_float+0x358>
    1d28:	f016 ffe1 	bl	18cee <test_float_dsub>
    1d2c:	eef0 0b40 	vmov.f64	d16, d0
    1d30:	ed9f 2b79 	vldr	d2, [pc, #484]	; 1f18 <test_float+0x360>
    1d34:	ed9f 1b82 	vldr	d1, [pc, #520]	; 1f40 <test_float+0x388>
    1d38:	eeb0 0b60 	vmov.f64	d0, d16
    1d3c:	f7ff fed6 	bl	1aec <my_dcmpeq>
    1d40:	4603      	mov	r3, r0
    1d42:	f083 0301 	eor.w	r3, r3, #1
    1d46:	b2db      	uxtb	r3, r3
    1d48:	2b00      	cmp	r3, #0
    1d4a:	d015      	beq.n	1d78 <test_float+0x1c0>
/home/qemu-sgx/devel/optee/out-br/build/optee_test_ext-1.0/ta/os_test/os_test.c:670 (discriminator 1)
    1d4c:	4b8b      	ldr	r3, [pc, #556]	; (1f7c <test_float+0x3c4>)
    1d4e:	447b      	add	r3, pc
    1d50:	9301      	str	r3, [sp, #4]
    1d52:	4b8b      	ldr	r3, [pc, #556]	; (1f80 <test_float+0x3c8>)
    1d54:	447b      	add	r3, pc
    1d56:	9300      	str	r3, [sp, #0]
    1d58:	f04f 0301 	mov.w	r3, #1
    1d5c:	f04f 0201 	mov.w	r2, #1
    1d60:	f240 219e 	movw	r1, #670	; 0x29e
    1d64:	4887      	ldr	r0, [pc, #540]	; (1f84 <test_float+0x3cc>)
    1d66:	4478      	add	r0, pc
    1d68:	f01b ea04 	blx	1d174 <trace_printf@plt>
    1d6c:	f04f 0300 	mov.w	r3, #0
    1d70:	f6cf 73ff 	movt	r3, #65535	; 0xffff
    1d74:	f000 bdbf 	b.w	28f6 <test_float+0xd3e>
/home/qemu-sgx/devel/optee/out-br/build/optee_test_ext-1.0/ta/os_test/os_test.c:672
    1d78:	ed9f 1b65 	vldr	d1, [pc, #404]	; 1f10 <test_float+0x358>
    1d7c:	ed9f 0b64 	vldr	d0, [pc, #400]	; 1f10 <test_float+0x358>
    1d80:	f016 ffcb 	bl	18d1a <test_float_dcmpeq>
    1d84:	4603      	mov	r3, r0
    1d86:	2b01      	cmp	r3, #1
    1d88:	d015      	beq.n	1db6 <test_float+0x1fe>
/home/qemu-sgx/devel/optee/out-br/build/optee_test_ext-1.0/ta/os_test/os_test.c:672 (discriminator 1)
    1d8a:	4b7f      	ldr	r3, [pc, #508]	; (1f88 <test_float+0x3d0>)
    1d8c:	447b      	add	r3, pc
    1d8e:	9301      	str	r3, [sp, #4]
    1d90:	4b7e      	ldr	r3, [pc, #504]	; (1f8c <test_float+0x3d4>)
    1d92:	447b      	add	r3, pc
    1d94:	9300      	str	r3, [sp, #0]
    1d96:	f04f 0301 	mov.w	r3, #1
    1d9a:	f04f 0201 	mov.w	r2, #1
    1d9e:	f44f 7128 	mov.w	r1, #672	; 0x2a0
    1da2:	487b      	ldr	r0, [pc, #492]	; (1f90 <test_float+0x3d8>)
    1da4:	4478      	add	r0, pc
    1da6:	f01b e9e6 	blx	1d174 <trace_printf@plt>
    1daa:	f04f 0300 	mov.w	r3, #0
    1dae:	f6cf 73ff 	movt	r3, #65535	; 0xffff
    1db2:	f000 bda0 	b.w	28f6 <test_float+0xd3e>
/home/qemu-sgx/devel/optee/out-br/build/optee_test_ext-1.0/ta/os_test/os_test.c:673
    1db6:	ed9f 1b54 	vldr	d1, [pc, #336]	; 1f08 <test_float+0x350>
    1dba:	ed9f 0b55 	vldr	d0, [pc, #340]	; 1f10 <test_float+0x358>
    1dbe:	f016 ffc7 	bl	18d50 <test_float_dcmplt>
    1dc2:	4603      	mov	r3, r0
    1dc4:	2b01      	cmp	r3, #1
    1dc6:	d015      	beq.n	1df4 <test_float+0x23c>
/home/qemu-sgx/devel/optee/out-br/build/optee_test_ext-1.0/ta/os_test/os_test.c:673 (discriminator 1)
    1dc8:	4b72      	ldr	r3, [pc, #456]	; (1f94 <test_float+0x3dc>)
    1dca:	447b      	add	r3, pc
    1dcc:	9301      	str	r3, [sp, #4]
    1dce:	4b72      	ldr	r3, [pc, #456]	; (1f98 <test_float+0x3e0>)
    1dd0:	447b      	add	r3, pc
    1dd2:	9300      	str	r3, [sp, #0]
    1dd4:	f04f 0301 	mov.w	r3, #1
    1dd8:	f04f 0201 	mov.w	r2, #1
    1ddc:	f240 21a1 	movw	r1, #673	; 0x2a1
    1de0:	486e      	ldr	r0, [pc, #440]	; (1f9c <test_float+0x3e4>)
    1de2:	4478      	add	r0, pc
    1de4:	f01b e9c6 	blx	1d174 <trace_printf@plt>
    1de8:	f04f 0300 	mov.w	r3, #0
    1dec:	f6cf 73ff 	movt	r3, #65535	; 0xffff
    1df0:	f000 bd81 	b.w	28f6 <test_float+0xd3e>
/home/qemu-sgx/devel/optee/out-br/build/optee_test_ext-1.0/ta/os_test/os_test.c:674
    1df4:	ed9f 1b46 	vldr	d1, [pc, #280]	; 1f10 <test_float+0x358>
    1df8:	ed9f 0b45 	vldr	d0, [pc, #276]	; 1f10 <test_float+0x358>
    1dfc:	f016 ffc3 	bl	18d86 <test_float_dcmple>
    1e00:	4603      	mov	r3, r0
    1e02:	2b01      	cmp	r3, #1
    1e04:	d015      	beq.n	1e32 <test_float+0x27a>
/home/qemu-sgx/devel/optee/out-br/build/optee_test_ext-1.0/ta/os_test/os_test.c:674 (discriminator 1)
    1e06:	4b66      	ldr	r3, [pc, #408]	; (1fa0 <test_float+0x3e8>)
    1e08:	447b      	add	r3, pc
    1e0a:	9301      	str	r3, [sp, #4]
    1e0c:	4b65      	ldr	r3, [pc, #404]	; (1fa4 <test_float+0x3ec>)
    1e0e:	447b      	add	r3, pc
    1e10:	9300      	str	r3, [sp, #0]
    1e12:	f04f 0301 	mov.w	r3, #1
    1e16:	f04f 0201 	mov.w	r2, #1
    1e1a:	f240 21a2 	movw	r1, #674	; 0x2a2
    1e1e:	4862      	ldr	r0, [pc, #392]	; (1fa8 <test_float+0x3f0>)
    1e20:	4478      	add	r0, pc
    1e22:	f01b e9a8 	blx	1d174 <trace_printf@plt>
    1e26:	f04f 0300 	mov.w	r3, #0
    1e2a:	f6cf 73ff 	movt	r3, #65535	; 0xffff
    1e2e:	f000 bd62 	b.w	28f6 <test_float+0xd3e>
/home/qemu-sgx/devel/optee/out-br/build/optee_test_ext-1.0/ta/os_test/os_test.c:675
    1e32:	ed9f 1b37 	vldr	d1, [pc, #220]	; 1f10 <test_float+0x358>
    1e36:	ed9f 0b36 	vldr	d0, [pc, #216]	; 1f10 <test_float+0x358>
    1e3a:	f016 ffbf 	bl	18dbc <test_float_dcmpge>
    1e3e:	4603      	mov	r3, r0
    1e40:	2b01      	cmp	r3, #1
    1e42:	d015      	beq.n	1e70 <test_float+0x2b8>
/home/qemu-sgx/devel/optee/out-br/build/optee_test_ext-1.0/ta/os_test/os_test.c:675 (discriminator 1)
    1e44:	4b59      	ldr	r3, [pc, #356]	; (1fac <test_float+0x3f4>)
    1e46:	447b      	add	r3, pc
    1e48:	9301      	str	r3, [sp, #4]
    1e4a:	4b59      	ldr	r3, [pc, #356]	; (1fb0 <test_float+0x3f8>)
    1e4c:	447b      	add	r3, pc
    1e4e:	9300      	str	r3, [sp, #0]
    1e50:	f04f 0301 	mov.w	r3, #1
    1e54:	f04f 0201 	mov.w	r2, #1
    1e58:	f240 21a3 	movw	r1, #675	; 0x2a3
    1e5c:	4855      	ldr	r0, [pc, #340]	; (1fb4 <test_float+0x3fc>)
    1e5e:	4478      	add	r0, pc
    1e60:	f01b e988 	blx	1d174 <trace_printf@plt>
    1e64:	f04f 0300 	mov.w	r3, #0
    1e68:	f6cf 73ff 	movt	r3, #65535	; 0xffff
    1e6c:	f000 bd43 	b.w	28f6 <test_float+0xd3e>
/home/qemu-sgx/devel/optee/out-br/build/optee_test_ext-1.0/ta/os_test/os_test.c:676
    1e70:	ed9f 1b27 	vldr	d1, [pc, #156]	; 1f10 <test_float+0x358>
    1e74:	ed9f 0b24 	vldr	d0, [pc, #144]	; 1f08 <test_float+0x350>
    1e78:	f016 ffbb 	bl	18df2 <test_float_dcmpgt>
    1e7c:	4603      	mov	r3, r0
    1e7e:	2b01      	cmp	r3, #1
    1e80:	d015      	beq.n	1eae <test_float+0x2f6>
/home/qemu-sgx/devel/optee/out-br/build/optee_test_ext-1.0/ta/os_test/os_test.c:676 (discriminator 1)
    1e82:	4b4d      	ldr	r3, [pc, #308]	; (1fb8 <test_float+0x400>)
    1e84:	447b      	add	r3, pc
    1e86:	9301      	str	r3, [sp, #4]
    1e88:	4b4c      	ldr	r3, [pc, #304]	; (1fbc <test_float+0x404>)
    1e8a:	447b      	add	r3, pc
    1e8c:	9300      	str	r3, [sp, #0]
    1e8e:	f04f 0301 	mov.w	r3, #1
    1e92:	f04f 0201 	mov.w	r2, #1
    1e96:	f44f 7129 	mov.w	r1, #676	; 0x2a4
    1e9a:	4849      	ldr	r0, [pc, #292]	; (1fc0 <test_float+0x408>)
    1e9c:	4478      	add	r0, pc
    1e9e:	f01b e96a 	blx	1d174 <trace_printf@plt>
    1ea2:	f04f 0300 	mov.w	r3, #0
    1ea6:	f6cf 73ff 	movt	r3, #65535	; 0xffff
    1eaa:	f000 bd24 	b.w	28f6 <test_float+0xd3e>
/home/qemu-sgx/devel/optee/out-br/build/optee_test_ext-1.0/ta/os_test/os_test.c:678
    1eae:	eddf 0a48 	vldr	s1, [pc, #288]	; 1fd0 <test_float+0x418>
    1eb2:	ed9f 0a48 	vldr	s0, [pc, #288]	; 1fd4 <test_float+0x41c>
    1eb6:	f016 ffb7 	bl	18e28 <test_float_fadd>
    1eba:	eef0 7a40 	vmov.f32	s15, s0
    1ebe:	ed9f 1a46 	vldr	s2, [pc, #280]	; 1fd8 <test_float+0x420>
    1ec2:	eddf 0a21 	vldr	s1, [pc, #132]	; 1f48 <test_float+0x390>
    1ec6:	eeb0 0a67 	vmov.f32	s0, s15
    1eca:	f7ff fe42 	bl	1b52 <my_fcmpeq>
    1ece:	4603      	mov	r3, r0
    1ed0:	f083 0301 	eor.w	r3, r3, #1
    1ed4:	b2db      	uxtb	r3, r3
    1ed6:	2b00      	cmp	r3, #0
    1ed8:	f000 8082 	beq.w	1fe0 <test_float+0x428>
/home/qemu-sgx/devel/optee/out-br/build/optee_test_ext-1.0/ta/os_test/os_test.c:678 (discriminator 1)
    1edc:	4b39      	ldr	r3, [pc, #228]	; (1fc4 <test_float+0x40c>)
    1ede:	447b      	add	r3, pc
    1ee0:	9301      	str	r3, [sp, #4]
    1ee2:	4b39      	ldr	r3, [pc, #228]	; (1fc8 <test_float+0x410>)
    1ee4:	447b      	add	r3, pc
    1ee6:	9300      	str	r3, [sp, #0]
    1ee8:	f04f 0301 	mov.w	r3, #1
    1eec:	f04f 0201 	mov.w	r2, #1
    1ef0:	f240 21a6 	movw	r1, #678	; 0x2a6
    1ef4:	4835      	ldr	r0, [pc, #212]	; (1fcc <test_float+0x414>)
    1ef6:	4478      	add	r0, pc
    1ef8:	f01b e93c 	blx	1d174 <trace_printf@plt>
    1efc:	f04f 0300 	mov.w	r3, #0
    1f00:	f6cf 73ff 	movt	r3, #65535	; 0xffff
    1f04:	f000 bcf7 	b.w	28f6 <test_float+0xd3e>
    1f08:	33333333 	.word	0x33333333
    1f0c:	40153333 	.word	0x40153333
    1f10:	cccccccd 	.word	0xcccccccd
    1f14:	4004cccc 	.word	0x4004cccc
    1f18:	9ee75616 	.word	0x9ee75616
    1f1c:	3cd203af 	.word	0x3cd203af
    1f20:	9999999a 	.word	0x9999999a
    1f24:	401f9999 	.word	0x401f9999
    1f28:	1826a43b 	.word	0x1826a43b
    1f2c:	3fdf656f 	.word	0x3fdf656f
    1f30:	28f5c28f 	.word	0x28f5c28f
    1f34:	402b8f5c 	.word	0x402b8f5c
    1f38:	99999999 	.word	0x99999999
    1f3c:	40059999 	.word	0x40059999
    1f40:	99999999 	.word	0x99999999
    1f44:	c0059999 	.word	0xc0059999
    1f48:	40fccccd 	.word	0x40fccccd
    1f4c:	0001c196 	.word	0x0001c196
    1f50:	0001c1cc 	.word	0x0001c1cc
    1f54:	0001cca6 	.word	0x0001cca6
    1f58:	0001c192 	.word	0x0001c192
    1f5c:	0001c174 	.word	0x0001c174
    1f60:	0001cc4e 	.word	0x0001cc4e
    1f64:	0001c176 	.word	0x0001c176
    1f68:	0001c11c 	.word	0x0001c11c
    1f6c:	0001cbf6 	.word	0x0001cbf6
    1f70:	0001c15a 	.word	0x0001c15a
    1f74:	0001c0c4 	.word	0x0001c0c4
    1f78:	0001cb9e 	.word	0x0001cb9e
    1f7c:	0001c13e 	.word	0x0001c13e
    1f80:	0001c06c 	.word	0x0001c06c
    1f84:	0001cb46 	.word	0x0001cb46
    1f88:	0001c13c 	.word	0x0001c13c
    1f8c:	0001c02e 	.word	0x0001c02e
    1f90:	0001cb08 	.word	0x0001cb08
    1f94:	0001c122 	.word	0x0001c122
    1f98:	0001bff0 	.word	0x0001bff0
    1f9c:	0001caca 	.word	0x0001caca
    1fa0:	0001c108 	.word	0x0001c108
    1fa4:	0001bfb2 	.word	0x0001bfb2
    1fa8:	0001ca8c 	.word	0x0001ca8c
    1fac:	0001c0ee 	.word	0x0001c0ee
    1fb0:	0001bf74 	.word	0x0001bf74
    1fb4:	0001ca4e 	.word	0x0001ca4e
    1fb8:	0001c0d4 	.word	0x0001c0d4
    1fbc:	0001bf36 	.word	0x0001bf36
    1fc0:	0001ca10 	.word	0x0001ca10
    1fc4:	0001c09e 	.word	0x0001c09e
    1fc8:	0001bedc 	.word	0x0001bedc
    1fcc:	0001c9b6 	.word	0x0001c9b6
    1fd0:	40a9999a 	.word	0x40a9999a
    1fd4:	40266666 	.word	0x40266666
    1fd8:	358637bd 	.word	0x358637bd
    1fdc:	3efb2b79 	.word	0x3efb2b79
/home/qemu-sgx/devel/optee/out-br/build/optee_test_ext-1.0/ta/os_test/os_test.c:679
    1fe0:	ed5f 0a05 	vldr	s1, [pc, #-20]	; 1fd0 <test_float+0x418>
    1fe4:	ed1f 0a05 	vldr	s0, [pc, #-20]	; 1fd4 <test_float+0x41c>
    1fe8:	f016 ff34 	bl	18e54 <test_float_fdiv>
    1fec:	eef0 7a40 	vmov.f32	s15, s0
    1ff0:	ed1f 1a07 	vldr	s2, [pc, #-28]	; 1fd8 <test_float+0x420>
    1ff4:	ed5f 0a07 	vldr	s1, [pc, #-28]	; 1fdc <test_float+0x424>
    1ff8:	eeb0 0a67 	vmov.f32	s0, s15
    1ffc:	f7ff fda9 	bl	1b52 <my_fcmpeq>
    2000:	4603      	mov	r3, r0
    2002:	f083 0301 	eor.w	r3, r3, #1
    2006:	b2db      	uxtb	r3, r3
    2008:	2b00      	cmp	r3, #0
    200a:	d015      	beq.n	2038 <test_float+0x480>
/home/qemu-sgx/devel/optee/out-br/build/optee_test_ext-1.0/ta/os_test/os_test.c:679 (discriminator 1)
    200c:	4bda      	ldr	r3, [pc, #872]	; (2378 <test_float+0x7c0>)
    200e:	447b      	add	r3, pc
    2010:	9301      	str	r3, [sp, #4]
    2012:	4bda      	ldr	r3, [pc, #872]	; (237c <test_float+0x7c4>)
    2014:	447b      	add	r3, pc
    2016:	9300      	str	r3, [sp, #0]
    2018:	f04f 0301 	mov.w	r3, #1
    201c:	f04f 0201 	mov.w	r2, #1
    2020:	f240 21a7 	movw	r1, #679	; 0x2a7
    2024:	48d6      	ldr	r0, [pc, #856]	; (2380 <test_float+0x7c8>)
    2026:	4478      	add	r0, pc
    2028:	f01b e8a4 	blx	1d174 <trace_printf@plt>
    202c:	f04f 0300 	mov.w	r3, #0
    2030:	f6cf 73ff 	movt	r3, #65535	; 0xffff
    2034:	f000 bc5f 	b.w	28f6 <test_float+0xd3e>
/home/qemu-sgx/devel/optee/out-br/build/optee_test_ext-1.0/ta/os_test/os_test.c:680
    2038:	eddf 0ac9 	vldr	s1, [pc, #804]	; 2360 <test_float+0x7a8>
    203c:	ed9f 0ac9 	vldr	s0, [pc, #804]	; 2364 <test_float+0x7ac>
    2040:	f016 ff20 	bl	18e84 <test_float_fmul>
    2044:	eef0 7a40 	vmov.f32	s15, s0
    2048:	ed9f 1ac7 	vldr	s2, [pc, #796]	; 2368 <test_float+0x7b0>
    204c:	eddf 0ac7 	vldr	s1, [pc, #796]	; 236c <test_float+0x7b4>
    2050:	eeb0 0a67 	vmov.f32	s0, s15
    2054:	f7ff fd7d 	bl	1b52 <my_fcmpeq>
    2058:	4603      	mov	r3, r0
    205a:	f083 0301 	eor.w	r3, r3, #1
    205e:	b2db      	uxtb	r3, r3
    2060:	2b00      	cmp	r3, #0
    2062:	d015      	beq.n	2090 <test_float+0x4d8>
/home/qemu-sgx/devel/optee/out-br/build/optee_test_ext-1.0/ta/os_test/os_test.c:680 (discriminator 1)
    2064:	4bc7      	ldr	r3, [pc, #796]	; (2384 <test_float+0x7cc>)
    2066:	447b      	add	r3, pc
    2068:	9301      	str	r3, [sp, #4]
    206a:	4bc7      	ldr	r3, [pc, #796]	; (2388 <test_float+0x7d0>)
    206c:	447b      	add	r3, pc
    206e:	9300      	str	r3, [sp, #0]
    2070:	f04f 0301 	mov.w	r3, #1
    2074:	f04f 0201 	mov.w	r2, #1
    2078:	f44f 712a 	mov.w	r1, #680	; 0x2a8
    207c:	48c3      	ldr	r0, [pc, #780]	; (238c <test_float+0x7d4>)
    207e:	4478      	add	r0, pc
    2080:	f01b e878 	blx	1d174 <trace_printf@plt>
    2084:	f04f 0300 	mov.w	r3, #0
    2088:	f6cf 73ff 	movt	r3, #65535	; 0xffff
    208c:	f000 bc33 	b.w	28f6 <test_float+0xd3e>
/home/qemu-sgx/devel/optee/out-br/build/optee_test_ext-1.0/ta/os_test/os_test.c:681
    2090:	eddf 0ab3 	vldr	s1, [pc, #716]	; 2360 <test_float+0x7a8>
    2094:	ed9f 0ab3 	vldr	s0, [pc, #716]	; 2364 <test_float+0x7ac>
    2098:	f016 ff0a 	bl	18eb0 <test_float_frsub>
    209c:	eef0 7a40 	vmov.f32	s15, s0
    20a0:	ed9f 1ab1 	vldr	s2, [pc, #708]	; 2368 <test_float+0x7b0>
    20a4:	eddf 0ab2 	vldr	s1, [pc, #712]	; 2370 <test_float+0x7b8>
    20a8:	eeb0 0a67 	vmov.f32	s0, s15
    20ac:	f7ff fd51 	bl	1b52 <my_fcmpeq>
    20b0:	4603      	mov	r3, r0
    20b2:	f083 0301 	eor.w	r3, r3, #1
    20b6:	b2db      	uxtb	r3, r3
    20b8:	2b00      	cmp	r3, #0
    20ba:	d015      	beq.n	20e8 <test_float+0x530>
/home/qemu-sgx/devel/optee/out-br/build/optee_test_ext-1.0/ta/os_test/os_test.c:681 (discriminator 1)
    20bc:	4bb4      	ldr	r3, [pc, #720]	; (2390 <test_float+0x7d8>)
    20be:	447b      	add	r3, pc
    20c0:	9301      	str	r3, [sp, #4]
    20c2:	4bb4      	ldr	r3, [pc, #720]	; (2394 <test_float+0x7dc>)
    20c4:	447b      	add	r3, pc
    20c6:	9300      	str	r3, [sp, #0]
    20c8:	f04f 0301 	mov.w	r3, #1
    20cc:	f04f 0201 	mov.w	r2, #1
    20d0:	f240 21a9 	movw	r1, #681	; 0x2a9
    20d4:	48b0      	ldr	r0, [pc, #704]	; (2398 <test_float+0x7e0>)
    20d6:	4478      	add	r0, pc
    20d8:	f01b e84c 	blx	1d174 <trace_printf@plt>
    20dc:	f04f 0300 	mov.w	r3, #0
    20e0:	f6cf 73ff 	movt	r3, #65535	; 0xffff
    20e4:	f000 bc07 	b.w	28f6 <test_float+0xd3e>
/home/qemu-sgx/devel/optee/out-br/build/optee_test_ext-1.0/ta/os_test/os_test.c:682
    20e8:	eddf 0a9d 	vldr	s1, [pc, #628]	; 2360 <test_float+0x7a8>
    20ec:	ed9f 0a9d 	vldr	s0, [pc, #628]	; 2364 <test_float+0x7ac>
    20f0:	f016 fef4 	bl	18edc <test_float_fsub>
    20f4:	eef0 7a40 	vmov.f32	s15, s0
    20f8:	ed9f 1a9b 	vldr	s2, [pc, #620]	; 2368 <test_float+0x7b0>
    20fc:	eddf 0a9d 	vldr	s1, [pc, #628]	; 2374 <test_float+0x7bc>
    2100:	eeb0 0a67 	vmov.f32	s0, s15
    2104:	f7ff fd25 	bl	1b52 <my_fcmpeq>
    2108:	4603      	mov	r3, r0
    210a:	f083 0301 	eor.w	r3, r3, #1
    210e:	b2db      	uxtb	r3, r3
    2110:	2b00      	cmp	r3, #0
    2112:	d014      	beq.n	213e <test_float+0x586>
/home/qemu-sgx/devel/optee/out-br/build/optee_test_ext-1.0/ta/os_test/os_test.c:682 (discriminator 1)
    2114:	4ba1      	ldr	r3, [pc, #644]	; (239c <test_float+0x7e4>)
    2116:	447b      	add	r3, pc
    2118:	9301      	str	r3, [sp, #4]
    211a:	4ba1      	ldr	r3, [pc, #644]	; (23a0 <test_float+0x7e8>)
    211c:	447b      	add	r3, pc
    211e:	9300      	str	r3, [sp, #0]
    2120:	f04f 0301 	mov.w	r3, #1
    2124:	f04f 0201 	mov.w	r2, #1
    2128:	f240 21aa 	movw	r1, #682	; 0x2aa
    212c:	489d      	ldr	r0, [pc, #628]	; (23a4 <test_float+0x7ec>)
    212e:	4478      	add	r0, pc
    2130:	f01b e820 	blx	1d174 <trace_printf@plt>
    2134:	f04f 0300 	mov.w	r3, #0
    2138:	f6cf 73ff 	movt	r3, #65535	; 0xffff
    213c:	e3db      	b.n	28f6 <test_float+0xd3e>
/home/qemu-sgx/devel/optee/out-br/build/optee_test_ext-1.0/ta/os_test/os_test.c:684
    213e:	eddf 0a89 	vldr	s1, [pc, #548]	; 2364 <test_float+0x7ac>
    2142:	ed9f 0a88 	vldr	s0, [pc, #544]	; 2364 <test_float+0x7ac>
    2146:	f016 fedf 	bl	18f08 <test_float_fcmpeq>
    214a:	4603      	mov	r3, r0
    214c:	2b01      	cmp	r3, #1
    214e:	d014      	beq.n	217a <test_float+0x5c2>
/home/qemu-sgx/devel/optee/out-br/build/optee_test_ext-1.0/ta/os_test/os_test.c:684 (discriminator 1)
    2150:	4b95      	ldr	r3, [pc, #596]	; (23a8 <test_float+0x7f0>)
    2152:	447b      	add	r3, pc
    2154:	9301      	str	r3, [sp, #4]
    2156:	4b95      	ldr	r3, [pc, #596]	; (23ac <test_float+0x7f4>)
    2158:	447b      	add	r3, pc
    215a:	9300      	str	r3, [sp, #0]
    215c:	f04f 0301 	mov.w	r3, #1
    2160:	f04f 0201 	mov.w	r2, #1
    2164:	f44f 712b 	mov.w	r1, #684	; 0x2ac
    2168:	4891      	ldr	r0, [pc, #580]	; (23b0 <test_float+0x7f8>)
    216a:	4478      	add	r0, pc
    216c:	f01b e802 	blx	1d174 <trace_printf@plt>
    2170:	f04f 0300 	mov.w	r3, #0
    2174:	f6cf 73ff 	movt	r3, #65535	; 0xffff
    2178:	e3bd      	b.n	28f6 <test_float+0xd3e>
/home/qemu-sgx/devel/optee/out-br/build/optee_test_ext-1.0/ta/os_test/os_test.c:685
    217a:	eddf 0a79 	vldr	s1, [pc, #484]	; 2360 <test_float+0x7a8>
    217e:	ed9f 0a79 	vldr	s0, [pc, #484]	; 2364 <test_float+0x7ac>
    2182:	f016 fedc 	bl	18f3e <test_float_fcmplt>
    2186:	4603      	mov	r3, r0
    2188:	2b01      	cmp	r3, #1
    218a:	d014      	beq.n	21b6 <test_float+0x5fe>
/home/qemu-sgx/devel/optee/out-br/build/optee_test_ext-1.0/ta/os_test/os_test.c:685 (discriminator 1)
    218c:	4b89      	ldr	r3, [pc, #548]	; (23b4 <test_float+0x7fc>)
    218e:	447b      	add	r3, pc
    2190:	9301      	str	r3, [sp, #4]
    2192:	4b89      	ldr	r3, [pc, #548]	; (23b8 <test_float+0x800>)
    2194:	447b      	add	r3, pc
    2196:	9300      	str	r3, [sp, #0]
    2198:	f04f 0301 	mov.w	r3, #1
    219c:	f04f 0201 	mov.w	r2, #1
    21a0:	f240 21ad 	movw	r1, #685	; 0x2ad
    21a4:	4885      	ldr	r0, [pc, #532]	; (23bc <test_float+0x804>)
    21a6:	4478      	add	r0, pc
    21a8:	f01a efe4 	blx	1d174 <trace_printf@plt>
    21ac:	f04f 0300 	mov.w	r3, #0
    21b0:	f6cf 73ff 	movt	r3, #65535	; 0xffff
    21b4:	e39f      	b.n	28f6 <test_float+0xd3e>
/home/qemu-sgx/devel/optee/out-br/build/optee_test_ext-1.0/ta/os_test/os_test.c:686
    21b6:	eddf 0a6b 	vldr	s1, [pc, #428]	; 2364 <test_float+0x7ac>
    21ba:	ed9f 0a6a 	vldr	s0, [pc, #424]	; 2364 <test_float+0x7ac>
    21be:	f016 fed9 	bl	18f74 <test_float_fcmple>
    21c2:	4603      	mov	r3, r0
    21c4:	2b01      	cmp	r3, #1
    21c6:	d014      	beq.n	21f2 <test_float+0x63a>
/home/qemu-sgx/devel/optee/out-br/build/optee_test_ext-1.0/ta/os_test/os_test.c:686 (discriminator 1)
    21c8:	4b7d      	ldr	r3, [pc, #500]	; (23c0 <test_float+0x808>)
    21ca:	447b      	add	r3, pc
    21cc:	9301      	str	r3, [sp, #4]
    21ce:	4b7d      	ldr	r3, [pc, #500]	; (23c4 <test_float+0x80c>)
    21d0:	447b      	add	r3, pc
    21d2:	9300      	str	r3, [sp, #0]
    21d4:	f04f 0301 	mov.w	r3, #1
    21d8:	f04f 0201 	mov.w	r2, #1
    21dc:	f240 21ae 	movw	r1, #686	; 0x2ae
    21e0:	4879      	ldr	r0, [pc, #484]	; (23c8 <test_float+0x810>)
    21e2:	4478      	add	r0, pc
    21e4:	f01a efc6 	blx	1d174 <trace_printf@plt>
    21e8:	f04f 0300 	mov.w	r3, #0
    21ec:	f6cf 73ff 	movt	r3, #65535	; 0xffff
    21f0:	e381      	b.n	28f6 <test_float+0xd3e>
/home/qemu-sgx/devel/optee/out-br/build/optee_test_ext-1.0/ta/os_test/os_test.c:687
    21f2:	eddf 0a5c 	vldr	s1, [pc, #368]	; 2364 <test_float+0x7ac>
    21f6:	ed9f 0a5b 	vldr	s0, [pc, #364]	; 2364 <test_float+0x7ac>
    21fa:	f016 fed6 	bl	18faa <test_float_fcmpge>
    21fe:	4603      	mov	r3, r0
    2200:	2b01      	cmp	r3, #1
    2202:	d014      	beq.n	222e <test_float+0x676>
/home/qemu-sgx/devel/optee/out-br/build/optee_test_ext-1.0/ta/os_test/os_test.c:687 (discriminator 1)
    2204:	4b71      	ldr	r3, [pc, #452]	; (23cc <test_float+0x814>)
    2206:	447b      	add	r3, pc
    2208:	9301      	str	r3, [sp, #4]
    220a:	4b71      	ldr	r3, [pc, #452]	; (23d0 <test_float+0x818>)
    220c:	447b      	add	r3, pc
    220e:	9300      	str	r3, [sp, #0]
    2210:	f04f 0301 	mov.w	r3, #1
    2214:	f04f 0201 	mov.w	r2, #1
    2218:	f240 21af 	movw	r1, #687	; 0x2af
    221c:	486d      	ldr	r0, [pc, #436]	; (23d4 <test_float+0x81c>)
    221e:	4478      	add	r0, pc
    2220:	f01a efa8 	blx	1d174 <trace_printf@plt>
    2224:	f04f 0300 	mov.w	r3, #0
    2228:	f6cf 73ff 	movt	r3, #65535	; 0xffff
    222c:	e363      	b.n	28f6 <test_float+0xd3e>
/home/qemu-sgx/devel/optee/out-br/build/optee_test_ext-1.0/ta/os_test/os_test.c:688
    222e:	eddf 0a4d 	vldr	s1, [pc, #308]	; 2364 <test_float+0x7ac>
    2232:	ed9f 0a4b 	vldr	s0, [pc, #300]	; 2360 <test_float+0x7a8>
    2236:	f016 fed3 	bl	18fe0 <test_float_fcmpgt>
    223a:	4603      	mov	r3, r0
    223c:	2b01      	cmp	r3, #1
    223e:	d014      	beq.n	226a <test_float+0x6b2>
/home/qemu-sgx/devel/optee/out-br/build/optee_test_ext-1.0/ta/os_test/os_test.c:688 (discriminator 1)
    2240:	4b65      	ldr	r3, [pc, #404]	; (23d8 <test_float+0x820>)
    2242:	447b      	add	r3, pc
    2244:	9301      	str	r3, [sp, #4]
    2246:	4b65      	ldr	r3, [pc, #404]	; (23dc <test_float+0x824>)
    2248:	447b      	add	r3, pc
    224a:	9300      	str	r3, [sp, #0]
    224c:	f04f 0301 	mov.w	r3, #1
    2250:	f04f 0201 	mov.w	r2, #1
    2254:	f44f 712c 	mov.w	r1, #688	; 0x2b0
    2258:	4861      	ldr	r0, [pc, #388]	; (23e0 <test_float+0x828>)
    225a:	4478      	add	r0, pc
    225c:	f01a ef8a 	blx	1d174 <trace_printf@plt>
    2260:	f04f 0300 	mov.w	r3, #0
    2264:	f6cf 73ff 	movt	r3, #65535	; 0xffff
    2268:	e345      	b.n	28f6 <test_float+0xd3e>
/home/qemu-sgx/devel/optee/out-br/build/optee_test_ext-1.0/ta/os_test/os_test.c:690
    226a:	ed9f 0b3b 	vldr	d0, [pc, #236]	; 2358 <test_float+0x7a0>
    226e:	f016 fed2 	bl	19016 <test_float_d2iz>
    2272:	4603      	mov	r3, r0
    2274:	2b02      	cmp	r3, #2
    2276:	d014      	beq.n	22a2 <test_float+0x6ea>
/home/qemu-sgx/devel/optee/out-br/build/optee_test_ext-1.0/ta/os_test/os_test.c:690 (discriminator 1)
    2278:	4b5a      	ldr	r3, [pc, #360]	; (23e4 <test_float+0x82c>)
    227a:	447b      	add	r3, pc
    227c:	9301      	str	r3, [sp, #4]
    227e:	4b5a      	ldr	r3, [pc, #360]	; (23e8 <test_float+0x830>)
    2280:	447b      	add	r3, pc
    2282:	9300      	str	r3, [sp, #0]
    2284:	f04f 0301 	mov.w	r3, #1
    2288:	f04f 0201 	mov.w	r2, #1
    228c:	f240 21b2 	movw	r1, #690	; 0x2b2
    2290:	4856      	ldr	r0, [pc, #344]	; (23ec <test_float+0x834>)
    2292:	4478      	add	r0, pc
    2294:	f01a ef6e 	blx	1d174 <trace_printf@plt>
    2298:	f04f 0300 	mov.w	r3, #0
    229c:	f6cf 73ff 	movt	r3, #65535	; 0xffff
    22a0:	e329      	b.n	28f6 <test_float+0xd3e>
/home/qemu-sgx/devel/optee/out-br/build/optee_test_ext-1.0/ta/os_test/os_test.c:691
    22a2:	ed9f 0b2d 	vldr	d0, [pc, #180]	; 2358 <test_float+0x7a0>
    22a6:	f016 fec9 	bl	1903c <test_float_d2uiz>
    22aa:	4603      	mov	r3, r0
    22ac:	2b02      	cmp	r3, #2
    22ae:	d014      	beq.n	22da <test_float+0x722>
/home/qemu-sgx/devel/optee/out-br/build/optee_test_ext-1.0/ta/os_test/os_test.c:691 (discriminator 1)
    22b0:	4b4f      	ldr	r3, [pc, #316]	; (23f0 <test_float+0x838>)
    22b2:	447b      	add	r3, pc
    22b4:	9301      	str	r3, [sp, #4]
    22b6:	4b4f      	ldr	r3, [pc, #316]	; (23f4 <test_float+0x83c>)
    22b8:	447b      	add	r3, pc
    22ba:	9300      	str	r3, [sp, #0]
    22bc:	f04f 0301 	mov.w	r3, #1
    22c0:	f04f 0201 	mov.w	r2, #1
    22c4:	f240 21b3 	movw	r1, #691	; 0x2b3
    22c8:	484b      	ldr	r0, [pc, #300]	; (23f8 <test_float+0x840>)
    22ca:	4478      	add	r0, pc
    22cc:	f01a ef52 	blx	1d174 <trace_printf@plt>
    22d0:	f04f 0300 	mov.w	r3, #0
    22d4:	f6cf 73ff 	movt	r3, #65535	; 0xffff
    22d8:	e30d      	b.n	28f6 <test_float+0xd3e>
/home/qemu-sgx/devel/optee/out-br/build/optee_test_ext-1.0/ta/os_test/os_test.c:692
    22da:	ed9f 0b1f 	vldr	d0, [pc, #124]	; 2358 <test_float+0x7a0>
    22de:	f016 fec0 	bl	19062 <test_float_d2lz>
    22e2:	4602      	mov	r2, r0
    22e4:	460b      	mov	r3, r1
    22e6:	f1a2 0102 	sub.w	r1, r2, #2
    22ea:	430b      	orrs	r3, r1
    22ec:	d014      	beq.n	2318 <test_float+0x760>
/home/qemu-sgx/devel/optee/out-br/build/optee_test_ext-1.0/ta/os_test/os_test.c:692 (discriminator 1)
    22ee:	4b43      	ldr	r3, [pc, #268]	; (23fc <test_float+0x844>)
    22f0:	447b      	add	r3, pc
    22f2:	9301      	str	r3, [sp, #4]
    22f4:	4b42      	ldr	r3, [pc, #264]	; (2400 <test_float+0x848>)
    22f6:	447b      	add	r3, pc
    22f8:	9300      	str	r3, [sp, #0]
    22fa:	f04f 0301 	mov.w	r3, #1
    22fe:	f04f 0201 	mov.w	r2, #1
    2302:	f44f 712d 	mov.w	r1, #692	; 0x2b4
    2306:	483f      	ldr	r0, [pc, #252]	; (2404 <test_float+0x84c>)
    2308:	4478      	add	r0, pc
    230a:	f01a ef34 	blx	1d174 <trace_printf@plt>
    230e:	f04f 0300 	mov.w	r3, #0
    2312:	f6cf 73ff 	movt	r3, #65535	; 0xffff
    2316:	e2ee      	b.n	28f6 <test_float+0xd3e>
/home/qemu-sgx/devel/optee/out-br/build/optee_test_ext-1.0/ta/os_test/os_test.c:693
    2318:	ed9f 0b0f 	vldr	d0, [pc, #60]	; 2358 <test_float+0x7a0>
    231c:	f016 feb3 	bl	19086 <test_float_d2ulz>
    2320:	4602      	mov	r2, r0
    2322:	460b      	mov	r3, r1
    2324:	f1a2 0102 	sub.w	r1, r2, #2
    2328:	430b      	orrs	r3, r1
    232a:	d075      	beq.n	2418 <test_float+0x860>
/home/qemu-sgx/devel/optee/out-br/build/optee_test_ext-1.0/ta/os_test/os_test.c:693 (discriminator 1)
    232c:	4b36      	ldr	r3, [pc, #216]	; (2408 <test_float+0x850>)
    232e:	447b      	add	r3, pc
    2330:	9301      	str	r3, [sp, #4]
    2332:	4b36      	ldr	r3, [pc, #216]	; (240c <test_float+0x854>)
    2334:	447b      	add	r3, pc
    2336:	9300      	str	r3, [sp, #0]
    2338:	f04f 0301 	mov.w	r3, #1
    233c:	f04f 0201 	mov.w	r2, #1
    2340:	f240 21b5 	movw	r1, #693	; 0x2b5
    2344:	4832      	ldr	r0, [pc, #200]	; (2410 <test_float+0x858>)
    2346:	4478      	add	r0, pc
    2348:	f01a ef14 	blx	1d174 <trace_printf@plt>
    234c:	f04f 0300 	mov.w	r3, #0
    2350:	f6cf 73ff 	movt	r3, #65535	; 0xffff
    2354:	e2cf      	b.n	28f6 <test_float+0xd3e>
    2356:	bf00      	nop
    2358:	cccccccd 	.word	0xcccccccd
    235c:	4004cccc 	.word	0x4004cccc
    2360:	40a9999a 	.word	0x40a9999a
    2364:	40266666 	.word	0x40266666
    2368:	358637bd 	.word	0x358637bd
    236c:	415c7ae1 	.word	0x415c7ae1
    2370:	402ccccd 	.word	0x402ccccd
    2374:	c02ccccd 	.word	0xc02ccccd
    2378:	0001bfaa 	.word	0x0001bfaa
    237c:	0001bdac 	.word	0x0001bdac
    2380:	0001c886 	.word	0x0001c886
    2384:	0001bf8e 	.word	0x0001bf8e
    2388:	0001bd54 	.word	0x0001bd54
    238c:	0001c82e 	.word	0x0001c82e
    2390:	0001bf72 	.word	0x0001bf72
    2394:	0001bcfc 	.word	0x0001bcfc
    2398:	0001c7d6 	.word	0x0001c7d6
    239c:	0001bf56 	.word	0x0001bf56
    23a0:	0001bca4 	.word	0x0001bca4
    23a4:	0001c77e 	.word	0x0001c77e
    23a8:	0001bf56 	.word	0x0001bf56
    23ac:	0001bc68 	.word	0x0001bc68
    23b0:	0001c742 	.word	0x0001c742
    23b4:	0001bf3e 	.word	0x0001bf3e
    23b8:	0001bc2c 	.word	0x0001bc2c
    23bc:	0001c706 	.word	0x0001c706
    23c0:	0001bf26 	.word	0x0001bf26
    23c4:	0001bbf0 	.word	0x0001bbf0
    23c8:	0001c6ca 	.word	0x0001c6ca
    23cc:	0001bf0e 	.word	0x0001bf0e
    23d0:	0001bbb4 	.word	0x0001bbb4
    23d4:	0001c68e 	.word	0x0001c68e
    23d8:	0001bef6 	.word	0x0001bef6
    23dc:	0001bb78 	.word	0x0001bb78
    23e0:	0001c652 	.word	0x0001c652
    23e4:	0001bee2 	.word	0x0001bee2
    23e8:	0001bb40 	.word	0x0001bb40
    23ec:	0001c61a 	.word	0x0001c61a
    23f0:	0001bece 	.word	0x0001bece
    23f4:	0001bb08 	.word	0x0001bb08
    23f8:	0001c5e2 	.word	0x0001c5e2
    23fc:	0001beb4 	.word	0x0001beb4
    2400:	0001baca 	.word	0x0001baca
    2404:	0001c5a4 	.word	0x0001c5a4
    2408:	0001be9a 	.word	0x0001be9a
    240c:	0001ba8c 	.word	0x0001ba8c
    2410:	0001c566 	.word	0x0001c566
    2414:	40266666 	.word	0x40266666
/home/qemu-sgx/devel/optee/out-br/build/optee_test_ext-1.0/ta/os_test/os_test.c:695
    2418:	ed1f 0a02 	vldr	s0, [pc, #-8]	; 2414 <test_float+0x85c>
    241c:	f016 fe45 	bl	190aa <test_float_f2iz>
    2420:	4603      	mov	r3, r0
    2422:	2b02      	cmp	r3, #2
    2424:	d014      	beq.n	2450 <test_float+0x898>
/home/qemu-sgx/devel/optee/out-br/build/optee_test_ext-1.0/ta/os_test/os_test.c:695 (discriminator 1)
    2426:	4bd1      	ldr	r3, [pc, #836]	; (276c <test_float+0xbb4>)
    2428:	447b      	add	r3, pc
    242a:	9301      	str	r3, [sp, #4]
    242c:	4bd0      	ldr	r3, [pc, #832]	; (2770 <test_float+0xbb8>)
    242e:	447b      	add	r3, pc
    2430:	9300      	str	r3, [sp, #0]
    2432:	f04f 0301 	mov.w	r3, #1
    2436:	f04f 0201 	mov.w	r2, #1
    243a:	f240 21b7 	movw	r1, #695	; 0x2b7
    243e:	48cd      	ldr	r0, [pc, #820]	; (2774 <test_float+0xbbc>)
    2440:	4478      	add	r0, pc
    2442:	f01a ee98 	blx	1d174 <trace_printf@plt>
    2446:	f04f 0300 	mov.w	r3, #0
    244a:	f6cf 73ff 	movt	r3, #65535	; 0xffff
    244e:	e252      	b.n	28f6 <test_float+0xd3e>
/home/qemu-sgx/devel/optee/out-br/build/optee_test_ext-1.0/ta/os_test/os_test.c:696
    2450:	ed9f 0ac5 	vldr	s0, [pc, #788]	; 2768 <test_float+0xbb0>
    2454:	f016 fe3c 	bl	190d0 <test_float_f2uiz>
    2458:	4603      	mov	r3, r0
    245a:	2b02      	cmp	r3, #2
    245c:	d014      	beq.n	2488 <test_float+0x8d0>
/home/qemu-sgx/devel/optee/out-br/build/optee_test_ext-1.0/ta/os_test/os_test.c:696 (discriminator 1)
    245e:	4bc6      	ldr	r3, [pc, #792]	; (2778 <test_float+0xbc0>)
    2460:	447b      	add	r3, pc
    2462:	9301      	str	r3, [sp, #4]
    2464:	4bc5      	ldr	r3, [pc, #788]	; (277c <test_float+0xbc4>)
    2466:	447b      	add	r3, pc
    2468:	9300      	str	r3, [sp, #0]
    246a:	f04f 0301 	mov.w	r3, #1
    246e:	f04f 0201 	mov.w	r2, #1
    2472:	f44f 712e 	mov.w	r1, #696	; 0x2b8
    2476:	48c2      	ldr	r0, [pc, #776]	; (2780 <test_float+0xbc8>)
    2478:	4478      	add	r0, pc
    247a:	f01a ee7c 	blx	1d174 <trace_printf@plt>
    247e:	f04f 0300 	mov.w	r3, #0
    2482:	f6cf 73ff 	movt	r3, #65535	; 0xffff
    2486:	e236      	b.n	28f6 <test_float+0xd3e>
/home/qemu-sgx/devel/optee/out-br/build/optee_test_ext-1.0/ta/os_test/os_test.c:697
    2488:	ed9f 0ab7 	vldr	s0, [pc, #732]	; 2768 <test_float+0xbb0>
    248c:	f016 fe33 	bl	190f6 <test_float_f2lz>
    2490:	4602      	mov	r2, r0
    2492:	460b      	mov	r3, r1
    2494:	f1a2 0102 	sub.w	r1, r2, #2
    2498:	430b      	orrs	r3, r1
    249a:	d014      	beq.n	24c6 <test_float+0x90e>
/home/qemu-sgx/devel/optee/out-br/build/optee_test_ext-1.0/ta/os_test/os_test.c:697 (discriminator 1)
    249c:	4bb9      	ldr	r3, [pc, #740]	; (2784 <test_float+0xbcc>)
    249e:	447b      	add	r3, pc
    24a0:	9301      	str	r3, [sp, #4]
    24a2:	4bb9      	ldr	r3, [pc, #740]	; (2788 <test_float+0xbd0>)
    24a4:	447b      	add	r3, pc
    24a6:	9300      	str	r3, [sp, #0]
    24a8:	f04f 0301 	mov.w	r3, #1
    24ac:	f04f 0201 	mov.w	r2, #1
    24b0:	f240 21b9 	movw	r1, #697	; 0x2b9
    24b4:	48b5      	ldr	r0, [pc, #724]	; (278c <test_float+0xbd4>)
    24b6:	4478      	add	r0, pc
    24b8:	f01a ee5c 	blx	1d174 <trace_printf@plt>
    24bc:	f04f 0300 	mov.w	r3, #0
    24c0:	f6cf 73ff 	movt	r3, #65535	; 0xffff
    24c4:	e217      	b.n	28f6 <test_float+0xd3e>
/home/qemu-sgx/devel/optee/out-br/build/optee_test_ext-1.0/ta/os_test/os_test.c:698
    24c6:	ed9f 0aa8 	vldr	s0, [pc, #672]	; 2768 <test_float+0xbb0>
    24ca:	f016 fe25 	bl	19118 <test_float_f2ulz>
    24ce:	4602      	mov	r2, r0
    24d0:	460b      	mov	r3, r1
    24d2:	f1a2 0102 	sub.w	r1, r2, #2
    24d6:	430b      	orrs	r3, r1
    24d8:	d014      	beq.n	2504 <test_float+0x94c>
/home/qemu-sgx/devel/optee/out-br/build/optee_test_ext-1.0/ta/os_test/os_test.c:698 (discriminator 1)
    24da:	4bad      	ldr	r3, [pc, #692]	; (2790 <test_float+0xbd8>)
    24dc:	447b      	add	r3, pc
    24de:	9301      	str	r3, [sp, #4]
    24e0:	4bac      	ldr	r3, [pc, #688]	; (2794 <test_float+0xbdc>)
    24e2:	447b      	add	r3, pc
    24e4:	9300      	str	r3, [sp, #0]
    24e6:	f04f 0301 	mov.w	r3, #1
    24ea:	f04f 0201 	mov.w	r2, #1
    24ee:	f240 21ba 	movw	r1, #698	; 0x2ba
    24f2:	48a9      	ldr	r0, [pc, #676]	; (2798 <test_float+0xbe0>)
    24f4:	4478      	add	r0, pc
    24f6:	f01a ee3e 	blx	1d174 <trace_printf@plt>
    24fa:	f04f 0300 	mov.w	r3, #0
    24fe:	f6cf 73ff 	movt	r3, #65535	; 0xffff
    2502:	e1f8      	b.n	28f6 <test_float+0xd3e>
/home/qemu-sgx/devel/optee/out-br/build/optee_test_ext-1.0/ta/os_test/os_test.c:700
    2504:	ed9f 0b92 	vldr	d0, [pc, #584]	; 2750 <test_float+0xb98>
    2508:	f016 fe17 	bl	1913a <test_float_d2f>
    250c:	eef0 7a40 	vmov.f32	s15, s0
    2510:	ed9f 1ab7 	vldr	s2, [pc, #732]	; 27f0 <test_float+0xc38>
    2514:	eddf 0a94 	vldr	s1, [pc, #592]	; 2768 <test_float+0xbb0>
    2518:	eeb0 0a67 	vmov.f32	s0, s15
    251c:	f7ff fb19 	bl	1b52 <my_fcmpeq>
    2520:	4603      	mov	r3, r0
    2522:	f083 0301 	eor.w	r3, r3, #1
    2526:	b2db      	uxtb	r3, r3
    2528:	2b00      	cmp	r3, #0
    252a:	d014      	beq.n	2556 <test_float+0x99e>
/home/qemu-sgx/devel/optee/out-br/build/optee_test_ext-1.0/ta/os_test/os_test.c:700 (discriminator 1)
    252c:	4b9b      	ldr	r3, [pc, #620]	; (279c <test_float+0xbe4>)
    252e:	447b      	add	r3, pc
    2530:	9301      	str	r3, [sp, #4]
    2532:	4b9b      	ldr	r3, [pc, #620]	; (27a0 <test_float+0xbe8>)
    2534:	447b      	add	r3, pc
    2536:	9300      	str	r3, [sp, #0]
    2538:	f04f 0301 	mov.w	r3, #1
    253c:	f04f 0201 	mov.w	r2, #1
    2540:	f44f 712f 	mov.w	r1, #700	; 0x2bc
    2544:	4897      	ldr	r0, [pc, #604]	; (27a4 <test_float+0xbec>)
    2546:	4478      	add	r0, pc
    2548:	f01a ee14 	blx	1d174 <trace_printf@plt>
    254c:	f04f 0300 	mov.w	r3, #0
    2550:	f6cf 73ff 	movt	r3, #65535	; 0xffff
    2554:	e1cf      	b.n	28f6 <test_float+0xd3e>
/home/qemu-sgx/devel/optee/out-br/build/optee_test_ext-1.0/ta/os_test/os_test.c:701
    2556:	ed9f 0a84 	vldr	s0, [pc, #528]	; 2768 <test_float+0xbb0>
    255a:	f016 fe00 	bl	1915e <test_float_f2d>
    255e:	eef0 0b40 	vmov.f64	d16, d0
    2562:	ed9f 2b7d 	vldr	d2, [pc, #500]	; 2758 <test_float+0xba0>
    2566:	ed9f 1b7a 	vldr	d1, [pc, #488]	; 2750 <test_float+0xb98>
    256a:	eeb0 0b60 	vmov.f64	d0, d16
    256e:	f7ff fabd 	bl	1aec <my_dcmpeq>
    2572:	4603      	mov	r3, r0
    2574:	f083 0301 	eor.w	r3, r3, #1
    2578:	b2db      	uxtb	r3, r3
    257a:	2b00      	cmp	r3, #0
    257c:	d014      	beq.n	25a8 <test_float+0x9f0>
/home/qemu-sgx/devel/optee/out-br/build/optee_test_ext-1.0/ta/os_test/os_test.c:701 (discriminator 1)
    257e:	4b8a      	ldr	r3, [pc, #552]	; (27a8 <test_float+0xbf0>)
    2580:	447b      	add	r3, pc
    2582:	9301      	str	r3, [sp, #4]
    2584:	4b89      	ldr	r3, [pc, #548]	; (27ac <test_float+0xbf4>)
    2586:	447b      	add	r3, pc
    2588:	9300      	str	r3, [sp, #0]
    258a:	f04f 0301 	mov.w	r3, #1
    258e:	f04f 0201 	mov.w	r2, #1
    2592:	f240 21bd 	movw	r1, #701	; 0x2bd
    2596:	4886      	ldr	r0, [pc, #536]	; (27b0 <test_float+0xbf8>)
    2598:	4478      	add	r0, pc
    259a:	f01a edec 	blx	1d174 <trace_printf@plt>
    259e:	f04f 0300 	mov.w	r3, #0
    25a2:	f6cf 73ff 	movt	r3, #65535	; 0xffff
    25a6:	e1a6      	b.n	28f6 <test_float+0xd3e>
/home/qemu-sgx/devel/optee/out-br/build/optee_test_ext-1.0/ta/os_test/os_test.c:703
    25a8:	f04f 0002 	mov.w	r0, #2
    25ac:	f016 fde9 	bl	19182 <test_float_i2d>
    25b0:	eef0 0b40 	vmov.f64	d16, d0
    25b4:	ed9f 2b6a 	vldr	d2, [pc, #424]	; 2760 <test_float+0xba8>
    25b8:	eeb0 1b00 	vmov.f64	d1, #0	; 0x40000000  2.0
    25bc:	eeb0 0b60 	vmov.f64	d0, d16
    25c0:	f7ff fa94 	bl	1aec <my_dcmpeq>
    25c4:	4603      	mov	r3, r0
    25c6:	f083 0301 	eor.w	r3, r3, #1
    25ca:	b2db      	uxtb	r3, r3
    25cc:	2b00      	cmp	r3, #0
    25ce:	d014      	beq.n	25fa <test_float+0xa42>
/home/qemu-sgx/devel/optee/out-br/build/optee_test_ext-1.0/ta/os_test/os_test.c:703 (discriminator 1)
    25d0:	4b78      	ldr	r3, [pc, #480]	; (27b4 <test_float+0xbfc>)
    25d2:	447b      	add	r3, pc
    25d4:	9301      	str	r3, [sp, #4]
    25d6:	4b78      	ldr	r3, [pc, #480]	; (27b8 <test_float+0xc00>)
    25d8:	447b      	add	r3, pc
    25da:	9300      	str	r3, [sp, #0]
    25dc:	f04f 0301 	mov.w	r3, #1
    25e0:	f04f 0201 	mov.w	r2, #1
    25e4:	f240 21bf 	movw	r1, #703	; 0x2bf
    25e8:	4874      	ldr	r0, [pc, #464]	; (27bc <test_float+0xc04>)
    25ea:	4478      	add	r0, pc
    25ec:	f01a edc2 	blx	1d174 <trace_printf@plt>
    25f0:	f04f 0300 	mov.w	r3, #0
    25f4:	f6cf 73ff 	movt	r3, #65535	; 0xffff
    25f8:	e17d      	b.n	28f6 <test_float+0xd3e>
/home/qemu-sgx/devel/optee/out-br/build/optee_test_ext-1.0/ta/os_test/os_test.c:704
    25fa:	f04f 0002 	mov.w	r0, #2
    25fe:	f016 fdd2 	bl	191a6 <test_float_ui2d>
    2602:	eef0 0b40 	vmov.f64	d16, d0
    2606:	ed9f 2b56 	vldr	d2, [pc, #344]	; 2760 <test_float+0xba8>
    260a:	eeb0 1b00 	vmov.f64	d1, #0	; 0x40000000  2.0
    260e:	eeb0 0b60 	vmov.f64	d0, d16
    2612:	f7ff fa6b 	bl	1aec <my_dcmpeq>
    2616:	4603      	mov	r3, r0
    2618:	f083 0301 	eor.w	r3, r3, #1
    261c:	b2db      	uxtb	r3, r3
    261e:	2b00      	cmp	r3, #0
    2620:	d014      	beq.n	264c <test_float+0xa94>
/home/qemu-sgx/devel/optee/out-br/build/optee_test_ext-1.0/ta/os_test/os_test.c:704 (discriminator 1)
    2622:	4b67      	ldr	r3, [pc, #412]	; (27c0 <test_float+0xc08>)
    2624:	447b      	add	r3, pc
    2626:	9301      	str	r3, [sp, #4]
    2628:	4b66      	ldr	r3, [pc, #408]	; (27c4 <test_float+0xc0c>)
    262a:	447b      	add	r3, pc
    262c:	9300      	str	r3, [sp, #0]
    262e:	f04f 0301 	mov.w	r3, #1
    2632:	f04f 0201 	mov.w	r2, #1
    2636:	f44f 7130 	mov.w	r1, #704	; 0x2c0
    263a:	4863      	ldr	r0, [pc, #396]	; (27c8 <test_float+0xc10>)
    263c:	4478      	add	r0, pc
    263e:	f01a ed9a 	blx	1d174 <trace_printf@plt>
    2642:	f04f 0300 	mov.w	r3, #0
    2646:	f6cf 73ff 	movt	r3, #65535	; 0xffff
    264a:	e154      	b.n	28f6 <test_float+0xd3e>
/home/qemu-sgx/devel/optee/out-br/build/optee_test_ext-1.0/ta/os_test/os_test.c:705
    264c:	f04f 0002 	mov.w	r0, #2
    2650:	f04f 0100 	mov.w	r1, #0
    2654:	f016 fdb9 	bl	191ca <test_float_l2d>
    2658:	eef0 0b40 	vmov.f64	d16, d0
    265c:	ed9f 2b40 	vldr	d2, [pc, #256]	; 2760 <test_float+0xba8>
    2660:	eeb0 1b00 	vmov.f64	d1, #0	; 0x40000000  2.0
    2664:	eeb0 0b60 	vmov.f64	d0, d16
    2668:	f7ff fa40 	bl	1aec <my_dcmpeq>
    266c:	4603      	mov	r3, r0
    266e:	f083 0301 	eor.w	r3, r3, #1
    2672:	b2db      	uxtb	r3, r3
    2674:	2b00      	cmp	r3, #0
    2676:	d014      	beq.n	26a2 <test_float+0xaea>
/home/qemu-sgx/devel/optee/out-br/build/optee_test_ext-1.0/ta/os_test/os_test.c:705 (discriminator 1)
    2678:	4b54      	ldr	r3, [pc, #336]	; (27cc <test_float+0xc14>)
    267a:	447b      	add	r3, pc
    267c:	9301      	str	r3, [sp, #4]
    267e:	4b54      	ldr	r3, [pc, #336]	; (27d0 <test_float+0xc18>)
    2680:	447b      	add	r3, pc
    2682:	9300      	str	r3, [sp, #0]
    2684:	f04f 0301 	mov.w	r3, #1
    2688:	f04f 0201 	mov.w	r2, #1
    268c:	f240 21c1 	movw	r1, #705	; 0x2c1
    2690:	4850      	ldr	r0, [pc, #320]	; (27d4 <test_float+0xc1c>)
    2692:	4478      	add	r0, pc
    2694:	f01a ed6e 	blx	1d174 <trace_printf@plt>
    2698:	f04f 0300 	mov.w	r3, #0
    269c:	f6cf 73ff 	movt	r3, #65535	; 0xffff
    26a0:	e129      	b.n	28f6 <test_float+0xd3e>
/home/qemu-sgx/devel/optee/out-br/build/optee_test_ext-1.0/ta/os_test/os_test.c:706
    26a2:	f04f 0002 	mov.w	r0, #2
    26a6:	f04f 0100 	mov.w	r1, #0
    26aa:	f016 fda2 	bl	191f2 <test_float_ul2d>
    26ae:	eef0 0b40 	vmov.f64	d16, d0
    26b2:	ed9f 2b2b 	vldr	d2, [pc, #172]	; 2760 <test_float+0xba8>
    26b6:	eeb0 1b00 	vmov.f64	d1, #0	; 0x40000000  2.0
    26ba:	eeb0 0b60 	vmov.f64	d0, d16
    26be:	f7ff fa15 	bl	1aec <my_dcmpeq>
    26c2:	4603      	mov	r3, r0
    26c4:	f083 0301 	eor.w	r3, r3, #1
    26c8:	b2db      	uxtb	r3, r3
    26ca:	2b00      	cmp	r3, #0
    26cc:	d014      	beq.n	26f8 <test_float+0xb40>
/home/qemu-sgx/devel/optee/out-br/build/optee_test_ext-1.0/ta/os_test/os_test.c:706 (discriminator 1)
    26ce:	4b42      	ldr	r3, [pc, #264]	; (27d8 <test_float+0xc20>)
    26d0:	447b      	add	r3, pc
    26d2:	9301      	str	r3, [sp, #4]
    26d4:	4b41      	ldr	r3, [pc, #260]	; (27dc <test_float+0xc24>)
    26d6:	447b      	add	r3, pc
    26d8:	9300      	str	r3, [sp, #0]
    26da:	f04f 0301 	mov.w	r3, #1
    26de:	f04f 0201 	mov.w	r2, #1
    26e2:	f240 21c2 	movw	r1, #706	; 0x2c2
    26e6:	483e      	ldr	r0, [pc, #248]	; (27e0 <test_float+0xc28>)
    26e8:	4478      	add	r0, pc
    26ea:	f01a ed44 	blx	1d174 <trace_printf@plt>
    26ee:	f04f 0300 	mov.w	r3, #0
    26f2:	f6cf 73ff 	movt	r3, #65535	; 0xffff
    26f6:	e0fe      	b.n	28f6 <test_float+0xd3e>
/home/qemu-sgx/devel/optee/out-br/build/optee_test_ext-1.0/ta/os_test/os_test.c:708
    26f8:	f04f 0002 	mov.w	r0, #2
    26fc:	f016 fd8d 	bl	1921a <test_float_i2f>
    2700:	eef0 7a40 	vmov.f32	s15, s0
    2704:	ed9f 1a3a 	vldr	s2, [pc, #232]	; 27f0 <test_float+0xc38>
    2708:	eef0 0a00 	vmov.f32	s1, #0	; 0x40000000  2.0
    270c:	eeb0 0a67 	vmov.f32	s0, s15
    2710:	f7ff fa1f 	bl	1b52 <my_fcmpeq>
    2714:	4603      	mov	r3, r0
    2716:	f083 0301 	eor.w	r3, r3, #1
    271a:	b2db      	uxtb	r3, r3
    271c:	2b00      	cmp	r3, #0
    271e:	d069      	beq.n	27f4 <test_float+0xc3c>
/home/qemu-sgx/devel/optee/out-br/build/optee_test_ext-1.0/ta/os_test/os_test.c:708 (discriminator 1)
    2720:	4b30      	ldr	r3, [pc, #192]	; (27e4 <test_float+0xc2c>)
    2722:	447b      	add	r3, pc
    2724:	9301      	str	r3, [sp, #4]
    2726:	4b30      	ldr	r3, [pc, #192]	; (27e8 <test_float+0xc30>)
    2728:	447b      	add	r3, pc
    272a:	9300      	str	r3, [sp, #0]
    272c:	f04f 0301 	mov.w	r3, #1
    2730:	f04f 0201 	mov.w	r2, #1
    2734:	f44f 7131 	mov.w	r1, #708	; 0x2c4
    2738:	482c      	ldr	r0, [pc, #176]	; (27ec <test_float+0xc34>)
    273a:	4478      	add	r0, pc
    273c:	f01a ed1a 	blx	1d174 <trace_printf@plt>
    2740:	f04f 0300 	mov.w	r3, #0
    2744:	f6cf 73ff 	movt	r3, #65535	; 0xffff
    2748:	e0d5      	b.n	28f6 <test_float+0xd3e>
    274a:	bf00      	nop
    274c:	f3af 8000 	nop.w
    2750:	cccccccd 	.word	0xcccccccd
    2754:	4004cccc 	.word	0x4004cccc
    2758:	a0b5ed8d 	.word	0xa0b5ed8d
    275c:	3eb0c6f7 	.word	0x3eb0c6f7
    2760:	9ee75616 	.word	0x9ee75616
    2764:	3cd203af 	.word	0x3cd203af
    2768:	40266666 	.word	0x40266666
    276c:	0001bdc4 	.word	0x0001bdc4
    2770:	0001b992 	.word	0x0001b992
    2774:	0001c46c 	.word	0x0001c46c
    2778:	0001bdb0 	.word	0x0001bdb0
    277c:	0001b95a 	.word	0x0001b95a
    2780:	0001c434 	.word	0x0001c434
    2784:	0001bd96 	.word	0x0001bd96
    2788:	0001b91c 	.word	0x0001b91c
    278c:	0001c3f6 	.word	0x0001c3f6
    2790:	0001bd7c 	.word	0x0001bd7c
    2794:	0001b8de 	.word	0x0001b8de
    2798:	0001c3b8 	.word	0x0001c3b8
    279c:	0001bd4e 	.word	0x0001bd4e
    27a0:	0001b88c 	.word	0x0001b88c
    27a4:	0001c366 	.word	0x0001c366
    27a8:	0001bd2c 	.word	0x0001bd2c
    27ac:	0001b83a 	.word	0x0001b83a
    27b0:	0001c314 	.word	0x0001c314
    27b4:	0001bd0a 	.word	0x0001bd0a
    27b8:	0001b7e8 	.word	0x0001b7e8
    27bc:	0001c2c2 	.word	0x0001c2c2
    27c0:	0001bcf0 	.word	0x0001bcf0
    27c4:	0001b796 	.word	0x0001b796
    27c8:	0001c270 	.word	0x0001c270
    27cc:	0001bcd2 	.word	0x0001bcd2
    27d0:	0001b740 	.word	0x0001b740
    27d4:	0001c21a 	.word	0x0001c21a
    27d8:	0001bcb4 	.word	0x0001bcb4
    27dc:	0001b6ea 	.word	0x0001b6ea
    27e0:	0001c1c4 	.word	0x0001c1c4
    27e4:	0001bc9a 	.word	0x0001bc9a
    27e8:	0001b698 	.word	0x0001b698
    27ec:	0001c172 	.word	0x0001c172
    27f0:	358637bd 	.word	0x358637bd
/home/qemu-sgx/devel/optee/out-br/build/optee_test_ext-1.0/ta/os_test/os_test.c:709
    27f4:	f04f 0002 	mov.w	r0, #2
    27f8:	f016 fd21 	bl	1923e <test_float_ui2f>
    27fc:	eef0 7a40 	vmov.f32	s15, s0
    2800:	ed1f 1a05 	vldr	s2, [pc, #-20]	; 27f0 <test_float+0xc38>
    2804:	eef0 0a00 	vmov.f32	s1, #0	; 0x40000000  2.0
    2808:	eeb0 0a67 	vmov.f32	s0, s15
    280c:	f7ff f9a1 	bl	1b52 <my_fcmpeq>
    2810:	4603      	mov	r3, r0
    2812:	f083 0301 	eor.w	r3, r3, #1
    2816:	b2db      	uxtb	r3, r3
    2818:	2b00      	cmp	r3, #0
    281a:	d014      	beq.n	2846 <test_float+0xc8e>
/home/qemu-sgx/devel/optee/out-br/build/optee_test_ext-1.0/ta/os_test/os_test.c:709 (discriminator 1)
    281c:	4b38      	ldr	r3, [pc, #224]	; (2900 <test_float+0xd48>)
    281e:	447b      	add	r3, pc
    2820:	9301      	str	r3, [sp, #4]
    2822:	4b38      	ldr	r3, [pc, #224]	; (2904 <test_float+0xd4c>)
    2824:	447b      	add	r3, pc
    2826:	9300      	str	r3, [sp, #0]
    2828:	f04f 0301 	mov.w	r3, #1
    282c:	f04f 0201 	mov.w	r2, #1
    2830:	f240 21c5 	movw	r1, #709	; 0x2c5
    2834:	4834      	ldr	r0, [pc, #208]	; (2908 <test_float+0xd50>)
    2836:	4478      	add	r0, pc
    2838:	f01a ec9c 	blx	1d174 <trace_printf@plt>
    283c:	f04f 0300 	mov.w	r3, #0
    2840:	f6cf 73ff 	movt	r3, #65535	; 0xffff
    2844:	e057      	b.n	28f6 <test_float+0xd3e>
/home/qemu-sgx/devel/optee/out-br/build/optee_test_ext-1.0/ta/os_test/os_test.c:710
    2846:	f04f 0002 	mov.w	r0, #2
    284a:	f04f 0100 	mov.w	r1, #0
    284e:	f016 fd08 	bl	19262 <test_float_l2f>
    2852:	eef0 7a40 	vmov.f32	s15, s0
    2856:	ed9f 1a29 	vldr	s2, [pc, #164]	; 28fc <test_float+0xd44>
    285a:	eef0 0a00 	vmov.f32	s1, #0	; 0x40000000  2.0
    285e:	eeb0 0a67 	vmov.f32	s0, s15
    2862:	f7ff f976 	bl	1b52 <my_fcmpeq>
    2866:	4603      	mov	r3, r0
    2868:	f083 0301 	eor.w	r3, r3, #1
    286c:	b2db      	uxtb	r3, r3
    286e:	2b00      	cmp	r3, #0
    2870:	d014      	beq.n	289c <test_float+0xce4>
/home/qemu-sgx/devel/optee/out-br/build/optee_test_ext-1.0/ta/os_test/os_test.c:710 (discriminator 1)
    2872:	4b26      	ldr	r3, [pc, #152]	; (290c <test_float+0xd54>)
    2874:	447b      	add	r3, pc
    2876:	9301      	str	r3, [sp, #4]
    2878:	4b25      	ldr	r3, [pc, #148]	; (2910 <test_float+0xd58>)
    287a:	447b      	add	r3, pc
    287c:	9300      	str	r3, [sp, #0]
    287e:	f04f 0301 	mov.w	r3, #1
    2882:	f04f 0201 	mov.w	r2, #1
    2886:	f240 21c6 	movw	r1, #710	; 0x2c6
    288a:	4822      	ldr	r0, [pc, #136]	; (2914 <test_float+0xd5c>)
    288c:	4478      	add	r0, pc
    288e:	f01a ec72 	blx	1d174 <trace_printf@plt>
    2892:	f04f 0300 	mov.w	r3, #0
    2896:	f6cf 73ff 	movt	r3, #65535	; 0xffff
    289a:	e02c      	b.n	28f6 <test_float+0xd3e>
/home/qemu-sgx/devel/optee/out-br/build/optee_test_ext-1.0/ta/os_test/os_test.c:711
    289c:	f04f 0002 	mov.w	r0, #2
    28a0:	f04f 0100 	mov.w	r1, #0
    28a4:	f016 fcf0 	bl	19288 <test_float_ul2f>
    28a8:	eef0 7a40 	vmov.f32	s15, s0
    28ac:	ed9f 1a13 	vldr	s2, [pc, #76]	; 28fc <test_float+0xd44>
    28b0:	eef0 0a00 	vmov.f32	s1, #0	; 0x40000000  2.0
    28b4:	eeb0 0a67 	vmov.f32	s0, s15
    28b8:	f7ff f94b 	bl	1b52 <my_fcmpeq>
    28bc:	4603      	mov	r3, r0
    28be:	f083 0301 	eor.w	r3, r3, #1
    28c2:	b2db      	uxtb	r3, r3
    28c4:	2b00      	cmp	r3, #0
    28c6:	d014      	beq.n	28f2 <test_float+0xd3a>
/home/qemu-sgx/devel/optee/out-br/build/optee_test_ext-1.0/ta/os_test/os_test.c:711 (discriminator 1)
    28c8:	4b13      	ldr	r3, [pc, #76]	; (2918 <test_float+0xd60>)
    28ca:	447b      	add	r3, pc
    28cc:	9301      	str	r3, [sp, #4]
    28ce:	4b13      	ldr	r3, [pc, #76]	; (291c <test_float+0xd64>)
    28d0:	447b      	add	r3, pc
    28d2:	9300      	str	r3, [sp, #0]
    28d4:	f04f 0301 	mov.w	r3, #1
    28d8:	f04f 0201 	mov.w	r2, #1
    28dc:	f240 21c7 	movw	r1, #711	; 0x2c7
    28e0:	480f      	ldr	r0, [pc, #60]	; (2920 <test_float+0xd68>)
    28e2:	4478      	add	r0, pc
    28e4:	f01a ec46 	blx	1d174 <trace_printf@plt>
    28e8:	f04f 0300 	mov.w	r3, #0
    28ec:	f6cf 73ff 	movt	r3, #65535	; 0xffff
    28f0:	e001      	b.n	28f6 <test_float+0xd3e>
/home/qemu-sgx/devel/optee/out-br/build/optee_test_ext-1.0/ta/os_test/os_test.c:712
    28f2:	f04f 0300 	mov.w	r3, #0
/home/qemu-sgx/devel/optee/out-br/build/optee_test_ext-1.0/ta/os_test/os_test.c:713
    28f6:	4618      	mov	r0, r3
    28f8:	46bd      	mov	sp, r7
    28fa:	bd80      	pop	{r7, pc}
    28fc:	358637bd 	.word	0x358637bd
    2900:	0001bbd6 	.word	0x0001bbd6
    2904:	0001b59c 	.word	0x0001b59c
    2908:	0001c076 	.word	0x0001c076
    290c:	0001bbb8 	.word	0x0001bbb8
    2910:	0001b546 	.word	0x0001b546
    2914:	0001c020 	.word	0x0001c020
    2918:	0001bb9a 	.word	0x0001bb9a
    291c:	0001b4f0 	.word	0x0001b4f0
    2920:	0001bfca 	.word	0x0001bfca

00002924 <malloc_wrapper>:
malloc_wrapper():
/home/qemu-sgx/devel/optee/out-br/build/optee_test_ext-1.0/ta/os_test/os_test.c:727
    2924:	e96d 7e02 	strd	r7, lr, [sp, #-8]!
    2928:	b082      	sub	sp, #8
    292a:	af00      	add	r7, sp, #0
    292c:	6078      	str	r0, [r7, #4]
/home/qemu-sgx/devel/optee/out-br/build/optee_test_ext-1.0/ta/os_test/os_test.c:728
    292e:	f04f 0100 	mov.w	r1, #0
    2932:	6878      	ldr	r0, [r7, #4]
    2934:	f01a ecde 	blx	1d2f4 <tee_map_zi@plt>
    2938:	4603      	mov	r3, r0
/home/qemu-sgx/devel/optee/out-br/build/optee_test_ext-1.0/ta/os_test/os_test.c:729
    293a:	4618      	mov	r0, r3
    293c:	f107 0708 	add.w	r7, r7, #8
    2940:	46bd      	mov	sp, r7
    2942:	bd80      	pop	{r7, pc}

00002944 <free_wrapper>:
free_wrapper():
/home/qemu-sgx/devel/optee/out-br/build/optee_test_ext-1.0/ta/os_test/os_test.c:732
    2944:	f84d 7d04 	str.w	r7, [sp, #-4]!
    2948:	b083      	sub	sp, #12
    294a:	af00      	add	r7, sp, #0
    294c:	6078      	str	r0, [r7, #4]
/home/qemu-sgx/devel/optee/out-br/build/optee_test_ext-1.0/ta/os_test/os_test.c:733
    294e:	bf00      	nop
    2950:	f107 070c 	add.w	r7, r7, #12
    2954:	46bd      	mov	sp, r7
    2956:	f85d 7b04 	ldr.w	r7, [sp], #4
    295a:	4770      	bx	lr

0000295c <test_bget>:
test_bget():
/home/qemu-sgx/devel/optee/out-br/build/optee_test_ext-1.0/ta/os_test/os_test.c:736
    295c:	e96d 7e02 	strd	r7, lr, [sp, #-8]!
    2960:	b082      	sub	sp, #8
    2962:	af02      	add	r7, sp, #8
/home/qemu-sgx/devel/optee/out-br/build/optee_test_ext-1.0/ta/os_test/os_test.c:738
    2964:	4b10      	ldr	r3, [pc, #64]	; (29a8 <test_bget+0x4c>)
    2966:	447b      	add	r3, pc
    2968:	4619      	mov	r1, r3
    296a:	4b10      	ldr	r3, [pc, #64]	; (29ac <test_bget+0x50>)
    296c:	447b      	add	r3, pc
    296e:	4618      	mov	r0, r3
    2970:	f01a ec7e 	blx	1d270 <bget_main_test@plt>
    2974:	4603      	mov	r3, r0
    2976:	2b00      	cmp	r3, #0
    2978:	d011      	beq.n	299e <test_bget+0x42>
/home/qemu-sgx/devel/optee/out-br/build/optee_test_ext-1.0/ta/os_test/os_test.c:739
    297a:	4b0d      	ldr	r3, [pc, #52]	; (29b0 <test_bget+0x54>)
    297c:	447b      	add	r3, pc
    297e:	9300      	str	r3, [sp, #0]
    2980:	f04f 0301 	mov.w	r3, #1
    2984:	f04f 0201 	mov.w	r2, #1
    2988:	f240 21e3 	movw	r1, #739	; 0x2e3
    298c:	4809      	ldr	r0, [pc, #36]	; (29b4 <test_bget+0x58>)
    298e:	4478      	add	r0, pc
    2990:	f01a ebf0 	blx	1d174 <trace_printf@plt>
/home/qemu-sgx/devel/optee/out-br/build/optee_test_ext-1.0/ta/os_test/os_test.c:740
    2994:	f04f 0300 	mov.w	r3, #0
    2998:	f6cf 73ff 	movt	r3, #65535	; 0xffff
    299c:	e001      	b.n	29a2 <test_bget+0x46>
/home/qemu-sgx/devel/optee/out-br/build/optee_test_ext-1.0/ta/os_test/os_test.c:743
    299e:	f04f 0300 	mov.w	r3, #0
/home/qemu-sgx/devel/optee/out-br/build/optee_test_ext-1.0/ta/os_test/os_test.c:744
    29a2:	4618      	mov	r0, r3
    29a4:	46bd      	mov	sp, r7
    29a6:	bd80      	pop	{r7, pc}
    29a8:	ffffffdb 	.word	0xffffffdb
    29ac:	ffffffb5 	.word	0xffffffb5
    29b0:	0001bb20 	.word	0x0001bb20
    29b4:	0001bf2a 	.word	0x0001bf2a

000029b8 <call_longjmp>:
call_longjmp():
/home/qemu-sgx/devel/optee/out-br/build/optee_test_ext-1.0/ta/os_test/os_test.c:755
    29b8:	e96d 7e02 	strd	r7, lr, [sp, #-8]!
    29bc:	b082      	sub	sp, #8
    29be:	af00      	add	r7, sp, #0
    29c0:	6078      	str	r0, [r7, #4]
/home/qemu-sgx/devel/optee/out-br/build/optee_test_ext-1.0/ta/os_test/os_test.c:757
    29c2:	f04f 0101 	mov.w	r1, #1
    29c6:	6878      	ldr	r0, [r7, #4]
    29c8:	f001 ef30 	blx	482c <longjmp>

000029cc <test_setjmp>:
test_setjmp():
/home/qemu-sgx/devel/optee/out-br/build/optee_test_ext-1.0/ta/os_test/os_test.c:762
    29cc:	e96d 7e02 	strd	r7, lr, [sp, #-8]!
    29d0:	b098      	sub	sp, #96	; 0x60
    29d2:	af00      	add	r7, sp, #0
/home/qemu-sgx/devel/optee/out-br/build/optee_test_ext-1.0/ta/os_test/os_test.c:763
    29d4:	463b      	mov	r3, r7
    29d6:	f04f 0260 	mov.w	r2, #96	; 0x60
    29da:	f04f 0100 	mov.w	r1, #0
    29de:	4618      	mov	r0, r3
    29e0:	f01a ec6a 	blx	1d2b8 <memset@plt>
/home/qemu-sgx/devel/optee/out-br/build/optee_test_ext-1.0/ta/os_test/os_test.c:765
    29e4:	463b      	mov	r3, r7
    29e6:	4618      	mov	r0, r3
    29e8:	f001 ef12 	blx	4810 <setjmp>
    29ec:	4603      	mov	r3, r0
    29ee:	2b00      	cmp	r3, #0
    29f0:	d002      	beq.n	29f8 <test_setjmp+0x2c>
/home/qemu-sgx/devel/optee/out-br/build/optee_test_ext-1.0/ta/os_test/os_test.c:767
    29f2:	f04f 0300 	mov.w	r3, #0
    29f6:	e003      	b.n	2a00 <test_setjmp+0x34>
/home/qemu-sgx/devel/optee/out-br/build/optee_test_ext-1.0/ta/os_test/os_test.c:769
    29f8:	463b      	mov	r3, r7
    29fa:	4618      	mov	r0, r3
    29fc:	f7ff ffdc 	bl	29b8 <call_longjmp>
/home/qemu-sgx/devel/optee/out-br/build/optee_test_ext-1.0/ta/os_test/os_test.c:772 (discriminator 1)
    2a00:	4618      	mov	r0, r3
    2a02:	f107 0760 	add.w	r7, r7, #96	; 0x60
    2a06:	46bd      	mov	sp, r7
    2a08:	bd80      	pop	{r7, pc}

00002a0a <ta_entry_basic>:
ta_entry_basic():
/home/qemu-sgx/devel/optee/out-br/build/optee_test_ext-1.0/ta/os_test/os_test.c:775
    2a0a:	e96d 7e02 	strd	r7, lr, [sp, #-8]!
    2a0e:	b084      	sub	sp, #16
    2a10:	af00      	add	r7, sp, #0
    2a12:	6078      	str	r0, [r7, #4]
    2a14:	6039      	str	r1, [r7, #0]
/home/qemu-sgx/devel/optee/out-br/build/optee_test_ext-1.0/ta/os_test/os_test.c:776
    2a16:	f04f 0300 	mov.w	r3, #0
    2a1a:	f6cf 73ff 	movt	r3, #65535	; 0xffff
    2a1e:	60fb      	str	r3, [r7, #12]
/home/qemu-sgx/devel/optee/out-br/build/optee_test_ext-1.0/ta/os_test/os_test.c:778
    2a20:	4b22      	ldr	r3, [pc, #136]	; (2aac <ta_entry_basic+0xa2>)
    2a22:	447b      	add	r3, pc
    2a24:	4618      	mov	r0, r3
    2a26:	f01a ebbe 	blx	1d1a4 <puts@plt>
/home/qemu-sgx/devel/optee/out-br/build/optee_test_ext-1.0/ta/os_test/os_test.c:780
    2a2a:	f7fe fa19 	bl	e60 <test_malloc>
    2a2e:	60f8      	str	r0, [r7, #12]
/home/qemu-sgx/devel/optee/out-br/build/optee_test_ext-1.0/ta/os_test/os_test.c:781
    2a30:	68fb      	ldr	r3, [r7, #12]
    2a32:	2b00      	cmp	r3, #0
    2a34:	d001      	beq.n	2a3a <ta_entry_basic+0x30>
/home/qemu-sgx/devel/optee/out-br/build/optee_test_ext-1.0/ta/os_test/os_test.c:782
    2a36:	68fb      	ldr	r3, [r7, #12]
    2a38:	e033      	b.n	2aa2 <ta_entry_basic+0x98>
/home/qemu-sgx/devel/optee/out-br/build/optee_test_ext-1.0/ta/os_test/os_test.c:784
    2a3a:	f7fe fa43 	bl	ec4 <test_properties>
    2a3e:	60f8      	str	r0, [r7, #12]
/home/qemu-sgx/devel/optee/out-br/build/optee_test_ext-1.0/ta/os_test/os_test.c:785
    2a40:	68fb      	ldr	r3, [r7, #12]
    2a42:	2b00      	cmp	r3, #0
    2a44:	d001      	beq.n	2a4a <ta_entry_basic+0x40>
/home/qemu-sgx/devel/optee/out-br/build/optee_test_ext-1.0/ta/os_test/os_test.c:786
    2a46:	68fb      	ldr	r3, [r7, #12]
    2a48:	e02b      	b.n	2aa2 <ta_entry_basic+0x98>
/home/qemu-sgx/devel/optee/out-br/build/optee_test_ext-1.0/ta/os_test/os_test.c:788
    2a4a:	6839      	ldr	r1, [r7, #0]
    2a4c:	6878      	ldr	r0, [r7, #4]
    2a4e:	f7fe fd7f 	bl	1550 <test_mem_access_right>
    2a52:	60f8      	str	r0, [r7, #12]
/home/qemu-sgx/devel/optee/out-br/build/optee_test_ext-1.0/ta/os_test/os_test.c:789
    2a54:	68fb      	ldr	r3, [r7, #12]
    2a56:	2b00      	cmp	r3, #0
    2a58:	d001      	beq.n	2a5e <ta_entry_basic+0x54>
/home/qemu-sgx/devel/optee/out-br/build/optee_test_ext-1.0/ta/os_test/os_test.c:790
    2a5a:	68fb      	ldr	r3, [r7, #12]
    2a5c:	e021      	b.n	2aa2 <ta_entry_basic+0x98>
/home/qemu-sgx/devel/optee/out-br/build/optee_test_ext-1.0/ta/os_test/os_test.c:792
    2a5e:	f7fe feb1 	bl	17c4 <test_time>
    2a62:	60f8      	str	r0, [r7, #12]
/home/qemu-sgx/devel/optee/out-br/build/optee_test_ext-1.0/ta/os_test/os_test.c:793
    2a64:	68fb      	ldr	r3, [r7, #12]
    2a66:	2b00      	cmp	r3, #0
    2a68:	d001      	beq.n	2a6e <ta_entry_basic+0x64>
/home/qemu-sgx/devel/optee/out-br/build/optee_test_ext-1.0/ta/os_test/os_test.c:794
    2a6a:	68fb      	ldr	r3, [r7, #12]
    2a6c:	e019      	b.n	2aa2 <ta_entry_basic+0x98>
/home/qemu-sgx/devel/optee/out-br/build/optee_test_ext-1.0/ta/os_test/os_test.c:796
    2a6e:	f7ff f8a3 	bl	1bb8 <test_float>
    2a72:	60f8      	str	r0, [r7, #12]
/home/qemu-sgx/devel/optee/out-br/build/optee_test_ext-1.0/ta/os_test/os_test.c:797
    2a74:	68fb      	ldr	r3, [r7, #12]
    2a76:	2b00      	cmp	r3, #0
    2a78:	d001      	beq.n	2a7e <ta_entry_basic+0x74>
/home/qemu-sgx/devel/optee/out-br/build/optee_test_ext-1.0/ta/os_test/os_test.c:798
    2a7a:	68fb      	ldr	r3, [r7, #12]
    2a7c:	e011      	b.n	2aa2 <ta_entry_basic+0x98>
/home/qemu-sgx/devel/optee/out-br/build/optee_test_ext-1.0/ta/os_test/os_test.c:800
    2a7e:	f7ff ffa5 	bl	29cc <test_setjmp>
    2a82:	60f8      	str	r0, [r7, #12]
/home/qemu-sgx/devel/optee/out-br/build/optee_test_ext-1.0/ta/os_test/os_test.c:801
    2a84:	68fb      	ldr	r3, [r7, #12]
    2a86:	2b00      	cmp	r3, #0
    2a88:	d001      	beq.n	2a8e <ta_entry_basic+0x84>
/home/qemu-sgx/devel/optee/out-br/build/optee_test_ext-1.0/ta/os_test/os_test.c:802
    2a8a:	68fb      	ldr	r3, [r7, #12]
    2a8c:	e009      	b.n	2aa2 <ta_entry_basic+0x98>
/home/qemu-sgx/devel/optee/out-br/build/optee_test_ext-1.0/ta/os_test/os_test.c:804
    2a8e:	f7ff ff65 	bl	295c <test_bget>
    2a92:	60f8      	str	r0, [r7, #12]
/home/qemu-sgx/devel/optee/out-br/build/optee_test_ext-1.0/ta/os_test/os_test.c:805
    2a94:	68fb      	ldr	r3, [r7, #12]
    2a96:	2b00      	cmp	r3, #0
    2a98:	d001      	beq.n	2a9e <ta_entry_basic+0x94>
/home/qemu-sgx/devel/optee/out-br/build/optee_test_ext-1.0/ta/os_test/os_test.c:806
    2a9a:	68fb      	ldr	r3, [r7, #12]
    2a9c:	e001      	b.n	2aa2 <ta_entry_basic+0x98>
/home/qemu-sgx/devel/optee/out-br/build/optee_test_ext-1.0/ta/os_test/os_test.c:808
    2a9e:	f04f 0300 	mov.w	r3, #0
/home/qemu-sgx/devel/optee/out-br/build/optee_test_ext-1.0/ta/os_test/os_test.c:809
    2aa2:	4618      	mov	r0, r3
    2aa4:	f107 0710 	add.w	r7, r7, #16
    2aa8:	46bd      	mov	sp, r7
    2aaa:	bd80      	pop	{r7, pc}
    2aac:	0001ba92 	.word	0x0001ba92

00002ab0 <ta_entry_panic>:
ta_entry_panic():
/home/qemu-sgx/devel/optee/out-br/build/optee_test_ext-1.0/ta/os_test/os_test.c:812
    2ab0:	e96d 7e02 	strd	r7, lr, [sp, #-8]!
    2ab4:	b084      	sub	sp, #16
    2ab6:	af00      	add	r7, sp, #0
    2ab8:	6078      	str	r0, [r7, #4]
