
out/b689f2a7-8adf-477a-9f99-32e90c0ad0a2.elf:     file format elf32-littlearm
out/b689f2a7-8adf-477a-9f99-32e90c0ad0a2.elf
architecture: armv7, flags 0x00000150:
HAS_SYMS, DYNAMIC, D_PAGED
start address 0x000010dc

Program Header:
0x70000001 off    0x000177ec vaddr 0x000167ec paddr 0x000167ec align 2**2
         filesz 0x00000b80 memsz 0x00000b80 flags r--
    LOAD off    0x00001000 vaddr 0x00000000 paddr 0x00000000 align 2**12
         filesz 0x00017428 memsz 0x00017428 flags r-x
    LOAD off    0x00019000 vaddr 0x00018000 paddr 0x00018000 align 2**12
         filesz 0x000002d8 memsz 0x00013338 flags rw-
 DYNAMIC off    0x00019000 vaddr 0x00018000 paddr 0x00018000 align 2**2
         filesz 0x00000088 memsz 0x00000088 flags rw-
   STACK off    0x00000000 vaddr 0x00000000 paddr 0x00000000 align 2**4
         filesz 0x00000000 memsz 0x00000000 flags rwx

Dynamic Section:
  HASH                 0x000173fc
  GNU_HASH             0x000157cc
  STRTAB               0x000173cc
  SYMTAB               0x0001736c
  STRSZ                0x0000002e
  SYMENT               0x00000010
  DEBUG                0x00000000
  REL                  0x000180d0
  RELSZ                0x00000120
  RELENT               0x00000008
  FLAGS_1              0x08000000
  RELCOUNT             0x00000015
private flags = 5000400: [Version5 EABI] [hard-float ABI]

Sections:
Idx Name          Size      VMA       LMA       File off  Algn
  0 .ta_head      00000020  00000000  00000000  00001000  2**3
                  CONTENTS, ALLOC, LOAD, READONLY, DATA
  1 .text         000143dc  00000020  00000020  00001020  2**2
                  CONTENTS, ALLOC, LOAD, READONLY, CODE
  2 .rodata       000013ce  000143fc  000143fc  000153fc  2**2
                  CONTENTS, ALLOC, LOAD, READONLY, DATA
  3 .gnu.hash     0000002c  000157cc  000157cc  000167cc  2**2
                  CONTENTS, ALLOC, LOAD, READONLY, DATA
  4 .ARM.extab    00000ff4  000157f8  000157f8  000167f8  2**2
                  CONTENTS, ALLOC, LOAD, READONLY, DATA
  5 .ARM.exidx    00000b80  000167ec  000167ec  000177ec  2**2
                  CONTENTS, ALLOC, LOAD, READONLY, DATA
  6 .dynsym       00000060  0001736c  0001736c  0001836c  2**2
                  CONTENTS, ALLOC, LOAD, READONLY, DATA
  7 .dynstr       0000002e  000173cc  000173cc  000183cc  2**0
                  CONTENTS, ALLOC, LOAD, READONLY, DATA
  8 .hash         0000002c  000173fc  000173fc  000183fc  2**2
                  CONTENTS, ALLOC, LOAD, READONLY, DATA
  9 .dynamic      00000088  00018000  00018000  00019000  2**2
                  CONTENTS, ALLOC, LOAD, DATA
 10 .got          00000048  00018088  00018088  00019088  2**2
                  CONTENTS, ALLOC, LOAD, DATA
 11 .rel.got      00000078  00018178  00018178  00019178  2**2
                  CONTENTS, ALLOC, LOAD, READONLY, DATA
 12 .data         000000e8  000181f0  000181f0  000191f0  2**2
                  CONTENTS, ALLOC, LOAD, DATA
 13 .bss          00013060  000182d8  000182d8  000192d8  2**2
                  ALLOC
 14 .debug_info   0000d3d9  00000000  00000000  000192d8  2**0
                  CONTENTS, READONLY, DEBUGGING, OCTETS
 15 .debug_abbrev 00002a19  00000000  00000000  000266b1  2**0
                  CONTENTS, READONLY, DEBUGGING, OCTETS
 16 .debug_aranges 000005c8  00000000  00000000  000290d0  2**3
                  CONTENTS, READONLY, DEBUGGING, OCTETS
 17 .debug_macro  00018e90  00000000  00000000  00029698  2**0
                  CONTENTS, READONLY, DEBUGGING, OCTETS
 18 .debug_line   0000a98e  00000000  00000000  00042528  2**0
                  CONTENTS, READONLY, DEBUGGING, OCTETS
 19 .debug_str    00018370  00000000  00000000  0004ceb6  2**0
                  CONTENTS, READONLY, DEBUGGING, OCTETS
 20 .comment      0000005d  00000000  00000000  00065226  2**0
                  CONTENTS, READONLY
 21 .ARM.attributes 00000033  00000000  00000000  00065283  2**0
                  CONTENTS, READONLY
 22 .debug_frame  00003a00  00000000  00000000  000652b8  2**2
                  CONTENTS, READONLY, DEBUGGING, OCTETS
 23 .rel.dyn      000000a8  000180d0  000180d0  000190d0  2**2
                  CONTENTS, ALLOC, LOAD, READONLY, DATA
 24 .debug_ranges 00000240  00000000  00000000  00068cb8  2**3
                  CONTENTS, READONLY, DEBUGGING, OCTETS
SYMBOL TABLE:
00000000 l    d  .ta_head	00000000 .ta_head
00000020 l    d  .text	00000000 .text
000143fc l    d  .rodata	00000000 .rodata
000157cc l    d  .gnu.hash	00000000 .gnu.hash
000157f8 l    d  .ARM.extab	00000000 .ARM.extab
000167ec l    d  .ARM.exidx	00000000 .ARM.exidx
0001736c l    d  .dynsym	00000000 .dynsym
000173cc l    d  .dynstr	00000000 .dynstr
000173fc l    d  .hash	00000000 .hash
00018000 l    d  .dynamic	00000000 .dynamic
00018088 l    d  .got	00000000 .got
00018178 l    d  .rel.got	00000000 .rel.got
000181f0 l    d  .data	00000000 .data
000182d8 l    d  .bss	00000000 .bss
00000000 l    d  .debug_info	00000000 .debug_info
00000000 l    d  .debug_abbrev	00000000 .debug_abbrev
00000000 l    d  .debug_aranges	00000000 .debug_aranges
00000000 l    d  .debug_macro	00000000 .debug_macro
00000000 l    d  .debug_line	00000000 .debug_line
00000000 l    d  .debug_str	00000000 .debug_str
00000000 l    d  .comment	00000000 .comment
00000000 l    d  .ARM.attributes	00000000 .ARM.attributes
00000000 l    d  .debug_frame	00000000 .debug_frame
000180d0 l    d  .rel.dyn	00000000 .rel.dyn
00000000 l    d  .debug_ranges	00000000 .debug_ranges
00000000 l    df *ABS*	00000000 user_ta_header.c
0001459c l     O .rodata	00000001 __compound_literal.0
0001459d l     O .rodata	00000001 __compound_literal.1
0001459e l     O .rodata	00000001 __compound_literal.2
000145a0 l     O .rodata	00000004 __compound_literal.3
000145a4 l     O .rodata	00000004 __compound_literal.4
00000000 l    df *ABS*	00000000 storage.c
00000842 l     F .text	00000058 check_obj
0001455c l     O .rodata	00000021 __func__.1
00014580 l     O .rodata	00000014 __func__.0
00000000 l    df *ABS*	00000000 ta_entry.c
00000000 l    df *ABS*	00000000 out/ta_entry_a32.o
00000000 l    df *ABS*	00000000 trace.c
0000114c l     F .text	00000054 trace_level_to_string
0001468c l     O .rodata	00000005 lvl_strs.0
000011a0 l     F .text	00000060 print_thread_id
00001200 l     F .text	0000001e print_core_id
00000000 l    df *ABS*	00000000 snprintk.c
00014694 l     O .rodata	00000011 hexdigits
000146a8 l     O .rodata	00000011 HEXDIGITS
00001728 l     F .text	00000fe0 kprintf
0000168a l     F .text	0000009e uuid2str
00000000 l    df *ABS*	00000000 arm32_aeabi_ldivmod_a32.o
00000000 l    df *ABS*	00000000 trace_ext.c
00000000 l    df *ABS*	00000000 tee_api.c
000282d8 l     O .bss	00000004 tee_api_instance_data
00002854 l     F .text	000002fe copy_param
00002b52 l     F .text	00000110 update_out_param
0001472c l     O .rodata	0000000b __func__.0
00000000 l    df *ABS*	00000000 tee_api_operations.c
000032d4 l     F .text	0000006e __tee_alg_get_class
00003342 l     F .text	00000046 __tee_alg_get_main_alg
00003388 l     F .text	00000036 __tee_alg_get_key_type
000033be l     F .text	0000022e __tee_alg_get_digest_size
00004bac l     F .text	00000048 init_hash_operation
00004da6 l     F .text	00000330 tee_buffer_update
00000000 l    df *ABS*	00000000 tee_api_panic.c
00006dd2 l     F .text	00000024 check_res
00006df6 l     F .text	00000040 check_access
00000000 l    df *ABS*	00000000 tee_system_pta.c
00006fd4 l     F .text	00000064 reg_pair_to_64
00007038 l     F .text	0000003a reg_pair_from_64
00007072 l     F .text	0000007e invoke_system_pta
000282dc l     O .bss	00000004 sess.3
000147f8 l     O .rodata	00000010 uuid.2
00014808 l     O .rodata	0000000a __func__.1
00014814 l     O .rodata	00000017 __func__.0
00000000 l    df *ABS*	00000000 utee_syscalls_a32.o
00000000 l    df *ABS*	00000000 user_ta_entry.c
000077b4 l     F .text	00000010 __utee_gprof_init
000077c4 l     F .text	00000010 __utee_gprof_fini
00018248 l     O .data	00000008 ta_sessions
00028310 l     O .bss	00000001 init_done
00018250 l     O .data	00000008 __phdr_info_head
00028314 l     O .bss	00000004 _num_mod_init
000077d4 l     F .text	000000cc _init_iterate_phdr_cb
00014848 l     O .rodata	00000016 __func__.0
000078a0 l     F .text	000000fc _get_fn_array
00007ae8 l     F .text	00000074 _fini_iterate_phdr_cb
00007b7c l     F .text	0000005c init_instance
00007bd8 l     F .text	00000018 uninit_instance
00007bf0 l     F .text	00000058 ta_header_save_params
00007c48 l     F .text	00000044 ta_header_get_session
00007c8c l     F .text	000000c0 ta_header_add_session
00007d4c l     F .text	000000d4 ta_header_remove_session
00007e20 l     F .text	00000182 to_utee_params
00007fa2 l     F .text	000000e2 from_utee_params
00008084 l     F .text	0000008e entry_open_session
00008112 l     F .text	00000040 entry_close_session
00008152 l     F .text	00000070 entry_invoke_command
00000000 l    df *ABS*	00000000 abort.c
00000000 l    df *ABS*	00000000 tee_api_arith_mpi.c
00008258 l     F .text	00000030 api_panic
00008288 l     F .text	00000030 mpi_panic
00028318 l     O .bss	00003000 data.17
0001492c l     O .rodata	00000012 __func__.16
00008320 l     F .text	00000090 copy_mpi_to_bigint
000083b0 l     F .text	000000a0 get_mpi
00014940 l     O .rodata	00000008 __func__.15
00014948 l     O .rodata	0000000f __func__.14
00014958 l     O .rodata	0000001f __func__.13
00014978 l     O .rodata	00000019 __func__.12
00014994 l     O .rodata	00000015 __func__.11
000089da l     F .text	000000fe bigint_binary
000149ac l     O .rodata	0000000e __func__.10
00008ad8 l     F .text	00000184 bigint_binary_mod
000149bc l     O .rodata	00000012 __func__.9
000149d0 l     O .rodata	0000000e __func__.8
000149e0 l     O .rodata	0000000e __func__.7
000149f0 l     O .rodata	0000000e __func__.6
00014a00 l     O .rodata	00000011 __func__.5
00014a14 l     O .rodata	00000018 __func__.4
000092ec l     F .text	0000002a mpi_is_odd
00009316 l     F .text	00000032 mpi_is_even
00009348 l     F .text	00000794 mpi_egcd
00014a2c l     O .rodata	00000009 __func__.3
00014a38 l     O .rodata	0000001d __func__.2
00009d6c l     F .text	00000030 rng_read
00014a58 l     O .rodata	00000019 __func__.1
00014a74 l     O .rodata	00000015 __func__.0
00000000 l    df *ABS*	00000000 tcb.c
0002b318 l     O .bss	00000004 _tcb
0002b31c l     O .bss	00000004 _tls_size
00014b28 l     O .rodata	00000010 __func__.1
00014b38 l     O .rodata	00000010 __func__.0
00000000 l    df *ABS*	00000000 assert.c
00000000 l    df *ABS*	00000000 bignum.c
0000a4e4 l     F .text	00000024 mbedtls_mpi_zeroize
0000a508 l     F .text	0000003a mpi_init
0000a884 l     F .text	00000064 mbedtls_mpi_resize_clear
0000aa22 l     F .text	00000056 mpi_safe_cond_select_sign
0000aa78 l     F .text	00000078 mpi_safe_cond_assign
0000af12 l     F .text	0000004e mbedtls_clz
0000affc l     F .text	00000082 mpi_get_digit
0000b27c l     F .text	000000da mpi_write_hlp
0000b550 l     F .text	0000005a mpi_uint_bigendian_to_host_c
0000b5aa l     F .text	0000001c mpi_uint_bigendian_to_host
0000b5c6 l     F .text	00000072 mpi_bigendian_to_host
0000bea4 l     F .text	00000052 ct_lt_mpi_uint
0000c20c l     F .text	000000aa mpi_sub_hlp
0000c61e l     F .text	00001a20 mpi_mul_hlp
0000e2ac l     F .text	000000d6 mbedtls_int_div_int
0000ebd8 l     F .text	0000006e mpi_montg_init
0000ec64 l     F .text	0000013a mpi_montmul
0000edc8 l     F .text	00000044 mpi_montred
0000ee32 l     F .text	00000040 mbedtls_mpi_cf_bool_eq
0000ee72 l     F .text	0000007e mpi_select
0000f816 l     F .text	000000ba mpi_fill_random_internal
00014b84 l     O .rodata	000002a0 small_prime
0000ff6a l     F .text	000000a6 mpi_check_small_factors
00010010 l     F .text	000002d2 mpi_miller_rabin
00014e24 l     O .rodata	00000024 gcd_pairs
00000000 l    df *ABS*	00000000 platform_util.c
00018258 l     O .data	00000004 memset_func
00000000 l    df *ABS*	00000000 bget_malloc.c
00010c18 l     F .text	0000001a tag_asan_free
00010c32 l     F .text	0000001a tag_asan_alloced
00010c4c l     F .text	00000024 memset_unchecked
00010c70 l     F .text	00000024 memcpy_unchecked
00010c94 l     F .text	00000090 buf_get_pos
000156b4 l     O .rodata	00000005 __func__.9
000156bc l     O .rodata	00000006 __func__.8
000156c4 l     O .rodata	00000006 __func__.7
000156cc l     O .rodata	00000005 __func__.6
000156d4 l     O .rodata	00000006 __func__.5
000156dc l     O .rodata	00000007 __func__.4
0002b324 l     O .bss	00000004 bchain
0002b328 l     O .bss	00000004 bp
0001825c l     O .data	00000004 next
0002b32c l     O .bss	00000004 mymalloc
0002b330 l     O .bss	00000004 myfree
00018260 l     O .data	0000001c mypoolset
000116fc l     F .text	0000004c myrand
00011748 l     F .text	00000024 mysrand
0001176c l     F .text	00000064 stats
000117d0 l     F .text	0000003e blimit
000156e4 l     O .rodata	0000000f __func__.3
00011c24 l     F .text	0000001c malloc_lock
00011c40 l     F .text	0000001a malloc_unlock
0001827c l     O .data	0000005c malloc_ctx
00011c5a l     F .text	0000001a print_oom
00011c74 l     F .text	00000064 raw_malloc_return_hook
00011cd8 l     F .text	00000044 gen_malloc_reset_stats
00011d38 l     F .text	00000042 gen_malloc_get_stats
00011da0 l     F .text	00000018 raw_malloc_validate_pools
00011db8 l     F .text	0000002c bpool_foreach_iterator_init
00011de4 l     F .text	000000d8 bpool_foreach_pool
000156f4 l     O .rodata	00000013 __func__.2
00011ebc l     F .text	00000076 bpool_foreach
00011f32 l     F .text	0000009c raw_memalign
00011fce l     F .text	0000002e raw_malloc
00011ffc l     F .text	00000032 raw_free
0001202e l     F .text	000000ca raw_calloc
000120f8 l     F .text	000000ac raw_realloc
000121a4 l     F .text	0000005c bget_buf_size
00015708 l     O .rodata	0000000e __func__.1
00012250 l     F .text	0000004c free_helper
000122f0 l     F .text	0000002e realloc_unlocked
000123c0 l     F .text	00000026 get_payload_start_size
00012422 l     F .text	0000013e gen_malloc_add_pool
00015718 l     O .rodata	00000014 __func__.0
00012560 l     F .text	000000a8 gen_malloc_buffer_is_within_alloced
00012608 l     F .text	000000ba gen_malloc_buffer_overlaps_heap
00000000 l    df *ABS*	00000000 mempool.c
00012744 l     F .text	00000018 get_pool
0001275c l     F .text	00000018 put_pool
000157a8 l     O .rodata	00000013 __func__.1
000157bc l     O .rodata	0000000e __func__.0
00000000 l    df *ABS*	00000000 aeabi_unwind.c
00000000 l    df *ABS*	00000000 memchr.c
00000000 l    df *ABS*	00000000 strlen.c
00000000 l    df *ABS*	00000000 arm32_aeabi_ldivmod.c
00012bda l     F .text	0000012a division_lqr
00012d04 l     F .text	0000007c ul_div_qr
00000000 l    df *ABS*	00000000 tee_api_objects.c
00000000 l    df *ABS*	00000000 snprintf.c
00000000 l    df *ABS*	00000000 memcpy.c
00000000 l    df *ABS*	00000000 memmove.c
00000000 l    df *ABS*	00000000 memset.c
00000000 l    df *ABS*	00000000 consttime_memcmp.c
00000000 l    df *ABS*	00000000 
00018000 l     O *ABS*	00000000 _DYNAMIC
00018088 l     O *ABS*	00000000 _GLOBAL_OFFSET_TABLE_
0000281c g     F .text	00000038 putchar
000134ac g     F .text	00000164 TEE_PopulateTransientObject
00009e6c g     F .text	00000024 TEE_BigIntConvertToFMM
000090f4 g     F .text	00000024 TEE_BigIntSquareMod
000087a2 g     F .text	000001ba TEE_BigIntShiftRight
00007238 g     F .text	000000cc tee_invoke_supp_plugin
0000a628 g     F .text	00000108 mbedtls_mpi_grow
00012de2 g     F .text	000000e0 __l_divmod
00004bf4 g     F .text	0000005c TEE_DigestUpdate
00003200 g     F .text	00000046 TEE_Realloc
00004836 g     F .text	00000232 TEE_SetOperationKey2
00006fa0 g     F .text	00000034 __utee_check_inout_annotation
00002770 g     F .text	00000074 printf
00013610 g     F .text	00000048 TEE_InitRefAttribute
0000732c g     F .text	00000014 _utee_log
00002d80 g     F .text	00000126 TEE_InvokeTACommand
00006e36 g     F .text	0000005a __utee_check_outbuf_annotation
0000a560 g     F .text	0000003c mbedtls_mpi_init_mempool
000075c8 g     F .text	00000014 _utee_cryp_random_number_generate
0000b834 g     F .text	000000e4 mbedtls_mpi_write_binary
00000df8 g     F .text	0000003c ta_storage_cmd_reset_obj
00005b2c g     F .text	00000224 TEE_AEEncryptFinal
000015b6 g     F .text	0000002e vsnprintk
0000c5ce g     F .text	00000050 mbedtls_mpi_sub_int
000140ee g     F .text	0000013e memmove
00013f92 g     F .text	0000003c snprintf
00008766 g     F .text	0000003c TEE_BigIntCmpS32
00013658 g     F .text	00000048 TEE_InitValueAttribute
0000a730 g     F .text	00000154 mbedtls_mpi_shrink
00012a0c g     F .text	00000010 __aeabi_unwind_cpp_pr0
00008c5c g     F .text	00000034 TEE_BigIntAdd
00007528 g     F .text	00000014 _utee_cryp_obj_restrict_usage
00014598 g     O .rodata	00000004 ta_heap_size
0001344c g     F .text	00000060 TEE_ResetTransientObject
00007650 g     F .text	00000018 _utee_asymm_operate
0000b07e g     F .text	000001fe mbedtls_mpi_read_string
00004d0e g     F .text	00000098 TEE_CipherInit
00008cc4 g     F .text	000000b0 TEE_BigIntNeg
00000020 g     F .text	000000d0 ta_storage_cmd_open
000076ec g     F .text	00000014 _utee_storage_free_enum
00000020 g       .text	00000000 __text_start
00013c06 g     F .text	0000005a TEE_StartPersistentObjectEnumerator
0000ba9a g     F .text	0000016a mbedtls_mpi_shift_r
00012718 g     F .text	0000002c malloc_buffer_overlaps_heap
00007490 g     F .text	00000014 _utee_hash_init
00009084 g     F .text	00000038 TEE_BigIntSubMod
000103b6 g     F .text	00000314 mbedtls_mpi_gen_prime
0000ad7c g     F .text	0000004e mbedtls_mpi_get_bit
0000b6d6 g     F .text	00000088 mbedtls_mpi_read_binary
0000581e g     F .text	000000ee TEE_AEInit
0000121e g     F .text	00000036 trace_printf
0000ed9e g     F .text	0000002a mbedtls_mpi_montmul
00000d24 g     F .text	00000042 ta_storage_cmd_restrict_usage
000077a0 g     F .text	00000014 _utee_cache_operation
00013ffc g     F .text	000000f2 memcpy
0000058a g     F .text	0000003a ta_storage_cmd_trunc
00000c28 g     F .text	000000fc ta_storage_cmd_loop
00009e90 g     F .text	0000009c TEE_BigIntConvertFromFMM
00006db8 g     F .text	0000001a TEE_Panic
00002720 g     F .text	00000018 __aeabi_uldivmod
00004a68 g     F .text	00000144 TEE_CopyOperation
000027e4 g     F .text	00000038 puts
00009f2c g     F .text	00000110 TEE_BigIntComputeFMM
00011d7a g     F .text	00000026 malloc_get_stats
00003160 g     F .text	0000002c TEE_GetREETime
00013b48 g     F .text	0000005a TEE_AllocatePersistentObjectEnumerator
000181f4 g     O .data	00000054 ta_props
00005f30 g     F .text	000001c2 TEE_AsymmetricEncrypt
00006e90 g     F .text	00000040 __utee_check_instring_annotation
00012200 g     F .text	00000050 malloc
000129d4 g     F .text	00000024 __ta_entry_c
00013fce g     F .text	0000002e vsnprintf
000137a4 g     F .text	00000126 TEE_GenerateKey
000181f0 g     O .data	00000004 trace_level
00008710 g     F .text	00000056 TEE_BigIntCmp
00014664 g     O .rodata	00000004 ta_num_props
00011158 g     F .text	000000c8 bgetr
00007680 g     F .text	00000018 _utee_storage_obj_open
00012958 g     F .text	0000007c mempool_free
000050d6 g     F .text	000001b6 TEE_CipherUpdate
000074a4 g     F .text	00000014 _utee_hash_update
00008536 g     F .text	00000086 TEE_BigIntConvertToOctetString
000044a0 g     F .text	000001cc TEE_GetOperationInfoMultiple
0000af60 g     F .text	00000078 mbedtls_mpi_bitlen
0000895c g     F .text	00000046 TEE_BigIntGetBit
00014594 g     O .rodata	00000003 trace_ext_prefix
00007728 g     F .text	00000014 _utee_storage_next_enum
000110b0 g     F .text	000000a8 bgetz
00002fa8 g     F .text	0000001c TEE_GetInstanceData
0000305e g     F .text	00000038 TEE_Wait
0000e03e g     F .text	000001c2 mbedtls_mpi_mul_mpi
00012a2c g     F .text	00000010 __aeabi_unwind_cpp_pr2
0000328a g     F .text	00000024 TEE_CacheFlush
00001254 g     F .text	0000030c trace_vprintf
00000ee4 g     F .text	00000010 TA_DestroyEntryPoint
0000a542 g     F .text	0000001e mbedtls_mpi_init
000076b0 g     F .text	00000014 _utee_storage_obj_del
0000ae98 g     F .text	0000007a mbedtls_mpi_lsb
0000a488 g     F .text	00000048 _assert_log
00007468 g     F .text	00000014 _utee_cryp_state_copy
00009e50 g     F .text	0000001c TEE_BigIntFMMContextSizeInU32
00007188 g     F .text	000000b0 tee_unmap
0000572c g     F .text	000000f2 TEE_MACCompareFinal
00013ad8 g     F .text	00000070 TEE_RenamePersistentObject
000004c8 g     F .text	000000c2 ta_storage_cmd_rename
00004c50 g     F .text	000000be TEE_DigestDoFinal
000082b8 g     F .text	00000068 _TEE_MathAPI_Init
0000a03c g     F .text	0000030c __utee_tcb_init
0000c426 g     F .text	000000ac mbedtls_mpi_add_mpi
00008238 g     F .text	00000020 abort
0000f93a g     F .text	00000164 mbedtls_mpi_random
00006f28 g     F .text	00000034 __utee_check_out_annotation
000182d8 g     O .bss	00010000 ta_heap
00009118 g     F .text	0000010c TEE_BigIntInvMod
00000610 g     F .text	00000036 ta_storage_cmd_free_enum
0000799c g     F .text	0000014c __utee_call_elf_init_fn
00000f14 g     F .text	00000018 TA_CloseSessionEntryPoint
00007398 g     F .text	00000014 _utee_close_ta_session
000060f2 g     F .text	000001c2 TEE_AsymmetricDecrypt
000138ca g     F .text	000000be TEE_OpenPersistentObject
0000c4d2 g     F .text	000000ac mbedtls_mpi_sub_mpi
00014348 g     F .text	000000b4 consttime_memcmp
00007318 g     F .text	00000014 _utee_return
00007340 g     F .text	00000014 __utee_panic
0000a348 g     F .text	00000038 __tls_get_addr
00000492 g     F .text	00000036 ta_storage_cmd_unlink
00000f2c g     F .text	000001ae TA_InvokeCommandEntryPoint
00007b5c g     F .text	00000020 __utee_call_elf_fini_fn
00000d66 g     F .text	00000056 ta_storage_cmd_alloc_obj
000002ca g     F .text	00000034 ta_storage_cmd_close
00012404 g     F .text	0000001e free_wipe
000127e8 g     F .text	000000f4 mempool_alloc
00007304 g     F .text	00000014 _utee_panic
000128dc g     F .text	0000007c mempool_calloc
0000778c g     F .text	00000014 _utee_cryp_obj_generate_key
00007764 g     F .text	00000014 _utee_storage_obj_trunc
000136a0 g     F .text	0000004c TEE_CopyObjectAttributes
000073ec g     F .text	00000014 _utee_unmask_cancellation
0001229c g     F .text	00000054 calloc
0000318c g     F .text	00000074 TEE_Malloc
00002f42 g     F .text	00000042 TEE_CheckMemoryAccessRights
00012d80 g     F .text	00000062 __ul_divmod
00007354 g     F .text	00000018 _utee_get_property
0000ad0e g     F .text	0000006e mbedtls_mpi_lset
00013d22 g     F .text	00000092 TEE_ReadObjectData
00013192 g     F .text	000000cc TEE_GetObjectBufferAttribute
00000ef4 g     F .text	00000020 TA_OpenSessionEntryPoint
000043e8 g     F .text	0000004a TEE_FreeOperation
0000a380 g     F .text	00000108 dl_iterate_phdr
0002b338 g       .bss	00000000 __ftrace_buf_end
000282e0 g     O .bss	00000004 ta_param_types
0000e9ce g     F .text	00000052 mbedtls_mpi_div_int
00012ec2 g     F .text	0000017e __utee_from_attr
000102e2 g     F .text	000000ac mbedtls_mpi_is_prime_ext
00009d9c g     F .text	00000054 TEE_BigIntIsProbablePrime
0000e200 g     F .text	000000ac mbedtls_mpi_mul_int
00013a92 g     F .text	00000046 TEE_CloseAndDeletePersistentObject1
0000eef0 g     F .text	00000748 mbedtls_mpi_exp_mod
0000aaf0 g     F .text	000000ca mbedtls_mpi_safe_cond_assign
0000bef6 g     F .text	0000013e mbedtls_mpi_lt_mpi_ct
00005d50 g     F .text	000001e0 TEE_AEDecryptFinal
00008450 g     F .text	0000006c TEE_BigIntInit
00006ed0 g     F .text	00000058 __utee_check_outstring_annotation
00002fc4 g     F .text	00000024 TEE_MemMove
00010be8 g     F .text	00000030 mbedtls_platform_zeroize
000084bc g     F .text	0000007a TEE_BigIntConvertFromOctetString
00007638 g     F .text	00000018 _utee_authenc_dec_final
0000bc04 g     F .text	0000012e mbedtls_mpi_cmp_abs
0000773c g     F .text	00000014 _utee_storage_obj_read
00005544 g     F .text	00000072 TEE_MACInit
000062b4 g     F .text	000001b4 TEE_AsymmetricSignDigest
00012a3c g     F .text	00000114 memchr
00002eda g     F .text	00000034 TEE_UnmaskCancellation
00013040 g     F .text	0000006e TEE_GetObjectInfo
000106ca g     F .text	0000051e mbedtls_mpi_self_test
0000089a g     F .text	0000038e ta_storage_cmd_key_in_persistent
00007778 g     F .text	00000014 _utee_storage_obj_seek
00005986 g     F .text	000001a6 TEE_AEUpdate
000133ec g     F .text	00000060 TEE_FreeTransientObject
000073d8 g     F .text	00000014 _utee_check_access_rights
0000c034 g     F .text	0000004c mbedtls_mpi_cmp_int
00007700 g     F .text	00000014 _utee_storage_reset_enum
0001180e g     F .text	00000416 bget_main_test
000067e4 g     F .text	00000026 rand
00006f5c g     F .text	00000044 __utee_check_attr_in_annotation
00007608 g     F .text	00000018 _utee_authenc_update_payload
00004432 g     F .text	0000006e TEE_GetOperationInfo
00008fe0 g     F .text	0000006c TEE_BigIntMod
0000eabe g     F .text	0000011a mbedtls_mpi_mod_int
0000b638 g     F .text	0000009e mbedtls_mpi_read_binary_le
00008e74 g     F .text	0000016c TEE_BigIntDiv
00007550 g     F .text	00000014 _utee_cryp_obj_alloc
0002b338 g       .bss	00000000 __ftrace_buf_start
0000a8e8 g     F .text	000000f8 mbedtls_mpi_copy
0000680a g     F .text	000005ae TEE_IsAlgorithmSupported
00011d1c g     F .text	0000001c malloc_reset_stats
00001656 g     F .text	00000034 __vsprintf
0000743c g     F .text	00000014 _utee_set_ta_time
000073ac g     F .text	00000018 _utee_invoke_ta_command
00013146 g     F .text	0000004c TEE_RestrictObjectUsage1
0001231e g     F .text	0000004e realloc
0000a9e0 g     F .text	00000042 mbedtls_mpi_swap
00012774 g     F .text	00000074 mempool_alloc_pool
00008d74 g     F .text	000000e0 TEE_BigIntMul
0000466c g     F .text	00000080 TEE_ResetOperation
0000b918 g     F .text	00000182 mbedtls_mpi_shift_l
0000bd32 g     F .text	00000172 mbedtls_mpi_cmp_mpi
0000300c g     F .text	00000026 TEE_MemFill
00000414 g     F .text	0000007e ta_storage_cmd_seek
000126c2 g     F .text	0000002a malloc_add_pool
000055b6 g     F .text	00000082 TEE_MACUpdate
00001128 g     F .text	00000024 trace_get_level
0000c080 g     F .text	0000018c mbedtls_mpi_add_abs
000130fa g     F .text	0000004c TEE_RestrictObjectUsage
00009e2a g     F .text	00000026 TEE_BigIntFMMSizeInU32
00009df0 g     F .text	0000001e TEE_BigIntInitFMM
0000067c g     F .text	0000003a ta_storage_cmd_start_enum
00013350 g     F .text	00000032 TEE_CloseObject
000074d0 g     F .text	00000014 _utee_cipher_init
000081c2 g     F .text	00000076 __utee_entry
000143fc g       .text	00000000 __text_end
00009224 g     F .text	000000c8 TEE_BigIntRelativePrime
0000ea20 g     F .text	0000009e mbedtls_mpi_mod_mpi
00007514 g     F .text	00000014 _utee_cryp_obj_get_info
000005c4 g     F .text	0000004c ta_storage_cmd_alloc_enum
00011558 g     F .text	000000fc bpool
00007450 g     F .text	00000018 _utee_cryp_state_alloc
00002ea6 g     F .text	00000034 TEE_GetCancellationFlag
0000f638 g     F .text	000001de mbedtls_mpi_gcd
0000311a g     F .text	00000046 TEE_SetTAPersistentTime
0000b75e g     F .text	000000d6 mbedtls_mpi_write_binary_le
0001422c g     F .text	0000011c memset
00003096 g     F .text	00000084 TEE_GetTAPersistentTime
00001560 g     F .text	0000001e dhex_dump
00013988 g     F .text	000000d8 TEE_CreatePersistentObject
00002f0e g     F .text	00000034 TEE_MaskCancellation
0000590c g     F .text	0000007a TEE_AEUpdateAAD
00000dbc g     F .text	0000003c ta_storage_cmd_free_obj
00013e32 g     F .text	0000006c TEE_TruncateObjectData
0000753c g     F .text	00000014 _utee_cryp_obj_get_attr
000006b6 g     F .text	0000018c ta_storage_cmd_next_enum
000130ae g     F .text	0000004c TEE_GetObjectInfo1
000074fc g     F .text	00000018 _utee_cipher_final
000010e0 g     F .text	00000048 trace_set_level
0001325e g     F .text	000000f2 TEE_GetObjectValueAttribute
000046ec g     F .text	0000014a TEE_SetOperationKey
0000747c g     F .text	00000014 _utee_cryp_state_free
00007380 g     F .text	00000018 _utee_open_ta_session
0000863c g     F .text	000000d4 TEE_BigIntConvertToS32
00008c90 g     F .text	00000034 TEE_BigIntSub
000129f8 g     F .text	00000014 tahead_get_trace_level
00007714 g     F .text	00000014 _utee_storage_start_enum
00013e9e g     F .text	000000f4 TEE_SeekObjectData
000070f0 g     F .text	00000098 tee_map_zi
0000ee0c g     F .text	00000026 mbedtls_mpi_montred
0001236c g     F .text	00000054 memalign
0000528c g     F .text	000002b8 TEE_CipherDoFinal
000002fe g     F .text	00000092 ta_storage_cmd_read
000085bc g     F .text	00000080 TEE_BigIntConvertFromS32
0000c57e g     F .text	00000050 mbedtls_mpi_add_int
00007620 g     F .text	00000018 _utee_authenc_enc_final
000126ec g     F .text	0000002c malloc_buffer_is_within_alloced
00007564 g     F .text	00000014 _utee_cryp_obj_close
00009e0e g     F .text	0000001c TEE_BigIntInitFMMContext
00000e34 g     F .text	0000009c ta_storage_cmd_get_obj_info
000000f0 g     F .text	00000104 ta_storage_cmd_create
00007400 g     F .text	00000014 _utee_mask_cancellation
000076c4 g     F .text	00000014 _utee_storage_obj_rename
00013bd4 g     F .text	00000032 TEE_ResetPersistentObjectEnumerator
00013db4 g     F .text	0000007e TEE_WriteObjectData
00008e54 g     F .text	00000020 TEE_BigIntSquare
00007750 g     F .text	00000014 _utee_storage_obj_write
00000ed0 g     F .text	00000014 TA_CreateEntryPoint
000010dc g     F .text	00000004 __ta_entry
000075f4 g     F .text	00000014 _utee_authenc_update_aad
0000ec46 g     F .text	0000001e mbedtls_mpi_montg_init
00001580 g     F .text	00000036 snprintk
000089a2 g     F .text	00000038 TEE_BigIntGetBitCount
000075a0 g     F .text	00000014 _utee_cryp_obj_copy
000090bc g     F .text	00000038 TEE_BigIntMulMod
0000fa9e g     F .text	000004cc mbedtls_mpi_inv_mod
000065f2 g     F .text	000001c6 TEE_DeriveKey
000282e4 g     O .bss	00000020 ta_params
0000e382 g     F .text	0000064c mbedtls_mpi_div_mpi
0000afd8 g     F .text	00000024 mbedtls_mpi_size
00010d24 g     F .text	0000038c bget
00013382 g     F .text	0000006a TEE_AllocateTransientObject
00007414 g     F .text	00000014 _utee_wait
0000adca g     F .text	000000ce mbedtls_mpi_set_bit
00003246 g     F .text	00000020 TEE_Free
0001038e g     F .text	00000028 mbedtls_mpi_is_prime
00000646 g     F .text	00000036 ta_storage_cmd_reset_enum
000032ae g     F .text	00000024 TEE_CacheInvalidate
0000a4d0 g     F .text	00000014 _assert_break
0000904c g     F .text	00000038 TEE_BigIntAddMod
00007428 g     F .text	00000014 _utee_get_time
000035ec g     F .text	00000dfc TEE_AllocateOperation
0000758c g     F .text	00000014 _utee_cryp_obj_populate
000067b8 g     F .text	0000002c TEE_GenerateRandom
00002fe8 g     F .text	00000024 TEE_MemCompare
000074e4 g     F .text	00000018 _utee_cipher_update
000015e4 g     F .text	00000072 __vsnprintf
00028304 g     O .bss	0000000c __elf_phdr_info
00013ba2 g     F .text	00000032 TEE_FreePersistentObjectEnumerator
00002c62 g     F .text	000000ee TEE_OpenTASession
00002738 g     F .text	00000024 trace_ext_puts
0000275c g     F .text	00000014 trace_ext_get_thread_id
00013a60 g     F .text	00000032 TEE_CloseAndDeletePersistentObject
000075b4 g     F .text	00000014 _utee_cryp_derive_key
0000a59c g     F .text	0000008c mbedtls_mpi_free
00007578 g     F .text	00000014 _utee_cryp_obj_reset
00003266 g     F .text	00000024 TEE_CacheClean
0000736c g     F .text	00000014 _utee_get_property_name_to_index
0000abba g     F .text	00000154 mbedtls_mpi_safe_cond_swap
000075dc g     F .text	00000018 _utee_authenc_init
000136ec g     F .text	000000b8 TEE_CopyObjectAttributes1
00012b50 g     F .text	0000008a strlen
00009adc g     F .text	00000290 TEE_BigIntComputeExtendedGcd
00012a1c g     F .text	00000010 __aeabi_unwind_cpp_pr1
000076d8 g     F .text	00000014 _utee_storage_alloc_enum
00003032 g     F .text	0000002c TEE_GetSystemTime
00007668 g     F .text	00000018 _utee_asymm_verify
00000000 g     O .ta_head	00000020 ta_head
00011220 g     F .text	00000338 brel
000001f4 g     F .text	000000d6 ta_storage_cmd_create_overwrite
0000c2b6 g     F .text	00000170 mbedtls_mpi_sub_abs
0000f8d0 g     F .text	0000006a mbedtls_mpi_fill_random
00002f84 g     F .text	00000024 TEE_SetInstanceData
000073c4 g     F .text	00000014 _utee_get_cancellation_flag
00002708 g     F .text	00000018 __aeabi_ldivmod
0000b356 g     F .text	000001fa mbedtls_mpi_write_string
00000390 g     F .text	00000084 ta_storage_cmd_write
00013c60 g     F .text	000000c2 TEE_GetNextPersistentObject
00002d50 g     F .text	00000030 TEE_CloseTASession
00006468 g     F .text	0000018a TEE_AsymmetricVerifyDigest
00007698 g     F .text	00000018 _utee_storage_obj_create
000123e6 g     F .text	0000001e free
00011654 g     F .text	000000a8 bstats
00005638 g     F .text	000000f4 TEE_MACComputeFinal
0002b320 g     O .bss	00000004 mbedtls_mpi_mempool
000074b8 g     F .text	00000018 _utee_hash_final



Disassembly of section .text:

00000020 <ta_storage_cmd_open>:
ta_storage_cmd_open():
/home/qemu-sgx/devel/optee/out-br/build/optee_test_ext-1.0/ta/storage/storage.c:23
      20:	e96d 7e02 	strd	r7, lr, [sp, #-8]!
      24:	b08a      	sub	sp, #40	; 0x28
      26:	af02      	add	r7, sp, #8
      28:	60f8      	str	r0, [r7, #12]
      2a:	60b9      	str	r1, [r7, #8]
      2c:	607a      	str	r2, [r7, #4]
/home/qemu-sgx/devel/optee/out-br/build/optee_test_ext-1.0/ta/storage/storage.c:24
      2e:	f04f 0300 	mov.w	r3, #0
      32:	f6cf 73ff 	movt	r3, #65535	; 0xffff
      36:	61bb      	str	r3, [r7, #24]
/home/qemu-sgx/devel/optee/out-br/build/optee_test_ext-1.0/ta/storage/storage.c:25
      38:	f04f 0300 	mov.w	r3, #0
      3c:	617b      	str	r3, [r7, #20]
/home/qemu-sgx/devel/optee/out-br/build/optee_test_ext-1.0/ta/storage/storage.c:26
      3e:	f04f 0300 	mov.w	r3, #0
      42:	61fb      	str	r3, [r7, #28]
/home/qemu-sgx/devel/optee/out-br/build/optee_test_ext-1.0/ta/storage/storage.c:28
      44:	68bb      	ldr	r3, [r7, #8]
      46:	f240 1235 	movw	r2, #309	; 0x135
      4a:	4293      	cmp	r3, r2
      4c:	d004      	beq.n	58 <ta_storage_cmd_open+0x38>
/home/qemu-sgx/devel/optee/out-br/build/optee_test_ext-1.0/ta/storage/storage.c:28 (discriminator 1)
      4e:	f04f 0306 	mov.w	r3, #6
      52:	f6cf 73ff 	movt	r3, #65535	; 0xffff
      56:	e046      	b.n	e6 <ta_storage_cmd_open+0xc6>
/home/qemu-sgx/devel/optee/out-br/build/optee_test_ext-1.0/ta/storage/storage.c:34
      58:	68fb      	ldr	r3, [r7, #12]
      5a:	2b00      	cmp	r3, #0
      5c:	d003      	beq.n	66 <ta_storage_cmd_open+0x46>
      5e:	68fb      	ldr	r3, [r7, #12]
      60:	2b16      	cmp	r3, #22
      62:	d019      	beq.n	98 <ta_storage_cmd_open+0x78>
      64:	e01c      	b.n	a0 <ta_storage_cmd_open+0x80>
/home/qemu-sgx/devel/optee/out-br/build/optee_test_ext-1.0/ta/storage/storage.c:36
      66:	687b      	ldr	r3, [r7, #4]
      68:	685b      	ldr	r3, [r3, #4]
      6a:	f04f 0100 	mov.w	r1, #0
      6e:	4618      	mov	r0, r3
      70:	f003 f88c 	bl	318c <TEE_Malloc>
      74:	61f8      	str	r0, [r7, #28]
/home/qemu-sgx/devel/optee/out-br/build/optee_test_ext-1.0/ta/storage/storage.c:37
      76:	69fb      	ldr	r3, [r7, #28]
      78:	2b00      	cmp	r3, #0
      7a:	d104      	bne.n	86 <ta_storage_cmd_open+0x66>
/home/qemu-sgx/devel/optee/out-br/build/optee_test_ext-1.0/ta/storage/storage.c:38
      7c:	f04f 030c 	mov.w	r3, #12
      80:	f6cf 73ff 	movt	r3, #65535	; 0xffff
      84:	e02f      	b.n	e6 <ta_storage_cmd_open+0xc6>
/home/qemu-sgx/devel/optee/out-br/build/optee_test_ext-1.0/ta/storage/storage.c:40
      86:	687b      	ldr	r3, [r7, #4]
      88:	6819      	ldr	r1, [r3, #0]
      8a:	687b      	ldr	r3, [r7, #4]
      8c:	685b      	ldr	r3, [r3, #4]
      8e:	461a      	mov	r2, r3
      90:	69f8      	ldr	r0, [r7, #28]
      92:	f002 ff97 	bl	2fc4 <TEE_MemMove>
/home/qemu-sgx/devel/optee/out-br/build/optee_test_ext-1.0/ta/storage/storage.c:42
      96:	e008      	b.n	aa <ta_storage_cmd_open+0x8a>
/home/qemu-sgx/devel/optee/out-br/build/optee_test_ext-1.0/ta/storage/storage.c:44
      98:	687b      	ldr	r3, [r7, #4]
      9a:	681b      	ldr	r3, [r3, #0]
      9c:	61fb      	str	r3, [r7, #28]
/home/qemu-sgx/devel/optee/out-br/build/optee_test_ext-1.0/ta/storage/storage.c:45
      9e:	e004      	b.n	aa <ta_storage_cmd_open+0x8a>
/home/qemu-sgx/devel/optee/out-br/build/optee_test_ext-1.0/ta/storage/storage.c:47
      a0:	f04f 030a 	mov.w	r3, #10
      a4:	f6cf 73ff 	movt	r3, #65535	; 0xffff
      a8:	e01d      	b.n	e6 <ta_storage_cmd_open+0xc6>
/home/qemu-sgx/devel/optee/out-br/build/optee_test_ext-1.0/ta/storage/storage.c:50
      aa:	687b      	ldr	r3, [r7, #4]
      ac:	f103 0310 	add.w	r3, r3, #16
      b0:	6818      	ldr	r0, [r3, #0]
      b2:	687b      	ldr	r3, [r7, #4]
      b4:	685a      	ldr	r2, [r3, #4]
/home/qemu-sgx/devel/optee/out-br/build/optee_test_ext-1.0/ta/storage/storage.c:52
      b6:	687b      	ldr	r3, [r7, #4]
      b8:	f103 0308 	add.w	r3, r3, #8
/home/qemu-sgx/devel/optee/out-br/build/optee_test_ext-1.0/ta/storage/storage.c:50
      bc:	6819      	ldr	r1, [r3, #0]
      be:	f107 0314 	add.w	r3, r7, #20
      c2:	9300      	str	r3, [sp, #0]
      c4:	460b      	mov	r3, r1
      c6:	69f9      	ldr	r1, [r7, #28]
      c8:	f013 fbff 	bl	138ca <TEE_OpenPersistentObject>
      cc:	61b8      	str	r0, [r7, #24]
/home/qemu-sgx/devel/optee/out-br/build/optee_test_ext-1.0/ta/storage/storage.c:54
      ce:	697a      	ldr	r2, [r7, #20]
      d0:	687b      	ldr	r3, [r7, #4]
      d2:	f103 0308 	add.w	r3, r3, #8
      d6:	605a      	str	r2, [r3, #4]
/home/qemu-sgx/devel/optee/out-br/build/optee_test_ext-1.0/ta/storage/storage.c:56
      d8:	68fb      	ldr	r3, [r7, #12]
      da:	2b00      	cmp	r3, #0
      dc:	d102      	bne.n	e4 <ta_storage_cmd_open+0xc4>
/home/qemu-sgx/devel/optee/out-br/build/optee_test_ext-1.0/ta/storage/storage.c:57
      de:	69f8      	ldr	r0, [r7, #28]
      e0:	f003 f8b1 	bl	3246 <TEE_Free>
/home/qemu-sgx/devel/optee/out-br/build/optee_test_ext-1.0/ta/storage/storage.c:59
      e4:	69bb      	ldr	r3, [r7, #24]
/home/qemu-sgx/devel/optee/out-br/build/optee_test_ext-1.0/ta/storage/storage.c:60 (discriminator 1)
      e6:	4618      	mov	r0, r3
      e8:	f107 0720 	add.w	r7, r7, #32
      ec:	46bd      	mov	sp, r7
      ee:	bd80      	pop	{r7, pc}

000000f0 <ta_storage_cmd_create>:
ta_storage_cmd_create():
/home/qemu-sgx/devel/optee/out-br/build/optee_test_ext-1.0/ta/storage/storage.c:64
      f0:	e96d 4504 	strd	r4, r5, [sp, #-16]!
      f4:	e9cd 7e02 	strd	r7, lr, [sp, #8]
      f8:	b08c      	sub	sp, #48	; 0x30
      fa:	af04      	add	r7, sp, #16
      fc:	60f8      	str	r0, [r7, #12]
      fe:	60b9      	str	r1, [r7, #8]
     100:	607a      	str	r2, [r7, #4]
/home/qemu-sgx/devel/optee/out-br/build/optee_test_ext-1.0/ta/storage/storage.c:65
     102:	f04f 0300 	mov.w	r3, #0
     106:	f6cf 73ff 	movt	r3, #65535	; 0xffff
     10a:	61bb      	str	r3, [r7, #24]
/home/qemu-sgx/devel/optee/out-br/build/optee_test_ext-1.0/ta/storage/storage.c:66
     10c:	f04f 0300 	mov.w	r3, #0
     110:	613b      	str	r3, [r7, #16]
/home/qemu-sgx/devel/optee/out-br/build/optee_test_ext-1.0/ta/storage/storage.c:67
     112:	f04f 0300 	mov.w	r3, #0
     116:	61fb      	str	r3, [r7, #28]
/home/qemu-sgx/devel/optee/out-br/build/optee_test_ext-1.0/ta/storage/storage.c:68
     118:	f04f 0300 	mov.w	r3, #0
     11c:	617b      	str	r3, [r7, #20]
/home/qemu-sgx/devel/optee/out-br/build/optee_test_ext-1.0/ta/storage/storage.c:70
     11e:	68bb      	ldr	r3, [r7, #8]
     120:	f245 1235 	movw	r2, #20789	; 0x5135
     124:	4293      	cmp	r3, r2
     126:	d004      	beq.n	132 <ta_storage_cmd_create+0x42>
/home/qemu-sgx/devel/optee/out-br/build/optee_test_ext-1.0/ta/storage/storage.c:70 (discriminator 1)
     128:	f04f 0306 	mov.w	r3, #6
     12c:	f6cf 73ff 	movt	r3, #65535	; 0xffff
     130:	e058      	b.n	1e4 <ta_storage_cmd_create+0xf4>
/home/qemu-sgx/devel/optee/out-br/build/optee_test_ext-1.0/ta/storage/storage.c:76
     132:	68fb      	ldr	r3, [r7, #12]
     134:	2b04      	cmp	r3, #4
     136:	d003      	beq.n	140 <ta_storage_cmd_create+0x50>
     138:	68fb      	ldr	r3, [r7, #12]
     13a:	2b17      	cmp	r3, #23
     13c:	d019      	beq.n	172 <ta_storage_cmd_create+0x82>
     13e:	e01c      	b.n	17a <ta_storage_cmd_create+0x8a>
/home/qemu-sgx/devel/optee/out-br/build/optee_test_ext-1.0/ta/storage/storage.c:78
     140:	687b      	ldr	r3, [r7, #4]
     142:	685b      	ldr	r3, [r3, #4]
     144:	f04f 0100 	mov.w	r1, #0
     148:	4618      	mov	r0, r3
     14a:	f003 f81f 	bl	318c <TEE_Malloc>
     14e:	61f8      	str	r0, [r7, #28]
/home/qemu-sgx/devel/optee/out-br/build/optee_test_ext-1.0/ta/storage/storage.c:79
     150:	69fb      	ldr	r3, [r7, #28]
     152:	2b00      	cmp	r3, #0
     154:	d104      	bne.n	160 <ta_storage_cmd_create+0x70>
/home/qemu-sgx/devel/optee/out-br/build/optee_test_ext-1.0/ta/storage/storage.c:80
     156:	f04f 030c 	mov.w	r3, #12
     15a:	f6cf 73ff 	movt	r3, #65535	; 0xffff
     15e:	e041      	b.n	1e4 <ta_storage_cmd_create+0xf4>
/home/qemu-sgx/devel/optee/out-br/build/optee_test_ext-1.0/ta/storage/storage.c:82
     160:	687b      	ldr	r3, [r7, #4]
     162:	6819      	ldr	r1, [r3, #0]
     164:	687b      	ldr	r3, [r7, #4]
     166:	685b      	ldr	r3, [r3, #4]
     168:	461a      	mov	r2, r3
     16a:	69f8      	ldr	r0, [r7, #28]
     16c:	f002 ff2a 	bl	2fc4 <TEE_MemMove>
/home/qemu-sgx/devel/optee/out-br/build/optee_test_ext-1.0/ta/storage/storage.c:84
     170:	e008      	b.n	184 <ta_storage_cmd_create+0x94>
/home/qemu-sgx/devel/optee/out-br/build/optee_test_ext-1.0/ta/storage/storage.c:86
     172:	687b      	ldr	r3, [r7, #4]
     174:	681b      	ldr	r3, [r3, #0]
     176:	61fb      	str	r3, [r7, #28]
/home/qemu-sgx/devel/optee/out-br/build/optee_test_ext-1.0/ta/storage/storage.c:87
     178:	e004      	b.n	184 <ta_storage_cmd_create+0x94>
/home/qemu-sgx/devel/optee/out-br/build/optee_test_ext-1.0/ta/storage/storage.c:89
     17a:	f04f 030a 	mov.w	r3, #10
     17e:	f6cf 73ff 	movt	r3, #65535	; 0xffff
     182:	e02f      	b.n	1e4 <ta_storage_cmd_create+0xf4>
/home/qemu-sgx/devel/optee/out-br/build/optee_test_ext-1.0/ta/storage/storage.c:92
     184:	687b      	ldr	r3, [r7, #4]
     186:	f103 0310 	add.w	r3, r3, #16
     18a:	681b      	ldr	r3, [r3, #0]
     18c:	617b      	str	r3, [r7, #20]
/home/qemu-sgx/devel/optee/out-br/build/optee_test_ext-1.0/ta/storage/storage.c:94
     18e:	687b      	ldr	r3, [r7, #4]
     190:	f103 0310 	add.w	r3, r3, #16
     194:	6858      	ldr	r0, [r3, #4]
     196:	687b      	ldr	r3, [r7, #4]
     198:	685c      	ldr	r4, [r3, #4]
/home/qemu-sgx/devel/optee/out-br/build/optee_test_ext-1.0/ta/storage/storage.c:96
     19a:	687b      	ldr	r3, [r7, #4]
     19c:	f103 0308 	add.w	r3, r3, #8
/home/qemu-sgx/devel/optee/out-br/build/optee_test_ext-1.0/ta/storage/storage.c:94
     1a0:	681d      	ldr	r5, [r3, #0]
/home/qemu-sgx/devel/optee/out-br/build/optee_test_ext-1.0/ta/storage/storage.c:97
     1a2:	687b      	ldr	r3, [r7, #4]
     1a4:	f103 0318 	add.w	r3, r3, #24
     1a8:	681b      	ldr	r3, [r3, #0]
/home/qemu-sgx/devel/optee/out-br/build/optee_test_ext-1.0/ta/storage/storage.c:98
     1aa:	687a      	ldr	r2, [r7, #4]
     1ac:	f102 0218 	add.w	r2, r2, #24
/home/qemu-sgx/devel/optee/out-br/build/optee_test_ext-1.0/ta/storage/storage.c:94
     1b0:	6852      	ldr	r2, [r2, #4]
     1b2:	f107 0110 	add.w	r1, r7, #16
     1b6:	9103      	str	r1, [sp, #12]
     1b8:	9202      	str	r2, [sp, #8]
     1ba:	9301      	str	r3, [sp, #4]
     1bc:	697b      	ldr	r3, [r7, #20]
     1be:	9300      	str	r3, [sp, #0]
     1c0:	462b      	mov	r3, r5
     1c2:	4622      	mov	r2, r4
     1c4:	69f9      	ldr	r1, [r7, #28]
     1c6:	f013 fbdf 	bl	13988 <TEE_CreatePersistentObject>
     1ca:	61b8      	str	r0, [r7, #24]
/home/qemu-sgx/devel/optee/out-br/build/optee_test_ext-1.0/ta/storage/storage.c:100
     1cc:	68fb      	ldr	r3, [r7, #12]
     1ce:	2b04      	cmp	r3, #4
     1d0:	d102      	bne.n	1d8 <ta_storage_cmd_create+0xe8>
/home/qemu-sgx/devel/optee/out-br/build/optee_test_ext-1.0/ta/storage/storage.c:101
     1d2:	69f8      	ldr	r0, [r7, #28]
     1d4:	f003 f837 	bl	3246 <TEE_Free>
/home/qemu-sgx/devel/optee/out-br/build/optee_test_ext-1.0/ta/storage/storage.c:103
     1d8:	693a      	ldr	r2, [r7, #16]
     1da:	687b      	ldr	r3, [r7, #4]
     1dc:	f103 0308 	add.w	r3, r3, #8
     1e0:	605a      	str	r2, [r3, #4]
/home/qemu-sgx/devel/optee/out-br/build/optee_test_ext-1.0/ta/storage/storage.c:105
     1e2:	69bb      	ldr	r3, [r7, #24]
/home/qemu-sgx/devel/optee/out-br/build/optee_test_ext-1.0/ta/storage/storage.c:106 (discriminator 1)
     1e4:	4618      	mov	r0, r3
     1e6:	f107 0720 	add.w	r7, r7, #32
     1ea:	46bd      	mov	sp, r7
     1ec:	e9dd 4500 	ldrd	r4, r5, [sp]
     1f0:	b002      	add	sp, #8
     1f2:	bd80      	pop	{r7, pc}

000001f4 <ta_storage_cmd_create_overwrite>:
ta_storage_cmd_create_overwrite():
/home/qemu-sgx/devel/optee/out-br/build/optee_test_ext-1.0/ta/storage/storage.c:111
     1f4:	e96d 7e02 	strd	r7, lr, [sp, #-8]!
     1f8:	b08c      	sub	sp, #48	; 0x30
     1fa:	af04      	add	r7, sp, #16
     1fc:	60f8      	str	r0, [r7, #12]
     1fe:	60b9      	str	r1, [r7, #8]
     200:	607a      	str	r2, [r7, #4]
/home/qemu-sgx/devel/optee/out-br/build/optee_test_ext-1.0/ta/storage/storage.c:112
     202:	f04f 0300 	mov.w	r3, #0
     206:	f6cf 73ff 	movt	r3, #65535	; 0xffff
     20a:	61bb      	str	r3, [r7, #24]
/home/qemu-sgx/devel/optee/out-br/build/optee_test_ext-1.0/ta/storage/storage.c:113
     20c:	f04f 0300 	mov.w	r3, #0
     210:	617b      	str	r3, [r7, #20]
/home/qemu-sgx/devel/optee/out-br/build/optee_test_ext-1.0/ta/storage/storage.c:114
     212:	f04f 0300 	mov.w	r3, #0
     216:	61fb      	str	r3, [r7, #28]
/home/qemu-sgx/devel/optee/out-br/build/optee_test_ext-1.0/ta/storage/storage.c:116
     218:	68bb      	ldr	r3, [r7, #8]
     21a:	2b15      	cmp	r3, #21
     21c:	d004      	beq.n	228 <ta_storage_cmd_create_overwrite+0x34>
/home/qemu-sgx/devel/optee/out-br/build/optee_test_ext-1.0/ta/storage/storage.c:116 (discriminator 1)
     21e:	f04f 0306 	mov.w	r3, #6
     222:	f6cf 73ff 	movt	r3, #65535	; 0xffff
     226:	e04b      	b.n	2c0 <ta_storage_cmd_create_overwrite+0xcc>
/home/qemu-sgx/devel/optee/out-br/build/optee_test_ext-1.0/ta/storage/storage.c:122
     228:	68fb      	ldr	r3, [r7, #12]
     22a:	2b0e      	cmp	r3, #14
     22c:	d003      	beq.n	236 <ta_storage_cmd_create_overwrite+0x42>
     22e:	68fb      	ldr	r3, [r7, #12]
     230:	2b18      	cmp	r3, #24
     232:	d019      	beq.n	268 <ta_storage_cmd_create_overwrite+0x74>
     234:	e01c      	b.n	270 <ta_storage_cmd_create_overwrite+0x7c>
/home/qemu-sgx/devel/optee/out-br/build/optee_test_ext-1.0/ta/storage/storage.c:124
     236:	687b      	ldr	r3, [r7, #4]
     238:	685b      	ldr	r3, [r3, #4]
     23a:	f04f 0100 	mov.w	r1, #0
     23e:	4618      	mov	r0, r3
     240:	f002 ffa4 	bl	318c <TEE_Malloc>
     244:	61f8      	str	r0, [r7, #28]
/home/qemu-sgx/devel/optee/out-br/build/optee_test_ext-1.0/ta/storage/storage.c:125
     246:	69fb      	ldr	r3, [r7, #28]
     248:	2b00      	cmp	r3, #0
     24a:	d104      	bne.n	256 <ta_storage_cmd_create_overwrite+0x62>
/home/qemu-sgx/devel/optee/out-br/build/optee_test_ext-1.0/ta/storage/storage.c:126
     24c:	f04f 030c 	mov.w	r3, #12
     250:	f6cf 73ff 	movt	r3, #65535	; 0xffff
     254:	e034      	b.n	2c0 <ta_storage_cmd_create_overwrite+0xcc>
/home/qemu-sgx/devel/optee/out-br/build/optee_test_ext-1.0/ta/storage/storage.c:128
     256:	687b      	ldr	r3, [r7, #4]
     258:	6819      	ldr	r1, [r3, #0]
     25a:	687b      	ldr	r3, [r7, #4]
     25c:	685b      	ldr	r3, [r3, #4]
     25e:	461a      	mov	r2, r3
     260:	69f8      	ldr	r0, [r7, #28]
     262:	f002 feaf 	bl	2fc4 <TEE_MemMove>
/home/qemu-sgx/devel/optee/out-br/build/optee_test_ext-1.0/ta/storage/storage.c:130
     266:	e008      	b.n	27a <ta_storage_cmd_create_overwrite+0x86>
/home/qemu-sgx/devel/optee/out-br/build/optee_test_ext-1.0/ta/storage/storage.c:132
     268:	687b      	ldr	r3, [r7, #4]
     26a:	681b      	ldr	r3, [r3, #0]
     26c:	61fb      	str	r3, [r7, #28]
/home/qemu-sgx/devel/optee/out-br/build/optee_test_ext-1.0/ta/storage/storage.c:133
     26e:	e004      	b.n	27a <ta_storage_cmd_create_overwrite+0x86>
/home/qemu-sgx/devel/optee/out-br/build/optee_test_ext-1.0/ta/storage/storage.c:135
     270:	f04f 030a 	mov.w	r3, #10
     274:	f6cf 73ff 	movt	r3, #65535	; 0xffff
     278:	e022      	b.n	2c0 <ta_storage_cmd_create_overwrite+0xcc>
/home/qemu-sgx/devel/optee/out-br/build/optee_test_ext-1.0/ta/storage/storage.c:138
     27a:	687b      	ldr	r3, [r7, #4]
     27c:	f103 0308 	add.w	r3, r3, #8
     280:	6818      	ldr	r0, [r3, #0]
     282:	687b      	ldr	r3, [r7, #4]
     284:	685a      	ldr	r2, [r3, #4]
     286:	f107 0314 	add.w	r3, r7, #20
     28a:	9303      	str	r3, [sp, #12]
     28c:	f04f 0300 	mov.w	r3, #0
     290:	9302      	str	r3, [sp, #8]
     292:	f04f 0300 	mov.w	r3, #0
     296:	9301      	str	r3, [sp, #4]
     298:	f04f 0300 	mov.w	r3, #0
     29c:	9300      	str	r3, [sp, #0]
     29e:	f44f 6380 	mov.w	r3, #1024	; 0x400
     2a2:	69f9      	ldr	r1, [r7, #28]
     2a4:	f013 fb70 	bl	13988 <TEE_CreatePersistentObject>
     2a8:	61b8      	str	r0, [r7, #24]
/home/qemu-sgx/devel/optee/out-br/build/optee_test_ext-1.0/ta/storage/storage.c:142
     2aa:	697b      	ldr	r3, [r7, #20]
     2ac:	4618      	mov	r0, r3
     2ae:	f013 f84f 	bl	13350 <TEE_CloseObject>
/home/qemu-sgx/devel/optee/out-br/build/optee_test_ext-1.0/ta/storage/storage.c:144
     2b2:	68fb      	ldr	r3, [r7, #12]
     2b4:	2b0e      	cmp	r3, #14
     2b6:	d102      	bne.n	2be <ta_storage_cmd_create_overwrite+0xca>
/home/qemu-sgx/devel/optee/out-br/build/optee_test_ext-1.0/ta/storage/storage.c:145
     2b8:	69f8      	ldr	r0, [r7, #28]
     2ba:	f002 ffc4 	bl	3246 <TEE_Free>
/home/qemu-sgx/devel/optee/out-br/build/optee_test_ext-1.0/ta/storage/storage.c:147
     2be:	69bb      	ldr	r3, [r7, #24]
/home/qemu-sgx/devel/optee/out-br/build/optee_test_ext-1.0/ta/storage/storage.c:148 (discriminator 1)
     2c0:	4618      	mov	r0, r3
     2c2:	f107 0720 	add.w	r7, r7, #32
     2c6:	46bd      	mov	sp, r7
     2c8:	bd80      	pop	{r7, pc}

000002ca <ta_storage_cmd_close>:
ta_storage_cmd_close():
/home/qemu-sgx/devel/optee/out-br/build/optee_test_ext-1.0/ta/storage/storage.c:151
     2ca:	e96d 7e02 	strd	r7, lr, [sp, #-8]!
     2ce:	b082      	sub	sp, #8
     2d0:	af00      	add	r7, sp, #0
     2d2:	6078      	str	r0, [r7, #4]
     2d4:	6039      	str	r1, [r7, #0]
/home/qemu-sgx/devel/optee/out-br/build/optee_test_ext-1.0/ta/storage/storage.c:152
     2d6:	687b      	ldr	r3, [r7, #4]
     2d8:	2b01      	cmp	r3, #1
     2da:	d004      	beq.n	2e6 <ta_storage_cmd_close+0x1c>
/home/qemu-sgx/devel/optee/out-br/build/optee_test_ext-1.0/ta/storage/storage.c:152 (discriminator 1)
     2dc:	f04f 0306 	mov.w	r3, #6
     2e0:	f6cf 73ff 	movt	r3, #65535	; 0xffff
     2e4:	e006      	b.n	2f4 <ta_storage_cmd_close+0x2a>
/home/qemu-sgx/devel/optee/out-br/build/optee_test_ext-1.0/ta/storage/storage.c:156
     2e6:	683b      	ldr	r3, [r7, #0]
     2e8:	681b      	ldr	r3, [r3, #0]
     2ea:	4618      	mov	r0, r3
     2ec:	f013 f830 	bl	13350 <TEE_CloseObject>
/home/qemu-sgx/devel/optee/out-br/build/optee_test_ext-1.0/ta/storage/storage.c:158
     2f0:	f04f 0300 	mov.w	r3, #0
/home/qemu-sgx/devel/optee/out-br/build/optee_test_ext-1.0/ta/storage/storage.c:159
     2f4:	4618      	mov	r0, r3
     2f6:	f107 0708 	add.w	r7, r7, #8
     2fa:	46bd      	mov	sp, r7
     2fc:	bd80      	pop	{r7, pc}

000002fe <ta_storage_cmd_read>:
ta_storage_cmd_read():
/home/qemu-sgx/devel/optee/out-br/build/optee_test_ext-1.0/ta/storage/storage.c:162
     2fe:	e96d 7e02 	strd	r7, lr, [sp, #-8]!
     302:	b086      	sub	sp, #24
     304:	af00      	add	r7, sp, #0
     306:	6078      	str	r0, [r7, #4]
     308:	6039      	str	r1, [r7, #0]
/home/qemu-sgx/devel/optee/out-br/build/optee_test_ext-1.0/ta/storage/storage.c:163
     30a:	683b      	ldr	r3, [r7, #0]
     30c:	f103 0308 	add.w	r3, r3, #8
     310:	681b      	ldr	r3, [r3, #0]
     312:	617b      	str	r3, [r7, #20]
/home/qemu-sgx/devel/optee/out-br/build/optee_test_ext-1.0/ta/storage/storage.c:164
     314:	f04f 0300 	mov.w	r3, #0
     318:	613b      	str	r3, [r7, #16]
/home/qemu-sgx/devel/optee/out-br/build/optee_test_ext-1.0/ta/storage/storage.c:165
     31a:	f04f 0300 	mov.w	r3, #0
     31e:	60fb      	str	r3, [r7, #12]
/home/qemu-sgx/devel/optee/out-br/build/optee_test_ext-1.0/ta/storage/storage.c:167
     320:	687b      	ldr	r3, [r7, #4]
     322:	2b36      	cmp	r3, #54	; 0x36
     324:	d004      	beq.n	330 <ta_storage_cmd_read+0x32>
/home/qemu-sgx/devel/optee/out-br/build/optee_test_ext-1.0/ta/storage/storage.c:167 (discriminator 1)
     326:	f04f 0306 	mov.w	r3, #6
     32a:	f6cf 73ff 	movt	r3, #65535	; 0xffff
     32e:	e02a      	b.n	386 <ta_storage_cmd_read+0x88>
/home/qemu-sgx/devel/optee/out-br/build/optee_test_ext-1.0/ta/storage/storage.c:172
     330:	683b      	ldr	r3, [r7, #0]
     332:	685b      	ldr	r3, [r3, #4]
     334:	f04f 0100 	mov.w	r1, #0
     338:	4618      	mov	r0, r3
     33a:	f002 ff27 	bl	318c <TEE_Malloc>
     33e:	60f8      	str	r0, [r7, #12]
/home/qemu-sgx/devel/optee/out-br/build/optee_test_ext-1.0/ta/storage/storage.c:173
     340:	68fb      	ldr	r3, [r7, #12]
     342:	2b00      	cmp	r3, #0
     344:	d104      	bne.n	350 <ta_storage_cmd_read+0x52>
/home/qemu-sgx/devel/optee/out-br/build/optee_test_ext-1.0/ta/storage/storage.c:174
     346:	f04f 030c 	mov.w	r3, #12
     34a:	f6cf 73ff 	movt	r3, #65535	; 0xffff
     34e:	e01a      	b.n	386 <ta_storage_cmd_read+0x88>
/home/qemu-sgx/devel/optee/out-br/build/optee_test_ext-1.0/ta/storage/storage.c:176
     350:	683b      	ldr	r3, [r7, #0]
     352:	685a      	ldr	r2, [r3, #4]
/home/qemu-sgx/devel/optee/out-br/build/optee_test_ext-1.0/ta/storage/storage.c:177
     354:	683b      	ldr	r3, [r7, #0]
     356:	f103 0308 	add.w	r3, r3, #8
/home/qemu-sgx/devel/optee/out-br/build/optee_test_ext-1.0/ta/storage/storage.c:176
     35a:	f103 0304 	add.w	r3, r3, #4
     35e:	68f9      	ldr	r1, [r7, #12]
     360:	6978      	ldr	r0, [r7, #20]
     362:	f013 fcde 	bl	13d22 <TEE_ReadObjectData>
     366:	6138      	str	r0, [r7, #16]
/home/qemu-sgx/devel/optee/out-br/build/optee_test_ext-1.0/ta/storage/storage.c:178
     368:	693b      	ldr	r3, [r7, #16]
     36a:	2b00      	cmp	r3, #0
     36c:	d107      	bne.n	37e <ta_storage_cmd_read+0x80>
/home/qemu-sgx/devel/optee/out-br/build/optee_test_ext-1.0/ta/storage/storage.c:179
     36e:	683b      	ldr	r3, [r7, #0]
     370:	6818      	ldr	r0, [r3, #0]
     372:	683b      	ldr	r3, [r7, #0]
     374:	685b      	ldr	r3, [r3, #4]
     376:	461a      	mov	r2, r3
     378:	68f9      	ldr	r1, [r7, #12]
     37a:	f002 fe23 	bl	2fc4 <TEE_MemMove>
/home/qemu-sgx/devel/optee/out-br/build/optee_test_ext-1.0/ta/storage/storage.c:180
     37e:	68f8      	ldr	r0, [r7, #12]
     380:	f002 ff61 	bl	3246 <TEE_Free>
/home/qemu-sgx/devel/optee/out-br/build/optee_test_ext-1.0/ta/storage/storage.c:182
     384:	693b      	ldr	r3, [r7, #16]
/home/qemu-sgx/devel/optee/out-br/build/optee_test_ext-1.0/ta/storage/storage.c:183
     386:	4618      	mov	r0, r3
     388:	f107 0718 	add.w	r7, r7, #24
     38c:	46bd      	mov	sp, r7
     38e:	bd80      	pop	{r7, pc}

00000390 <ta_storage_cmd_write>:
ta_storage_cmd_write():
/home/qemu-sgx/devel/optee/out-br/build/optee_test_ext-1.0/ta/storage/storage.c:186
     390:	e96d 7e02 	strd	r7, lr, [sp, #-8]!
     394:	b086      	sub	sp, #24
     396:	af00      	add	r7, sp, #0
     398:	6078      	str	r0, [r7, #4]
     39a:	6039      	str	r1, [r7, #0]
/home/qemu-sgx/devel/optee/out-br/build/optee_test_ext-1.0/ta/storage/storage.c:187
     39c:	683b      	ldr	r3, [r7, #0]
     39e:	f103 0308 	add.w	r3, r3, #8
     3a2:	681b      	ldr	r3, [r3, #0]
     3a4:	617b      	str	r3, [r7, #20]
/home/qemu-sgx/devel/optee/out-br/build/optee_test_ext-1.0/ta/storage/storage.c:188
     3a6:	f04f 0300 	mov.w	r3, #0
     3aa:	613b      	str	r3, [r7, #16]
/home/qemu-sgx/devel/optee/out-br/build/optee_test_ext-1.0/ta/storage/storage.c:189
     3ac:	f04f 0300 	mov.w	r3, #0
     3b0:	60fb      	str	r3, [r7, #12]
/home/qemu-sgx/devel/optee/out-br/build/optee_test_ext-1.0/ta/storage/storage.c:191
     3b2:	687b      	ldr	r3, [r7, #4]
     3b4:	2b15      	cmp	r3, #21
     3b6:	d004      	beq.n	3c2 <ta_storage_cmd_write+0x32>
/home/qemu-sgx/devel/optee/out-br/build/optee_test_ext-1.0/ta/storage/storage.c:191 (discriminator 1)
     3b8:	f04f 0306 	mov.w	r3, #6
     3bc:	f6cf 73ff 	movt	r3, #65535	; 0xffff
     3c0:	e023      	b.n	40a <ta_storage_cmd_write+0x7a>
/home/qemu-sgx/devel/optee/out-br/build/optee_test_ext-1.0/ta/storage/storage.c:196
     3c2:	683b      	ldr	r3, [r7, #0]
     3c4:	685b      	ldr	r3, [r3, #4]
     3c6:	f04f 0100 	mov.w	r1, #0
     3ca:	4618      	mov	r0, r3
     3cc:	f002 fede 	bl	318c <TEE_Malloc>
     3d0:	60f8      	str	r0, [r7, #12]
/home/qemu-sgx/devel/optee/out-br/build/optee_test_ext-1.0/ta/storage/storage.c:197
     3d2:	68fb      	ldr	r3, [r7, #12]
     3d4:	2b00      	cmp	r3, #0
     3d6:	d104      	bne.n	3e2 <ta_storage_cmd_write+0x52>
/home/qemu-sgx/devel/optee/out-br/build/optee_test_ext-1.0/ta/storage/storage.c:198
     3d8:	f04f 030c 	mov.w	r3, #12
     3dc:	f6cf 73ff 	movt	r3, #65535	; 0xffff
     3e0:	e013      	b.n	40a <ta_storage_cmd_write+0x7a>
/home/qemu-sgx/devel/optee/out-br/build/optee_test_ext-1.0/ta/storage/storage.c:199
     3e2:	683b      	ldr	r3, [r7, #0]
     3e4:	6819      	ldr	r1, [r3, #0]
     3e6:	683b      	ldr	r3, [r7, #0]
     3e8:	685b      	ldr	r3, [r3, #4]
     3ea:	461a      	mov	r2, r3
     3ec:	68f8      	ldr	r0, [r7, #12]
     3ee:	f002 fde9 	bl	2fc4 <TEE_MemMove>
/home/qemu-sgx/devel/optee/out-br/build/optee_test_ext-1.0/ta/storage/storage.c:201
     3f2:	683b      	ldr	r3, [r7, #0]
     3f4:	685b      	ldr	r3, [r3, #4]
     3f6:	461a      	mov	r2, r3
     3f8:	68f9      	ldr	r1, [r7, #12]
     3fa:	6978      	ldr	r0, [r7, #20]
     3fc:	f013 fcda 	bl	13db4 <TEE_WriteObjectData>
     400:	6138      	str	r0, [r7, #16]
/home/qemu-sgx/devel/optee/out-br/build/optee_test_ext-1.0/ta/storage/storage.c:202
     402:	68f8      	ldr	r0, [r7, #12]
     404:	f002 ff1f 	bl	3246 <TEE_Free>
/home/qemu-sgx/devel/optee/out-br/build/optee_test_ext-1.0/ta/storage/storage.c:204
     408:	693b      	ldr	r3, [r7, #16]
/home/qemu-sgx/devel/optee/out-br/build/optee_test_ext-1.0/ta/storage/storage.c:205
     40a:	4618      	mov	r0, r3
     40c:	f107 0718 	add.w	r7, r7, #24
     410:	46bd      	mov	sp, r7
     412:	bd80      	pop	{r7, pc}

00000414 <ta_storage_cmd_seek>:
ta_storage_cmd_seek():
/home/qemu-sgx/devel/optee/out-br/build/optee_test_ext-1.0/ta/storage/storage.c:208
     414:	e96d 7e02 	strd	r7, lr, [sp, #-8]!
     418:	b08c      	sub	sp, #48	; 0x30
     41a:	af00      	add	r7, sp, #0
     41c:	6078      	str	r0, [r7, #4]
     41e:	6039      	str	r1, [r7, #0]
/home/qemu-sgx/devel/optee/out-br/build/optee_test_ext-1.0/ta/storage/storage.c:209
     420:	f04f 0300 	mov.w	r3, #0
     424:	f6cf 73ff 	movt	r3, #65535	; 0xffff
     428:	62fb      	str	r3, [r7, #44]	; 0x2c
/home/qemu-sgx/devel/optee/out-br/build/optee_test_ext-1.0/ta/storage/storage.c:211
     42a:	683b      	ldr	r3, [r7, #0]
     42c:	681b      	ldr	r3, [r3, #0]
     42e:	62bb      	str	r3, [r7, #40]	; 0x28
/home/qemu-sgx/devel/optee/out-br/build/optee_test_ext-1.0/ta/storage/storage.c:212
     430:	f04f 0300 	mov.w	r3, #0
     434:	627b      	str	r3, [r7, #36]	; 0x24
/home/qemu-sgx/devel/optee/out-br/build/optee_test_ext-1.0/ta/storage/storage.c:214
     436:	687b      	ldr	r3, [r7, #4]
     438:	2b31      	cmp	r3, #49	; 0x31
     43a:	d004      	beq.n	446 <ta_storage_cmd_seek+0x32>
/home/qemu-sgx/devel/optee/out-br/build/optee_test_ext-1.0/ta/storage/storage.c:214 (discriminator 1)
     43c:	f04f 0306 	mov.w	r3, #6
     440:	f6cf 73ff 	movt	r3, #65535	; 0xffff
     444:	e020      	b.n	488 <ta_storage_cmd_seek+0x74>
/home/qemu-sgx/devel/optee/out-br/build/optee_test_ext-1.0/ta/storage/storage.c:219
     446:	683b      	ldr	r3, [r7, #0]
     448:	f103 0304 	add.w	r3, r3, #4
     44c:	681b      	ldr	r3, [r3, #0]
     44e:	627b      	str	r3, [r7, #36]	; 0x24
/home/qemu-sgx/devel/optee/out-br/build/optee_test_ext-1.0/ta/storage/storage.c:220
     450:	683b      	ldr	r3, [r7, #0]
     452:	f103 0308 	add.w	r3, r3, #8
     456:	681b      	ldr	r3, [r3, #0]
     458:	461a      	mov	r2, r3
     45a:	6a79      	ldr	r1, [r7, #36]	; 0x24
     45c:	6ab8      	ldr	r0, [r7, #40]	; 0x28
     45e:	f013 fd1e 	bl	13e9e <TEE_SeekObjectData>
     462:	62f8      	str	r0, [r7, #44]	; 0x2c
/home/qemu-sgx/devel/optee/out-br/build/optee_test_ext-1.0/ta/storage/storage.c:221
     464:	6afb      	ldr	r3, [r7, #44]	; 0x2c
     466:	2b00      	cmp	r3, #0
     468:	d001      	beq.n	46e <ta_storage_cmd_seek+0x5a>
/home/qemu-sgx/devel/optee/out-br/build/optee_test_ext-1.0/ta/storage/storage.c:222
     46a:	6afb      	ldr	r3, [r7, #44]	; 0x2c
     46c:	e00c      	b.n	488 <ta_storage_cmd_seek+0x74>
/home/qemu-sgx/devel/optee/out-br/build/optee_test_ext-1.0/ta/storage/storage.c:223
     46e:	f107 0308 	add.w	r3, r7, #8
     472:	4619      	mov	r1, r3
     474:	6ab8      	ldr	r0, [r7, #40]	; 0x28
     476:	f012 fe1a 	bl	130ae <TEE_GetObjectInfo1>
     47a:	62f8      	str	r0, [r7, #44]	; 0x2c
/home/qemu-sgx/devel/optee/out-br/build/optee_test_ext-1.0/ta/storage/storage.c:225
     47c:	683b      	ldr	r3, [r7, #0]
     47e:	f103 0308 	add.w	r3, r3, #8
     482:	69fa      	ldr	r2, [r7, #28]
     484:	605a      	str	r2, [r3, #4]
/home/qemu-sgx/devel/optee/out-br/build/optee_test_ext-1.0/ta/storage/storage.c:227
     486:	6afb      	ldr	r3, [r7, #44]	; 0x2c
/home/qemu-sgx/devel/optee/out-br/build/optee_test_ext-1.0/ta/storage/storage.c:228 (discriminator 1)
     488:	4618      	mov	r0, r3
     48a:	f107 0730 	add.w	r7, r7, #48	; 0x30
     48e:	46bd      	mov	sp, r7
     490:	bd80      	pop	{r7, pc}

00000492 <ta_storage_cmd_unlink>:
ta_storage_cmd_unlink():
/home/qemu-sgx/devel/optee/out-br/build/optee_test_ext-1.0/ta/storage/storage.c:231
     492:	e96d 7e02 	strd	r7, lr, [sp, #-8]!
     496:	b084      	sub	sp, #16
     498:	af00      	add	r7, sp, #0
     49a:	6078      	str	r0, [r7, #4]
     49c:	6039      	str	r1, [r7, #0]
/home/qemu-sgx/devel/optee/out-br/build/optee_test_ext-1.0/ta/storage/storage.c:232
     49e:	683b      	ldr	r3, [r7, #0]
     4a0:	681b      	ldr	r3, [r3, #0]
     4a2:	60fb      	str	r3, [r7, #12]
/home/qemu-sgx/devel/optee/out-br/build/optee_test_ext-1.0/ta/storage/storage.c:234
     4a4:	687b      	ldr	r3, [r7, #4]
     4a6:	2b01      	cmp	r3, #1
     4a8:	d004      	beq.n	4b4 <ta_storage_cmd_unlink+0x22>
/home/qemu-sgx/devel/optee/out-br/build/optee_test_ext-1.0/ta/storage/storage.c:234 (discriminator 1)
     4aa:	f04f 0306 	mov.w	r3, #6
     4ae:	f6cf 73ff 	movt	r3, #65535	; 0xffff
     4b2:	e004      	b.n	4be <ta_storage_cmd_unlink+0x2c>
/home/qemu-sgx/devel/optee/out-br/build/optee_test_ext-1.0/ta/storage/storage.c:238
     4b4:	68f8      	ldr	r0, [r7, #12]
     4b6:	f013 faec 	bl	13a92 <TEE_CloseAndDeletePersistentObject1>
/home/qemu-sgx/devel/optee/out-br/build/optee_test_ext-1.0/ta/storage/storage.c:240
     4ba:	f04f 0300 	mov.w	r3, #0
/home/qemu-sgx/devel/optee/out-br/build/optee_test_ext-1.0/ta/storage/storage.c:241
     4be:	4618      	mov	r0, r3
     4c0:	f107 0710 	add.w	r7, r7, #16
     4c4:	46bd      	mov	sp, r7
     4c6:	bd80      	pop	{r7, pc}

000004c8 <ta_storage_cmd_rename>:
ta_storage_cmd_rename():
/home/qemu-sgx/devel/optee/out-br/build/optee_test_ext-1.0/ta/storage/storage.c:245
     4c8:	e96d 7e02 	strd	r7, lr, [sp, #-8]!
     4cc:	b088      	sub	sp, #32
     4ce:	af00      	add	r7, sp, #0
     4d0:	60f8      	str	r0, [r7, #12]
     4d2:	60b9      	str	r1, [r7, #8]
     4d4:	607a      	str	r2, [r7, #4]
/home/qemu-sgx/devel/optee/out-br/build/optee_test_ext-1.0/ta/storage/storage.c:246
     4d6:	687b      	ldr	r3, [r7, #4]
     4d8:	681b      	ldr	r3, [r3, #0]
     4da:	61bb      	str	r3, [r7, #24]
/home/qemu-sgx/devel/optee/out-br/build/optee_test_ext-1.0/ta/storage/storage.c:247
     4dc:	f04f 0300 	mov.w	r3, #0
     4e0:	61fb      	str	r3, [r7, #28]
/home/qemu-sgx/devel/optee/out-br/build/optee_test_ext-1.0/ta/storage/storage.c:248
     4e2:	f04f 0300 	mov.w	r3, #0
     4e6:	f6cf 73ff 	movt	r3, #65535	; 0xffff
     4ea:	617b      	str	r3, [r7, #20]
/home/qemu-sgx/devel/optee/out-br/build/optee_test_ext-1.0/ta/storage/storage.c:250
     4ec:	68bb      	ldr	r3, [r7, #8]
     4ee:	2b51      	cmp	r3, #81	; 0x51
     4f0:	d004      	beq.n	4fc <ta_storage_cmd_rename+0x34>
/home/qemu-sgx/devel/optee/out-br/build/optee_test_ext-1.0/ta/storage/storage.c:250 (discriminator 1)
     4f2:	f04f 0306 	mov.w	r3, #6
     4f6:	f6cf 73ff 	movt	r3, #65535	; 0xffff
     4fa:	e041      	b.n	580 <ta_storage_cmd_rename+0xb8>
/home/qemu-sgx/devel/optee/out-br/build/optee_test_ext-1.0/ta/storage/storage.c:255
     4fc:	68fb      	ldr	r3, [r7, #12]
     4fe:	2b07      	cmp	r3, #7
     500:	d003      	beq.n	50a <ta_storage_cmd_rename+0x42>
     502:	68fb      	ldr	r3, [r7, #12]
     504:	2b19      	cmp	r3, #25
     506:	d01f      	beq.n	548 <ta_storage_cmd_rename+0x80>
     508:	e024      	b.n	554 <ta_storage_cmd_rename+0x8c>
/home/qemu-sgx/devel/optee/out-br/build/optee_test_ext-1.0/ta/storage/storage.c:257
     50a:	687b      	ldr	r3, [r7, #4]
     50c:	f103 0308 	add.w	r3, r3, #8
     510:	685b      	ldr	r3, [r3, #4]
     512:	f04f 0100 	mov.w	r1, #0
     516:	4618      	mov	r0, r3
     518:	f002 fe38 	bl	318c <TEE_Malloc>
     51c:	61f8      	str	r0, [r7, #28]
/home/qemu-sgx/devel/optee/out-br/build/optee_test_ext-1.0/ta/storage/storage.c:258
     51e:	69fb      	ldr	r3, [r7, #28]
     520:	2b00      	cmp	r3, #0
     522:	d104      	bne.n	52e <ta_storage_cmd_rename+0x66>
/home/qemu-sgx/devel/optee/out-br/build/optee_test_ext-1.0/ta/storage/storage.c:259
     524:	f04f 030c 	mov.w	r3, #12
     528:	f6cf 73ff 	movt	r3, #65535	; 0xffff
     52c:	e028      	b.n	580 <ta_storage_cmd_rename+0xb8>
/home/qemu-sgx/devel/optee/out-br/build/optee_test_ext-1.0/ta/storage/storage.c:261
     52e:	687b      	ldr	r3, [r7, #4]
     530:	f103 0308 	add.w	r3, r3, #8
     534:	6819      	ldr	r1, [r3, #0]
/home/qemu-sgx/devel/optee/out-br/build/optee_test_ext-1.0/ta/storage/storage.c:262
     536:	687b      	ldr	r3, [r7, #4]
     538:	f103 0308 	add.w	r3, r3, #8
/home/qemu-sgx/devel/optee/out-br/build/optee_test_ext-1.0/ta/storage/storage.c:261
     53c:	685b      	ldr	r3, [r3, #4]
     53e:	461a      	mov	r2, r3
     540:	69f8      	ldr	r0, [r7, #28]
     542:	f002 fd3f 	bl	2fc4 <TEE_MemMove>
/home/qemu-sgx/devel/optee/out-br/build/optee_test_ext-1.0/ta/storage/storage.c:263
     546:	e00a      	b.n	55e <ta_storage_cmd_rename+0x96>
/home/qemu-sgx/devel/optee/out-br/build/optee_test_ext-1.0/ta/storage/storage.c:265
     548:	687b      	ldr	r3, [r7, #4]
     54a:	f103 0308 	add.w	r3, r3, #8
     54e:	681b      	ldr	r3, [r3, #0]
     550:	61fb      	str	r3, [r7, #28]
/home/qemu-sgx/devel/optee/out-br/build/optee_test_ext-1.0/ta/storage/storage.c:266
     552:	e004      	b.n	55e <ta_storage_cmd_rename+0x96>
/home/qemu-sgx/devel/optee/out-br/build/optee_test_ext-1.0/ta/storage/storage.c:268
     554:	f04f 030a 	mov.w	r3, #10
     558:	f6cf 73ff 	movt	r3, #65535	; 0xffff
     55c:	e010      	b.n	580 <ta_storage_cmd_rename+0xb8>
/home/qemu-sgx/devel/optee/out-br/build/optee_test_ext-1.0/ta/storage/storage.c:271
     55e:	687b      	ldr	r3, [r7, #4]
     560:	f103 0308 	add.w	r3, r3, #8
     564:	685b      	ldr	r3, [r3, #4]
     566:	461a      	mov	r2, r3
     568:	69f9      	ldr	r1, [r7, #28]
     56a:	69b8      	ldr	r0, [r7, #24]
     56c:	f013 fab4 	bl	13ad8 <TEE_RenamePersistentObject>
     570:	6178      	str	r0, [r7, #20]
/home/qemu-sgx/devel/optee/out-br/build/optee_test_ext-1.0/ta/storage/storage.c:273
     572:	68fb      	ldr	r3, [r7, #12]
     574:	2b07      	cmp	r3, #7
     576:	d102      	bne.n	57e <ta_storage_cmd_rename+0xb6>
/home/qemu-sgx/devel/optee/out-br/build/optee_test_ext-1.0/ta/storage/storage.c:274
     578:	69f8      	ldr	r0, [r7, #28]
     57a:	f002 fe64 	bl	3246 <TEE_Free>
/home/qemu-sgx/devel/optee/out-br/build/optee_test_ext-1.0/ta/storage/storage.c:276
     57e:	697b      	ldr	r3, [r7, #20]
/home/qemu-sgx/devel/optee/out-br/build/optee_test_ext-1.0/ta/storage/storage.c:277
     580:	4618      	mov	r0, r3
     582:	f107 0720 	add.w	r7, r7, #32
     586:	46bd      	mov	sp, r7
     588:	bd80      	pop	{r7, pc}

0000058a <ta_storage_cmd_trunc>:
ta_storage_cmd_trunc():
/home/qemu-sgx/devel/optee/out-br/build/optee_test_ext-1.0/ta/storage/storage.c:280
     58a:	e96d 7e02 	strd	r7, lr, [sp, #-8]!
     58e:	b084      	sub	sp, #16
     590:	af00      	add	r7, sp, #0
     592:	6078      	str	r0, [r7, #4]
     594:	6039      	str	r1, [r7, #0]
/home/qemu-sgx/devel/optee/out-br/build/optee_test_ext-1.0/ta/storage/storage.c:281
     596:	683b      	ldr	r3, [r7, #0]
     598:	681b      	ldr	r3, [r3, #0]
     59a:	60fb      	str	r3, [r7, #12]
/home/qemu-sgx/devel/optee/out-br/build/optee_test_ext-1.0/ta/storage/storage.c:283
     59c:	687b      	ldr	r3, [r7, #4]
     59e:	2b01      	cmp	r3, #1
     5a0:	d004      	beq.n	5ac <ta_storage_cmd_trunc+0x22>
/home/qemu-sgx/devel/optee/out-br/build/optee_test_ext-1.0/ta/storage/storage.c:283 (discriminator 1)
     5a2:	f04f 0306 	mov.w	r3, #6
     5a6:	f6cf 73ff 	movt	r3, #65535	; 0xffff
     5aa:	e006      	b.n	5ba <ta_storage_cmd_trunc+0x30>
/home/qemu-sgx/devel/optee/out-br/build/optee_test_ext-1.0/ta/storage/storage.c:287
     5ac:	683b      	ldr	r3, [r7, #0]
     5ae:	685b      	ldr	r3, [r3, #4]
     5b0:	4619      	mov	r1, r3
     5b2:	68f8      	ldr	r0, [r7, #12]
     5b4:	f013 fc3d 	bl	13e32 <TEE_TruncateObjectData>
     5b8:	4603      	mov	r3, r0
/home/qemu-sgx/devel/optee/out-br/build/optee_test_ext-1.0/ta/storage/storage.c:288
     5ba:	4618      	mov	r0, r3
     5bc:	f107 0710 	add.w	r7, r7, #16
     5c0:	46bd      	mov	sp, r7
     5c2:	bd80      	pop	{r7, pc}

000005c4 <ta_storage_cmd_alloc_enum>:
ta_storage_cmd_alloc_enum():
/home/qemu-sgx/devel/optee/out-br/build/optee_test_ext-1.0/ta/storage/storage.c:291
     5c4:	e96d 7e02 	strd	r7, lr, [sp, #-8]!
     5c8:	b084      	sub	sp, #16
     5ca:	af00      	add	r7, sp, #0
     5cc:	6078      	str	r0, [r7, #4]
     5ce:	6039      	str	r1, [r7, #0]
/home/qemu-sgx/devel/optee/out-br/build/optee_test_ext-1.0/ta/storage/storage.c:292
     5d0:	f04f 0300 	mov.w	r3, #0
     5d4:	f6cf 73ff 	movt	r3, #65535	; 0xffff
     5d8:	60fb      	str	r3, [r7, #12]
/home/qemu-sgx/devel/optee/out-br/build/optee_test_ext-1.0/ta/storage/storage.c:293
     5da:	f04f 0300 	mov.w	r3, #0
     5de:	60bb      	str	r3, [r7, #8]
/home/qemu-sgx/devel/optee/out-br/build/optee_test_ext-1.0/ta/storage/storage.c:295
     5e0:	687b      	ldr	r3, [r7, #4]
     5e2:	2b02      	cmp	r3, #2
     5e4:	d004      	beq.n	5f0 <ta_storage_cmd_alloc_enum+0x2c>
/home/qemu-sgx/devel/optee/out-br/build/optee_test_ext-1.0/ta/storage/storage.c:295 (discriminator 1)
     5e6:	f04f 0306 	mov.w	r3, #6
     5ea:	f6cf 73ff 	movt	r3, #65535	; 0xffff
     5ee:	e00a      	b.n	606 <ta_storage_cmd_alloc_enum+0x42>
/home/qemu-sgx/devel/optee/out-br/build/optee_test_ext-1.0/ta/storage/storage.c:299
     5f0:	f107 0308 	add.w	r3, r7, #8
     5f4:	4618      	mov	r0, r3
     5f6:	f013 faa7 	bl	13b48 <TEE_AllocatePersistentObjectEnumerator>
     5fa:	60f8      	str	r0, [r7, #12]
/home/qemu-sgx/devel/optee/out-br/build/optee_test_ext-1.0/ta/storage/storage.c:300
     5fc:	68bb      	ldr	r3, [r7, #8]
     5fe:	461a      	mov	r2, r3
     600:	683b      	ldr	r3, [r7, #0]
     602:	601a      	str	r2, [r3, #0]
/home/qemu-sgx/devel/optee/out-br/build/optee_test_ext-1.0/ta/storage/storage.c:301
     604:	68fb      	ldr	r3, [r7, #12]
/home/qemu-sgx/devel/optee/out-br/build/optee_test_ext-1.0/ta/storage/storage.c:302 (discriminator 1)
     606:	4618      	mov	r0, r3
     608:	f107 0710 	add.w	r7, r7, #16
     60c:	46bd      	mov	sp, r7
     60e:	bd80      	pop	{r7, pc}

00000610 <ta_storage_cmd_free_enum>:
ta_storage_cmd_free_enum():
/home/qemu-sgx/devel/optee/out-br/build/optee_test_ext-1.0/ta/storage/storage.c:305
     610:	e96d 7e02 	strd	r7, lr, [sp, #-8]!
     614:	b084      	sub	sp, #16
     616:	af00      	add	r7, sp, #0
     618:	6078      	str	r0, [r7, #4]
     61a:	6039      	str	r1, [r7, #0]
/home/qemu-sgx/devel/optee/out-br/build/optee_test_ext-1.0/ta/storage/storage.c:306
     61c:	683b      	ldr	r3, [r7, #0]
     61e:	681b      	ldr	r3, [r3, #0]
     620:	60fb      	str	r3, [r7, #12]
/home/qemu-sgx/devel/optee/out-br/build/optee_test_ext-1.0/ta/storage/storage.c:308
     622:	687b      	ldr	r3, [r7, #4]
     624:	2b01      	cmp	r3, #1
     626:	d004      	beq.n	632 <ta_storage_cmd_free_enum+0x22>
/home/qemu-sgx/devel/optee/out-br/build/optee_test_ext-1.0/ta/storage/storage.c:308 (discriminator 1)
     628:	f04f 0306 	mov.w	r3, #6
     62c:	f6cf 73ff 	movt	r3, #65535	; 0xffff
     630:	e004      	b.n	63c <ta_storage_cmd_free_enum+0x2c>
/home/qemu-sgx/devel/optee/out-br/build/optee_test_ext-1.0/ta/storage/storage.c:312
     632:	68f8      	ldr	r0, [r7, #12]
     634:	f013 fab5 	bl	13ba2 <TEE_FreePersistentObjectEnumerator>
/home/qemu-sgx/devel/optee/out-br/build/optee_test_ext-1.0/ta/storage/storage.c:313
     638:	f04f 0300 	mov.w	r3, #0
/home/qemu-sgx/devel/optee/out-br/build/optee_test_ext-1.0/ta/storage/storage.c:314
     63c:	4618      	mov	r0, r3
     63e:	f107 0710 	add.w	r7, r7, #16
     642:	46bd      	mov	sp, r7
     644:	bd80      	pop	{r7, pc}

00000646 <ta_storage_cmd_reset_enum>:
ta_storage_cmd_reset_enum():
/home/qemu-sgx/devel/optee/out-br/build/optee_test_ext-1.0/ta/storage/storage.c:317
     646:	e96d 7e02 	strd	r7, lr, [sp, #-8]!
     64a:	b084      	sub	sp, #16
     64c:	af00      	add	r7, sp, #0
     64e:	6078      	str	r0, [r7, #4]
     650:	6039      	str	r1, [r7, #0]
/home/qemu-sgx/devel/optee/out-br/build/optee_test_ext-1.0/ta/storage/storage.c:318
     652:	683b      	ldr	r3, [r7, #0]
     654:	681b      	ldr	r3, [r3, #0]
     656:	60fb      	str	r3, [r7, #12]
/home/qemu-sgx/devel/optee/out-br/build/optee_test_ext-1.0/ta/storage/storage.c:320
     658:	687b      	ldr	r3, [r7, #4]
     65a:	2b01      	cmp	r3, #1
     65c:	d004      	beq.n	668 <ta_storage_cmd_reset_enum+0x22>
/home/qemu-sgx/devel/optee/out-br/build/optee_test_ext-1.0/ta/storage/storage.c:320 (discriminator 1)
     65e:	f04f 0306 	mov.w	r3, #6
     662:	f6cf 73ff 	movt	r3, #65535	; 0xffff
     666:	e004      	b.n	672 <ta_storage_cmd_reset_enum+0x2c>
/home/qemu-sgx/devel/optee/out-br/build/optee_test_ext-1.0/ta/storage/storage.c:324
     668:	68f8      	ldr	r0, [r7, #12]
     66a:	f013 fab3 	bl	13bd4 <TEE_ResetPersistentObjectEnumerator>
/home/qemu-sgx/devel/optee/out-br/build/optee_test_ext-1.0/ta/storage/storage.c:325
     66e:	f04f 0300 	mov.w	r3, #0
/home/qemu-sgx/devel/optee/out-br/build/optee_test_ext-1.0/ta/storage/storage.c:326
     672:	4618      	mov	r0, r3
     674:	f107 0710 	add.w	r7, r7, #16
     678:	46bd      	mov	sp, r7
     67a:	bd80      	pop	{r7, pc}

0000067c <ta_storage_cmd_start_enum>:
ta_storage_cmd_start_enum():
/home/qemu-sgx/devel/optee/out-br/build/optee_test_ext-1.0/ta/storage/storage.c:329
     67c:	e96d 7e02 	strd	r7, lr, [sp, #-8]!
     680:	b084      	sub	sp, #16
     682:	af00      	add	r7, sp, #0
     684:	6078      	str	r0, [r7, #4]
     686:	6039      	str	r1, [r7, #0]
/home/qemu-sgx/devel/optee/out-br/build/optee_test_ext-1.0/ta/storage/storage.c:330
     688:	683b      	ldr	r3, [r7, #0]
     68a:	681b      	ldr	r3, [r3, #0]
     68c:	60fb      	str	r3, [r7, #12]
/home/qemu-sgx/devel/optee/out-br/build/optee_test_ext-1.0/ta/storage/storage.c:332
     68e:	687b      	ldr	r3, [r7, #4]
     690:	2b01      	cmp	r3, #1
     692:	d004      	beq.n	69e <ta_storage_cmd_start_enum+0x22>
/home/qemu-sgx/devel/optee/out-br/build/optee_test_ext-1.0/ta/storage/storage.c:332 (discriminator 1)
     694:	f04f 0306 	mov.w	r3, #6
     698:	f6cf 73ff 	movt	r3, #65535	; 0xffff
     69c:	e006      	b.n	6ac <ta_storage_cmd_start_enum+0x30>
/home/qemu-sgx/devel/optee/out-br/build/optee_test_ext-1.0/ta/storage/storage.c:336
     69e:	683b      	ldr	r3, [r7, #0]
     6a0:	685b      	ldr	r3, [r3, #4]
     6a2:	4619      	mov	r1, r3
     6a4:	68f8      	ldr	r0, [r7, #12]
     6a6:	f013 faae 	bl	13c06 <TEE_StartPersistentObjectEnumerator>
     6aa:	4603      	mov	r3, r0
/home/qemu-sgx/devel/optee/out-br/build/optee_test_ext-1.0/ta/storage/storage.c:337
     6ac:	4618      	mov	r0, r3
     6ae:	f107 0710 	add.w	r7, r7, #16
     6b2:	46bd      	mov	sp, r7
     6b4:	bd80      	pop	{r7, pc}

000006b6 <ta_storage_cmd_next_enum>:
ta_storage_cmd_next_enum():
/home/qemu-sgx/devel/optee/out-br/build/optee_test_ext-1.0/ta/storage/storage.c:340
     6b6:	e96d 7e02 	strd	r7, lr, [sp, #-8]!
     6ba:	b086      	sub	sp, #24
     6bc:	af00      	add	r7, sp, #0
     6be:	6078      	str	r0, [r7, #4]
     6c0:	6039      	str	r1, [r7, #0]
/home/qemu-sgx/devel/optee/out-br/build/optee_test_ext-1.0/ta/storage/storage.c:341
     6c2:	683b      	ldr	r3, [r7, #0]
     6c4:	681b      	ldr	r3, [r3, #0]
     6c6:	60fb      	str	r3, [r7, #12]
/home/qemu-sgx/devel/optee/out-br/build/optee_test_ext-1.0/ta/storage/storage.c:342
     6c8:	f04f 0300 	mov.w	r3, #0
     6cc:	617b      	str	r3, [r7, #20]
/home/qemu-sgx/devel/optee/out-br/build/optee_test_ext-1.0/ta/storage/storage.c:343
     6ce:	f04f 0300 	mov.w	r3, #0
     6d2:	613b      	str	r3, [r7, #16]
/home/qemu-sgx/devel/optee/out-br/build/optee_test_ext-1.0/ta/storage/storage.c:344
     6d4:	f04f 0300 	mov.w	r3, #0
     6d8:	60bb      	str	r3, [r7, #8]
/home/qemu-sgx/devel/optee/out-br/build/optee_test_ext-1.0/ta/storage/storage.c:346
     6da:	687b      	ldr	r3, [r7, #4]
     6dc:	f003 030f 	and.w	r3, r3, #15
     6e0:	2b01      	cmp	r3, #1
     6e2:	d004      	beq.n	6ee <ta_storage_cmd_next_enum+0x38>
/home/qemu-sgx/devel/optee/out-br/build/optee_test_ext-1.0/ta/storage/storage.c:347
     6e4:	f04f 0306 	mov.w	r3, #6
     6e8:	f6cf 73ff 	movt	r3, #65535	; 0xffff
     6ec:	e0a4      	b.n	838 <ta_storage_cmd_next_enum+0x182>
/home/qemu-sgx/devel/optee/out-br/build/optee_test_ext-1.0/ta/storage/storage.c:348
     6ee:	687b      	ldr	r3, [r7, #4]
     6f0:	ea4f 2313 	mov.w	r3, r3, lsr #8
     6f4:	f003 030f 	and.w	r3, r3, #15
     6f8:	2b06      	cmp	r3, #6
     6fa:	d004      	beq.n	706 <ta_storage_cmd_next_enum+0x50>
/home/qemu-sgx/devel/optee/out-br/build/optee_test_ext-1.0/ta/storage/storage.c:349
     6fc:	f04f 0306 	mov.w	r3, #6
     700:	f6cf 73ff 	movt	r3, #65535	; 0xffff
     704:	e098      	b.n	838 <ta_storage_cmd_next_enum+0x182>
/home/qemu-sgx/devel/optee/out-br/build/optee_test_ext-1.0/ta/storage/storage.c:350
     706:	687b      	ldr	r3, [r7, #4]
     708:	ea4f 3313 	mov.w	r3, r3, lsr #12
     70c:	f003 030f 	and.w	r3, r3, #15
     710:	2b00      	cmp	r3, #0
     712:	d004      	beq.n	71e <ta_storage_cmd_next_enum+0x68>
/home/qemu-sgx/devel/optee/out-br/build/optee_test_ext-1.0/ta/storage/storage.c:351
     714:	f04f 0306 	mov.w	r3, #6
     718:	f6cf 73ff 	movt	r3, #65535	; 0xffff
     71c:	e08c      	b.n	838 <ta_storage_cmd_next_enum+0x182>
/home/qemu-sgx/devel/optee/out-br/build/optee_test_ext-1.0/ta/storage/storage.c:353
     71e:	683b      	ldr	r3, [r7, #0]
     720:	f103 0310 	add.w	r3, r3, #16
     724:	685b      	ldr	r3, [r3, #4]
     726:	2b3f      	cmp	r3, #63	; 0x3f
     728:	d804      	bhi.n	734 <ta_storage_cmd_next_enum+0x7e>
/home/qemu-sgx/devel/optee/out-br/build/optee_test_ext-1.0/ta/storage/storage.c:354
     72a:	f04f 0310 	mov.w	r3, #16
     72e:	f6cf 73ff 	movt	r3, #65535	; 0xffff
     732:	e081      	b.n	838 <ta_storage_cmd_next_enum+0x182>
/home/qemu-sgx/devel/optee/out-br/build/optee_test_ext-1.0/ta/storage/storage.c:356
     734:	687b      	ldr	r3, [r7, #4]
     736:	ea4f 1313 	mov.w	r3, r3, lsr #4
     73a:	f003 030f 	and.w	r3, r3, #15
     73e:	2b00      	cmp	r3, #0
     740:	d103      	bne.n	74a <ta_storage_cmd_next_enum+0x94>
/home/qemu-sgx/devel/optee/out-br/build/optee_test_ext-1.0/ta/storage/storage.c:357
     742:	f04f 0300 	mov.w	r3, #0
     746:	613b      	str	r3, [r7, #16]
     748:	e031      	b.n	7ae <ta_storage_cmd_next_enum+0xf8>
/home/qemu-sgx/devel/optee/out-br/build/optee_test_ext-1.0/ta/storage/storage.c:358
     74a:	687b      	ldr	r3, [r7, #4]
     74c:	ea4f 1313 	mov.w	r3, r3, lsr #4
     750:	f003 030f 	and.w	r3, r3, #15
     754:	2b06      	cmp	r3, #6
     756:	d125      	bne.n	7a4 <ta_storage_cmd_next_enum+0xee>
/home/qemu-sgx/devel/optee/out-br/build/optee_test_ext-1.0/ta/storage/storage.c:360
     758:	683b      	ldr	r3, [r7, #0]
     75a:	f103 0308 	add.w	r3, r3, #8
     75e:	685b      	ldr	r3, [r3, #4]
     760:	2b1b      	cmp	r3, #27
     762:	d80a      	bhi.n	77a <ta_storage_cmd_next_enum+0xc4>
/home/qemu-sgx/devel/optee/out-br/build/optee_test_ext-1.0/ta/storage/storage.c:361
     764:	683b      	ldr	r3, [r7, #0]
     766:	f103 0308 	add.w	r3, r3, #8
     76a:	f04f 021c 	mov.w	r2, #28
     76e:	605a      	str	r2, [r3, #4]
/home/qemu-sgx/devel/optee/out-br/build/optee_test_ext-1.0/ta/storage/storage.c:362
     770:	f04f 0310 	mov.w	r3, #16
     774:	f6cf 73ff 	movt	r3, #65535	; 0xffff
     778:	e05e      	b.n	838 <ta_storage_cmd_next_enum+0x182>
/home/qemu-sgx/devel/optee/out-br/build/optee_test_ext-1.0/ta/storage/storage.c:364
     77a:	683b      	ldr	r3, [r7, #0]
     77c:	f103 0308 	add.w	r3, r3, #8
     780:	f04f 021c 	mov.w	r2, #28
     784:	605a      	str	r2, [r3, #4]
/home/qemu-sgx/devel/optee/out-br/build/optee_test_ext-1.0/ta/storage/storage.c:365
     786:	f04f 0100 	mov.w	r1, #0
     78a:	f04f 001c 	mov.w	r0, #28
     78e:	f002 fcfd 	bl	318c <TEE_Malloc>
     792:	6138      	str	r0, [r7, #16]
/home/qemu-sgx/devel/optee/out-br/build/optee_test_ext-1.0/ta/storage/storage.c:366
     794:	693b      	ldr	r3, [r7, #16]
     796:	2b00      	cmp	r3, #0
     798:	d109      	bne.n	7ae <ta_storage_cmd_next_enum+0xf8>
/home/qemu-sgx/devel/optee/out-br/build/optee_test_ext-1.0/ta/storage/storage.c:367
     79a:	f04f 030c 	mov.w	r3, #12
     79e:	f6cf 73ff 	movt	r3, #65535	; 0xffff
     7a2:	e049      	b.n	838 <ta_storage_cmd_next_enum+0x182>
/home/qemu-sgx/devel/optee/out-br/build/optee_test_ext-1.0/ta/storage/storage.c:369
     7a4:	f04f 0306 	mov.w	r3, #6
     7a8:	f6cf 73ff 	movt	r3, #65535	; 0xffff
     7ac:	e044      	b.n	838 <ta_storage_cmd_next_enum+0x182>
/home/qemu-sgx/devel/optee/out-br/build/optee_test_ext-1.0/ta/storage/storage.c:371
     7ae:	683b      	ldr	r3, [r7, #0]
     7b0:	f103 0310 	add.w	r3, r3, #16
     7b4:	685b      	ldr	r3, [r3, #4]
     7b6:	f04f 0100 	mov.w	r1, #0
     7ba:	4618      	mov	r0, r3
     7bc:	f002 fce6 	bl	318c <TEE_Malloc>
     7c0:	60b8      	str	r0, [r7, #8]
/home/qemu-sgx/devel/optee/out-br/build/optee_test_ext-1.0/ta/storage/storage.c:372
     7c2:	68bb      	ldr	r3, [r7, #8]
     7c4:	2b00      	cmp	r3, #0
     7c6:	d105      	bne.n	7d4 <ta_storage_cmd_next_enum+0x11e>
/home/qemu-sgx/devel/optee/out-br/build/optee_test_ext-1.0/ta/storage/storage.c:373
     7c8:	f04f 030c 	mov.w	r3, #12
     7cc:	f6cf 73ff 	movt	r3, #65535	; 0xffff
     7d0:	617b      	str	r3, [r7, #20]
/home/qemu-sgx/devel/optee/out-br/build/optee_test_ext-1.0/ta/storage/storage.c:374
     7d2:	e02a      	b.n	82a <ta_storage_cmd_next_enum+0x174>
/home/qemu-sgx/devel/optee/out-br/build/optee_test_ext-1.0/ta/storage/storage.c:377
     7d4:	683b      	ldr	r3, [r7, #0]
     7d6:	f103 0310 	add.w	r3, r3, #16
     7da:	f103 0304 	add.w	r3, r3, #4
     7de:	68ba      	ldr	r2, [r7, #8]
     7e0:	6939      	ldr	r1, [r7, #16]
     7e2:	68f8      	ldr	r0, [r7, #12]
     7e4:	f013 fa3c 	bl	13c60 <TEE_GetNextPersistentObject>
     7e8:	6178      	str	r0, [r7, #20]
/home/qemu-sgx/devel/optee/out-br/build/optee_test_ext-1.0/ta/storage/storage.c:378
     7ea:	697b      	ldr	r3, [r7, #20]
     7ec:	2b00      	cmp	r3, #0
     7ee:	d119      	bne.n	824 <ta_storage_cmd_next_enum+0x16e>
/home/qemu-sgx/devel/optee/out-br/build/optee_test_ext-1.0/ta/storage/storage.c:381
     7f0:	683b      	ldr	r3, [r7, #0]
     7f2:	f103 0310 	add.w	r3, r3, #16
     7f6:	6818      	ldr	r0, [r3, #0]
     7f8:	683b      	ldr	r3, [r7, #0]
     7fa:	f103 0310 	add.w	r3, r3, #16
     7fe:	685b      	ldr	r3, [r3, #4]
     800:	461a      	mov	r2, r3
     802:	68b9      	ldr	r1, [r7, #8]
     804:	f002 fbde 	bl	2fc4 <TEE_MemMove>
/home/qemu-sgx/devel/optee/out-br/build/optee_test_ext-1.0/ta/storage/storage.c:382
     808:	693b      	ldr	r3, [r7, #16]
     80a:	2b00      	cmp	r3, #0
     80c:	d00c      	beq.n	828 <ta_storage_cmd_next_enum+0x172>
/home/qemu-sgx/devel/optee/out-br/build/optee_test_ext-1.0/ta/storage/storage.c:383
     80e:	683b      	ldr	r3, [r7, #0]
     810:	f103 0308 	add.w	r3, r3, #8
     814:	681b      	ldr	r3, [r3, #0]
     816:	f04f 021c 	mov.w	r2, #28
     81a:	6939      	ldr	r1, [r7, #16]
     81c:	4618      	mov	r0, r3
     81e:	f002 fbd1 	bl	2fc4 <TEE_MemMove>
     822:	e002      	b.n	82a <ta_storage_cmd_next_enum+0x174>
/home/qemu-sgx/devel/optee/out-br/build/optee_test_ext-1.0/ta/storage/storage.c:379
     824:	bf00      	nop
     826:	e000      	b.n	82a <ta_storage_cmd_next_enum+0x174>
/home/qemu-sgx/devel/optee/out-br/build/optee_test_ext-1.0/ta/storage/storage.c:384
     828:	bf00      	nop
/home/qemu-sgx/devel/optee/out-br/build/optee_test_ext-1.0/ta/storage/storage.c:385
     82a:	68b8      	ldr	r0, [r7, #8]
     82c:	f002 fd0b 	bl	3246 <TEE_Free>
/home/qemu-sgx/devel/optee/out-br/build/optee_test_ext-1.0/ta/storage/storage.c:386
     830:	6938      	ldr	r0, [r7, #16]
     832:	f002 fd08 	bl	3246 <TEE_Free>
/home/qemu-sgx/devel/optee/out-br/build/optee_test_ext-1.0/ta/storage/storage.c:388
     836:	697b      	ldr	r3, [r7, #20]
/home/qemu-sgx/devel/optee/out-br/build/optee_test_ext-1.0/ta/storage/storage.c:389
     838:	4618      	mov	r0, r3
     83a:	f107 0718 	add.w	r7, r7, #24
     83e:	46bd      	mov	sp, r7
     840:	bd80      	pop	{r7, pc}

00000842 <check_obj>:
check_obj():
/home/qemu-sgx/devel/optee/out-br/build/optee_test_ext-1.0/ta/storage/storage.c:392
     842:	f84d 7d04 	str.w	r7, [sp, #-4]!
     846:	b083      	sub	sp, #12
     848:	af00      	add	r7, sp, #0
     84a:	6078      	str	r0, [r7, #4]
     84c:	6039      	str	r1, [r7, #0]
/home/qemu-sgx/devel/optee/out-br/build/optee_test_ext-1.0/ta/storage/storage.c:393
     84e:	687b      	ldr	r3, [r7, #4]
     850:	681a      	ldr	r2, [r3, #0]
     852:	683b      	ldr	r3, [r7, #0]
     854:	681b      	ldr	r3, [r3, #0]
     856:	429a      	cmp	r2, r3
     858:	d111      	bne.n	87e <check_obj+0x3c>
/home/qemu-sgx/devel/optee/out-br/build/optee_test_ext-1.0/ta/storage/storage.c:394 (discriminator 1)
     85a:	687b      	ldr	r3, [r7, #4]
     85c:	685a      	ldr	r2, [r3, #4]
     85e:	683b      	ldr	r3, [r7, #0]
     860:	685b      	ldr	r3, [r3, #4]
/home/qemu-sgx/devel/optee/out-br/build/optee_test_ext-1.0/ta/storage/storage.c:393 (discriminator 1)
     862:	429a      	cmp	r2, r3
     864:	d10b      	bne.n	87e <check_obj+0x3c>
/home/qemu-sgx/devel/optee/out-br/build/optee_test_ext-1.0/ta/storage/storage.c:395
     866:	687b      	ldr	r3, [r7, #4]
     868:	689a      	ldr	r2, [r3, #8]
     86a:	683b      	ldr	r3, [r7, #0]
     86c:	689b      	ldr	r3, [r3, #8]
/home/qemu-sgx/devel/optee/out-br/build/optee_test_ext-1.0/ta/storage/storage.c:394
     86e:	429a      	cmp	r2, r3
     870:	d105      	bne.n	87e <check_obj+0x3c>
/home/qemu-sgx/devel/optee/out-br/build/optee_test_ext-1.0/ta/storage/storage.c:396
     872:	687b      	ldr	r3, [r7, #4]
     874:	68da      	ldr	r2, [r3, #12]
     876:	683b      	ldr	r3, [r7, #0]
     878:	68db      	ldr	r3, [r3, #12]
/home/qemu-sgx/devel/optee/out-br/build/optee_test_ext-1.0/ta/storage/storage.c:395
     87a:	429a      	cmp	r2, r3
     87c:	d004      	beq.n	888 <check_obj+0x46>
/home/qemu-sgx/devel/optee/out-br/build/optee_test_ext-1.0/ta/storage/storage.c:397
     87e:	f04f 0300 	mov.w	r3, #0
     882:	f6cf 73ff 	movt	r3, #65535	; 0xffff
     886:	e001      	b.n	88c <check_obj+0x4a>
/home/qemu-sgx/devel/optee/out-br/build/optee_test_ext-1.0/ta/storage/storage.c:398
     888:	f04f 0300 	mov.w	r3, #0
/home/qemu-sgx/devel/optee/out-br/build/optee_test_ext-1.0/ta/storage/storage.c:399
     88c:	4618      	mov	r0, r3
     88e:	f107 070c 	add.w	r7, r7, #12
     892:	46bd      	mov	sp, r7
     894:	f85d 7b04 	ldr.w	r7, [sp], #4
     898:	4770      	bx	lr

0000089a <ta_storage_cmd_key_in_persistent>:
ta_storage_cmd_key_in_persistent():
/home/qemu-sgx/devel/optee/out-br/build/optee_test_ext-1.0/ta/storage/storage.c:403
     89a:	e96d 7e02 	strd	r7, lr, [sp, #-8]!
     89e:	b0a6      	sub	sp, #152	; 0x98
     8a0:	af04      	add	r7, sp, #16
     8a2:	6078      	str	r0, [r7, #4]
     8a4:	6039      	str	r1, [r7, #0]
/home/qemu-sgx/devel/optee/out-br/build/optee_test_ext-1.0/ta/storage/storage.c:404
     8a6:	f04f 0300 	mov.w	r3, #0
     8aa:	f8c7 3084 	str.w	r3, [r7, #132]	; 0x84
/home/qemu-sgx/devel/optee/out-br/build/optee_test_ext-1.0/ta/storage/storage.c:405
     8ae:	f04f 0300 	mov.w	r3, #0
     8b2:	66fb      	str	r3, [r7, #108]	; 0x6c
/home/qemu-sgx/devel/optee/out-br/build/optee_test_ext-1.0/ta/storage/storage.c:406
     8b4:	f04f 0300 	mov.w	r3, #0
     8b8:	66bb      	str	r3, [r7, #104]	; 0x68
/home/qemu-sgx/devel/optee/out-br/build/optee_test_ext-1.0/ta/storage/storage.c:407
     8ba:	f04f 0300 	mov.w	r3, #0
     8be:	667b      	str	r3, [r7, #100]	; 0x64
/home/qemu-sgx/devel/optee/out-br/build/optee_test_ext-1.0/ta/storage/storage.c:408
     8c0:	f04f 0300 	mov.w	r3, #0
     8c4:	663b      	str	r3, [r7, #96]	; 0x60
/home/qemu-sgx/devel/optee/out-br/build/optee_test_ext-1.0/ta/storage/storage.c:412
     8c6:	f44f 7388 	mov.w	r3, #272	; 0x110
     8ca:	f2c1 0300 	movt	r3, #4096	; 0x1000
     8ce:	f8c7 3080 	str.w	r3, [r7, #128]	; 0x80
/home/qemu-sgx/devel/optee/out-br/build/optee_test_ext-1.0/ta/storage/storage.c:413
     8d2:	f04f 0300 	mov.w	r3, #0
     8d6:	67fb      	str	r3, [r7, #124]	; 0x7c
/home/qemu-sgx/devel/optee/out-br/build/optee_test_ext-1.0/ta/storage/storage.c:414
     8d8:	f04f 0310 	mov.w	r3, #16
     8dc:	67bb      	str	r3, [r7, #120]	; 0x78
/home/qemu-sgx/devel/optee/out-br/build/optee_test_ext-1.0/ta/storage/storage.c:415
     8de:	f44f 7380 	mov.w	r3, #256	; 0x100
     8e2:	677b      	str	r3, [r7, #116]	; 0x74
/home/qemu-sgx/devel/optee/out-br/build/optee_test_ext-1.0/ta/storage/storage.c:416
     8e4:	f04f 0301 	mov.w	r3, #1
     8e8:	60bb      	str	r3, [r7, #8]
/home/qemu-sgx/devel/optee/out-br/build/optee_test_ext-1.0/ta/storage/storage.c:417
     8ea:	f04f 0337 	mov.w	r3, #55	; 0x37
     8ee:	673b      	str	r3, [r7, #112]	; 0x70
/home/qemu-sgx/devel/optee/out-br/build/optee_test_ext-1.0/ta/storage/storage.c:423
     8f0:	f107 0344 	add.w	r3, r7, #68	; 0x44
     8f4:	f04f 021c 	mov.w	r2, #28
     8f8:	f04f 0100 	mov.w	r1, #0
     8fc:	4618      	mov	r0, r3
     8fe:	f002 fb85 	bl	300c <TEE_MemFill>
/home/qemu-sgx/devel/optee/out-br/build/optee_test_ext-1.0/ta/storage/storage.c:424
     902:	f107 0328 	add.w	r3, r7, #40	; 0x28
     906:	f04f 021c 	mov.w	r2, #28
     90a:	f04f 0100 	mov.w	r1, #0
     90e:	4618      	mov	r0, r3
     910:	f002 fb7c 	bl	300c <TEE_MemFill>
/home/qemu-sgx/devel/optee/out-br/build/optee_test_ext-1.0/ta/storage/storage.c:425
     914:	f107 030c 	add.w	r3, r7, #12
     918:	f04f 021c 	mov.w	r2, #28
     91c:	f04f 0100 	mov.w	r1, #0
     920:	4618      	mov	r0, r3
     922:	f002 fb73 	bl	300c <TEE_MemFill>
/home/qemu-sgx/devel/optee/out-br/build/optee_test_ext-1.0/ta/storage/storage.c:427
     926:	687b      	ldr	r3, [r7, #4]
     928:	2b01      	cmp	r3, #1
     92a:	d004      	beq.n	936 <ta_storage_cmd_key_in_persistent+0x9c>
/home/qemu-sgx/devel/optee/out-br/build/optee_test_ext-1.0/ta/storage/storage.c:427 (discriminator 1)
     92c:	f04f 0306 	mov.w	r3, #6
     930:	f6cf 73ff 	movt	r3, #65535	; 0xffff
     934:	e14f      	b.n	bd6 <ta_storage_cmd_key_in_persistent+0x33c>
/home/qemu-sgx/devel/optee/out-br/build/optee_test_ext-1.0/ta/storage/storage.c:431
     936:	f107 036c 	add.w	r3, r7, #108	; 0x6c
     93a:	461a      	mov	r2, r3
     93c:	6f79      	ldr	r1, [r7, #116]	; 0x74
     93e:	f04f 0010 	mov.w	r0, #16
     942:	f2ca 0000 	movt	r0, #40960	; 0xa000
     946:	f012 fd1c 	bl	13382 <TEE_AllocateTransientObject>
     94a:	f8c7 0084 	str.w	r0, [r7, #132]	; 0x84
/home/qemu-sgx/devel/optee/out-br/build/optee_test_ext-1.0/ta/storage/storage.c:433
     94e:	f8d7 3084 	ldr.w	r3, [r7, #132]	; 0x84
     952:	2b00      	cmp	r3, #0
     954:	d010      	beq.n	978 <ta_storage_cmd_key_in_persistent+0xde>
/home/qemu-sgx/devel/optee/out-br/build/optee_test_ext-1.0/ta/storage/storage.c:434
     956:	f8d7 3084 	ldr.w	r3, [r7, #132]	; 0x84
     95a:	9301      	str	r3, [sp, #4]
     95c:	4ba0      	ldr	r3, [pc, #640]	; (be0 <ta_storage_cmd_key_in_persistent+0x346>)
     95e:	447b      	add	r3, pc
     960:	9300      	str	r3, [sp, #0]
     962:	f04f 0301 	mov.w	r3, #1
     966:	f04f 0201 	mov.w	r2, #1
     96a:	f44f 71d9 	mov.w	r1, #434	; 0x1b2
     96e:	489d      	ldr	r0, [pc, #628]	; (be4 <ta_storage_cmd_key_in_persistent+0x34a>)
     970:	4478      	add	r0, pc
     972:	f000 fc54 	bl	121e <trace_printf>
/home/qemu-sgx/devel/optee/out-br/build/optee_test_ext-1.0/ta/storage/storage.c:436
     976:	e12c      	b.n	bd2 <ta_storage_cmd_key_in_persistent+0x338>
/home/qemu-sgx/devel/optee/out-br/build/optee_test_ext-1.0/ta/storage/storage.c:439
     978:	6ef8      	ldr	r0, [r7, #108]	; 0x6c
     97a:	f04f 0300 	mov.w	r3, #0
     97e:	f04f 0200 	mov.w	r2, #0
     982:	6f79      	ldr	r1, [r7, #116]	; 0x74
     984:	f012 ff0e 	bl	137a4 <TEE_GenerateKey>
     988:	f8c7 0084 	str.w	r0, [r7, #132]	; 0x84
/home/qemu-sgx/devel/optee/out-br/build/optee_test_ext-1.0/ta/storage/storage.c:440
     98c:	f8d7 3084 	ldr.w	r3, [r7, #132]	; 0x84
     990:	2b00      	cmp	r3, #0
     992:	d010      	beq.n	9b6 <ta_storage_cmd_key_in_persistent+0x11c>
/home/qemu-sgx/devel/optee/out-br/build/optee_test_ext-1.0/ta/storage/storage.c:441
     994:	f8d7 3084 	ldr.w	r3, [r7, #132]	; 0x84
     998:	9301      	str	r3, [sp, #4]
     99a:	4b93      	ldr	r3, [pc, #588]	; (be8 <ta_storage_cmd_key_in_persistent+0x34e>)
     99c:	447b      	add	r3, pc
     99e:	9300      	str	r3, [sp, #0]
     9a0:	f04f 0301 	mov.w	r3, #1
     9a4:	f04f 0201 	mov.w	r2, #1
     9a8:	f240 11b9 	movw	r1, #441	; 0x1b9
     9ac:	488f      	ldr	r0, [pc, #572]	; (bec <ta_storage_cmd_key_in_persistent+0x352>)
     9ae:	4478      	add	r0, pc
     9b0:	f000 fc35 	bl	121e <trace_printf>
/home/qemu-sgx/devel/optee/out-br/build/optee_test_ext-1.0/ta/storage/storage.c:442
     9b4:	e109      	b.n	bca <ta_storage_cmd_key_in_persistent+0x330>
/home/qemu-sgx/devel/optee/out-br/build/optee_test_ext-1.0/ta/storage/storage.c:445
     9b6:	6efb      	ldr	r3, [r7, #108]	; 0x6c
     9b8:	f107 0244 	add.w	r2, r7, #68	; 0x44
     9bc:	4611      	mov	r1, r2
     9be:	4618      	mov	r0, r3
     9c0:	f012 fb75 	bl	130ae <TEE_GetObjectInfo1>
/home/qemu-sgx/devel/optee/out-br/build/optee_test_ext-1.0/ta/storage/storage.c:446
     9c4:	683b      	ldr	r3, [r7, #0]
     9c6:	6818      	ldr	r0, [r3, #0]
     9c8:	6efb      	ldr	r3, [r7, #108]	; 0x6c
     9ca:	f107 0108 	add.w	r1, r7, #8
     9ce:	f107 0268 	add.w	r2, r7, #104	; 0x68
     9d2:	9203      	str	r2, [sp, #12]
     9d4:	f04f 0200 	mov.w	r2, #0
     9d8:	9202      	str	r2, [sp, #8]
     9da:	f04f 0200 	mov.w	r2, #0
     9de:	9201      	str	r2, [sp, #4]
     9e0:	9300      	str	r3, [sp, #0]
     9e2:	6f3b      	ldr	r3, [r7, #112]	; 0x70
     9e4:	f04f 0204 	mov.w	r2, #4
     9e8:	f012 ffce 	bl	13988 <TEE_CreatePersistentObject>
     9ec:	f8c7 0084 	str.w	r0, [r7, #132]	; 0x84
/home/qemu-sgx/devel/optee/out-br/build/optee_test_ext-1.0/ta/storage/storage.c:450
     9f0:	f8d7 3084 	ldr.w	r3, [r7, #132]	; 0x84
     9f4:	2b00      	cmp	r3, #0
     9f6:	d010      	beq.n	a1a <ta_storage_cmd_key_in_persistent+0x180>
/home/qemu-sgx/devel/optee/out-br/build/optee_test_ext-1.0/ta/storage/storage.c:451
     9f8:	f8d7 3084 	ldr.w	r3, [r7, #132]	; 0x84
     9fc:	9301      	str	r3, [sp, #4]
     9fe:	4b7c      	ldr	r3, [pc, #496]	; (bf0 <ta_storage_cmd_key_in_persistent+0x356>)
     a00:	447b      	add	r3, pc
     a02:	9300      	str	r3, [sp, #0]
     a04:	f04f 0301 	mov.w	r3, #1
     a08:	f04f 0201 	mov.w	r2, #1
     a0c:	f240 11c3 	movw	r1, #451	; 0x1c3
     a10:	4878      	ldr	r0, [pc, #480]	; (bf4 <ta_storage_cmd_key_in_persistent+0x35a>)
     a12:	4478      	add	r0, pc
     a14:	f000 fc03 	bl	121e <trace_printf>
/home/qemu-sgx/devel/optee/out-br/build/optee_test_ext-1.0/ta/storage/storage.c:452
     a18:	e0d7      	b.n	bca <ta_storage_cmd_key_in_persistent+0x330>
/home/qemu-sgx/devel/optee/out-br/build/optee_test_ext-1.0/ta/storage/storage.c:455
     a1a:	6ebb      	ldr	r3, [r7, #104]	; 0x68
     a1c:	f107 0228 	add.w	r2, r7, #40	; 0x28
     a20:	4611      	mov	r1, r2
     a22:	4618      	mov	r0, r3
     a24:	f012 fb43 	bl	130ae <TEE_GetObjectInfo1>
/home/qemu-sgx/devel/optee/out-br/build/optee_test_ext-1.0/ta/storage/storage.c:456
     a28:	f107 0228 	add.w	r2, r7, #40	; 0x28
     a2c:	f107 0344 	add.w	r3, r7, #68	; 0x44
     a30:	4611      	mov	r1, r2
     a32:	4618      	mov	r0, r3
     a34:	f7ff ff05 	bl	842 <check_obj>
     a38:	f8c7 0084 	str.w	r0, [r7, #132]	; 0x84
/home/qemu-sgx/devel/optee/out-br/build/optee_test_ext-1.0/ta/storage/storage.c:457
     a3c:	f8d7 3084 	ldr.w	r3, [r7, #132]	; 0x84
     a40:	2b00      	cmp	r3, #0
     a42:	d00d      	beq.n	a60 <ta_storage_cmd_key_in_persistent+0x1c6>
/home/qemu-sgx/devel/optee/out-br/build/optee_test_ext-1.0/ta/storage/storage.c:458
     a44:	4b6c      	ldr	r3, [pc, #432]	; (bf8 <ta_storage_cmd_key_in_persistent+0x35e>)
     a46:	447b      	add	r3, pc
     a48:	9300      	str	r3, [sp, #0]
     a4a:	f04f 0301 	mov.w	r3, #1
     a4e:	f04f 0201 	mov.w	r2, #1
     a52:	f44f 71e5 	mov.w	r1, #458	; 0x1ca
     a56:	4869      	ldr	r0, [pc, #420]	; (bfc <ta_storage_cmd_key_in_persistent+0x362>)
     a58:	4478      	add	r0, pc
     a5a:	f000 fbe0 	bl	121e <trace_printf>
/home/qemu-sgx/devel/optee/out-br/build/optee_test_ext-1.0/ta/storage/storage.c:459
     a5e:	e0b4      	b.n	bca <ta_storage_cmd_key_in_persistent+0x330>
/home/qemu-sgx/devel/optee/out-br/build/optee_test_ext-1.0/ta/storage/storage.c:462
     a60:	6ebb      	ldr	r3, [r7, #104]	; 0x68
     a62:	4618      	mov	r0, r3
     a64:	f012 fc74 	bl	13350 <TEE_CloseObject>
/home/qemu-sgx/devel/optee/out-br/build/optee_test_ext-1.0/ta/storage/storage.c:464
     a68:	683b      	ldr	r3, [r7, #0]
     a6a:	6818      	ldr	r0, [r3, #0]
     a6c:	f107 0108 	add.w	r1, r7, #8
     a70:	f107 0364 	add.w	r3, r7, #100	; 0x64
     a74:	9300      	str	r3, [sp, #0]
     a76:	6f3b      	ldr	r3, [r7, #112]	; 0x70
     a78:	f04f 0204 	mov.w	r2, #4
     a7c:	f012 ff25 	bl	138ca <TEE_OpenPersistentObject>
     a80:	f8c7 0084 	str.w	r0, [r7, #132]	; 0x84
/home/qemu-sgx/devel/optee/out-br/build/optee_test_ext-1.0/ta/storage/storage.c:467
     a84:	f8d7 3084 	ldr.w	r3, [r7, #132]	; 0x84
     a88:	2b00      	cmp	r3, #0
     a8a:	d010      	beq.n	aae <ta_storage_cmd_key_in_persistent+0x214>
/home/qemu-sgx/devel/optee/out-br/build/optee_test_ext-1.0/ta/storage/storage.c:468
     a8c:	f8d7 3084 	ldr.w	r3, [r7, #132]	; 0x84
     a90:	9301      	str	r3, [sp, #4]
     a92:	4b5b      	ldr	r3, [pc, #364]	; (c00 <ta_storage_cmd_key_in_persistent+0x366>)
     a94:	447b      	add	r3, pc
     a96:	9300      	str	r3, [sp, #0]
     a98:	f04f 0301 	mov.w	r3, #1
     a9c:	f04f 0201 	mov.w	r2, #1
     aa0:	f44f 71ea 	mov.w	r1, #468	; 0x1d4
     aa4:	4857      	ldr	r0, [pc, #348]	; (c04 <ta_storage_cmd_key_in_persistent+0x36a>)
     aa6:	4478      	add	r0, pc
     aa8:	f000 fbb9 	bl	121e <trace_printf>
/home/qemu-sgx/devel/optee/out-br/build/optee_test_ext-1.0/ta/storage/storage.c:469
     aac:	e08d      	b.n	bca <ta_storage_cmd_key_in_persistent+0x330>
/home/qemu-sgx/devel/optee/out-br/build/optee_test_ext-1.0/ta/storage/storage.c:472
     aae:	6e7b      	ldr	r3, [r7, #100]	; 0x64
     ab0:	f107 020c 	add.w	r2, r7, #12
     ab4:	4611      	mov	r1, r2
     ab6:	4618      	mov	r0, r3
     ab8:	f012 fac2 	bl	13040 <TEE_GetObjectInfo>
/home/qemu-sgx/devel/optee/out-br/build/optee_test_ext-1.0/ta/storage/storage.c:473
     abc:	f107 0228 	add.w	r2, r7, #40	; 0x28
     ac0:	f107 030c 	add.w	r3, r7, #12
     ac4:	4611      	mov	r1, r2
     ac6:	4618      	mov	r0, r3
     ac8:	f7ff febb 	bl	842 <check_obj>
     acc:	f8c7 0084 	str.w	r0, [r7, #132]	; 0x84
/home/qemu-sgx/devel/optee/out-br/build/optee_test_ext-1.0/ta/storage/storage.c:474
     ad0:	f8d7 3084 	ldr.w	r3, [r7, #132]	; 0x84
     ad4:	2b00      	cmp	r3, #0
     ad6:	d00d      	beq.n	af4 <ta_storage_cmd_key_in_persistent+0x25a>
/home/qemu-sgx/devel/optee/out-br/build/optee_test_ext-1.0/ta/storage/storage.c:475
     ad8:	4b4b      	ldr	r3, [pc, #300]	; (c08 <ta_storage_cmd_key_in_persistent+0x36e>)
     ada:	447b      	add	r3, pc
     adc:	9300      	str	r3, [sp, #0]
     ade:	f04f 0301 	mov.w	r3, #1
     ae2:	f04f 0201 	mov.w	r2, #1
     ae6:	f240 11db 	movw	r1, #475	; 0x1db
     aea:	4848      	ldr	r0, [pc, #288]	; (c0c <ta_storage_cmd_key_in_persistent+0x372>)
     aec:	4478      	add	r0, pc
     aee:	f000 fb96 	bl	121e <trace_printf>
/home/qemu-sgx/devel/optee/out-br/build/optee_test_ext-1.0/ta/storage/storage.c:476
     af2:	e06a      	b.n	bca <ta_storage_cmd_key_in_persistent+0x330>
/home/qemu-sgx/devel/optee/out-br/build/optee_test_ext-1.0/ta/storage/storage.c:479
     af4:	697b      	ldr	r3, [r7, #20]
     af6:	f107 0060 	add.w	r0, r7, #96	; 0x60
     afa:	f04f 0200 	mov.w	r2, #0
     afe:	f8d7 1080 	ldr.w	r1, [r7, #128]	; 0x80
     b02:	f002 fd73 	bl	35ec <TEE_AllocateOperation>
     b06:	f8c7 0084 	str.w	r0, [r7, #132]	; 0x84
/home/qemu-sgx/devel/optee/out-br/build/optee_test_ext-1.0/ta/storage/storage.c:481
     b0a:	f8d7 3084 	ldr.w	r3, [r7, #132]	; 0x84
     b0e:	2b00      	cmp	r3, #0
     b10:	d010      	beq.n	b34 <ta_storage_cmd_key_in_persistent+0x29a>
/home/qemu-sgx/devel/optee/out-br/build/optee_test_ext-1.0/ta/storage/storage.c:482
     b12:	f8d7 3084 	ldr.w	r3, [r7, #132]	; 0x84
     b16:	9301      	str	r3, [sp, #4]
     b18:	4b3d      	ldr	r3, [pc, #244]	; (c10 <ta_storage_cmd_key_in_persistent+0x376>)
     b1a:	447b      	add	r3, pc
     b1c:	9300      	str	r3, [sp, #0]
     b1e:	f04f 0301 	mov.w	r3, #1
     b22:	f04f 0201 	mov.w	r2, #1
     b26:	f44f 71f1 	mov.w	r1, #482	; 0x1e2
     b2a:	483a      	ldr	r0, [pc, #232]	; (c14 <ta_storage_cmd_key_in_persistent+0x37a>)
     b2c:	4478      	add	r0, pc
     b2e:	f000 fb76 	bl	121e <trace_printf>
/home/qemu-sgx/devel/optee/out-br/build/optee_test_ext-1.0/ta/storage/storage.c:483
     b32:	e046      	b.n	bc2 <ta_storage_cmd_key_in_persistent+0x328>
/home/qemu-sgx/devel/optee/out-br/build/optee_test_ext-1.0/ta/storage/storage.c:486
     b34:	6e3b      	ldr	r3, [r7, #96]	; 0x60
     b36:	6e7a      	ldr	r2, [r7, #100]	; 0x64
     b38:	4611      	mov	r1, r2
     b3a:	4618      	mov	r0, r3
     b3c:	f003 fdd6 	bl	46ec <TEE_SetOperationKey>
     b40:	f8c7 0084 	str.w	r0, [r7, #132]	; 0x84
/home/qemu-sgx/devel/optee/out-br/build/optee_test_ext-1.0/ta/storage/storage.c:487
     b44:	f8d7 3084 	ldr.w	r3, [r7, #132]	; 0x84
     b48:	2b00      	cmp	r3, #0
     b4a:	d010      	beq.n	b6e <ta_storage_cmd_key_in_persistent+0x2d4>
/home/qemu-sgx/devel/optee/out-br/build/optee_test_ext-1.0/ta/storage/storage.c:488
     b4c:	f8d7 3084 	ldr.w	r3, [r7, #132]	; 0x84
     b50:	9301      	str	r3, [sp, #4]
     b52:	4b31      	ldr	r3, [pc, #196]	; (c18 <ta_storage_cmd_key_in_persistent+0x37e>)
     b54:	447b      	add	r3, pc
     b56:	9300      	str	r3, [sp, #0]
     b58:	f04f 0301 	mov.w	r3, #1
     b5c:	f04f 0201 	mov.w	r2, #1
     b60:	f44f 71f4 	mov.w	r1, #488	; 0x1e8
     b64:	482d      	ldr	r0, [pc, #180]	; (c1c <ta_storage_cmd_key_in_persistent+0x382>)
     b66:	4478      	add	r0, pc
     b68:	f000 fb59 	bl	121e <trace_printf>
/home/qemu-sgx/devel/optee/out-br/build/optee_test_ext-1.0/ta/storage/storage.c:489
     b6c:	e025      	b.n	bba <ta_storage_cmd_key_in_persistent+0x320>
/home/qemu-sgx/devel/optee/out-br/build/optee_test_ext-1.0/ta/storage/storage.c:492
     b6e:	f04f 0100 	mov.w	r1, #0
     b72:	6fb8      	ldr	r0, [r7, #120]	; 0x78
     b74:	f002 fb0a 	bl	318c <TEE_Malloc>
     b78:	67f8      	str	r0, [r7, #124]	; 0x7c
/home/qemu-sgx/devel/optee/out-br/build/optee_test_ext-1.0/ta/storage/storage.c:493
     b7a:	6ffb      	ldr	r3, [r7, #124]	; 0x7c
     b7c:	2b00      	cmp	r3, #0
     b7e:	d113      	bne.n	ba8 <ta_storage_cmd_key_in_persistent+0x30e>
/home/qemu-sgx/devel/optee/out-br/build/optee_test_ext-1.0/ta/storage/storage.c:494
     b80:	4b27      	ldr	r3, [pc, #156]	; (c20 <ta_storage_cmd_key_in_persistent+0x386>)
     b82:	447b      	add	r3, pc
     b84:	9300      	str	r3, [sp, #0]
     b86:	f04f 0301 	mov.w	r3, #1
     b8a:	f04f 0201 	mov.w	r2, #1
     b8e:	f44f 71f7 	mov.w	r1, #494	; 0x1ee
     b92:	4824      	ldr	r0, [pc, #144]	; (c24 <ta_storage_cmd_key_in_persistent+0x38a>)
     b94:	4478      	add	r0, pc
     b96:	f000 fb42 	bl	121e <trace_printf>
/home/qemu-sgx/devel/optee/out-br/build/optee_test_ext-1.0/ta/storage/storage.c:495
     b9a:	f04f 030c 	mov.w	r3, #12
     b9e:	f6cf 73ff 	movt	r3, #65535	; 0xffff
     ba2:	f8c7 3084 	str.w	r3, [r7, #132]	; 0x84
/home/qemu-sgx/devel/optee/out-br/build/optee_test_ext-1.0/ta/storage/storage.c:496
     ba6:	e008      	b.n	bba <ta_storage_cmd_key_in_persistent+0x320>
/home/qemu-sgx/devel/optee/out-br/build/optee_test_ext-1.0/ta/storage/storage.c:499
     ba8:	6e3b      	ldr	r3, [r7, #96]	; 0x60
     baa:	6fba      	ldr	r2, [r7, #120]	; 0x78
     bac:	6ff9      	ldr	r1, [r7, #124]	; 0x7c
     bae:	4618      	mov	r0, r3
     bb0:	f004 f8ad 	bl	4d0e <TEE_CipherInit>
/home/qemu-sgx/devel/optee/out-br/build/optee_test_ext-1.0/ta/storage/storage.c:500
     bb4:	6ff8      	ldr	r0, [r7, #124]	; 0x7c
     bb6:	f002 fb46 	bl	3246 <TEE_Free>
/home/qemu-sgx/devel/optee/out-br/build/optee_test_ext-1.0/ta/storage/storage.c:503
     bba:	6e3b      	ldr	r3, [r7, #96]	; 0x60
     bbc:	4618      	mov	r0, r3
     bbe:	f003 fc13 	bl	43e8 <TEE_FreeOperation>
/home/qemu-sgx/devel/optee/out-br/build/optee_test_ext-1.0/ta/storage/storage.c:505
     bc2:	6e7b      	ldr	r3, [r7, #100]	; 0x64
     bc4:	4618      	mov	r0, r3
     bc6:	f012 ff64 	bl	13a92 <TEE_CloseAndDeletePersistentObject1>
/home/qemu-sgx/devel/optee/out-br/build/optee_test_ext-1.0/ta/storage/storage.c:507
     bca:	6efb      	ldr	r3, [r7, #108]	; 0x6c
     bcc:	4618      	mov	r0, r3
     bce:	f012 fc0d 	bl	133ec <TEE_FreeTransientObject>
/home/qemu-sgx/devel/optee/out-br/build/optee_test_ext-1.0/ta/storage/storage.c:509
     bd2:	f8d7 3084 	ldr.w	r3, [r7, #132]	; 0x84
/home/qemu-sgx/devel/optee/out-br/build/optee_test_ext-1.0/ta/storage/storage.c:510 (discriminator 1)
     bd6:	4618      	mov	r0, r3
     bd8:	f107 0788 	add.w	r7, r7, #136	; 0x88
     bdc:	46bd      	mov	sp, r7
     bde:	bd80      	pop	{r7, pc}
     be0:	00013a9a 	.word	0x00013a9a
     be4:	00013be8 	.word	0x00013be8
     be8:	00013a90 	.word	0x00013a90
     bec:	00013baa 	.word	0x00013baa
     bf0:	00013a58 	.word	0x00013a58
     bf4:	00013b46 	.word	0x00013b46
     bf8:	00013a3a 	.word	0x00013a3a
     bfc:	00013b00 	.word	0x00013b00
     c00:	00013a10 	.word	0x00013a10
     c04:	00013ab2 	.word	0x00013ab2
     c08:	000139ee 	.word	0x000139ee
     c0c:	00013a6c 	.word	0x00013a6c
     c10:	000139d2 	.word	0x000139d2
     c14:	00013a2c 	.word	0x00013a2c
     c18:	000139c0 	.word	0x000139c0
     c1c:	000139f2 	.word	0x000139f2
     c20:	000139b6 	.word	0x000139b6
     c24:	000139c4 	.word	0x000139c4

00000c28 <ta_storage_cmd_loop>:
ta_storage_cmd_loop():
/home/qemu-sgx/devel/optee/out-br/build/optee_test_ext-1.0/ta/storage/storage.c:513
     c28:	e96d 7e02 	strd	r7, lr, [sp, #-8]!
     c2c:	b08c      	sub	sp, #48	; 0x30
     c2e:	af04      	add	r7, sp, #16
     c30:	6078      	str	r0, [r7, #4]
     c32:	6039      	str	r1, [r7, #0]
/home/qemu-sgx/devel/optee/out-br/build/optee_test_ext-1.0/ta/storage/storage.c:514
     c34:	f04f 0300 	mov.w	r3, #0
     c38:	613b      	str	r3, [r7, #16]
/home/qemu-sgx/devel/optee/out-br/build/optee_test_ext-1.0/ta/storage/storage.c:515
     c3a:	f04f 0300 	mov.w	r3, #0
     c3e:	f6cf 73ff 	movt	r3, #65535	; 0xffff
     c42:	61bb      	str	r3, [r7, #24]
/home/qemu-sgx/devel/optee/out-br/build/optee_test_ext-1.0/ta/storage/storage.c:516
     c44:	f04f 0300 	mov.w	r3, #0
     c48:	60fb      	str	r3, [r7, #12]
/home/qemu-sgx/devel/optee/out-br/build/optee_test_ext-1.0/ta/storage/storage.c:517
     c4a:	f240 4304 	movw	r3, #1028	; 0x404
     c4e:	617b      	str	r3, [r7, #20]
/home/qemu-sgx/devel/optee/out-br/build/optee_test_ext-1.0/ta/storage/storage.c:519
     c50:	f04f 0300 	mov.w	r3, #0
     c54:	61fb      	str	r3, [r7, #28]
/home/qemu-sgx/devel/optee/out-br/build/optee_test_ext-1.0/ta/storage/storage.c:522
     c56:	687b      	ldr	r3, [r7, #4]
     c58:	2b01      	cmp	r3, #1
     c5a:	d004      	beq.n	c66 <ta_storage_cmd_loop+0x3e>
/home/qemu-sgx/devel/optee/out-br/build/optee_test_ext-1.0/ta/storage/storage.c:522 (discriminator 1)
     c5c:	f04f 0306 	mov.w	r3, #6
     c60:	f6cf 73ff 	movt	r3, #65535	; 0xffff
     c64:	e050      	b.n	d08 <ta_storage_cmd_loop+0xe0>
/home/qemu-sgx/devel/optee/out-br/build/optee_test_ext-1.0/ta/storage/storage.c:526
     c66:	f04f 0300 	mov.w	r3, #0
     c6a:	61fb      	str	r3, [r7, #28]
     c6c:	e047      	b.n	cfe <ta_storage_cmd_loop+0xd6>
/home/qemu-sgx/devel/optee/out-br/build/optee_test_ext-1.0/ta/storage/storage.c:528
     c6e:	f04f 0300 	mov.w	r3, #0
     c72:	613b      	str	r3, [r7, #16]
/home/qemu-sgx/devel/optee/out-br/build/optee_test_ext-1.0/ta/storage/storage.c:529
     c74:	69fb      	ldr	r3, [r7, #28]
     c76:	60fb      	str	r3, [r7, #12]
/home/qemu-sgx/devel/optee/out-br/build/optee_test_ext-1.0/ta/storage/storage.c:530
     c78:	683b      	ldr	r3, [r7, #0]
     c7a:	6818      	ldr	r0, [r3, #0]
     c7c:	f107 010c 	add.w	r1, r7, #12
     c80:	f107 0310 	add.w	r3, r7, #16
     c84:	9303      	str	r3, [sp, #12]
     c86:	f04f 0300 	mov.w	r3, #0
     c8a:	9302      	str	r3, [sp, #8]
     c8c:	f04f 0300 	mov.w	r3, #0
     c90:	9301      	str	r3, [sp, #4]
     c92:	f04f 0300 	mov.w	r3, #0
     c96:	9300      	str	r3, [sp, #0]
     c98:	697b      	ldr	r3, [r7, #20]
     c9a:	f04f 0204 	mov.w	r2, #4
     c9e:	f012 fe73 	bl	13988 <TEE_CreatePersistentObject>
     ca2:	61b8      	str	r0, [r7, #24]
/home/qemu-sgx/devel/optee/out-br/build/optee_test_ext-1.0/ta/storage/storage.c:535
     ca4:	69bb      	ldr	r3, [r7, #24]
     ca6:	2b00      	cmp	r3, #0
     ca8:	d00e      	beq.n	cc8 <ta_storage_cmd_loop+0xa0>
/home/qemu-sgx/devel/optee/out-br/build/optee_test_ext-1.0/ta/storage/storage.c:536
     caa:	4b1a      	ldr	r3, [pc, #104]	; (d14 <ta_storage_cmd_loop+0xec>)
     cac:	447b      	add	r3, pc
     cae:	9300      	str	r3, [sp, #0]
     cb0:	f04f 0301 	mov.w	r3, #1
     cb4:	f04f 0201 	mov.w	r2, #1
     cb8:	f44f 7106 	mov.w	r1, #536	; 0x218
     cbc:	4816      	ldr	r0, [pc, #88]	; (d18 <ta_storage_cmd_loop+0xf0>)
     cbe:	4478      	add	r0, pc
     cc0:	f000 faad 	bl	121e <trace_printf>
/home/qemu-sgx/devel/optee/out-br/build/optee_test_ext-1.0/ta/storage/storage.c:537
     cc4:	69bb      	ldr	r3, [r7, #24]
     cc6:	e01f      	b.n	d08 <ta_storage_cmd_loop+0xe0>
/home/qemu-sgx/devel/optee/out-br/build/optee_test_ext-1.0/ta/storage/storage.c:540
     cc8:	693b      	ldr	r3, [r7, #16]
     cca:	4618      	mov	r0, r3
     ccc:	f012 fee1 	bl	13a92 <TEE_CloseAndDeletePersistentObject1>
     cd0:	61b8      	str	r0, [r7, #24]
/home/qemu-sgx/devel/optee/out-br/build/optee_test_ext-1.0/ta/storage/storage.c:541
     cd2:	69bb      	ldr	r3, [r7, #24]
     cd4:	2b00      	cmp	r3, #0
     cd6:	d00e      	beq.n	cf6 <ta_storage_cmd_loop+0xce>
/home/qemu-sgx/devel/optee/out-br/build/optee_test_ext-1.0/ta/storage/storage.c:542
     cd8:	4b10      	ldr	r3, [pc, #64]	; (d1c <ta_storage_cmd_loop+0xf4>)
     cda:	447b      	add	r3, pc
     cdc:	9300      	str	r3, [sp, #0]
     cde:	f04f 0301 	mov.w	r3, #1
     ce2:	f04f 0201 	mov.w	r2, #1
     ce6:	f240 211e 	movw	r1, #542	; 0x21e
     cea:	480d      	ldr	r0, [pc, #52]	; (d20 <ta_storage_cmd_loop+0xf8>)
     cec:	4478      	add	r0, pc
     cee:	f000 fa96 	bl	121e <trace_printf>
/home/qemu-sgx/devel/optee/out-br/build/optee_test_ext-1.0/ta/storage/storage.c:543
     cf2:	69bb      	ldr	r3, [r7, #24]
     cf4:	e008      	b.n	d08 <ta_storage_cmd_loop+0xe0>
/home/qemu-sgx/devel/optee/out-br/build/optee_test_ext-1.0/ta/storage/storage.c:526 (discriminator 2)
     cf6:	69fb      	ldr	r3, [r7, #28]
     cf8:	f103 0301 	add.w	r3, r3, #1
     cfc:	61fb      	str	r3, [r7, #28]
/home/qemu-sgx/devel/optee/out-br/build/optee_test_ext-1.0/ta/storage/storage.c:526 (discriminator 1)
     cfe:	69fb      	ldr	r3, [r7, #28]
     d00:	2b13      	cmp	r3, #19
     d02:	ddb4      	ble.n	c6e <ta_storage_cmd_loop+0x46>
/home/qemu-sgx/devel/optee/out-br/build/optee_test_ext-1.0/ta/storage/storage.c:547
     d04:	f04f 0300 	mov.w	r3, #0
/home/qemu-sgx/devel/optee/out-br/build/optee_test_ext-1.0/ta/storage/storage.c:548 (discriminator 1)
     d08:	4618      	mov	r0, r3
     d0a:	f107 0720 	add.w	r7, r7, #32
     d0e:	46bd      	mov	sp, r7
     d10:	bd80      	pop	{r7, pc}
     d12:	bf00      	nop
     d14:	000138a4 	.word	0x000138a4
     d18:	000138be 	.word	0x000138be
     d1c:	00013876 	.word	0x00013876
     d20:	00013890 	.word	0x00013890

00000d24 <ta_storage_cmd_restrict_usage>:
ta_storage_cmd_restrict_usage():
/home/qemu-sgx/devel/optee/out-br/build/optee_test_ext-1.0/ta/storage/storage.c:552
     d24:	e96d 7e02 	strd	r7, lr, [sp, #-8]!
     d28:	b084      	sub	sp, #16
     d2a:	af00      	add	r7, sp, #0
     d2c:	6078      	str	r0, [r7, #4]
     d2e:	6039      	str	r1, [r7, #0]
/home/qemu-sgx/devel/optee/out-br/build/optee_test_ext-1.0/ta/storage/storage.c:553
     d30:	f04f 0300 	mov.w	r3, #0
     d34:	60fb      	str	r3, [r7, #12]
/home/qemu-sgx/devel/optee/out-br/build/optee_test_ext-1.0/ta/storage/storage.c:555
     d36:	687b      	ldr	r3, [r7, #4]
     d38:	2b01      	cmp	r3, #1
     d3a:	d004      	beq.n	d46 <ta_storage_cmd_restrict_usage+0x22>
/home/qemu-sgx/devel/optee/out-br/build/optee_test_ext-1.0/ta/storage/storage.c:555 (discriminator 1)
     d3c:	f04f 0306 	mov.w	r3, #6
     d40:	f6cf 73ff 	movt	r3, #65535	; 0xffff
     d44:	e00a      	b.n	d5c <ta_storage_cmd_restrict_usage+0x38>
/home/qemu-sgx/devel/optee/out-br/build/optee_test_ext-1.0/ta/storage/storage.c:559
     d46:	683b      	ldr	r3, [r7, #0]
     d48:	681b      	ldr	r3, [r3, #0]
     d4a:	60fb      	str	r3, [r7, #12]
/home/qemu-sgx/devel/optee/out-br/build/optee_test_ext-1.0/ta/storage/storage.c:560
     d4c:	683b      	ldr	r3, [r7, #0]
     d4e:	685b      	ldr	r3, [r3, #4]
     d50:	4619      	mov	r1, r3
     d52:	68f8      	ldr	r0, [r7, #12]
     d54:	f012 f9f7 	bl	13146 <TEE_RestrictObjectUsage1>
/home/qemu-sgx/devel/optee/out-br/build/optee_test_ext-1.0/ta/storage/storage.c:561
     d58:	f04f 0300 	mov.w	r3, #0
/home/qemu-sgx/devel/optee/out-br/build/optee_test_ext-1.0/ta/storage/storage.c:562
     d5c:	4618      	mov	r0, r3
     d5e:	f107 0710 	add.w	r7, r7, #16
     d62:	46bd      	mov	sp, r7
     d64:	bd80      	pop	{r7, pc}

00000d66 <ta_storage_cmd_alloc_obj>:
ta_storage_cmd_alloc_obj():
/home/qemu-sgx/devel/optee/out-br/build/optee_test_ext-1.0/ta/storage/storage.c:565
     d66:	e96d 7e02 	strd	r7, lr, [sp, #-8]!
     d6a:	b084      	sub	sp, #16
     d6c:	af00      	add	r7, sp, #0
     d6e:	6078      	str	r0, [r7, #4]
     d70:	6039      	str	r1, [r7, #0]
/home/qemu-sgx/devel/optee/out-br/build/optee_test_ext-1.0/ta/storage/storage.c:566
     d72:	f04f 0300 	mov.w	r3, #0
     d76:	f6cf 73ff 	movt	r3, #65535	; 0xffff
     d7a:	60fb      	str	r3, [r7, #12]
/home/qemu-sgx/devel/optee/out-br/build/optee_test_ext-1.0/ta/storage/storage.c:567
     d7c:	f04f 0300 	mov.w	r3, #0
     d80:	60bb      	str	r3, [r7, #8]
/home/qemu-sgx/devel/optee/out-br/build/optee_test_ext-1.0/ta/storage/storage.c:569
     d82:	687b      	ldr	r3, [r7, #4]
     d84:	2b21      	cmp	r3, #33	; 0x21
     d86:	d004      	beq.n	d92 <ta_storage_cmd_alloc_obj+0x2c>
/home/qemu-sgx/devel/optee/out-br/build/optee_test_ext-1.0/ta/storage/storage.c:569 (discriminator 1)
     d88:	f04f 0306 	mov.w	r3, #6
     d8c:	f6cf 73ff 	movt	r3, #65535	; 0xffff
     d90:	e00f      	b.n	db2 <ta_storage_cmd_alloc_obj+0x4c>
/home/qemu-sgx/devel/optee/out-br/build/optee_test_ext-1.0/ta/storage/storage.c:574
     d92:	683b      	ldr	r3, [r7, #0]
     d94:	6818      	ldr	r0, [r3, #0]
     d96:	683b      	ldr	r3, [r7, #0]
     d98:	685b      	ldr	r3, [r3, #4]
     d9a:	f107 0208 	add.w	r2, r7, #8
     d9e:	4619      	mov	r1, r3
     da0:	f012 faef 	bl	13382 <TEE_AllocateTransientObject>
     da4:	60f8      	str	r0, [r7, #12]
/home/qemu-sgx/devel/optee/out-br/build/optee_test_ext-1.0/ta/storage/storage.c:576
     da6:	68ba      	ldr	r2, [r7, #8]
     da8:	683b      	ldr	r3, [r7, #0]
     daa:	f103 0308 	add.w	r3, r3, #8
     dae:	601a      	str	r2, [r3, #0]
/home/qemu-sgx/devel/optee/out-br/build/optee_test_ext-1.0/ta/storage/storage.c:577
     db0:	68fb      	ldr	r3, [r7, #12]
/home/qemu-sgx/devel/optee/out-br/build/optee_test_ext-1.0/ta/storage/storage.c:578 (discriminator 1)
     db2:	4618      	mov	r0, r3
     db4:	f107 0710 	add.w	r7, r7, #16
     db8:	46bd      	mov	sp, r7
     dba:	bd80      	pop	{r7, pc}

00000dbc <ta_storage_cmd_free_obj>:
ta_storage_cmd_free_obj():
/home/qemu-sgx/devel/optee/out-br/build/optee_test_ext-1.0/ta/storage/storage.c:581
     dbc:	e96d 7e02 	strd	r7, lr, [sp, #-8]!
     dc0:	b084      	sub	sp, #16
     dc2:	af00      	add	r7, sp, #0
     dc4:	6078      	str	r0, [r7, #4]
     dc6:	6039      	str	r1, [r7, #0]
/home/qemu-sgx/devel/optee/out-br/build/optee_test_ext-1.0/ta/storage/storage.c:582
     dc8:	f04f 0300 	mov.w	r3, #0
     dcc:	60fb      	str	r3, [r7, #12]
/home/qemu-sgx/devel/optee/out-br/build/optee_test_ext-1.0/ta/storage/storage.c:584
     dce:	687b      	ldr	r3, [r7, #4]
     dd0:	2b01      	cmp	r3, #1
     dd2:	d004      	beq.n	dde <ta_storage_cmd_free_obj+0x22>
/home/qemu-sgx/devel/optee/out-br/build/optee_test_ext-1.0/ta/storage/storage.c:584 (discriminator 1)
     dd4:	f04f 0306 	mov.w	r3, #6
     dd8:	f6cf 73ff 	movt	r3, #65535	; 0xffff
     ddc:	e007      	b.n	dee <ta_storage_cmd_free_obj+0x32>
/home/qemu-sgx/devel/optee/out-br/build/optee_test_ext-1.0/ta/storage/storage.c:588
     dde:	683b      	ldr	r3, [r7, #0]
     de0:	681b      	ldr	r3, [r3, #0]
     de2:	60fb      	str	r3, [r7, #12]
/home/qemu-sgx/devel/optee/out-br/build/optee_test_ext-1.0/ta/storage/storage.c:589
     de4:	68f8      	ldr	r0, [r7, #12]
     de6:	f012 fb01 	bl	133ec <TEE_FreeTransientObject>
/home/qemu-sgx/devel/optee/out-br/build/optee_test_ext-1.0/ta/storage/storage.c:590
     dea:	f04f 0300 	mov.w	r3, #0
/home/qemu-sgx/devel/optee/out-br/build/optee_test_ext-1.0/ta/storage/storage.c:591
     dee:	4618      	mov	r0, r3
     df0:	f107 0710 	add.w	r7, r7, #16
     df4:	46bd      	mov	sp, r7
     df6:	bd80      	pop	{r7, pc}

00000df8 <ta_storage_cmd_reset_obj>:
ta_storage_cmd_reset_obj():
/home/qemu-sgx/devel/optee/out-br/build/optee_test_ext-1.0/ta/storage/storage.c:594
     df8:	e96d 7e02 	strd	r7, lr, [sp, #-8]!
     dfc:	b084      	sub	sp, #16
     dfe:	af00      	add	r7, sp, #0
     e00:	6078      	str	r0, [r7, #4]
     e02:	6039      	str	r1, [r7, #0]
/home/qemu-sgx/devel/optee/out-br/build/optee_test_ext-1.0/ta/storage/storage.c:595
     e04:	f04f 0300 	mov.w	r3, #0
     e08:	60fb      	str	r3, [r7, #12]
/home/qemu-sgx/devel/optee/out-br/build/optee_test_ext-1.0/ta/storage/storage.c:597
     e0a:	687b      	ldr	r3, [r7, #4]
     e0c:	2b01      	cmp	r3, #1
     e0e:	d004      	beq.n	e1a <ta_storage_cmd_reset_obj+0x22>
/home/qemu-sgx/devel/optee/out-br/build/optee_test_ext-1.0/ta/storage/storage.c:597 (discriminator 1)
     e10:	f04f 0306 	mov.w	r3, #6
     e14:	f6cf 73ff 	movt	r3, #65535	; 0xffff
     e18:	e007      	b.n	e2a <ta_storage_cmd_reset_obj+0x32>
/home/qemu-sgx/devel/optee/out-br/build/optee_test_ext-1.0/ta/storage/storage.c:601
     e1a:	683b      	ldr	r3, [r7, #0]
     e1c:	681b      	ldr	r3, [r3, #0]
     e1e:	60fb      	str	r3, [r7, #12]
/home/qemu-sgx/devel/optee/out-br/build/optee_test_ext-1.0/ta/storage/storage.c:602
     e20:	68f8      	ldr	r0, [r7, #12]
     e22:	f012 fb13 	bl	1344c <TEE_ResetTransientObject>
/home/qemu-sgx/devel/optee/out-br/build/optee_test_ext-1.0/ta/storage/storage.c:603
     e26:	f04f 0300 	mov.w	r3, #0
/home/qemu-sgx/devel/optee/out-br/build/optee_test_ext-1.0/ta/storage/storage.c:604
     e2a:	4618      	mov	r0, r3
     e2c:	f107 0710 	add.w	r7, r7, #16
     e30:	46bd      	mov	sp, r7
     e32:	bd80      	pop	{r7, pc}

00000e34 <ta_storage_cmd_get_obj_info>:
ta_storage_cmd_get_obj_info():
/home/qemu-sgx/devel/optee/out-br/build/optee_test_ext-1.0/ta/storage/storage.c:608
     e34:	e96d 7e02 	strd	r7, lr, [sp, #-8]!
     e38:	b08c      	sub	sp, #48	; 0x30
     e3a:	af00      	add	r7, sp, #0
     e3c:	6078      	str	r0, [r7, #4]
     e3e:	6039      	str	r1, [r7, #0]
/home/qemu-sgx/devel/optee/out-br/build/optee_test_ext-1.0/ta/storage/storage.c:609
     e40:	f04f 0300 	mov.w	r3, #0
     e44:	f6cf 73ff 	movt	r3, #65535	; 0xffff
     e48:	62fb      	str	r3, [r7, #44]	; 0x2c
/home/qemu-sgx/devel/optee/out-br/build/optee_test_ext-1.0/ta/storage/storage.c:610
     e4a:	f107 030c 	add.w	r3, r7, #12
     e4e:	efc0 0010 	vmov.i32	d16, #0	; 0x00000000
     e52:	edc3 0b00 	vstr	d16, [r3]
     e56:	edc3 0b02 	vstr	d16, [r3, #8]
     e5a:	edc3 0b04 	vstr	d16, [r3, #16]
     e5e:	edc3 0b05 	vstr	d16, [r3, #20]
/home/qemu-sgx/devel/optee/out-br/build/optee_test_ext-1.0/ta/storage/storage.c:611
     e62:	683b      	ldr	r3, [r7, #0]
     e64:	681b      	ldr	r3, [r3, #0]
     e66:	62bb      	str	r3, [r7, #40]	; 0x28
/home/qemu-sgx/devel/optee/out-br/build/optee_test_ext-1.0/ta/storage/storage.c:613
     e68:	687b      	ldr	r3, [r7, #4]
     e6a:	2b61      	cmp	r3, #97	; 0x61
     e6c:	d004      	beq.n	e78 <ta_storage_cmd_get_obj_info+0x44>
/home/qemu-sgx/devel/optee/out-br/build/optee_test_ext-1.0/ta/storage/storage.c:613 (discriminator 1)
     e6e:	f04f 0306 	mov.w	r3, #6
     e72:	f6cf 73ff 	movt	r3, #65535	; 0xffff
     e76:	e026      	b.n	ec6 <ta_storage_cmd_get_obj_info+0x92>
/home/qemu-sgx/devel/optee/out-br/build/optee_test_ext-1.0/ta/storage/storage.c:618
     e78:	683b      	ldr	r3, [r7, #0]
     e7a:	f103 0308 	add.w	r3, r3, #8
     e7e:	685b      	ldr	r3, [r3, #4]
     e80:	2b1b      	cmp	r3, #27
     e82:	d804      	bhi.n	e8e <ta_storage_cmd_get_obj_info+0x5a>
/home/qemu-sgx/devel/optee/out-br/build/optee_test_ext-1.0/ta/storage/storage.c:619
     e84:	f04f 0310 	mov.w	r3, #16
     e88:	f6cf 73ff 	movt	r3, #65535	; 0xffff
     e8c:	e01b      	b.n	ec6 <ta_storage_cmd_get_obj_info+0x92>
/home/qemu-sgx/devel/optee/out-br/build/optee_test_ext-1.0/ta/storage/storage.c:620
     e8e:	f107 030c 	add.w	r3, r7, #12
     e92:	4619      	mov	r1, r3
     e94:	6ab8      	ldr	r0, [r7, #40]	; 0x28
     e96:	f012 f90a 	bl	130ae <TEE_GetObjectInfo1>
     e9a:	62f8      	str	r0, [r7, #44]	; 0x2c
/home/qemu-sgx/devel/optee/out-br/build/optee_test_ext-1.0/ta/storage/storage.c:621
     e9c:	6afb      	ldr	r3, [r7, #44]	; 0x2c
     e9e:	2b00      	cmp	r3, #0
     ea0:	d110      	bne.n	ec4 <ta_storage_cmd_get_obj_info+0x90>
/home/qemu-sgx/devel/optee/out-br/build/optee_test_ext-1.0/ta/storage/storage.c:622
     ea2:	683b      	ldr	r3, [r7, #0]
     ea4:	f103 0308 	add.w	r3, r3, #8
     ea8:	f04f 021c 	mov.w	r2, #28
     eac:	605a      	str	r2, [r3, #4]
/home/qemu-sgx/devel/optee/out-br/build/optee_test_ext-1.0/ta/storage/storage.c:623
     eae:	683b      	ldr	r3, [r7, #0]
     eb0:	f103 0308 	add.w	r3, r3, #8
     eb4:	681b      	ldr	r3, [r3, #0]
     eb6:	f107 010c 	add.w	r1, r7, #12
     eba:	f04f 021c 	mov.w	r2, #28
     ebe:	4618      	mov	r0, r3
     ec0:	f002 f880 	bl	2fc4 <TEE_MemMove>
/home/qemu-sgx/devel/optee/out-br/build/optee_test_ext-1.0/ta/storage/storage.c:626
     ec4:	6afb      	ldr	r3, [r7, #44]	; 0x2c
/home/qemu-sgx/devel/optee/out-br/build/optee_test_ext-1.0/ta/storage/storage.c:627 (discriminator 1)
     ec6:	4618      	mov	r0, r3
     ec8:	f107 0730 	add.w	r7, r7, #48	; 0x30
     ecc:	46bd      	mov	sp, r7
     ece:	bd80      	pop	{r7, pc}

00000ed0 <TA_CreateEntryPoint>:
TA_CreateEntryPoint():
/home/qemu-sgx/devel/optee/out-br/build/optee_test_ext-1.0/ta/storage/ta_entry.c:18
     ed0:	f84d 7d04 	str.w	r7, [sp, #-4]!
     ed4:	af00      	add	r7, sp, #0
/home/qemu-sgx/devel/optee/out-br/build/optee_test_ext-1.0/ta/storage/ta_entry.c:19
     ed6:	f04f 0300 	mov.w	r3, #0
/home/qemu-sgx/devel/optee/out-br/build/optee_test_ext-1.0/ta/storage/ta_entry.c:20
     eda:	4618      	mov	r0, r3
     edc:	46bd      	mov	sp, r7
     ede:	f85d 7b04 	ldr.w	r7, [sp], #4
     ee2:	4770      	bx	lr

00000ee4 <TA_DestroyEntryPoint>:
TA_DestroyEntryPoint():
/home/qemu-sgx/devel/optee/out-br/build/optee_test_ext-1.0/ta/storage/ta_entry.c:24
     ee4:	f84d 7d04 	str.w	r7, [sp, #-4]!
     ee8:	af00      	add	r7, sp, #0
/home/qemu-sgx/devel/optee/out-br/build/optee_test_ext-1.0/ta/storage/ta_entry.c:25
     eea:	bf00      	nop
     eec:	46bd      	mov	sp, r7
     eee:	f85d 7b04 	ldr.w	r7, [sp], #4
     ef2:	4770      	bx	lr

00000ef4 <TA_OpenSessionEntryPoint>:
TA_OpenSessionEntryPoint():
/home/qemu-sgx/devel/optee/out-br/build/optee_test_ext-1.0/ta/storage/ta_entry.c:31
     ef4:	f84d 7d04 	str.w	r7, [sp, #-4]!
     ef8:	b085      	sub	sp, #20
     efa:	af00      	add	r7, sp, #0
     efc:	60f8      	str	r0, [r7, #12]
     efe:	60b9      	str	r1, [r7, #8]
     f00:	607a      	str	r2, [r7, #4]
/home/qemu-sgx/devel/optee/out-br/build/optee_test_ext-1.0/ta/storage/ta_entry.c:35
     f02:	f04f 0300 	mov.w	r3, #0
/home/qemu-sgx/devel/optee/out-br/build/optee_test_ext-1.0/ta/storage/ta_entry.c:36
     f06:	4618      	mov	r0, r3
     f08:	f107 0714 	add.w	r7, r7, #20
     f0c:	46bd      	mov	sp, r7
     f0e:	f85d 7b04 	ldr.w	r7, [sp], #4
     f12:	4770      	bx	lr

00000f14 <TA_CloseSessionEntryPoint>:
TA_CloseSessionEntryPoint():
/home/qemu-sgx/devel/optee/out-br/build/optee_test_ext-1.0/ta/storage/ta_entry.c:40
     f14:	f84d 7d04 	str.w	r7, [sp, #-4]!
     f18:	b083      	sub	sp, #12
     f1a:	af00      	add	r7, sp, #0
     f1c:	6078      	str	r0, [r7, #4]
/home/qemu-sgx/devel/optee/out-br/build/optee_test_ext-1.0/ta/storage/ta_entry.c:42
     f1e:	bf00      	nop
     f20:	f107 070c 	add.w	r7, r7, #12
     f24:	46bd      	mov	sp, r7
     f26:	f85d 7b04 	ldr.w	r7, [sp], #4
     f2a:	4770      	bx	lr

00000f2c <TA_InvokeCommandEntryPoint>:
TA_InvokeCommandEntryPoint():
/home/qemu-sgx/devel/optee/out-br/build/optee_test_ext-1.0/ta/storage/ta_entry.c:48
     f2c:	e96d 7e02 	strd	r7, lr, [sp, #-8]!
     f30:	b084      	sub	sp, #16
     f32:	af00      	add	r7, sp, #0
     f34:	60f8      	str	r0, [r7, #12]
     f36:	60b9      	str	r1, [r7, #8]
     f38:	607a      	str	r2, [r7, #4]
     f3a:	603b      	str	r3, [r7, #0]
     f3c:	68bb      	ldr	r3, [r7, #8]
     f3e:	2b19      	cmp	r3, #25
     f40:	f200 80c2 	bhi.w	10c8 <TA_InvokeCommandEntryPoint+0x19c>
     f44:	a202      	add	r2, pc, #8	; (adr r2, f50 <TA_InvokeCommandEntryPoint+0x24>)
     f46:	f852 3023 	ldr.w	r3, [r2, r3, lsl #2]
     f4a:	441a      	add	r2, r3
     f4c:	4710      	bx	r2
     f4e:	bf00      	nop
     f50:	00000069 	.word	0x00000069
     f54:	00000077 	.word	0x00000077
     f58:	00000083 	.word	0x00000083
     f5c:	0000008f 	.word	0x0000008f
     f60:	0000009b 	.word	0x0000009b
     f64:	000000b7 	.word	0x000000b7
     f68:	000000c3 	.word	0x000000c3
     f6c:	000000cf 	.word	0x000000cf
     f70:	000000dd 	.word	0x000000dd
     f74:	000000e9 	.word	0x000000e9
     f78:	000000f5 	.word	0x000000f5
     f7c:	00000101 	.word	0x00000101
     f80:	0000010d 	.word	0x0000010d
     f84:	00000119 	.word	0x00000119
     f88:	000000a9 	.word	0x000000a9
     f8c:	00000125 	.word	0x00000125
     f90:	00000131 	.word	0x00000131
     f94:	0000013d 	.word	0x0000013d
     f98:	00000149 	.word	0x00000149
     f9c:	00000155 	.word	0x00000155
     fa0:	00000161 	.word	0x00000161
     fa4:	0000016d 	.word	0x0000016d
     fa8:	00000069 	.word	0x00000069
     fac:	0000009b 	.word	0x0000009b
     fb0:	000000a9 	.word	0x000000a9
     fb4:	000000cf 	.word	0x000000cf
/home/qemu-sgx/devel/optee/out-br/build/optee_test_ext-1.0/ta/storage/ta_entry.c:54
     fb8:	683a      	ldr	r2, [r7, #0]
     fba:	6879      	ldr	r1, [r7, #4]
     fbc:	68b8      	ldr	r0, [r7, #8]
     fbe:	f7ff f82f 	bl	20 <ta_storage_cmd_open>
     fc2:	4603      	mov	r3, r0
     fc4:	e084      	b.n	10d0 <TA_InvokeCommandEntryPoint+0x1a4>
/home/qemu-sgx/devel/optee/out-br/build/optee_test_ext-1.0/ta/storage/ta_entry.c:57
     fc6:	6839      	ldr	r1, [r7, #0]
     fc8:	6878      	ldr	r0, [r7, #4]
     fca:	f7ff f97e 	bl	2ca <ta_storage_cmd_close>
     fce:	4603      	mov	r3, r0
     fd0:	e07e      	b.n	10d0 <TA_InvokeCommandEntryPoint+0x1a4>
/home/qemu-sgx/devel/optee/out-br/build/optee_test_ext-1.0/ta/storage/ta_entry.c:60
     fd2:	6839      	ldr	r1, [r7, #0]
     fd4:	6878      	ldr	r0, [r7, #4]
     fd6:	f7ff f992 	bl	2fe <ta_storage_cmd_read>
     fda:	4603      	mov	r3, r0
     fdc:	e078      	b.n	10d0 <TA_InvokeCommandEntryPoint+0x1a4>
/home/qemu-sgx/devel/optee/out-br/build/optee_test_ext-1.0/ta/storage/ta_entry.c:63
     fde:	6839      	ldr	r1, [r7, #0]
     fe0:	6878      	ldr	r0, [r7, #4]
     fe2:	f7ff f9d5 	bl	390 <ta_storage_cmd_write>
     fe6:	4603      	mov	r3, r0
     fe8:	e072      	b.n	10d0 <TA_InvokeCommandEntryPoint+0x1a4>
/home/qemu-sgx/devel/optee/out-br/build/optee_test_ext-1.0/ta/storage/ta_entry.c:67
     fea:	683a      	ldr	r2, [r7, #0]
     fec:	6879      	ldr	r1, [r7, #4]
     fee:	68b8      	ldr	r0, [r7, #8]
     ff0:	f7ff f87e 	bl	f0 <ta_storage_cmd_create>
     ff4:	4603      	mov	r3, r0
     ff6:	e06b      	b.n	10d0 <TA_InvokeCommandEntryPoint+0x1a4>
/home/qemu-sgx/devel/optee/out-br/build/optee_test_ext-1.0/ta/storage/ta_entry.c:71
     ff8:	683a      	ldr	r2, [r7, #0]
     ffa:	6879      	ldr	r1, [r7, #4]
     ffc:	68b8      	ldr	r0, [r7, #8]
     ffe:	f7ff f8f9 	bl	1f4 <ta_storage_cmd_create_overwrite>
    1002:	4603      	mov	r3, r0
    1004:	e064      	b.n	10d0 <TA_InvokeCommandEntryPoint+0x1a4>
/home/qemu-sgx/devel/optee/out-br/build/optee_test_ext-1.0/ta/storage/ta_entry.c:74
    1006:	6839      	ldr	r1, [r7, #0]
    1008:	6878      	ldr	r0, [r7, #4]
    100a:	f7ff fa03 	bl	414 <ta_storage_cmd_seek>
    100e:	4603      	mov	r3, r0
    1010:	e05e      	b.n	10d0 <TA_InvokeCommandEntryPoint+0x1a4>
/home/qemu-sgx/devel/optee/out-br/build/optee_test_ext-1.0/ta/storage/ta_entry.c:77
    1012:	6839      	ldr	r1, [r7, #0]
    1014:	6878      	ldr	r0, [r7, #4]
    1016:	f7ff fa3c 	bl	492 <ta_storage_cmd_unlink>
    101a:	4603      	mov	r3, r0
    101c:	e058      	b.n	10d0 <TA_InvokeCommandEntryPoint+0x1a4>
/home/qemu-sgx/devel/optee/out-br/build/optee_test_ext-1.0/ta/storage/ta_entry.c:81
    101e:	683a      	ldr	r2, [r7, #0]
    1020:	6879      	ldr	r1, [r7, #4]
    1022:	68b8      	ldr	r0, [r7, #8]
    1024:	f7ff fa50 	bl	4c8 <ta_storage_cmd_rename>
    1028:	4603      	mov	r3, r0
    102a:	e051      	b.n	10d0 <TA_InvokeCommandEntryPoint+0x1a4>
/home/qemu-sgx/devel/optee/out-br/build/optee_test_ext-1.0/ta/storage/ta_entry.c:84
    102c:	6839      	ldr	r1, [r7, #0]
    102e:	6878      	ldr	r0, [r7, #4]
    1030:	f7ff faab 	bl	58a <ta_storage_cmd_trunc>
    1034:	4603      	mov	r3, r0
    1036:	e04b      	b.n	10d0 <TA_InvokeCommandEntryPoint+0x1a4>
/home/qemu-sgx/devel/optee/out-br/build/optee_test_ext-1.0/ta/storage/ta_entry.c:87
    1038:	6839      	ldr	r1, [r7, #0]
    103a:	6878      	ldr	r0, [r7, #4]
    103c:	f7ff fac2 	bl	5c4 <ta_storage_cmd_alloc_enum>
    1040:	4603      	mov	r3, r0
    1042:	e045      	b.n	10d0 <TA_InvokeCommandEntryPoint+0x1a4>
/home/qemu-sgx/devel/optee/out-br/build/optee_test_ext-1.0/ta/storage/ta_entry.c:90
    1044:	6839      	ldr	r1, [r7, #0]
    1046:	6878      	ldr	r0, [r7, #4]
    1048:	f7ff fae2 	bl	610 <ta_storage_cmd_free_enum>
    104c:	4603      	mov	r3, r0
    104e:	e03f      	b.n	10d0 <TA_InvokeCommandEntryPoint+0x1a4>
/home/qemu-sgx/devel/optee/out-br/build/optee_test_ext-1.0/ta/storage/ta_entry.c:93
    1050:	6839      	ldr	r1, [r7, #0]
    1052:	6878      	ldr	r0, [r7, #4]
    1054:	f7ff faf7 	bl	646 <ta_storage_cmd_reset_enum>
    1058:	4603      	mov	r3, r0
    105a:	e039      	b.n	10d0 <TA_InvokeCommandEntryPoint+0x1a4>
/home/qemu-sgx/devel/optee/out-br/build/optee_test_ext-1.0/ta/storage/ta_entry.c:96
    105c:	6839      	ldr	r1, [r7, #0]
    105e:	6878      	ldr	r0, [r7, #4]
    1060:	f7ff fb0c 	bl	67c <ta_storage_cmd_start_enum>
    1064:	4603      	mov	r3, r0
    1066:	e033      	b.n	10d0 <TA_InvokeCommandEntryPoint+0x1a4>
/home/qemu-sgx/devel/optee/out-br/build/optee_test_ext-1.0/ta/storage/ta_entry.c:99
    1068:	6839      	ldr	r1, [r7, #0]
    106a:	6878      	ldr	r0, [r7, #4]
    106c:	f7ff fb23 	bl	6b6 <ta_storage_cmd_next_enum>
    1070:	4603      	mov	r3, r0
    1072:	e02d      	b.n	10d0 <TA_InvokeCommandEntryPoint+0x1a4>
/home/qemu-sgx/devel/optee/out-br/build/optee_test_ext-1.0/ta/storage/ta_entry.c:102
    1074:	6839      	ldr	r1, [r7, #0]
    1076:	6878      	ldr	r0, [r7, #4]
    1078:	f7ff fc0f 	bl	89a <ta_storage_cmd_key_in_persistent>
    107c:	4603      	mov	r3, r0
    107e:	e027      	b.n	10d0 <TA_InvokeCommandEntryPoint+0x1a4>
/home/qemu-sgx/devel/optee/out-br/build/optee_test_ext-1.0/ta/storage/ta_entry.c:105
    1080:	6839      	ldr	r1, [r7, #0]
    1082:	6878      	ldr	r0, [r7, #4]
    1084:	f7ff fdd0 	bl	c28 <ta_storage_cmd_loop>
    1088:	4603      	mov	r3, r0
    108a:	e021      	b.n	10d0 <TA_InvokeCommandEntryPoint+0x1a4>
/home/qemu-sgx/devel/optee/out-br/build/optee_test_ext-1.0/ta/storage/ta_entry.c:108
    108c:	6839      	ldr	r1, [r7, #0]
    108e:	6878      	ldr	r0, [r7, #4]
    1090:	f7ff fe48 	bl	d24 <ta_storage_cmd_restrict_usage>
    1094:	4603      	mov	r3, r0
    1096:	e01b      	b.n	10d0 <TA_InvokeCommandEntryPoint+0x1a4>
/home/qemu-sgx/devel/optee/out-br/build/optee_test_ext-1.0/ta/storage/ta_entry.c:111
    1098:	6839      	ldr	r1, [r7, #0]
    109a:	6878      	ldr	r0, [r7, #4]
    109c:	f7ff fe63 	bl	d66 <ta_storage_cmd_alloc_obj>
    10a0:	4603      	mov	r3, r0
    10a2:	e015      	b.n	10d0 <TA_InvokeCommandEntryPoint+0x1a4>
/home/qemu-sgx/devel/optee/out-br/build/optee_test_ext-1.0/ta/storage/ta_entry.c:114
    10a4:	6839      	ldr	r1, [r7, #0]
    10a6:	6878      	ldr	r0, [r7, #4]
    10a8:	f7ff fe88 	bl	dbc <ta_storage_cmd_free_obj>
    10ac:	4603      	mov	r3, r0
    10ae:	e00f      	b.n	10d0 <TA_InvokeCommandEntryPoint+0x1a4>
/home/qemu-sgx/devel/optee/out-br/build/optee_test_ext-1.0/ta/storage/ta_entry.c:117
    10b0:	6839      	ldr	r1, [r7, #0]
    10b2:	6878      	ldr	r0, [r7, #4]
    10b4:	f7ff fea0 	bl	df8 <ta_storage_cmd_reset_obj>
    10b8:	4603      	mov	r3, r0
    10ba:	e009      	b.n	10d0 <TA_InvokeCommandEntryPoint+0x1a4>
/home/qemu-sgx/devel/optee/out-br/build/optee_test_ext-1.0/ta/storage/ta_entry.c:120
    10bc:	6839      	ldr	r1, [r7, #0]
    10be:	6878      	ldr	r0, [r7, #4]
    10c0:	f7ff feb8 	bl	e34 <ta_storage_cmd_get_obj_info>
    10c4:	4603      	mov	r3, r0
    10c6:	e003      	b.n	10d0 <TA_InvokeCommandEntryPoint+0x1a4>
/home/qemu-sgx/devel/optee/out-br/build/optee_test_ext-1.0/ta/storage/ta_entry.c:123
    10c8:	f04f 0306 	mov.w	r3, #6
    10cc:	f6cf 73ff 	movt	r3, #65535	; 0xffff
/home/qemu-sgx/devel/optee/out-br/build/optee_test_ext-1.0/ta/storage/ta_entry.c:125
    10d0:	4618      	mov	r0, r3
    10d2:	f107 0710 	add.w	r7, r7, #16
    10d6:	46bd      	mov	sp, r7
    10d8:	bd80      	pop	{r7, pc}
    10da:	bf00      	nop

000010dc <__ta_entry>:
__ta_entry():
/home/qemu-sgx/devel/optee/optee_os/out/arm/export-ta_arm32/src/ta_entry_a32.S:20
    10dc:	fa00463c 	blx	129d4 <__ta_entry_c>

000010e0 <trace_set_level>:
trace_set_level():
/home/qemu-sgx/devel/optee/optee_os/lib/libutils/ext/trace.c:25
    10e0:	f84d 7d04 	str.w	r7, [sp, #-4]!
    10e4:	b083      	sub	sp, #12
    10e6:	af00      	add	r7, sp, #0
    10e8:	6078      	str	r0, [r7, #4]
    10ea:	4b0d      	ldr	r3, [pc, #52]	; (1120 <trace_set_level+0x40>)
    10ec:	447b      	add	r3, pc
/home/qemu-sgx/devel/optee/optee_os/lib/libutils/ext/trace.c:26
    10ee:	687a      	ldr	r2, [r7, #4]
    10f0:	2a00      	cmp	r2, #0
    10f2:	db07      	blt.n	1104 <trace_set_level+0x24>
/home/qemu-sgx/devel/optee/optee_os/lib/libutils/ext/trace.c:26 (discriminator 1)
    10f4:	687a      	ldr	r2, [r7, #4]
    10f6:	2a04      	cmp	r2, #4
    10f8:	dc04      	bgt.n	1104 <trace_set_level+0x24>
/home/qemu-sgx/devel/optee/optee_os/lib/libutils/ext/trace.c:27
    10fa:	4a0a      	ldr	r2, [pc, #40]	; (1124 <trace_set_level+0x44>)
    10fc:	589b      	ldr	r3, [r3, r2]
    10fe:	687a      	ldr	r2, [r7, #4]
    1100:	601a      	str	r2, [r3, #0]
    1102:	e005      	b.n	1110 <trace_set_level+0x30>
/home/qemu-sgx/devel/optee/optee_os/lib/libutils/ext/trace.c:29
    1104:	4a07      	ldr	r2, [pc, #28]	; (1124 <trace_set_level+0x44>)
    1106:	589b      	ldr	r3, [r3, r2]
    1108:	f04f 0204 	mov.w	r2, #4
    110c:	601a      	str	r2, [r3, #0]
/home/qemu-sgx/devel/optee/optee_os/lib/libutils/ext/trace.c:30
    110e:	bf00      	nop
    1110:	bf00      	nop
    1112:	f107 070c 	add.w	r7, r7, #12
    1116:	46bd      	mov	sp, r7
    1118:	f85d 7b04 	ldr.w	r7, [sp], #4
    111c:	4770      	bx	lr
    111e:	bf00      	nop
    1120:	00016f98 	.word	0x00016f98
    1124:	00000010 	.word	0x00000010

00001128 <trace_get_level>:
trace_get_level():
/home/qemu-sgx/devel/optee/optee_os/lib/libutils/ext/trace.c:33
    1128:	f84d 7d04 	str.w	r7, [sp, #-4]!
    112c:	af00      	add	r7, sp, #0
    112e:	4a05      	ldr	r2, [pc, #20]	; (1144 <trace_get_level+0x1c>)
    1130:	447a      	add	r2, pc
/home/qemu-sgx/devel/optee/optee_os/lib/libutils/ext/trace.c:34
    1132:	4b05      	ldr	r3, [pc, #20]	; (1148 <trace_get_level+0x20>)
    1134:	58d3      	ldr	r3, [r2, r3]
    1136:	681b      	ldr	r3, [r3, #0]
/home/qemu-sgx/devel/optee/optee_os/lib/libutils/ext/trace.c:35
    1138:	4618      	mov	r0, r3
    113a:	46bd      	mov	sp, r7
    113c:	f85d 7b04 	ldr.w	r7, [sp], #4
    1140:	4770      	bx	lr
    1142:	bf00      	nop
    1144:	00016f54 	.word	0x00016f54
    1148:	00000010 	.word	0x00000010

0000114c <trace_level_to_string>:
trace_level_to_string():
/home/qemu-sgx/devel/optee/optee_os/lib/libutils/ext/trace.c:38
    114c:	f84d 7d04 	str.w	r7, [sp, #-4]!
    1150:	b085      	sub	sp, #20
    1152:	af00      	add	r7, sp, #0
    1154:	6078      	str	r0, [r7, #4]
    1156:	460b      	mov	r3, r1
    1158:	70fb      	strb	r3, [r7, #3]
/home/qemu-sgx/devel/optee/optee_os/lib/libutils/ext/trace.c:47
    115a:	f04f 0300 	mov.w	r3, #0
    115e:	60fb      	str	r3, [r7, #12]
/home/qemu-sgx/devel/optee/optee_os/lib/libutils/ext/trace.c:49
    1160:	78fb      	ldrb	r3, [r7, #3]
    1162:	f083 0301 	eor.w	r3, r3, #1
    1166:	b2db      	uxtb	r3, r3
    1168:	2b00      	cmp	r3, #0
    116a:	d002      	beq.n	1172 <trace_level_to_string+0x26>
/home/qemu-sgx/devel/optee/optee_os/lib/libutils/ext/trace.c:50
    116c:	f04f 034d 	mov.w	r3, #77	; 0x4d
    1170:	e00c      	b.n	118c <trace_level_to_string+0x40>
/home/qemu-sgx/devel/optee/optee_os/lib/libutils/ext/trace.c:52
    1172:	687b      	ldr	r3, [r7, #4]
    1174:	2b00      	cmp	r3, #0
    1176:	db04      	blt.n	1182 <trace_level_to_string+0x36>
/home/qemu-sgx/devel/optee/optee_os/lib/libutils/ext/trace.c:52 (discriminator 1)
    1178:	687b      	ldr	r3, [r7, #4]
    117a:	2b04      	cmp	r3, #4
    117c:	dc01      	bgt.n	1182 <trace_level_to_string+0x36>
/home/qemu-sgx/devel/optee/optee_os/lib/libutils/ext/trace.c:53
    117e:	687b      	ldr	r3, [r7, #4]
    1180:	60fb      	str	r3, [r7, #12]
/home/qemu-sgx/devel/optee/optee_os/lib/libutils/ext/trace.c:55
    1182:	4a06      	ldr	r2, [pc, #24]	; (119c <trace_level_to_string+0x50>)
    1184:	447a      	add	r2, pc
    1186:	68fb      	ldr	r3, [r7, #12]
    1188:	4413      	add	r3, r2
    118a:	781b      	ldrb	r3, [r3, #0]
/home/qemu-sgx/devel/optee/optee_os/lib/libutils/ext/trace.c:56
    118c:	4618      	mov	r0, r3
    118e:	f107 0714 	add.w	r7, r7, #20
    1192:	46bd      	mov	sp, r7
    1194:	f85d 7b04 	ldr.w	r7, [sp], #4
    1198:	4770      	bx	lr
    119a:	bf00      	nop
    119c:	00013504 	.word	0x00013504

000011a0 <print_thread_id>:
print_thread_id():
/home/qemu-sgx/devel/optee/optee_os/lib/libutils/ext/trace.c:59
    11a0:	e96d 7e02 	strd	r7, lr, [sp, #-8]!
    11a4:	b086      	sub	sp, #24
    11a6:	af02      	add	r7, sp, #8
    11a8:	6078      	str	r0, [r7, #4]
    11aa:	6039      	str	r1, [r7, #0]
/home/qemu-sgx/devel/optee/optee_os/lib/libutils/ext/trace.c:63
    11ac:	f04f 0301 	mov.w	r3, #1
    11b0:	60fb      	str	r3, [r7, #12]
/home/qemu-sgx/devel/optee/optee_os/lib/libutils/ext/trace.c:65
    11b2:	f001 fad3 	bl	275c <trace_ext_get_thread_id>
    11b6:	60b8      	str	r0, [r7, #8]
/home/qemu-sgx/devel/optee/optee_os/lib/libutils/ext/trace.c:67
    11b8:	68bb      	ldr	r3, [r7, #8]
    11ba:	2b00      	cmp	r3, #0
    11bc:	db0a      	blt.n	11d4 <print_thread_id+0x34>
/home/qemu-sgx/devel/optee/optee_os/lib/libutils/ext/trace.c:68
    11be:	68bb      	ldr	r3, [r7, #8]
    11c0:	9300      	str	r3, [sp, #0]
    11c2:	68fb      	ldr	r3, [r7, #12]
    11c4:	4a0b      	ldr	r2, [pc, #44]	; (11f4 <print_thread_id+0x54>)
    11c6:	447a      	add	r2, pc
    11c8:	6839      	ldr	r1, [r7, #0]
    11ca:	6878      	ldr	r0, [r7, #4]
    11cc:	f000 f9d8 	bl	1580 <snprintk>
    11d0:	4603      	mov	r3, r0
    11d2:	e00a      	b.n	11ea <print_thread_id+0x4a>
/home/qemu-sgx/devel/optee/optee_os/lib/libutils/ext/trace.c:70
    11d4:	4b08      	ldr	r3, [pc, #32]	; (11f8 <print_thread_id+0x58>)
    11d6:	447b      	add	r3, pc
    11d8:	9300      	str	r3, [sp, #0]
    11da:	68fb      	ldr	r3, [r7, #12]
    11dc:	4a07      	ldr	r2, [pc, #28]	; (11fc <print_thread_id+0x5c>)
    11de:	447a      	add	r2, pc
    11e0:	6839      	ldr	r1, [r7, #0]
    11e2:	6878      	ldr	r0, [r7, #4]
    11e4:	f000 f9cc 	bl	1580 <snprintk>
    11e8:	4603      	mov	r3, r0
/home/qemu-sgx/devel/optee/optee_os/lib/libutils/ext/trace.c:71
    11ea:	4618      	mov	r0, r3
    11ec:	f107 0710 	add.w	r7, r7, #16
    11f0:	46bd      	mov	sp, r7
    11f2:	bd80      	pop	{r7, pc}
    11f4:	0001349e 	.word	0x0001349e
    11f8:	0001349e 	.word	0x0001349e
    11fc:	0001348e 	.word	0x0001348e

00001200 <print_core_id>:
print_core_id():
/home/qemu-sgx/devel/optee/optee_os/lib/libutils/ext/trace.c:89
    1200:	f84d 7d04 	str.w	r7, [sp, #-4]!
    1204:	b083      	sub	sp, #12
    1206:	af00      	add	r7, sp, #0
    1208:	6078      	str	r0, [r7, #4]
    120a:	6039      	str	r1, [r7, #0]
/home/qemu-sgx/devel/optee/optee_os/lib/libutils/ext/trace.c:90
    120c:	f04f 0300 	mov.w	r3, #0
/home/qemu-sgx/devel/optee/optee_os/lib/libutils/ext/trace.c:91
    1210:	4618      	mov	r0, r3
    1212:	f107 070c 	add.w	r7, r7, #12
    1216:	46bd      	mov	sp, r7
    1218:	f85d 7b04 	ldr.w	r7, [sp], #4
    121c:	4770      	bx	lr

0000121e <trace_printf>:
trace_printf():
/home/qemu-sgx/devel/optee/optee_os/lib/libutils/ext/trace.c:97
    121e:	e96d 7e02 	strd	r7, lr, [sp, #-8]!
    1222:	b088      	sub	sp, #32
    1224:	af02      	add	r7, sp, #8
    1226:	60f8      	str	r0, [r7, #12]
    1228:	60b9      	str	r1, [r7, #8]
    122a:	607a      	str	r2, [r7, #4]
    122c:	70fb      	strb	r3, [r7, #3]
/home/qemu-sgx/devel/optee/optee_os/lib/libutils/ext/trace.c:100
    122e:	f107 0324 	add.w	r3, r7, #36	; 0x24
    1232:	617b      	str	r3, [r7, #20]
/home/qemu-sgx/devel/optee/optee_os/lib/libutils/ext/trace.c:101
    1234:	78fa      	ldrb	r2, [r7, #3]
    1236:	697b      	ldr	r3, [r7, #20]
    1238:	9301      	str	r3, [sp, #4]
    123a:	6a3b      	ldr	r3, [r7, #32]
    123c:	9300      	str	r3, [sp, #0]
    123e:	4613      	mov	r3, r2
    1240:	687a      	ldr	r2, [r7, #4]
    1242:	68b9      	ldr	r1, [r7, #8]
    1244:	68f8      	ldr	r0, [r7, #12]
    1246:	f000 f805 	bl	1254 <trace_vprintf>
/home/qemu-sgx/devel/optee/optee_os/lib/libutils/ext/trace.c:103
    124a:	bf00      	nop
    124c:	f107 0718 	add.w	r7, r7, #24
    1250:	46bd      	mov	sp, r7
    1252:	bd80      	pop	{r7, pc}

00001254 <trace_vprintf>:
trace_vprintf():
/home/qemu-sgx/devel/optee/optee_os/lib/libutils/ext/trace.c:106
    1254:	f84d 4d0c 	str.w	r4, [sp, #-12]!
    1258:	e9cd 7e01 	strd	r7, lr, [sp, #4]
    125c:	b0c9      	sub	sp, #292	; 0x124
    125e:	af02      	add	r7, sp, #8
    1260:	f507 748c 	add.w	r4, r7, #280	; 0x118
    1264:	f5a4 7486 	sub.w	r4, r4, #268	; 0x10c
    1268:	6020      	str	r0, [r4, #0]
    126a:	f507 708c 	add.w	r0, r7, #280	; 0x118
    126e:	f5a0 7088 	sub.w	r0, r0, #272	; 0x110
    1272:	6001      	str	r1, [r0, #0]
    1274:	f507 718c 	add.w	r1, r7, #280	; 0x118
    1278:	f5a1 718a 	sub.w	r1, r1, #276	; 0x114
    127c:	600a      	str	r2, [r1, #0]
    127e:	461a      	mov	r2, r3
    1280:	f507 738c 	add.w	r3, r7, #280	; 0x118
    1284:	f2a3 1315 	subw	r3, r3, #277	; 0x115
    1288:	701a      	strb	r2, [r3, #0]
    128a:	4caf      	ldr	r4, [pc, #700]	; (1548 <trace_vprintf+0x2f4>)
    128c:	447c      	add	r4, pc
/home/qemu-sgx/devel/optee/optee_os/lib/libutils/ext/trace.c:108
    128e:	f04f 0300 	mov.w	r3, #0
    1292:	f8c7 3114 	str.w	r3, [r7, #276]	; 0x114
/home/qemu-sgx/devel/optee/optee_os/lib/libutils/ext/trace.c:111
    1296:	f507 738c 	add.w	r3, r7, #280	; 0x118
    129a:	f2a3 1315 	subw	r3, r3, #277	; 0x115
    129e:	781b      	ldrb	r3, [r3, #0]
    12a0:	2b00      	cmp	r3, #0
    12a2:	d00a      	beq.n	12ba <trace_vprintf+0x66>
/home/qemu-sgx/devel/optee/optee_os/lib/libutils/ext/trace.c:111 (discriminator 1)
    12a4:	4ba9      	ldr	r3, [pc, #676]	; (154c <trace_vprintf+0x2f8>)
    12a6:	58e3      	ldr	r3, [r4, r3]
    12a8:	681b      	ldr	r3, [r3, #0]
    12aa:	f507 728c 	add.w	r2, r7, #280	; 0x118
    12ae:	f5a2 728a 	sub.w	r2, r2, #276	; 0x114
    12b2:	6812      	ldr	r2, [r2, #0]
    12b4:	429a      	cmp	r2, r3
    12b6:	f300 8131 	bgt.w	151c <trace_vprintf+0x2c8>
/home/qemu-sgx/devel/optee/optee_os/lib/libutils/ext/trace.c:116
    12ba:	f507 738c 	add.w	r3, r7, #280	; 0x118
    12be:	f2a3 1315 	subw	r3, r3, #277	; 0x115
    12c2:	781a      	ldrb	r2, [r3, #0]
    12c4:	f507 738c 	add.w	r3, r7, #280	; 0x118
    12c8:	f5a3 738a 	sub.w	r3, r3, #276	; 0x114
    12cc:	4611      	mov	r1, r2
    12ce:	6818      	ldr	r0, [r3, #0]
    12d0:	f7ff ff3c 	bl	114c <trace_level_to_string>
    12d4:	4603      	mov	r3, r0
/home/qemu-sgx/devel/optee/optee_os/lib/libutils/ext/trace.c:115
    12d6:	f107 0010 	add.w	r0, r7, #16
    12da:	4a9d      	ldr	r2, [pc, #628]	; (1550 <trace_vprintf+0x2fc>)
    12dc:	447a      	add	r2, pc
    12de:	f44f 7180 	mov.w	r1, #256	; 0x100
    12e2:	f000 f94d 	bl	1580 <snprintk>
    12e6:	f8c7 0110 	str.w	r0, [r7, #272]	; 0x110
/home/qemu-sgx/devel/optee/optee_os/lib/libutils/ext/trace.c:117
    12ea:	f8d7 3110 	ldr.w	r3, [r7, #272]	; 0x110
    12ee:	2b00      	cmp	r3, #0
    12f0:	f2c0 8116 	blt.w	1520 <trace_vprintf+0x2cc>
/home/qemu-sgx/devel/optee/optee_os/lib/libutils/ext/trace.c:119
    12f4:	f8d7 3110 	ldr.w	r3, [r7, #272]	; 0x110
    12f8:	f8d7 2114 	ldr.w	r2, [r7, #276]	; 0x114
    12fc:	4413      	add	r3, r2
    12fe:	f8c7 3114 	str.w	r3, [r7, #276]	; 0x114
/home/qemu-sgx/devel/optee/optee_os/lib/libutils/ext/trace.c:122
    1302:	f107 0210 	add.w	r2, r7, #16
    1306:	f8d7 3114 	ldr.w	r3, [r7, #276]	; 0x114
    130a:	eb02 0003 	add.w	r0, r2, r3
    130e:	f8d7 3114 	ldr.w	r3, [r7, #276]	; 0x114
    1312:	f5c3 7180 	rsb	r1, r3, #256	; 0x100
    1316:	4b8f      	ldr	r3, [pc, #572]	; (1554 <trace_vprintf+0x300>)
    1318:	58e3      	ldr	r3, [r4, r3]
    131a:	4a8f      	ldr	r2, [pc, #572]	; (1558 <trace_vprintf+0x304>)
    131c:	447a      	add	r2, pc
    131e:	f000 f92f 	bl	1580 <snprintk>
    1322:	f8c7 0110 	str.w	r0, [r7, #272]	; 0x110
/home/qemu-sgx/devel/optee/optee_os/lib/libutils/ext/trace.c:124
    1326:	f8d7 3110 	ldr.w	r3, [r7, #272]	; 0x110
    132a:	2b00      	cmp	r3, #0
    132c:	f2c0 80fa 	blt.w	1524 <trace_vprintf+0x2d0>
/home/qemu-sgx/devel/optee/optee_os/lib/libutils/ext/trace.c:126
    1330:	f8d7 3110 	ldr.w	r3, [r7, #272]	; 0x110
    1334:	f8d7 2114 	ldr.w	r2, [r7, #276]	; 0x114
    1338:	4413      	add	r3, r2
    133a:	f8c7 3114 	str.w	r3, [r7, #276]	; 0x114
/home/qemu-sgx/devel/optee/optee_os/lib/libutils/ext/trace.c:128
    133e:	f507 738c 	add.w	r3, r7, #280	; 0x118
    1342:	f2a3 1315 	subw	r3, r3, #277	; 0x115
    1346:	781b      	ldrb	r3, [r3, #0]
    1348:	2b00      	cmp	r3, #0
    134a:	d071      	beq.n	1430 <trace_vprintf+0x1dc>
/home/qemu-sgx/devel/optee/optee_os/lib/libutils/ext/trace.c:128 (discriminator 1)
    134c:	f507 738c 	add.w	r3, r7, #280	; 0x118
    1350:	f5a3 738a 	sub.w	r3, r3, #276	; 0x114
    1354:	f04f 021a 	mov.w	r2, #26
    1358:	681b      	ldr	r3, [r3, #0]
    135a:	fa22 f303 	lsr.w	r3, r2, r3
    135e:	f003 0301 	and.w	r3, r3, #1
    1362:	2b00      	cmp	r3, #0
    1364:	d064      	beq.n	1430 <trace_vprintf+0x1dc>
/home/qemu-sgx/devel/optee/optee_os/lib/libutils/ext/trace.c:130
    1366:	f107 0210 	add.w	r2, r7, #16
    136a:	f8d7 3114 	ldr.w	r3, [r7, #276]	; 0x114
    136e:	441a      	add	r2, r3
    1370:	f8d7 3114 	ldr.w	r3, [r7, #276]	; 0x114
    1374:	f5c3 7380 	rsb	r3, r3, #256	; 0x100
    1378:	4619      	mov	r1, r3
    137a:	4610      	mov	r0, r2
    137c:	f7ff ff40 	bl	1200 <print_core_id>
    1380:	f8c7 0110 	str.w	r0, [r7, #272]	; 0x110
/home/qemu-sgx/devel/optee/optee_os/lib/libutils/ext/trace.c:131
    1384:	f8d7 3110 	ldr.w	r3, [r7, #272]	; 0x110
    1388:	2b00      	cmp	r3, #0
    138a:	f2c0 80cd 	blt.w	1528 <trace_vprintf+0x2d4>
/home/qemu-sgx/devel/optee/optee_os/lib/libutils/ext/trace.c:133
    138e:	f8d7 3110 	ldr.w	r3, [r7, #272]	; 0x110
    1392:	f8d7 2114 	ldr.w	r2, [r7, #276]	; 0x114
    1396:	4413      	add	r3, r2
    1398:	f8c7 3114 	str.w	r3, [r7, #276]	; 0x114
/home/qemu-sgx/devel/optee/optee_os/lib/libutils/ext/trace.c:136
    139c:	f107 0210 	add.w	r2, r7, #16
    13a0:	f8d7 3114 	ldr.w	r3, [r7, #276]	; 0x114
    13a4:	441a      	add	r2, r3
    13a6:	f8d7 3114 	ldr.w	r3, [r7, #276]	; 0x114
    13aa:	f5c3 7380 	rsb	r3, r3, #256	; 0x100
    13ae:	4619      	mov	r1, r3
    13b0:	4610      	mov	r0, r2
    13b2:	f7ff fef5 	bl	11a0 <print_thread_id>
    13b6:	f8c7 0110 	str.w	r0, [r7, #272]	; 0x110
/home/qemu-sgx/devel/optee/optee_os/lib/libutils/ext/trace.c:137
    13ba:	f8d7 3110 	ldr.w	r3, [r7, #272]	; 0x110
    13be:	2b00      	cmp	r3, #0
    13c0:	f2c0 80b4 	blt.w	152c <trace_vprintf+0x2d8>
/home/qemu-sgx/devel/optee/optee_os/lib/libutils/ext/trace.c:139
    13c4:	f8d7 3110 	ldr.w	r3, [r7, #272]	; 0x110
    13c8:	f8d7 2114 	ldr.w	r2, [r7, #276]	; 0x114
    13cc:	4413      	add	r3, r2
    13ce:	f8c7 3114 	str.w	r3, [r7, #276]	; 0x114
/home/qemu-sgx/devel/optee/optee_os/lib/libutils/ext/trace.c:141
    13d2:	f507 738c 	add.w	r3, r7, #280	; 0x118
    13d6:	f5a3 7386 	sub.w	r3, r3, #268	; 0x10c
    13da:	681b      	ldr	r3, [r3, #0]
    13dc:	2b00      	cmp	r3, #0
    13de:	d042      	beq.n	1466 <trace_vprintf+0x212>
/home/qemu-sgx/devel/optee/optee_os/lib/libutils/ext/trace.c:142
    13e0:	f107 0210 	add.w	r2, r7, #16
    13e4:	f8d7 3114 	ldr.w	r3, [r7, #276]	; 0x114
    13e8:	eb02 0003 	add.w	r0, r2, r3
    13ec:	f8d7 3114 	ldr.w	r3, [r7, #276]	; 0x114
    13f0:	f5c3 7180 	rsb	r1, r3, #256	; 0x100
    13f4:	f507 738c 	add.w	r3, r7, #280	; 0x118
    13f8:	f5a3 7386 	sub.w	r3, r3, #268	; 0x10c
    13fc:	f507 728c 	add.w	r2, r7, #280	; 0x118
    1400:	f5a2 7288 	sub.w	r2, r2, #272	; 0x110
    1404:	6812      	ldr	r2, [r2, #0]
    1406:	9200      	str	r2, [sp, #0]
    1408:	681b      	ldr	r3, [r3, #0]
    140a:	4a54      	ldr	r2, [pc, #336]	; (155c <trace_vprintf+0x308>)
    140c:	447a      	add	r2, pc
    140e:	f000 f8b7 	bl	1580 <snprintk>
    1412:	f8c7 0110 	str.w	r0, [r7, #272]	; 0x110
/home/qemu-sgx/devel/optee/optee_os/lib/libutils/ext/trace.c:144
    1416:	f8d7 3110 	ldr.w	r3, [r7, #272]	; 0x110
    141a:	2b00      	cmp	r3, #0
    141c:	f2c0 8088 	blt.w	1530 <trace_vprintf+0x2dc>
/home/qemu-sgx/devel/optee/optee_os/lib/libutils/ext/trace.c:146
    1420:	f8d7 3110 	ldr.w	r3, [r7, #272]	; 0x110
    1424:	f8d7 2114 	ldr.w	r2, [r7, #276]	; 0x114
    1428:	4413      	add	r3, r2
    142a:	f8c7 3114 	str.w	r3, [r7, #276]	; 0x114
/home/qemu-sgx/devel/optee/optee_os/lib/libutils/ext/trace.c:141
    142e:	e01a      	b.n	1466 <trace_vprintf+0x212>
/home/qemu-sgx/devel/optee/optee_os/lib/libutils/ext/trace.c:150
    1430:	f8d7 3114 	ldr.w	r3, [r7, #276]	; 0x114
    1434:	2bfe      	cmp	r3, #254	; 0xfe
    1436:	d87d      	bhi.n	1534 <trace_vprintf+0x2e0>
/home/qemu-sgx/devel/optee/optee_os/lib/libutils/ext/trace.c:152
    1438:	f8d7 3114 	ldr.w	r3, [r7, #276]	; 0x114
    143c:	f103 0201 	add.w	r2, r3, #1
    1440:	f8c7 2114 	str.w	r2, [r7, #276]	; 0x114
    1444:	f507 728c 	add.w	r2, r7, #280	; 0x118
    1448:	f5a2 7284 	sub.w	r2, r2, #264	; 0x108
    144c:	f04f 0120 	mov.w	r1, #32
    1450:	54d1      	strb	r1, [r2, r3]
/home/qemu-sgx/devel/optee/optee_os/lib/libutils/ext/trace.c:153
    1452:	f507 738c 	add.w	r3, r7, #280	; 0x118
    1456:	f5a3 7284 	sub.w	r2, r3, #264	; 0x108
    145a:	f8d7 3114 	ldr.w	r3, [r7, #276]	; 0x114
    145e:	4413      	add	r3, r2
    1460:	f04f 0200 	mov.w	r2, #0
    1464:	701a      	strb	r2, [r3, #0]
/home/qemu-sgx/devel/optee/optee_os/lib/libutils/ext/trace.c:156
    1466:	f107 0210 	add.w	r2, r7, #16
    146a:	f8d7 3114 	ldr.w	r3, [r7, #276]	; 0x114
    146e:	eb02 0003 	add.w	r0, r2, r3
    1472:	f8d7 3114 	ldr.w	r3, [r7, #276]	; 0x114
    1476:	f5c3 7180 	rsb	r1, r3, #256	; 0x100
    147a:	f8d7 312c 	ldr.w	r3, [r7, #300]	; 0x12c
    147e:	f8d7 2128 	ldr.w	r2, [r7, #296]	; 0x128
    1482:	f000 f898 	bl	15b6 <vsnprintk>
    1486:	f8c7 0110 	str.w	r0, [r7, #272]	; 0x110
/home/qemu-sgx/devel/optee/optee_os/lib/libutils/ext/trace.c:157
    148a:	f8d7 3110 	ldr.w	r3, [r7, #272]	; 0x110
    148e:	2b00      	cmp	r3, #0
    1490:	dd06      	ble.n	14a0 <trace_vprintf+0x24c>
/home/qemu-sgx/devel/optee/optee_os/lib/libutils/ext/trace.c:158
    1492:	f8d7 3110 	ldr.w	r3, [r7, #272]	; 0x110
    1496:	f8d7 2114 	ldr.w	r2, [r7, #276]	; 0x114
    149a:	4413      	add	r3, r2
    149c:	f8c7 3114 	str.w	r3, [r7, #276]	; 0x114
/home/qemu-sgx/devel/optee/optee_os/lib/libutils/ext/trace.c:160
    14a0:	f8d7 3114 	ldr.w	r3, [r7, #276]	; 0x114
    14a4:	2bfe      	cmp	r3, #254	; 0xfe
    14a6:	d903      	bls.n	14b0 <trace_vprintf+0x25c>
/home/qemu-sgx/devel/optee/optee_os/lib/libutils/ext/trace.c:161
    14a8:	f04f 03fe 	mov.w	r3, #254	; 0xfe
    14ac:	f8c7 3114 	str.w	r3, [r7, #276]	; 0x114
/home/qemu-sgx/devel/optee/optee_os/lib/libutils/ext/trace.c:163
    14b0:	f507 738c 	add.w	r3, r7, #280	; 0x118
    14b4:	f5a3 7284 	sub.w	r2, r3, #264	; 0x108
    14b8:	f8d7 3114 	ldr.w	r3, [r7, #276]	; 0x114
    14bc:	4413      	add	r3, r2
    14be:	f04f 020a 	mov.w	r2, #10
    14c2:	701a      	strb	r2, [r3, #0]
/home/qemu-sgx/devel/optee/optee_os/lib/libutils/ext/trace.c:164
    14c4:	e005      	b.n	14d2 <trace_vprintf+0x27e>
/home/qemu-sgx/devel/optee/optee_os/lib/libutils/ext/trace.c:165
    14c6:	f8d7 3114 	ldr.w	r3, [r7, #276]	; 0x114
    14ca:	f103 33ff 	add.w	r3, r3, #4294967295	; 0xffffffff
    14ce:	f8c7 3114 	str.w	r3, [r7, #276]	; 0x114
/home/qemu-sgx/devel/optee/optee_os/lib/libutils/ext/trace.c:164
    14d2:	f8d7 3114 	ldr.w	r3, [r7, #276]	; 0x114
    14d6:	2b00      	cmp	r3, #0
    14d8:	d009      	beq.n	14ee <trace_vprintf+0x29a>
/home/qemu-sgx/devel/optee/optee_os/lib/libutils/ext/trace.c:164 (discriminator 1)
    14da:	f507 738c 	add.w	r3, r7, #280	; 0x118
    14de:	f5a3 7284 	sub.w	r2, r3, #264	; 0x108
    14e2:	f8d7 3114 	ldr.w	r3, [r7, #276]	; 0x114
    14e6:	4413      	add	r3, r2
    14e8:	781b      	ldrb	r3, [r3, #0]
    14ea:	2b0a      	cmp	r3, #10
    14ec:	d0eb      	beq.n	14c6 <trace_vprintf+0x272>
/home/qemu-sgx/devel/optee/optee_os/lib/libutils/ext/trace.c:166
    14ee:	f8d7 3114 	ldr.w	r3, [r7, #276]	; 0x114
    14f2:	f103 0301 	add.w	r3, r3, #1
    14f6:	f8c7 3114 	str.w	r3, [r7, #276]	; 0x114
/home/qemu-sgx/devel/optee/optee_os/lib/libutils/ext/trace.c:167
    14fa:	f8d7 3114 	ldr.w	r3, [r7, #276]	; 0x114
    14fe:	f103 0301 	add.w	r3, r3, #1
    1502:	f507 728c 	add.w	r2, r7, #280	; 0x118
    1506:	f5a2 7284 	sub.w	r2, r2, #264	; 0x108
    150a:	f04f 0100 	mov.w	r1, #0
    150e:	54d1      	strb	r1, [r2, r3]
/home/qemu-sgx/devel/optee/optee_os/lib/libutils/ext/trace.c:169
    1510:	f107 0310 	add.w	r3, r7, #16
    1514:	4618      	mov	r0, r3
    1516:	f001 f90f 	bl	2738 <trace_ext_puts>
    151a:	e00c      	b.n	1536 <trace_vprintf+0x2e2>
/home/qemu-sgx/devel/optee/optee_os/lib/libutils/ext/trace.c:112
    151c:	bf00      	nop
    151e:	e00a      	b.n	1536 <trace_vprintf+0x2e2>
/home/qemu-sgx/devel/optee/optee_os/lib/libutils/ext/trace.c:118
    1520:	bf00      	nop
    1522:	e008      	b.n	1536 <trace_vprintf+0x2e2>
/home/qemu-sgx/devel/optee/optee_os/lib/libutils/ext/trace.c:125
    1524:	bf00      	nop
    1526:	e006      	b.n	1536 <trace_vprintf+0x2e2>
/home/qemu-sgx/devel/optee/optee_os/lib/libutils/ext/trace.c:132
    1528:	bf00      	nop
    152a:	e004      	b.n	1536 <trace_vprintf+0x2e2>
/home/qemu-sgx/devel/optee/optee_os/lib/libutils/ext/trace.c:138
    152c:	bf00      	nop
    152e:	e002      	b.n	1536 <trace_vprintf+0x2e2>
/home/qemu-sgx/devel/optee/optee_os/lib/libutils/ext/trace.c:145
    1530:	bf00      	nop
    1532:	e000      	b.n	1536 <trace_vprintf+0x2e2>
/home/qemu-sgx/devel/optee/optee_os/lib/libutils/ext/trace.c:151
    1534:	bf00      	nop
/home/qemu-sgx/devel/optee/optee_os/lib/libutils/ext/trace.c:170
    1536:	f507 778e 	add.w	r7, r7, #284	; 0x11c
    153a:	46bd      	mov	sp, r7
    153c:	e9dd 4700 	ldrd	r4, r7, [sp]
    1540:	b002      	add	sp, #8
    1542:	f85d fb04 	ldr.w	pc, [sp], #4
    1546:	bf00      	nop
    1548:	00016df8 	.word	0x00016df8
    154c:	00000010 	.word	0x00000010
    1550:	0001339c 	.word	0x0001339c
    1554:	00000014 	.word	0x00000014
    1558:	00013360 	.word	0x00013360
    155c:	00013274 	.word	0x00013274

00001560 <dhex_dump>:
dhex_dump():
/home/qemu-sgx/devel/optee/optee_os/lib/libutils/ext/trace.c:279
    1560:	f84d 7d04 	str.w	r7, [sp, #-4]!
    1564:	b085      	sub	sp, #20
    1566:	af00      	add	r7, sp, #0
    1568:	60f8      	str	r0, [r7, #12]
    156a:	60b9      	str	r1, [r7, #8]
    156c:	607a      	str	r2, [r7, #4]
    156e:	603b      	str	r3, [r7, #0]
/home/qemu-sgx/devel/optee/optee_os/lib/libutils/ext/trace.c:280
    1570:	bf00      	nop
    1572:	f107 0714 	add.w	r7, r7, #20
    1576:	46bd      	mov	sp, r7
    1578:	f85d 7b04 	ldr.w	r7, [sp], #4
    157c:	4770      	bx	lr
    157e:	bf00      	nop

00001580 <snprintk>:
snprintk():
/home/qemu-sgx/devel/optee/optee_os/lib/libutils/ext/snprintk.c:113
    1580:	b40c      	push	{r2, r3}
    1582:	e96d 7e02 	strd	r7, lr, [sp, #-8]!
    1586:	b084      	sub	sp, #16
    1588:	af00      	add	r7, sp, #0
    158a:	6078      	str	r0, [r7, #4]
    158c:	6039      	str	r1, [r7, #0]
/home/qemu-sgx/devel/optee/optee_os/lib/libutils/ext/snprintk.c:117
    158e:	f107 031c 	add.w	r3, r7, #28
    1592:	60bb      	str	r3, [r7, #8]
/home/qemu-sgx/devel/optee/optee_os/lib/libutils/ext/snprintk.c:118
    1594:	68bb      	ldr	r3, [r7, #8]
    1596:	69ba      	ldr	r2, [r7, #24]
    1598:	6839      	ldr	r1, [r7, #0]
    159a:	6878      	ldr	r0, [r7, #4]
    159c:	f000 f80b 	bl	15b6 <vsnprintk>
    15a0:	60f8      	str	r0, [r7, #12]
/home/qemu-sgx/devel/optee/optee_os/lib/libutils/ext/snprintk.c:121
    15a2:	68fb      	ldr	r3, [r7, #12]
/home/qemu-sgx/devel/optee/optee_os/lib/libutils/ext/snprintk.c:122
    15a4:	4618      	mov	r0, r3
    15a6:	f107 0710 	add.w	r7, r7, #16
    15aa:	46bd      	mov	sp, r7
    15ac:	e9dd 7e00 	ldrd	r7, lr, [sp]
    15b0:	b002      	add	sp, #8
    15b2:	b002      	add	sp, #8
    15b4:	4770      	bx	lr

000015b6 <vsnprintk>:
vsnprintk():
/home/qemu-sgx/devel/optee/optee_os/lib/libutils/ext/snprintk.c:130
    15b6:	e96d 7e02 	strd	r7, lr, [sp, #-8]!
    15ba:	b086      	sub	sp, #24
    15bc:	af02      	add	r7, sp, #8
    15be:	60f8      	str	r0, [r7, #12]
    15c0:	60b9      	str	r1, [r7, #8]
    15c2:	607a      	str	r2, [r7, #4]
    15c4:	603b      	str	r3, [r7, #0]
/home/qemu-sgx/devel/optee/optee_os/lib/libutils/ext/snprintk.c:131
    15c6:	f04f 0301 	mov.w	r3, #1
    15ca:	9300      	str	r3, [sp, #0]
    15cc:	683b      	ldr	r3, [r7, #0]
    15ce:	687a      	ldr	r2, [r7, #4]
    15d0:	68b9      	ldr	r1, [r7, #8]
    15d2:	68f8      	ldr	r0, [r7, #12]
    15d4:	f000 f806 	bl	15e4 <__vsnprintf>
    15d8:	4603      	mov	r3, r0
/home/qemu-sgx/devel/optee/optee_os/lib/libutils/ext/snprintk.c:132
    15da:	4618      	mov	r0, r3
    15dc:	f107 0710 	add.w	r7, r7, #16
    15e0:	46bd      	mov	sp, r7
    15e2:	bd80      	pop	{r7, pc}

000015e4 <__vsnprintf>:
__vsnprintf():
/home/qemu-sgx/devel/optee/optee_os/lib/libutils/ext/snprintk.c:138
    15e4:	e96d 7e02 	strd	r7, lr, [sp, #-8]!
    15e8:	b088      	sub	sp, #32
    15ea:	af02      	add	r7, sp, #8
    15ec:	60f8      	str	r0, [r7, #12]
    15ee:	60b9      	str	r1, [r7, #8]
    15f0:	607a      	str	r2, [r7, #4]
    15f2:	603b      	str	r3, [r7, #0]
/home/qemu-sgx/devel/optee/optee_os/lib/libutils/ext/snprintk.c:142
    15f4:	68fa      	ldr	r2, [r7, #12]
    15f6:	68bb      	ldr	r3, [r7, #8]
    15f8:	4413      	add	r3, r2
    15fa:	613b      	str	r3, [r7, #16]
/home/qemu-sgx/devel/optee/optee_os/lib/libutils/ext/snprintk.c:143
    15fc:	f107 0210 	add.w	r2, r7, #16
    1600:	f897 3020 	ldrb.w	r3, [r7, #32]
    1604:	9301      	str	r3, [sp, #4]
    1606:	683b      	ldr	r3, [r7, #0]
    1608:	9300      	str	r3, [sp, #0]
    160a:	68fb      	ldr	r3, [r7, #12]
    160c:	f04f 0108 	mov.w	r1, #8
    1610:	6878      	ldr	r0, [r7, #4]
    1612:	f000 f889 	bl	1728 <kprintf>
    1616:	6178      	str	r0, [r7, #20]
/home/qemu-sgx/devel/optee/optee_os/lib/libutils/ext/snprintk.c:144
    1618:	68fb      	ldr	r3, [r7, #12]
    161a:	2b00      	cmp	r3, #0
    161c:	d015      	beq.n	164a <__vsnprintf+0x66>
/home/qemu-sgx/devel/optee/optee_os/lib/libutils/ext/snprintk.c:144 (discriminator 1)
    161e:	68bb      	ldr	r3, [r7, #8]
    1620:	2b00      	cmp	r3, #0
    1622:	d012      	beq.n	164a <__vsnprintf+0x66>
/home/qemu-sgx/devel/optee/optee_os/lib/libutils/ext/snprintk.c:146
    1624:	697b      	ldr	r3, [r7, #20]
    1626:	68ba      	ldr	r2, [r7, #8]
    1628:	429a      	cmp	r2, r3
    162a:	d808      	bhi.n	163e <__vsnprintf+0x5a>
/home/qemu-sgx/devel/optee/optee_os/lib/libutils/ext/snprintk.c:147
    162c:	68bb      	ldr	r3, [r7, #8]
    162e:	f103 33ff 	add.w	r3, r3, #4294967295	; 0xffffffff
    1632:	68fa      	ldr	r2, [r7, #12]
    1634:	4413      	add	r3, r2
    1636:	f04f 0200 	mov.w	r2, #0
    163a:	701a      	strb	r2, [r3, #0]
    163c:	e005      	b.n	164a <__vsnprintf+0x66>
/home/qemu-sgx/devel/optee/optee_os/lib/libutils/ext/snprintk.c:149
    163e:	697b      	ldr	r3, [r7, #20]
    1640:	68fa      	ldr	r2, [r7, #12]
    1642:	4413      	add	r3, r2
    1644:	f04f 0200 	mov.w	r2, #0
    1648:	701a      	strb	r2, [r3, #0]
/home/qemu-sgx/devel/optee/optee_os/lib/libutils/ext/snprintk.c:151
    164a:	697b      	ldr	r3, [r7, #20]
/home/qemu-sgx/devel/optee/optee_os/lib/libutils/ext/snprintk.c:152
    164c:	4618      	mov	r0, r3
    164e:	f107 0718 	add.w	r7, r7, #24
    1652:	46bd      	mov	sp, r7
    1654:	bd80      	pop	{r7, pc}

00001656 <__vsprintf>:
__vsprintf():
/home/qemu-sgx/devel/optee/optee_os/lib/libutils/ext/snprintk.c:155
    1656:	e96d 7e02 	strd	r7, lr, [sp, #-8]!
    165a:	b086      	sub	sp, #24
    165c:	af02      	add	r7, sp, #8
    165e:	60f8      	str	r0, [r7, #12]
    1660:	60b9      	str	r1, [r7, #8]
    1662:	607a      	str	r2, [r7, #4]
/home/qemu-sgx/devel/optee/optee_os/lib/libutils/ext/snprintk.c:156
    1664:	f04f 0300 	mov.w	r3, #0
    1668:	9301      	str	r3, [sp, #4]
    166a:	687b      	ldr	r3, [r7, #4]
    166c:	9300      	str	r3, [sp, #0]
    166e:	68fb      	ldr	r3, [r7, #12]
    1670:	f04f 0200 	mov.w	r2, #0
    1674:	f04f 0108 	mov.w	r1, #8
    1678:	68b8      	ldr	r0, [r7, #8]
    167a:	f000 f855 	bl	1728 <kprintf>
    167e:	4603      	mov	r3, r0
/home/qemu-sgx/devel/optee/optee_os/lib/libutils/ext/snprintk.c:157
    1680:	4618      	mov	r0, r3
    1682:	f107 0710 	add.w	r7, r7, #16
    1686:	46bd      	mov	sp, r7
    1688:	bd80      	pop	{r7, pc}

0000168a <uuid2str>:
uuid2str():
/home/qemu-sgx/devel/optee/optee_os/lib/libutils/ext/snprintk.c:221
    168a:	f84d 4d14 	str.w	r4, [sp, #-20]!
    168e:	e9cd 5601 	strd	r5, r6, [sp, #4]
    1692:	e9cd 7e03 	strd	r7, lr, [sp, #12]
    1696:	b095      	sub	sp, #84	; 0x54
    1698:	af0a      	add	r7, sp, #40	; 0x28
    169a:	61f8      	str	r0, [r7, #28]
    169c:	61b9      	str	r1, [r7, #24]
    169e:	617a      	str	r2, [r7, #20]
/home/qemu-sgx/devel/optee/optee_os/lib/libutils/ext/snprintk.c:227
    16a0:	697b      	ldr	r3, [r7, #20]
    16a2:	627b      	str	r3, [r7, #36]	; 0x24
/home/qemu-sgx/devel/optee/optee_os/lib/libutils/ext/snprintk.c:229
    16a4:	6a7b      	ldr	r3, [r7, #36]	; 0x24
    16a6:	681a      	ldr	r2, [r3, #0]
/home/qemu-sgx/devel/optee/optee_os/lib/libutils/ext/snprintk.c:231
    16a8:	6a7b      	ldr	r3, [r7, #36]	; 0x24
    16aa:	889b      	ldrh	r3, [r3, #4]
/home/qemu-sgx/devel/optee/optee_os/lib/libutils/ext/snprintk.c:229
    16ac:	4619      	mov	r1, r3
/home/qemu-sgx/devel/optee/optee_os/lib/libutils/ext/snprintk.c:231
    16ae:	6a7b      	ldr	r3, [r7, #36]	; 0x24
    16b0:	88db      	ldrh	r3, [r3, #6]
/home/qemu-sgx/devel/optee/optee_os/lib/libutils/ext/snprintk.c:229
    16b2:	4618      	mov	r0, r3
/home/qemu-sgx/devel/optee/optee_os/lib/libutils/ext/snprintk.c:232
    16b4:	6a7b      	ldr	r3, [r7, #36]	; 0x24
    16b6:	7a1b      	ldrb	r3, [r3, #8]
/home/qemu-sgx/devel/optee/optee_os/lib/libutils/ext/snprintk.c:229
    16b8:	461c      	mov	r4, r3
/home/qemu-sgx/devel/optee/optee_os/lib/libutils/ext/snprintk.c:232
    16ba:	6a7b      	ldr	r3, [r7, #36]	; 0x24
    16bc:	7a5b      	ldrb	r3, [r3, #9]
/home/qemu-sgx/devel/optee/optee_os/lib/libutils/ext/snprintk.c:229
    16be:	461d      	mov	r5, r3
/home/qemu-sgx/devel/optee/optee_os/lib/libutils/ext/snprintk.c:233
    16c0:	6a7b      	ldr	r3, [r7, #36]	; 0x24
    16c2:	7a9b      	ldrb	r3, [r3, #10]
/home/qemu-sgx/devel/optee/optee_os/lib/libutils/ext/snprintk.c:229
    16c4:	461e      	mov	r6, r3
/home/qemu-sgx/devel/optee/optee_os/lib/libutils/ext/snprintk.c:233
    16c6:	6a7b      	ldr	r3, [r7, #36]	; 0x24
    16c8:	7adb      	ldrb	r3, [r3, #11]
/home/qemu-sgx/devel/optee/optee_os/lib/libutils/ext/snprintk.c:229
    16ca:	613b      	str	r3, [r7, #16]
/home/qemu-sgx/devel/optee/optee_os/lib/libutils/ext/snprintk.c:234
    16cc:	6a7b      	ldr	r3, [r7, #36]	; 0x24
    16ce:	7b1b      	ldrb	r3, [r3, #12]
/home/qemu-sgx/devel/optee/optee_os/lib/libutils/ext/snprintk.c:229
    16d0:	60fb      	str	r3, [r7, #12]
/home/qemu-sgx/devel/optee/optee_os/lib/libutils/ext/snprintk.c:234
    16d2:	6a7b      	ldr	r3, [r7, #36]	; 0x24
    16d4:	7b5b      	ldrb	r3, [r3, #13]
/home/qemu-sgx/devel/optee/optee_os/lib/libutils/ext/snprintk.c:229
    16d6:	60bb      	str	r3, [r7, #8]
/home/qemu-sgx/devel/optee/optee_os/lib/libutils/ext/snprintk.c:235
    16d8:	6a7b      	ldr	r3, [r7, #36]	; 0x24
    16da:	7b9b      	ldrb	r3, [r3, #14]
/home/qemu-sgx/devel/optee/optee_os/lib/libutils/ext/snprintk.c:229
    16dc:	607b      	str	r3, [r7, #4]
/home/qemu-sgx/devel/optee/optee_os/lib/libutils/ext/snprintk.c:235
    16de:	6a7b      	ldr	r3, [r7, #36]	; 0x24
    16e0:	7bdb      	ldrb	r3, [r3, #15]
/home/qemu-sgx/devel/optee/optee_os/lib/libutils/ext/snprintk.c:229
    16e2:	9309      	str	r3, [sp, #36]	; 0x24
    16e4:	687b      	ldr	r3, [r7, #4]
    16e6:	9308      	str	r3, [sp, #32]
    16e8:	68bb      	ldr	r3, [r7, #8]
    16ea:	9307      	str	r3, [sp, #28]
    16ec:	68fb      	ldr	r3, [r7, #12]
    16ee:	9306      	str	r3, [sp, #24]
    16f0:	693b      	ldr	r3, [r7, #16]
    16f2:	9305      	str	r3, [sp, #20]
    16f4:	9604      	str	r6, [sp, #16]
    16f6:	9503      	str	r5, [sp, #12]
    16f8:	9402      	str	r4, [sp, #8]
    16fa:	9001      	str	r0, [sp, #4]
    16fc:	9100      	str	r1, [sp, #0]
    16fe:	4613      	mov	r3, r2
    1700:	4a08      	ldr	r2, [pc, #32]	; (1724 <uuid2str+0x9a>)
    1702:	447a      	add	r2, pc
    1704:	69b9      	ldr	r1, [r7, #24]
    1706:	69f8      	ldr	r0, [r7, #28]
    1708:	f7ff ff3a 	bl	1580 <snprintk>
    170c:	4603      	mov	r3, r0
/home/qemu-sgx/devel/optee/optee_os/lib/libutils/ext/snprintk.c:236
    170e:	4618      	mov	r0, r3
    1710:	f107 072c 	add.w	r7, r7, #44	; 0x2c
    1714:	46bd      	mov	sp, r7
    1716:	e9dd 4500 	ldrd	r4, r5, [sp]
    171a:	e9dd 6702 	ldrd	r6, r7, [sp, #8]
    171e:	b004      	add	sp, #16
    1720:	f85d fb04 	ldr.w	pc, [sp], #4
    1724:	00012fb6 	.word	0x00012fb6

00001728 <kprintf>:
kprintf():
/home/qemu-sgx/devel/optee/optee_os/lib/libutils/ext/snprintk.c:244
    1728:	e96d 4508 	strd	r4, r5, [sp, #-32]!
    172c:	e9cd 7802 	strd	r7, r8, [sp, #8]
    1730:	e9cd 9a04 	strd	r9, sl, [sp, #16]
    1734:	e9cd be06 	strd	fp, lr, [sp, #24]
    1738:	b0ac      	sub	sp, #176	; 0xb0
    173a:	af00      	add	r7, sp, #0
    173c:	6378      	str	r0, [r7, #52]	; 0x34
    173e:	6339      	str	r1, [r7, #48]	; 0x30
    1740:	62fa      	str	r2, [r7, #44]	; 0x2c
    1742:	62bb      	str	r3, [r7, #40]	; 0x28
/home/qemu-sgx/devel/optee/optee_os/lib/libutils/ext/snprintk.c:264
    1744:	6b3b      	ldr	r3, [r7, #48]	; 0x30
    1746:	2b08      	cmp	r3, #8
    1748:	d106      	bne.n	1758 <kprintf+0x30>
/home/qemu-sgx/devel/optee/optee_os/lib/libutils/ext/snprintk.c:264 (discriminator 1)
    174a:	6afb      	ldr	r3, [r7, #44]	; 0x2c
    174c:	2b00      	cmp	r3, #0
    174e:	d003      	beq.n	1758 <kprintf+0x30>
/home/qemu-sgx/devel/optee/optee_os/lib/libutils/ext/snprintk.c:265
    1750:	6afb      	ldr	r3, [r7, #44]	; 0x2c
    1752:	681b      	ldr	r3, [r3, #0]
    1754:	66bb      	str	r3, [r7, #104]	; 0x68
    1756:	e002      	b.n	175e <kprintf+0x36>
/home/qemu-sgx/devel/optee/optee_os/lib/libutils/ext/snprintk.c:267
    1758:	f04f 0300 	mov.w	r3, #0
    175c:	66bb      	str	r3, [r7, #104]	; 0x68
/home/qemu-sgx/devel/optee/optee_os/lib/libutils/ext/snprintk.c:269
    175e:	f04f 0300 	mov.w	r3, #0
    1762:	f8c7 30a0 	str.w	r3, [r7, #160]	; 0xa0
/home/qemu-sgx/devel/optee/optee_os/lib/libutils/ext/snprintk.c:270
    1766:	f04f 0300 	mov.w	r3, #0
    176a:	673b      	str	r3, [r7, #112]	; 0x70
/home/qemu-sgx/devel/optee/optee_os/lib/libutils/ext/snprintk.c:272
    176c:	6b7b      	ldr	r3, [r7, #52]	; 0x34
    176e:	f8c7 30ac 	str.w	r3, [r7, #172]	; 0xac
/home/qemu-sgx/devel/optee/optee_os/lib/libutils/ext/snprintk.c:273
    1772:	f04f 0300 	mov.w	r3, #0
    1776:	f8c7 3098 	str.w	r3, [r7, #152]	; 0x98
/home/qemu-sgx/devel/optee/optee_os/lib/libutils/ext/snprintk.c:275
    177a:	f04f 0300 	mov.w	r3, #0
    177e:	66fb      	str	r3, [r7, #108]	; 0x6c
/home/qemu-sgx/devel/optee/optee_os/lib/libutils/ext/snprintk.c:281
    1780:	e020      	b.n	17c4 <kprintf+0x9c>
/home/qemu-sgx/devel/optee/optee_os/lib/libutils/ext/snprintk.c:282
    1782:	f8d7 3098 	ldr.w	r3, [r7, #152]	; 0x98
    1786:	f103 0301 	add.w	r3, r3, #1
    178a:	f8c7 3098 	str.w	r3, [r7, #152]	; 0x98
/home/qemu-sgx/devel/optee/optee_os/lib/libutils/ext/snprintk.c:283
    178e:	6b3b      	ldr	r3, [r7, #48]	; 0x30
    1790:	2b08      	cmp	r3, #8
    1792:	d111      	bne.n	17b8 <kprintf+0x90>
/home/qemu-sgx/devel/optee/optee_os/lib/libutils/ext/snprintk.c:283 (discriminator 1)
    1794:	6abb      	ldr	r3, [r7, #40]	; 0x28
    1796:	2b00      	cmp	r3, #0
    1798:	d00e      	beq.n	17b8 <kprintf+0x90>
/home/qemu-sgx/devel/optee/optee_os/lib/libutils/ext/snprintk.c:283 (discriminator 2)
    179a:	6afb      	ldr	r3, [r7, #44]	; 0x2c
    179c:	2b00      	cmp	r3, #0
    179e:	d003      	beq.n	17a8 <kprintf+0x80>
/home/qemu-sgx/devel/optee/optee_os/lib/libutils/ext/snprintk.c:283 (discriminator 4)
    17a0:	6aba      	ldr	r2, [r7, #40]	; 0x28
    17a2:	6ebb      	ldr	r3, [r7, #104]	; 0x68
    17a4:	429a      	cmp	r2, r3
    17a6:	d207      	bcs.n	17b8 <kprintf+0x90>
/home/qemu-sgx/devel/optee/optee_os/lib/libutils/ext/snprintk.c:283 (discriminator 5)
    17a8:	6aba      	ldr	r2, [r7, #40]	; 0x28
    17aa:	f102 0301 	add.w	r3, r2, #1
    17ae:	62bb      	str	r3, [r7, #40]	; 0x28
    17b0:	f8d7 30ac 	ldr.w	r3, [r7, #172]	; 0xac
    17b4:	781b      	ldrb	r3, [r3, #0]
    17b6:	7013      	strb	r3, [r2, #0]
/home/qemu-sgx/devel/optee/optee_os/lib/libutils/ext/snprintk.c:281
    17b8:	f8d7 30ac 	ldr.w	r3, [r7, #172]	; 0xac
    17bc:	f103 0301 	add.w	r3, r3, #1
    17c0:	f8c7 30ac 	str.w	r3, [r7, #172]	; 0xac
/home/qemu-sgx/devel/optee/optee_os/lib/libutils/ext/snprintk.c:281 (discriminator 1)
    17c4:	f8d7 30ac 	ldr.w	r3, [r7, #172]	; 0xac
    17c8:	781b      	ldrb	r3, [r3, #0]
    17ca:	2b25      	cmp	r3, #37	; 0x25
    17cc:	d004      	beq.n	17d8 <kprintf+0xb0>
/home/qemu-sgx/devel/optee/optee_os/lib/libutils/ext/snprintk.c:281 (discriminator 2)
    17ce:	f8d7 30ac 	ldr.w	r3, [r7, #172]	; 0xac
    17d2:	781b      	ldrb	r3, [r3, #0]
    17d4:	2b00      	cmp	r3, #0
    17d6:	d1d4      	bne.n	1782 <kprintf+0x5a>
/home/qemu-sgx/devel/optee/optee_os/lib/libutils/ext/snprintk.c:285
    17d8:	f8d7 30ac 	ldr.w	r3, [r7, #172]	; 0xac
    17dc:	781b      	ldrb	r3, [r3, #0]
    17de:	2b00      	cmp	r3, #0
    17e0:	f000 876c 	beq.w	26bc <kprintf+0xf94>
/home/qemu-sgx/devel/optee/optee_os/lib/libutils/ext/snprintk.c:288
    17e4:	f8d7 30ac 	ldr.w	r3, [r7, #172]	; 0xac
    17e8:	f103 0301 	add.w	r3, r3, #1
    17ec:	f8c7 30ac 	str.w	r3, [r7, #172]	; 0xac
/home/qemu-sgx/devel/optee/optee_os/lib/libutils/ext/snprintk.c:290
    17f0:	f04f 0300 	mov.w	r3, #0
    17f4:	f8c7 309c 	str.w	r3, [r7, #156]	; 0x9c
/home/qemu-sgx/devel/optee/optee_os/lib/libutils/ext/snprintk.c:291
    17f8:	f04f 0300 	mov.w	r3, #0
    17fc:	67bb      	str	r3, [r7, #120]	; 0x78
/home/qemu-sgx/devel/optee/optee_os/lib/libutils/ext/snprintk.c:292
    17fe:	f04f 0300 	mov.w	r3, #0
    1802:	f8c7 3094 	str.w	r3, [r7, #148]	; 0x94
/home/qemu-sgx/devel/optee/optee_os/lib/libutils/ext/snprintk.c:293
    1806:	f04f 33ff 	mov.w	r3, #4294967295	; 0xffffffff
    180a:	f8c7 3090 	str.w	r3, [r7, #144]	; 0x90
/home/qemu-sgx/devel/optee/optee_os/lib/libutils/ext/snprintk.c:294
    180e:	f04f 0300 	mov.w	r3, #0
    1812:	f887 308f 	strb.w	r3, [r7, #143]	; 0x8f
/home/qemu-sgx/devel/optee/optee_os/lib/libutils/ext/snprintk.c:296
    1816:	f8d7 20ac 	ldr.w	r2, [r7, #172]	; 0xac
    181a:	f102 0301 	add.w	r3, r2, #1
    181e:	f8c7 30ac 	str.w	r3, [r7, #172]	; 0xac
    1822:	7813      	ldrb	r3, [r2, #0]
    1824:	f8c7 30a8 	str.w	r3, [r7, #168]	; 0xa8
    1828:	f8d7 30a8 	ldr.w	r3, [r7, #168]	; 0xa8
    182c:	f1a3 0320 	sub.w	r3, r3, #32
    1830:	2b5a      	cmp	r3, #90	; 0x5a
    1832:	f200 85f5 	bhi.w	2420 <kprintf+0xcf8>
    1836:	a202      	add	r2, pc, #8	; (adr r2, 1840 <kprintf+0x118>)
    1838:	f852 3023 	ldr.w	r3, [r2, r3, lsl #2]
    183c:	441a      	add	r2, r3
    183e:	4710      	bx	r2
    1840:	0000016d 	.word	0x0000016d
    1844:	00000be1 	.word	0x00000be1
    1848:	00000be1 	.word	0x00000be1
    184c:	00000181 	.word	0x00000181
    1850:	00000be1 	.word	0x00000be1
    1854:	00000be1 	.word	0x00000be1
    1858:	00000be1 	.word	0x00000be1
    185c:	00000be1 	.word	0x00000be1
    1860:	00000be1 	.word	0x00000be1
    1864:	00000be1 	.word	0x00000be1
    1868:	0000018f 	.word	0x0000018f
    186c:	000001c5 	.word	0x000001c5
    1870:	00000be1 	.word	0x00000be1
    1874:	000001b7 	.word	0x000001b7
    1878:	000001cf 	.word	0x000001cf
    187c:	00000be1 	.word	0x00000be1
    1880:	0000025f 	.word	0x0000025f
    1884:	0000026d 	.word	0x0000026d
    1888:	0000026d 	.word	0x0000026d
    188c:	0000026d 	.word	0x0000026d
    1890:	0000026d 	.word	0x0000026d
    1894:	0000026d 	.word	0x0000026d
    1898:	0000026d 	.word	0x0000026d
    189c:	0000026d 	.word	0x0000026d
    18a0:	0000026d 	.word	0x0000026d
    18a4:	0000026d 	.word	0x0000026d
    18a8:	00000be1 	.word	0x00000be1
    18ac:	00000be1 	.word	0x00000be1
    18b0:	00000be1 	.word	0x00000be1
    18b4:	00000be1 	.word	0x00000be1
    18b8:	00000be1 	.word	0x00000be1
    18bc:	00000be1 	.word	0x00000be1
    18c0:	00000be1 	.word	0x00000be1
    18c4:	00000be1 	.word	0x00000be1
    18c8:	00000be1 	.word	0x00000be1
    18cc:	00000be1 	.word	0x00000be1
    18d0:	00000365 	.word	0x00000365
    18d4:	00000be1 	.word	0x00000be1
    18d8:	00000be1 	.word	0x00000be1
    18dc:	00000be1 	.word	0x00000be1
    18e0:	00000be1 	.word	0x00000be1
    18e4:	00000be1 	.word	0x00000be1
    18e8:	00000be1 	.word	0x00000be1
    18ec:	00000be1 	.word	0x00000be1
    18f0:	00000be1 	.word	0x00000be1
    18f4:	00000be1 	.word	0x00000be1
    18f8:	00000be1 	.word	0x00000be1
    18fc:	000005b7 	.word	0x000005b7
    1900:	00000be1 	.word	0x00000be1
    1904:	00000be1 	.word	0x00000be1
    1908:	00000be1 	.word	0x00000be1
    190c:	00000be1 	.word	0x00000be1
    1910:	00000be1 	.word	0x00000be1
    1914:	000007e7 	.word	0x000007e7
    1918:	00000be1 	.word	0x00000be1
    191c:	00000be1 	.word	0x00000be1
    1920:	000008f5 	.word	0x000008f5
    1924:	00000be1 	.word	0x00000be1
    1928:	00000be1 	.word	0x00000be1
    192c:	00000be1 	.word	0x00000be1
    1930:	00000be1 	.word	0x00000be1
    1934:	00000be1 	.word	0x00000be1
    1938:	00000be1 	.word	0x00000be1
    193c:	00000be1 	.word	0x00000be1
    1940:	00000be1 	.word	0x00000be1
    1944:	00000be1 	.word	0x00000be1
    1948:	00000be1 	.word	0x00000be1
    194c:	00000335 	.word	0x00000335
    1950:	00000371 	.word	0x00000371
    1954:	00000be1 	.word	0x00000be1
    1958:	00000be1 	.word	0x00000be1
    195c:	00000be1 	.word	0x00000be1
    1960:	000002bd 	.word	0x000002bd
    1964:	00000371 	.word	0x00000371
    1968:	000002cb 	.word	0x000002cb
    196c:	00000be1 	.word	0x00000be1
    1970:	000002d9 	.word	0x000002d9
    1974:	00000be1 	.word	0x00000be1
    1978:	000004a9 	.word	0x000004a9
    197c:	000005c3 	.word	0x000005c3
    1980:	000006c5 	.word	0x000006c5
    1984:	0000030b 	.word	0x0000030b
    1988:	00000be1 	.word	0x00000be1
    198c:	00000765 	.word	0x00000765
    1990:	00000319 	.word	0x00000319
    1994:	000007f3 	.word	0x000007f3
    1998:	00000be1 	.word	0x00000be1
    199c:	00000be1 	.word	0x00000be1
    19a0:	000008ff 	.word	0x000008ff
    19a4:	00000be1 	.word	0x00000be1
    19a8:	00000327 	.word	0x00000327
/home/qemu-sgx/devel/optee/optee_os/lib/libutils/ext/snprintk.c:304
    19ac:	f897 308f 	ldrb.w	r3, [r7, #143]	; 0x8f
    19b0:	2b00      	cmp	r3, #0
    19b2:	f47f af30 	bne.w	1816 <kprintf+0xee>
/home/qemu-sgx/devel/optee/optee_os/lib/libutils/ext/snprintk.c:305
    19b6:	f04f 0320 	mov.w	r3, #32
    19ba:	f887 308f 	strb.w	r3, [r7, #143]	; 0x8f
/home/qemu-sgx/devel/optee/optee_os/lib/libutils/ext/snprintk.c:306
    19be:	e72a      	b.n	1816 <kprintf+0xee>
/home/qemu-sgx/devel/optee/optee_os/lib/libutils/ext/snprintk.c:308
    19c0:	f8d7 309c 	ldr.w	r3, [r7, #156]	; 0x9c
    19c4:	f043 0301 	orr.w	r3, r3, #1
    19c8:	f8c7 309c 	str.w	r3, [r7, #156]	; 0x9c
/home/qemu-sgx/devel/optee/optee_os/lib/libutils/ext/snprintk.c:309
    19cc:	e723      	b.n	1816 <kprintf+0xee>
/home/qemu-sgx/devel/optee/optee_os/lib/libutils/ext/snprintk.c:317
    19ce:	f8d7 20d0 	ldr.w	r2, [r7, #208]	; 0xd0
    19d2:	f102 0304 	add.w	r3, r2, #4
    19d6:	f8c7 30d0 	str.w	r3, [r7, #208]	; 0xd0
    19da:	6813      	ldr	r3, [r2, #0]
    19dc:	f8c7 3094 	str.w	r3, [r7, #148]	; 0x94
    19e0:	f8d7 3094 	ldr.w	r3, [r7, #148]	; 0x94
    19e4:	2b00      	cmp	r3, #0
    19e6:	db00      	blt.n	19ea <kprintf+0x2c2>
/home/qemu-sgx/devel/optee/optee_os/lib/libutils/ext/snprintk.c:318
    19e8:	e715      	b.n	1816 <kprintf+0xee>
/home/qemu-sgx/devel/optee/optee_os/lib/libutils/ext/snprintk.c:319
    19ea:	f8d7 3094 	ldr.w	r3, [r7, #148]	; 0x94
    19ee:	f1c3 0300 	rsb	r3, r3, #0
    19f2:	f8c7 3094 	str.w	r3, [r7, #148]	; 0x94
/home/qemu-sgx/devel/optee/optee_os/lib/libutils/ext/snprintk.c:322
    19f6:	f8d7 309c 	ldr.w	r3, [r7, #156]	; 0x9c
    19fa:	f043 0304 	orr.w	r3, r3, #4
    19fe:	f8c7 309c 	str.w	r3, [r7, #156]	; 0x9c
/home/qemu-sgx/devel/optee/optee_os/lib/libutils/ext/snprintk.c:323
    1a02:	e708      	b.n	1816 <kprintf+0xee>
/home/qemu-sgx/devel/optee/optee_os/lib/libutils/ext/snprintk.c:325
    1a04:	f04f 032b 	mov.w	r3, #43	; 0x2b
    1a08:	f887 308f 	strb.w	r3, [r7, #143]	; 0x8f
/home/qemu-sgx/devel/optee/optee_os/lib/libutils/ext/snprintk.c:326
    1a0c:	e703      	b.n	1816 <kprintf+0xee>
/home/qemu-sgx/devel/optee/optee_os/lib/libutils/ext/snprintk.c:328
    1a0e:	f8d7 20ac 	ldr.w	r2, [r7, #172]	; 0xac
    1a12:	f102 0301 	add.w	r3, r2, #1
    1a16:	f8c7 30ac 	str.w	r3, [r7, #172]	; 0xac
    1a1a:	7813      	ldrb	r3, [r2, #0]
    1a1c:	f8c7 30a8 	str.w	r3, [r7, #168]	; 0xa8
    1a20:	f8d7 30a8 	ldr.w	r3, [r7, #168]	; 0xa8
    1a24:	2b2a      	cmp	r3, #42	; 0x2a
    1a26:	d10f      	bne.n	1a48 <kprintf+0x320>
/home/qemu-sgx/devel/optee/optee_os/lib/libutils/ext/snprintk.c:329
    1a28:	f8d7 20d0 	ldr.w	r2, [r7, #208]	; 0xd0
    1a2c:	f102 0304 	add.w	r3, r2, #4
    1a30:	f8c7 30d0 	str.w	r3, [r7, #208]	; 0xd0
    1a34:	6813      	ldr	r3, [r2, #0]
    1a36:	f8c7 30a4 	str.w	r3, [r7, #164]	; 0xa4
/home/qemu-sgx/devel/optee/optee_os/lib/libutils/ext/snprintk.c:330
    1a3a:	f8d7 30a4 	ldr.w	r3, [r7, #164]	; 0xa4
    1a3e:	ea43 73e3 	orr.w	r3, r3, r3, asr #31
    1a42:	f8c7 3090 	str.w	r3, [r7, #144]	; 0x90
/home/qemu-sgx/devel/optee/optee_os/lib/libutils/ext/snprintk.c:331
    1a46:	e6e6      	b.n	1816 <kprintf+0xee>
/home/qemu-sgx/devel/optee/optee_os/lib/libutils/ext/snprintk.c:333
    1a48:	f04f 0300 	mov.w	r3, #0
    1a4c:	f8c7 30a4 	str.w	r3, [r7, #164]	; 0xa4
/home/qemu-sgx/devel/optee/optee_os/lib/libutils/ext/snprintk.c:334
    1a50:	e018      	b.n	1a84 <kprintf+0x35c>
/home/qemu-sgx/devel/optee/optee_os/lib/libutils/ext/snprintk.c:335
    1a52:	f8d7 20a4 	ldr.w	r2, [r7, #164]	; 0xa4
    1a56:	4613      	mov	r3, r2
    1a58:	ea4f 0383 	mov.w	r3, r3, lsl #2
    1a5c:	4413      	add	r3, r2
    1a5e:	ea4f 0343 	mov.w	r3, r3, lsl #1
    1a62:	461a      	mov	r2, r3
    1a64:	f8d7 30a8 	ldr.w	r3, [r7, #168]	; 0xa8
    1a68:	f1a3 0330 	sub.w	r3, r3, #48	; 0x30
    1a6c:	4413      	add	r3, r2
    1a6e:	f8c7 30a4 	str.w	r3, [r7, #164]	; 0xa4
/home/qemu-sgx/devel/optee/optee_os/lib/libutils/ext/snprintk.c:336
    1a72:	f8d7 20ac 	ldr.w	r2, [r7, #172]	; 0xac
    1a76:	f102 0301 	add.w	r3, r2, #1
    1a7a:	f8c7 30ac 	str.w	r3, [r7, #172]	; 0xac
    1a7e:	7813      	ldrb	r3, [r2, #0]
    1a80:	f8c7 30a8 	str.w	r3, [r7, #168]	; 0xa8
/home/qemu-sgx/devel/optee/optee_os/lib/libutils/ext/snprintk.c:334
    1a84:	f8d7 30a8 	ldr.w	r3, [r7, #168]	; 0xa8
    1a88:	f1a3 0330 	sub.w	r3, r3, #48	; 0x30
    1a8c:	2b09      	cmp	r3, #9
    1a8e:	d9e0      	bls.n	1a52 <kprintf+0x32a>
/home/qemu-sgx/devel/optee/optee_os/lib/libutils/ext/snprintk.c:338
    1a90:	f8d7 30a4 	ldr.w	r3, [r7, #164]	; 0xa4
    1a94:	ea43 73e3 	orr.w	r3, r3, r3, asr #31
    1a98:	f8c7 3090 	str.w	r3, [r7, #144]	; 0x90
/home/qemu-sgx/devel/optee/optee_os/lib/libutils/ext/snprintk.c:339
    1a9c:	e6c4      	b.n	1828 <kprintf+0x100>
/home/qemu-sgx/devel/optee/optee_os/lib/libutils/ext/snprintk.c:346
    1a9e:	f8d7 309c 	ldr.w	r3, [r7, #156]	; 0x9c
    1aa2:	f443 6380 	orr.w	r3, r3, #1024	; 0x400
    1aa6:	f8c7 309c 	str.w	r3, [r7, #156]	; 0x9c
/home/qemu-sgx/devel/optee/optee_os/lib/libutils/ext/snprintk.c:347
    1aaa:	e6b4      	b.n	1816 <kprintf+0xee>
/home/qemu-sgx/devel/optee/optee_os/lib/libutils/ext/snprintk.c:350
    1aac:	f04f 0300 	mov.w	r3, #0
    1ab0:	f8c7 30a4 	str.w	r3, [r7, #164]	; 0xa4
/home/qemu-sgx/devel/optee/optee_os/lib/libutils/ext/snprintk.c:352 (discriminator 1)
    1ab4:	f8d7 20a4 	ldr.w	r2, [r7, #164]	; 0xa4
    1ab8:	4613      	mov	r3, r2
    1aba:	ea4f 0383 	mov.w	r3, r3, lsl #2
    1abe:	4413      	add	r3, r2
    1ac0:	ea4f 0343 	mov.w	r3, r3, lsl #1
    1ac4:	461a      	mov	r2, r3
    1ac6:	f8d7 30a8 	ldr.w	r3, [r7, #168]	; 0xa8
    1aca:	f1a3 0330 	sub.w	r3, r3, #48	; 0x30
    1ace:	4413      	add	r3, r2
    1ad0:	f8c7 30a4 	str.w	r3, [r7, #164]	; 0xa4
/home/qemu-sgx/devel/optee/optee_os/lib/libutils/ext/snprintk.c:353 (discriminator 1)
    1ad4:	f8d7 20ac 	ldr.w	r2, [r7, #172]	; 0xac
    1ad8:	f102 0301 	add.w	r3, r2, #1
    1adc:	f8c7 30ac 	str.w	r3, [r7, #172]	; 0xac
    1ae0:	7813      	ldrb	r3, [r2, #0]
    1ae2:	f8c7 30a8 	str.w	r3, [r7, #168]	; 0xa8
/home/qemu-sgx/devel/optee/optee_os/lib/libutils/ext/snprintk.c:354 (discriminator 1)
    1ae6:	f8d7 30a8 	ldr.w	r3, [r7, #168]	; 0xa8
    1aea:	f1a3 0330 	sub.w	r3, r3, #48	; 0x30
    1aee:	2b09      	cmp	r3, #9
    1af0:	d9e0      	bls.n	1ab4 <kprintf+0x38c>
/home/qemu-sgx/devel/optee/optee_os/lib/libutils/ext/snprintk.c:355
    1af2:	f8d7 30a4 	ldr.w	r3, [r7, #164]	; 0xa4
    1af6:	f8c7 3094 	str.w	r3, [r7, #148]	; 0x94
/home/qemu-sgx/devel/optee/optee_os/lib/libutils/ext/snprintk.c:356
    1afa:	e695      	b.n	1828 <kprintf+0x100>
/home/qemu-sgx/devel/optee/optee_os/lib/libutils/ext/snprintk.c:358
    1afc:	f8d7 309c 	ldr.w	r3, [r7, #156]	; 0x9c
    1b00:	f043 0340 	orr.w	r3, r3, #64	; 0x40
    1b04:	f8c7 309c 	str.w	r3, [r7, #156]	; 0x9c
/home/qemu-sgx/devel/optee/optee_os/lib/libutils/ext/snprintk.c:359
    1b08:	e685      	b.n	1816 <kprintf+0xee>
/home/qemu-sgx/devel/optee/optee_os/lib/libutils/ext/snprintk.c:361
    1b0a:	f8d7 309c 	ldr.w	r3, [r7, #156]	; 0x9c
    1b0e:	f043 0380 	orr.w	r3, r3, #128	; 0x80
    1b12:	f8c7 309c 	str.w	r3, [r7, #156]	; 0x9c
/home/qemu-sgx/devel/optee/optee_os/lib/libutils/ext/snprintk.c:362
    1b16:	e67e      	b.n	1816 <kprintf+0xee>
/home/qemu-sgx/devel/optee/optee_os/lib/libutils/ext/snprintk.c:364
    1b18:	f8d7 30ac 	ldr.w	r3, [r7, #172]	; 0xac
    1b1c:	781b      	ldrb	r3, [r3, #0]
    1b1e:	2b6c      	cmp	r3, #108	; 0x6c
    1b20:	d10c      	bne.n	1b3c <kprintf+0x414>
/home/qemu-sgx/devel/optee/optee_os/lib/libutils/ext/snprintk.c:365
    1b22:	f8d7 30ac 	ldr.w	r3, [r7, #172]	; 0xac
    1b26:	f103 0301 	add.w	r3, r3, #1
    1b2a:	f8c7 30ac 	str.w	r3, [r7, #172]	; 0xac
/home/qemu-sgx/devel/optee/optee_os/lib/libutils/ext/snprintk.c:366
    1b2e:	f8d7 309c 	ldr.w	r3, [r7, #156]	; 0x9c
    1b32:	f043 0320 	orr.w	r3, r3, #32
    1b36:	f8c7 309c 	str.w	r3, [r7, #156]	; 0x9c
    1b3a:	e66c      	b.n	1816 <kprintf+0xee>
/home/qemu-sgx/devel/optee/optee_os/lib/libutils/ext/snprintk.c:368
    1b3c:	f8d7 309c 	ldr.w	r3, [r7, #156]	; 0x9c
    1b40:	f043 0310 	orr.w	r3, r3, #16
    1b44:	f8c7 309c 	str.w	r3, [r7, #156]	; 0x9c
/home/qemu-sgx/devel/optee/optee_os/lib/libutils/ext/snprintk.c:370
    1b48:	e665      	b.n	1816 <kprintf+0xee>
/home/qemu-sgx/devel/optee/optee_os/lib/libutils/ext/snprintk.c:372
    1b4a:	f8d7 309c 	ldr.w	r3, [r7, #156]	; 0x9c
    1b4e:	f043 0320 	orr.w	r3, r3, #32
    1b52:	f8c7 309c 	str.w	r3, [r7, #156]	; 0x9c
/home/qemu-sgx/devel/optee/optee_os/lib/libutils/ext/snprintk.c:373
    1b56:	e65e      	b.n	1816 <kprintf+0xee>
/home/qemu-sgx/devel/optee/optee_os/lib/libutils/ext/snprintk.c:375
    1b58:	f8d7 309c 	ldr.w	r3, [r7, #156]	; 0x9c
    1b5c:	f443 7380 	orr.w	r3, r3, #256	; 0x100
    1b60:	f8c7 309c 	str.w	r3, [r7, #156]	; 0x9c
/home/qemu-sgx/devel/optee/optee_os/lib/libutils/ext/snprintk.c:376
    1b64:	e657      	b.n	1816 <kprintf+0xee>
/home/qemu-sgx/devel/optee/optee_os/lib/libutils/ext/snprintk.c:378
    1b66:	f8d7 309c 	ldr.w	r3, [r7, #156]	; 0x9c
    1b6a:	f443 7300 	orr.w	r3, r3, #512	; 0x200
    1b6e:	f8c7 309c 	str.w	r3, [r7, #156]	; 0x9c
/home/qemu-sgx/devel/optee/optee_os/lib/libutils/ext/snprintk.c:379
    1b72:	e650      	b.n	1816 <kprintf+0xee>
/home/qemu-sgx/devel/optee/optee_os/lib/libutils/ext/snprintk.c:381
    1b74:	f8d7 20d0 	ldr.w	r2, [r7, #208]	; 0xd0
    1b78:	f102 0304 	add.w	r3, r2, #4
    1b7c:	f8c7 30d0 	str.w	r3, [r7, #208]	; 0xd0
    1b80:	6812      	ldr	r2, [r2, #0]
    1b82:	f107 033c 	add.w	r3, r7, #60	; 0x3c
    1b86:	f8c7 30a0 	str.w	r3, [r7, #160]	; 0xa0
    1b8a:	b2d3      	uxtb	r3, r2
    1b8c:	f8d7 20a0 	ldr.w	r2, [r7, #160]	; 0xa0
    1b90:	7013      	strb	r3, [r2, #0]
/home/qemu-sgx/devel/optee/optee_os/lib/libutils/ext/snprintk.c:382
    1b92:	f04f 0301 	mov.w	r3, #1
    1b96:	673b      	str	r3, [r7, #112]	; 0x70
/home/qemu-sgx/devel/optee/optee_os/lib/libutils/ext/snprintk.c:383
    1b98:	f04f 0300 	mov.w	r3, #0
    1b9c:	f887 308f 	strb.w	r3, [r7, #143]	; 0x8f
/home/qemu-sgx/devel/optee/optee_os/lib/libutils/ext/snprintk.c:384
    1ba0:	f000 bc55 	b.w	244e <kprintf+0xd26>
/home/qemu-sgx/devel/optee/optee_os/lib/libutils/ext/snprintk.c:386
    1ba4:	f8d7 309c 	ldr.w	r3, [r7, #156]	; 0x9c
    1ba8:	f043 0310 	orr.w	r3, r3, #16
    1bac:	f8c7 309c 	str.w	r3, [r7, #156]	; 0x9c
/home/qemu-sgx/devel/optee/optee_os/lib/libutils/ext/snprintk.c:390
    1bb0:	f8d7 309c 	ldr.w	r3, [r7, #156]	; 0x9c
    1bb4:	f003 0380 	and.w	r3, r3, #128	; 0x80
    1bb8:	2b00      	cmp	r3, #0
    1bba:	d00e      	beq.n	1bda <kprintf+0x4b2>
    1bbc:	f8d7 30d0 	ldr.w	r3, [r7, #208]	; 0xd0
    1bc0:	f103 0307 	add.w	r3, r3, #7
    1bc4:	f023 0207 	bic.w	r2, r3, #7
    1bc8:	f102 0308 	add.w	r3, r2, #8
    1bcc:	f8c7 30d0 	str.w	r3, [r7, #208]	; 0xd0
    1bd0:	e9d2 2300 	ldrd	r2, r3, [r2]
    1bd4:	e9c7 2308 	strd	r2, r3, [r7, #32]
    1bd8:	e069      	b.n	1cae <kprintf+0x586>
/home/qemu-sgx/devel/optee/optee_os/lib/libutils/ext/snprintk.c:390 (discriminator 2)
    1bda:	f8d7 309c 	ldr.w	r3, [r7, #156]	; 0x9c
    1bde:	f403 7380 	and.w	r3, r3, #256	; 0x100
    1be2:	2b00      	cmp	r3, #0
    1be4:	d00b      	beq.n	1bfe <kprintf+0x4d6>
/home/qemu-sgx/devel/optee/optee_os/lib/libutils/ext/snprintk.c:390
    1be6:	f8d7 20d0 	ldr.w	r2, [r7, #208]	; 0xd0
    1bea:	f102 0304 	add.w	r3, r2, #4
    1bee:	f8c7 30d0 	str.w	r3, [r7, #208]	; 0xd0
    1bf2:	6813      	ldr	r3, [r2, #0]
    1bf4:	ea4f 72e3 	mov.w	r2, r3, asr #31
    1bf8:	623b      	str	r3, [r7, #32]
    1bfa:	627a      	str	r2, [r7, #36]	; 0x24
    1bfc:	e057      	b.n	1cae <kprintf+0x586>
/home/qemu-sgx/devel/optee/optee_os/lib/libutils/ext/snprintk.c:390 (discriminator 5)
    1bfe:	f8d7 309c 	ldr.w	r3, [r7, #156]	; 0x9c
    1c02:	f403 7300 	and.w	r3, r3, #512	; 0x200
    1c06:	2b00      	cmp	r3, #0
    1c08:	d00b      	beq.n	1c22 <kprintf+0x4fa>
/home/qemu-sgx/devel/optee/optee_os/lib/libutils/ext/snprintk.c:390
    1c0a:	f8d7 20d0 	ldr.w	r2, [r7, #208]	; 0xd0
    1c0e:	f102 0304 	add.w	r3, r2, #4
    1c12:	f8c7 30d0 	str.w	r3, [r7, #208]	; 0xd0
    1c16:	6813      	ldr	r3, [r2, #0]
    1c18:	ea4f 72e3 	mov.w	r2, r3, asr #31
    1c1c:	623b      	str	r3, [r7, #32]
    1c1e:	627a      	str	r2, [r7, #36]	; 0x24
    1c20:	e045      	b.n	1cae <kprintf+0x586>
/home/qemu-sgx/devel/optee/optee_os/lib/libutils/ext/snprintk.c:390 (discriminator 8)
    1c22:	f8d7 309c 	ldr.w	r3, [r7, #156]	; 0x9c
    1c26:	f003 0320 	and.w	r3, r3, #32
    1c2a:	2b00      	cmp	r3, #0
    1c2c:	d00e      	beq.n	1c4c <kprintf+0x524>
/home/qemu-sgx/devel/optee/optee_os/lib/libutils/ext/snprintk.c:390
    1c2e:	f8d7 30d0 	ldr.w	r3, [r7, #208]	; 0xd0
    1c32:	f103 0307 	add.w	r3, r3, #7
    1c36:	f023 0207 	bic.w	r2, r3, #7
    1c3a:	f102 0308 	add.w	r3, r2, #8
    1c3e:	f8c7 30d0 	str.w	r3, [r7, #208]	; 0xd0
    1c42:	e9d2 2300 	ldrd	r2, r3, [r2]
    1c46:	e9c7 2308 	strd	r2, r3, [r7, #32]
    1c4a:	e030      	b.n	1cae <kprintf+0x586>
/home/qemu-sgx/devel/optee/optee_os/lib/libutils/ext/snprintk.c:390 (discriminator 11)
    1c4c:	f8d7 309c 	ldr.w	r3, [r7, #156]	; 0x9c
    1c50:	f003 0310 	and.w	r3, r3, #16
    1c54:	2b00      	cmp	r3, #0
    1c56:	d00b      	beq.n	1c70 <kprintf+0x548>
/home/qemu-sgx/devel/optee/optee_os/lib/libutils/ext/snprintk.c:390
    1c58:	f8d7 20d0 	ldr.w	r2, [r7, #208]	; 0xd0
    1c5c:	f102 0304 	add.w	r3, r2, #4
    1c60:	f8c7 30d0 	str.w	r3, [r7, #208]	; 0xd0
    1c64:	6813      	ldr	r3, [r2, #0]
    1c66:	ea4f 72e3 	mov.w	r2, r3, asr #31
    1c6a:	623b      	str	r3, [r7, #32]
    1c6c:	627a      	str	r2, [r7, #36]	; 0x24
    1c6e:	e01e      	b.n	1cae <kprintf+0x586>
/home/qemu-sgx/devel/optee/optee_os/lib/libutils/ext/snprintk.c:390 (discriminator 14)
    1c70:	f8d7 309c 	ldr.w	r3, [r7, #156]	; 0x9c
    1c74:	f003 0340 	and.w	r3, r3, #64	; 0x40
    1c78:	2b00      	cmp	r3, #0
    1c7a:	d00d      	beq.n	1c98 <kprintf+0x570>
/home/qemu-sgx/devel/optee/optee_os/lib/libutils/ext/snprintk.c:390
    1c7c:	f8d7 20d0 	ldr.w	r2, [r7, #208]	; 0xd0
    1c80:	f102 0304 	add.w	r3, r2, #4
    1c84:	f8c7 30d0 	str.w	r3, [r7, #208]	; 0xd0
    1c88:	6813      	ldr	r3, [r2, #0]
    1c8a:	b21b      	sxth	r3, r3
    1c8c:	b21b      	sxth	r3, r3
    1c8e:	ea4f 72e3 	mov.w	r2, r3, asr #31
    1c92:	623b      	str	r3, [r7, #32]
    1c94:	627a      	str	r2, [r7, #36]	; 0x24
    1c96:	e00a      	b.n	1cae <kprintf+0x586>
    1c98:	f8d7 20d0 	ldr.w	r2, [r7, #208]	; 0xd0
    1c9c:	f102 0304 	add.w	r3, r2, #4
    1ca0:	f8c7 30d0 	str.w	r3, [r7, #208]	; 0xd0
    1ca4:	6813      	ldr	r3, [r2, #0]
    1ca6:	ea4f 72e3 	mov.w	r2, r3, asr #31
    1caa:	623b      	str	r3, [r7, #32]
    1cac:	627a      	str	r2, [r7, #36]	; 0x24
/home/qemu-sgx/devel/optee/optee_os/lib/libutils/ext/snprintk.c:390 (discriminator 24)
    1cae:	e9d7 2308 	ldrd	r2, r3, [r7, #32]
    1cb2:	e9c7 2320 	strd	r2, r3, [r7, #128]	; 0x80
/home/qemu-sgx/devel/optee/optee_os/lib/libutils/ext/snprintk.c:391 (discriminator 24)
    1cb6:	e9d7 2320 	ldrd	r2, r3, [r7, #128]	; 0x80
    1cba:	2b00      	cmp	r3, #0
    1cbc:	da10      	bge.n	1ce0 <kprintf+0x5b8>
/home/qemu-sgx/devel/optee/optee_os/lib/libutils/ext/snprintk.c:392
    1cbe:	e9d7 2320 	ldrd	r2, r3, [r7, #128]	; 0x80
    1cc2:	f04f 0100 	mov.w	r1, #0
    1cc6:	4250      	negs	r0, r2
    1cc8:	60b8      	str	r0, [r7, #8]
    1cca:	eb61 0303 	sbc.w	r3, r1, r3
    1cce:	60fb      	str	r3, [r7, #12]
    1cd0:	e9d7 2302 	ldrd	r2, r3, [r7, #8]
    1cd4:	e9c7 2320 	strd	r2, r3, [r7, #128]	; 0x80
/home/qemu-sgx/devel/optee/optee_os/lib/libutils/ext/snprintk.c:393
    1cd8:	f04f 032d 	mov.w	r3, #45	; 0x2d
    1cdc:	f887 308f 	strb.w	r3, [r7, #143]	; 0x8f
/home/qemu-sgx/devel/optee/optee_os/lib/libutils/ext/snprintk.c:395
    1ce0:	f04f 0301 	mov.w	r3, #1
    1ce4:	67fb      	str	r3, [r7, #124]	; 0x7c
/home/qemu-sgx/devel/optee/optee_os/lib/libutils/ext/snprintk.c:396
    1ce6:	e2c4      	b.n	2272 <kprintf+0xb4a>
/home/qemu-sgx/devel/optee/optee_os/lib/libutils/ext/snprintk.c:398
    1ce8:	f8d7 309c 	ldr.w	r3, [r7, #156]	; 0x9c
    1cec:	f003 0380 	and.w	r3, r3, #128	; 0x80
    1cf0:	2b00      	cmp	r3, #0
    1cf2:	d012      	beq.n	1d1a <kprintf+0x5f2>
/home/qemu-sgx/devel/optee/optee_os/lib/libutils/ext/snprintk.c:399
    1cf4:	f8d7 20d0 	ldr.w	r2, [r7, #208]	; 0xd0
    1cf8:	f102 0304 	add.w	r3, r2, #4
    1cfc:	f8c7 30d0 	str.w	r3, [r7, #208]	; 0xd0
    1d00:	6811      	ldr	r1, [r2, #0]
    1d02:	f8d7 3098 	ldr.w	r3, [r7, #152]	; 0x98
    1d06:	ea4f 72e3 	mov.w	r2, r3, asr #31
    1d0a:	61bb      	str	r3, [r7, #24]
    1d0c:	61fa      	str	r2, [r7, #28]
    1d0e:	e9d7 2306 	ldrd	r2, r3, [r7, #24]
    1d12:	e9c1 2300 	strd	r2, r3, [r1]
/home/qemu-sgx/devel/optee/optee_os/lib/libutils/ext/snprintk.c:412
    1d16:	f000 bccf 	b.w	26b8 <kprintf+0xf90>
/home/qemu-sgx/devel/optee/optee_os/lib/libutils/ext/snprintk.c:400
    1d1a:	f8d7 309c 	ldr.w	r3, [r7, #156]	; 0x9c
    1d1e:	f403 7380 	and.w	r3, r3, #256	; 0x100
    1d22:	2b00      	cmp	r3, #0
    1d24:	d00b      	beq.n	1d3e <kprintf+0x616>
/home/qemu-sgx/devel/optee/optee_os/lib/libutils/ext/snprintk.c:401
    1d26:	f8d7 20d0 	ldr.w	r2, [r7, #208]	; 0xd0
    1d2a:	f102 0304 	add.w	r3, r2, #4
    1d2e:	f8c7 30d0 	str.w	r3, [r7, #208]	; 0xd0
    1d32:	6812      	ldr	r2, [r2, #0]
    1d34:	f8d7 3098 	ldr.w	r3, [r7, #152]	; 0x98
    1d38:	6013      	str	r3, [r2, #0]
/home/qemu-sgx/devel/optee/optee_os/lib/libutils/ext/snprintk.c:412
    1d3a:	f000 bcbd 	b.w	26b8 <kprintf+0xf90>
/home/qemu-sgx/devel/optee/optee_os/lib/libutils/ext/snprintk.c:402
    1d3e:	f8d7 309c 	ldr.w	r3, [r7, #156]	; 0x9c
    1d42:	f403 7300 	and.w	r3, r3, #512	; 0x200
    1d46:	2b00      	cmp	r3, #0
    1d48:	d00b      	beq.n	1d62 <kprintf+0x63a>
/home/qemu-sgx/devel/optee/optee_os/lib/libutils/ext/snprintk.c:403
    1d4a:	f8d7 20d0 	ldr.w	r2, [r7, #208]	; 0xd0
    1d4e:	f102 0304 	add.w	r3, r2, #4
    1d52:	f8c7 30d0 	str.w	r3, [r7, #208]	; 0xd0
    1d56:	6812      	ldr	r2, [r2, #0]
    1d58:	f8d7 3098 	ldr.w	r3, [r7, #152]	; 0x98
    1d5c:	6013      	str	r3, [r2, #0]
/home/qemu-sgx/devel/optee/optee_os/lib/libutils/ext/snprintk.c:412
    1d5e:	f000 bcab 	b.w	26b8 <kprintf+0xf90>
/home/qemu-sgx/devel/optee/optee_os/lib/libutils/ext/snprintk.c:404
    1d62:	f8d7 309c 	ldr.w	r3, [r7, #156]	; 0x9c
    1d66:	f003 0320 	and.w	r3, r3, #32
    1d6a:	2b00      	cmp	r3, #0
    1d6c:	d012      	beq.n	1d94 <kprintf+0x66c>
/home/qemu-sgx/devel/optee/optee_os/lib/libutils/ext/snprintk.c:405
    1d6e:	f8d7 20d0 	ldr.w	r2, [r7, #208]	; 0xd0
    1d72:	f102 0304 	add.w	r3, r2, #4
    1d76:	f8c7 30d0 	str.w	r3, [r7, #208]	; 0xd0
    1d7a:	6811      	ldr	r1, [r2, #0]
    1d7c:	f8d7 3098 	ldr.w	r3, [r7, #152]	; 0x98
    1d80:	ea4f 72e3 	mov.w	r2, r3, asr #31
    1d84:	613b      	str	r3, [r7, #16]
    1d86:	617a      	str	r2, [r7, #20]
    1d88:	e9d7 2304 	ldrd	r2, r3, [r7, #16]
    1d8c:	e9c1 2300 	strd	r2, r3, [r1]
/home/qemu-sgx/devel/optee/optee_os/lib/libutils/ext/snprintk.c:412
    1d90:	f000 bc92 	b.w	26b8 <kprintf+0xf90>
/home/qemu-sgx/devel/optee/optee_os/lib/libutils/ext/snprintk.c:406
    1d94:	f8d7 309c 	ldr.w	r3, [r7, #156]	; 0x9c
    1d98:	f003 0310 	and.w	r3, r3, #16
    1d9c:	2b00      	cmp	r3, #0
    1d9e:	d00b      	beq.n	1db8 <kprintf+0x690>
/home/qemu-sgx/devel/optee/optee_os/lib/libutils/ext/snprintk.c:407
    1da0:	f8d7 20d0 	ldr.w	r2, [r7, #208]	; 0xd0
    1da4:	f102 0304 	add.w	r3, r2, #4
    1da8:	f8c7 30d0 	str.w	r3, [r7, #208]	; 0xd0
    1dac:	6812      	ldr	r2, [r2, #0]
    1dae:	f8d7 3098 	ldr.w	r3, [r7, #152]	; 0x98
    1db2:	6013      	str	r3, [r2, #0]
/home/qemu-sgx/devel/optee/optee_os/lib/libutils/ext/snprintk.c:412
    1db4:	f000 bc80 	b.w	26b8 <kprintf+0xf90>
/home/qemu-sgx/devel/optee/optee_os/lib/libutils/ext/snprintk.c:408
    1db8:	f8d7 309c 	ldr.w	r3, [r7, #156]	; 0x9c
    1dbc:	f003 0340 	and.w	r3, r3, #64	; 0x40
    1dc0:	2b00      	cmp	r3, #0
    1dc2:	d00c      	beq.n	1dde <kprintf+0x6b6>
/home/qemu-sgx/devel/optee/optee_os/lib/libutils/ext/snprintk.c:409
    1dc4:	f8d7 20d0 	ldr.w	r2, [r7, #208]	; 0xd0
    1dc8:	f102 0304 	add.w	r3, r2, #4
    1dcc:	f8c7 30d0 	str.w	r3, [r7, #208]	; 0xd0
    1dd0:	6812      	ldr	r2, [r2, #0]
    1dd2:	f8d7 3098 	ldr.w	r3, [r7, #152]	; 0x98
    1dd6:	b21b      	sxth	r3, r3
    1dd8:	8013      	strh	r3, [r2, #0]
/home/qemu-sgx/devel/optee/optee_os/lib/libutils/ext/snprintk.c:412
    1dda:	f000 bc6d 	b.w	26b8 <kprintf+0xf90>
/home/qemu-sgx/devel/optee/optee_os/lib/libutils/ext/snprintk.c:411
    1dde:	f8d7 20d0 	ldr.w	r2, [r7, #208]	; 0xd0
    1de2:	f102 0304 	add.w	r3, r2, #4
    1de6:	f8c7 30d0 	str.w	r3, [r7, #208]	; 0xd0
    1dea:	6812      	ldr	r2, [r2, #0]
    1dec:	f8d7 3098 	ldr.w	r3, [r7, #152]	; 0x98
    1df0:	6013      	str	r3, [r2, #0]
/home/qemu-sgx/devel/optee/optee_os/lib/libutils/ext/snprintk.c:412
    1df2:	f000 bc61 	b.w	26b8 <kprintf+0xf90>
/home/qemu-sgx/devel/optee/optee_os/lib/libutils/ext/snprintk.c:414
    1df6:	f8d7 309c 	ldr.w	r3, [r7, #156]	; 0x9c
    1dfa:	f043 0310 	orr.w	r3, r3, #16
    1dfe:	f8c7 309c 	str.w	r3, [r7, #156]	; 0x9c
/home/qemu-sgx/devel/optee/optee_os/lib/libutils/ext/snprintk.c:417
    1e02:	f8d7 309c 	ldr.w	r3, [r7, #156]	; 0x9c
    1e06:	f003 0380 	and.w	r3, r3, #128	; 0x80
    1e0a:	2b00      	cmp	r3, #0
    1e0c:	d00c      	beq.n	1e28 <kprintf+0x700>
    1e0e:	f8d7 30d0 	ldr.w	r3, [r7, #208]	; 0xd0
    1e12:	f103 0307 	add.w	r3, r3, #7
    1e16:	f023 0207 	bic.w	r2, r3, #7
    1e1a:	f102 0308 	add.w	r3, r2, #8
    1e1e:	f8c7 30d0 	str.w	r3, [r7, #208]	; 0xd0
    1e22:	e9d2 4500 	ldrd	r4, r5, [r2]
    1e26:	e067      	b.n	1ef8 <kprintf+0x7d0>
/home/qemu-sgx/devel/optee/optee_os/lib/libutils/ext/snprintk.c:417 (discriminator 2)
    1e28:	f8d7 309c 	ldr.w	r3, [r7, #156]	; 0x9c
    1e2c:	f403 7380 	and.w	r3, r3, #256	; 0x100
    1e30:	2b00      	cmp	r3, #0
    1e32:	d00b      	beq.n	1e4c <kprintf+0x724>
/home/qemu-sgx/devel/optee/optee_os/lib/libutils/ext/snprintk.c:417
    1e34:	f8d7 20d0 	ldr.w	r2, [r7, #208]	; 0xd0
    1e38:	f102 0304 	add.w	r3, r2, #4
    1e3c:	f8c7 30d0 	str.w	r3, [r7, #208]	; 0xd0
    1e40:	6813      	ldr	r3, [r2, #0]
    1e42:	f04f 0200 	mov.w	r2, #0
    1e46:	461c      	mov	r4, r3
    1e48:	4615      	mov	r5, r2
    1e4a:	e055      	b.n	1ef8 <kprintf+0x7d0>
/home/qemu-sgx/devel/optee/optee_os/lib/libutils/ext/snprintk.c:417 (discriminator 5)
    1e4c:	f8d7 309c 	ldr.w	r3, [r7, #156]	; 0x9c
    1e50:	f403 7300 	and.w	r3, r3, #512	; 0x200
    1e54:	2b00      	cmp	r3, #0
    1e56:	d00b      	beq.n	1e70 <kprintf+0x748>
/home/qemu-sgx/devel/optee/optee_os/lib/libutils/ext/snprintk.c:417
    1e58:	f8d7 20d0 	ldr.w	r2, [r7, #208]	; 0xd0
    1e5c:	f102 0304 	add.w	r3, r2, #4
    1e60:	f8c7 30d0 	str.w	r3, [r7, #208]	; 0xd0
    1e64:	6813      	ldr	r3, [r2, #0]
    1e66:	f04f 0200 	mov.w	r2, #0
    1e6a:	461c      	mov	r4, r3
    1e6c:	4615      	mov	r5, r2
    1e6e:	e043      	b.n	1ef8 <kprintf+0x7d0>
/home/qemu-sgx/devel/optee/optee_os/lib/libutils/ext/snprintk.c:417 (discriminator 8)
    1e70:	f8d7 309c 	ldr.w	r3, [r7, #156]	; 0x9c
    1e74:	f003 0320 	and.w	r3, r3, #32
    1e78:	2b00      	cmp	r3, #0
    1e7a:	d00c      	beq.n	1e96 <kprintf+0x76e>
/home/qemu-sgx/devel/optee/optee_os/lib/libutils/ext/snprintk.c:417
    1e7c:	f8d7 30d0 	ldr.w	r3, [r7, #208]	; 0xd0
    1e80:	f103 0307 	add.w	r3, r3, #7
    1e84:	f023 0207 	bic.w	r2, r3, #7
    1e88:	f102 0308 	add.w	r3, r2, #8
    1e8c:	f8c7 30d0 	str.w	r3, [r7, #208]	; 0xd0
    1e90:	e9d2 4500 	ldrd	r4, r5, [r2]
    1e94:	e030      	b.n	1ef8 <kprintf+0x7d0>
/home/qemu-sgx/devel/optee/optee_os/lib/libutils/ext/snprintk.c:417 (discriminator 11)
    1e96:	f8d7 309c 	ldr.w	r3, [r7, #156]	; 0x9c
    1e9a:	f003 0310 	and.w	r3, r3, #16
    1e9e:	2b00      	cmp	r3, #0
    1ea0:	d00b      	beq.n	1eba <kprintf+0x792>
/home/qemu-sgx/devel/optee/optee_os/lib/libutils/ext/snprintk.c:417
    1ea2:	f8d7 20d0 	ldr.w	r2, [r7, #208]	; 0xd0
    1ea6:	f102 0304 	add.w	r3, r2, #4
    1eaa:	f8c7 30d0 	str.w	r3, [r7, #208]	; 0xd0
    1eae:	6813      	ldr	r3, [r2, #0]
    1eb0:	f04f 0200 	mov.w	r2, #0
    1eb4:	461c      	mov	r4, r3
    1eb6:	4615      	mov	r5, r2
    1eb8:	e01e      	b.n	1ef8 <kprintf+0x7d0>
/home/qemu-sgx/devel/optee/optee_os/lib/libutils/ext/snprintk.c:417 (discriminator 14)
    1eba:	f8d7 309c 	ldr.w	r3, [r7, #156]	; 0x9c
    1ebe:	f003 0340 	and.w	r3, r3, #64	; 0x40
    1ec2:	2b00      	cmp	r3, #0
    1ec4:	d00d      	beq.n	1ee2 <kprintf+0x7ba>
/home/qemu-sgx/devel/optee/optee_os/lib/libutils/ext/snprintk.c:417
    1ec6:	f8d7 20d0 	ldr.w	r2, [r7, #208]	; 0xd0
    1eca:	f102 0304 	add.w	r3, r2, #4
    1ece:	f8c7 30d0 	str.w	r3, [r7, #208]	; 0xd0
    1ed2:	6813      	ldr	r3, [r2, #0]
    1ed4:	b29b      	uxth	r3, r3
    1ed6:	b29b      	uxth	r3, r3
    1ed8:	f04f 0200 	mov.w	r2, #0
    1edc:	461c      	mov	r4, r3
    1ede:	4615      	mov	r5, r2
    1ee0:	e00a      	b.n	1ef8 <kprintf+0x7d0>
    1ee2:	f8d7 20d0 	ldr.w	r2, [r7, #208]	; 0xd0
    1ee6:	f102 0304 	add.w	r3, r2, #4
    1eea:	f8c7 30d0 	str.w	r3, [r7, #208]	; 0xd0
    1eee:	6813      	ldr	r3, [r2, #0]
    1ef0:	f04f 0200 	mov.w	r2, #0
    1ef4:	461c      	mov	r4, r3
    1ef6:	4615      	mov	r5, r2
/home/qemu-sgx/devel/optee/optee_os/lib/libutils/ext/snprintk.c:417 (discriminator 24)
    1ef8:	e9c7 4520 	strd	r4, r5, [r7, #128]	; 0x80
/home/qemu-sgx/devel/optee/optee_os/lib/libutils/ext/snprintk.c:418 (discriminator 24)
    1efc:	f04f 0300 	mov.w	r3, #0
    1f00:	67fb      	str	r3, [r7, #124]	; 0x7c
/home/qemu-sgx/devel/optee/optee_os/lib/libutils/ext/snprintk.c:419 (discriminator 24)
    1f02:	e1b2      	b.n	226a <kprintf+0xb42>
/home/qemu-sgx/devel/optee/optee_os/lib/libutils/ext/snprintk.c:421
    1f04:	f897 30d4 	ldrb.w	r3, [r7, #212]	; 0xd4
    1f08:	2b00      	cmp	r3, #0
    1f0a:	d029      	beq.n	1f60 <kprintf+0x838>
/home/qemu-sgx/devel/optee/optee_os/lib/libutils/ext/snprintk.c:421 (discriminator 1)
    1f0c:	f8d7 30ac 	ldr.w	r3, [r7, #172]	; 0xac
    1f10:	781b      	ldrb	r3, [r3, #0]
    1f12:	2b55      	cmp	r3, #85	; 0x55
    1f14:	d124      	bne.n	1f60 <kprintf+0x838>
/home/qemu-sgx/devel/optee/optee_os/lib/libutils/ext/snprintk.c:421 (discriminator 2)
    1f16:	f8d7 30ac 	ldr.w	r3, [r7, #172]	; 0xac
    1f1a:	f103 0301 	add.w	r3, r3, #1
    1f1e:	781b      	ldrb	r3, [r3, #0]
    1f20:	2b6c      	cmp	r3, #108	; 0x6c
    1f22:	d11d      	bne.n	1f60 <kprintf+0x838>
/home/qemu-sgx/devel/optee/optee_os/lib/libutils/ext/snprintk.c:426
    1f24:	f8d7 30ac 	ldr.w	r3, [r7, #172]	; 0xac
    1f28:	f103 0302 	add.w	r3, r3, #2
    1f2c:	f8c7 30ac 	str.w	r3, [r7, #172]	; 0xac
/home/qemu-sgx/devel/optee/optee_os/lib/libutils/ext/snprintk.c:427
    1f30:	f8d7 20d0 	ldr.w	r2, [r7, #208]	; 0xd0
    1f34:	f102 0304 	add.w	r3, r2, #4
    1f38:	f8c7 30d0 	str.w	r3, [r7, #208]	; 0xd0
    1f3c:	6813      	ldr	r3, [r2, #0]
    1f3e:	f107 003c 	add.w	r0, r7, #60	; 0x3c
    1f42:	461a      	mov	r2, r3
    1f44:	f04f 0125 	mov.w	r1, #37	; 0x25
    1f48:	f7ff fb9f 	bl	168a <uuid2str>
    1f4c:	6738      	str	r0, [r7, #112]	; 0x70
/home/qemu-sgx/devel/optee/optee_os/lib/libutils/ext/snprintk.c:429
    1f4e:	f107 033c 	add.w	r3, r7, #60	; 0x3c
    1f52:	f8c7 30a0 	str.w	r3, [r7, #160]	; 0xa0
/home/qemu-sgx/devel/optee/optee_os/lib/libutils/ext/snprintk.c:430
    1f56:	f04f 0300 	mov.w	r3, #0
    1f5a:	f887 308f 	strb.w	r3, [r7, #143]	; 0x8f
/home/qemu-sgx/devel/optee/optee_os/lib/libutils/ext/snprintk.c:431
    1f5e:	e276      	b.n	244e <kprintf+0xd26>
/home/qemu-sgx/devel/optee/optee_os/lib/libutils/ext/snprintk.c:441
    1f60:	f8d7 20d0 	ldr.w	r2, [r7, #208]	; 0xd0
    1f64:	f102 0304 	add.w	r3, r2, #4
    1f68:	f8c7 30d0 	str.w	r3, [r7, #208]	; 0xd0
    1f6c:	6813      	ldr	r3, [r2, #0]
    1f6e:	461a      	mov	r2, r3
    1f70:	f04f 0300 	mov.w	r3, #0
    1f74:	603a      	str	r2, [r7, #0]
    1f76:	607b      	str	r3, [r7, #4]
    1f78:	e9d7 2300 	ldrd	r2, r3, [r7]
    1f7c:	e9c7 2320 	strd	r2, r3, [r7, #128]	; 0x80
/home/qemu-sgx/devel/optee/optee_os/lib/libutils/ext/snprintk.c:442
    1f80:	f04f 0302 	mov.w	r3, #2
    1f84:	67fb      	str	r3, [r7, #124]	; 0x7c
/home/qemu-sgx/devel/optee/optee_os/lib/libutils/ext/snprintk.c:443
    1f86:	f8df 376c 	ldr.w	r3, [pc, #1900]	; 26f4 <kprintf+0xfcc>
    1f8a:	447b      	add	r3, pc
    1f8c:	66fb      	str	r3, [r7, #108]	; 0x6c
/home/qemu-sgx/devel/optee/optee_os/lib/libutils/ext/snprintk.c:444
    1f8e:	f8d7 309c 	ldr.w	r3, [r7, #156]	; 0x9c
    1f92:	f043 0302 	orr.w	r3, r3, #2
    1f96:	f8c7 309c 	str.w	r3, [r7, #156]	; 0x9c
/home/qemu-sgx/devel/optee/optee_os/lib/libutils/ext/snprintk.c:445
    1f9a:	f04f 0378 	mov.w	r3, #120	; 0x78
    1f9e:	f8c7 30a8 	str.w	r3, [r7, #168]	; 0xa8
/home/qemu-sgx/devel/optee/optee_os/lib/libutils/ext/snprintk.c:446
    1fa2:	e162      	b.n	226a <kprintf+0xb42>
/home/qemu-sgx/devel/optee/optee_os/lib/libutils/ext/snprintk.c:448
    1fa4:	f8d7 20d0 	ldr.w	r2, [r7, #208]	; 0xd0
    1fa8:	f102 0304 	add.w	r3, r2, #4
    1fac:	f8c7 30d0 	str.w	r3, [r7, #208]	; 0xd0
    1fb0:	6813      	ldr	r3, [r2, #0]
    1fb2:	f8c7 30a0 	str.w	r3, [r7, #160]	; 0xa0
    1fb6:	f8d7 30a0 	ldr.w	r3, [r7, #160]	; 0xa0
    1fba:	2b00      	cmp	r3, #0
    1fbc:	d104      	bne.n	1fc8 <kprintf+0x8a0>
/home/qemu-sgx/devel/optee/optee_os/lib/libutils/ext/snprintk.c:450
    1fbe:	f8df 3738 	ldr.w	r3, [pc, #1848]	; 26f8 <kprintf+0xfd0>
    1fc2:	447b      	add	r3, pc
    1fc4:	f8c7 30a0 	str.w	r3, [r7, #160]	; 0xa0
/home/qemu-sgx/devel/optee/optee_os/lib/libutils/ext/snprintk.c:451
    1fc8:	f8d7 3090 	ldr.w	r3, [r7, #144]	; 0x90
    1fcc:	2b00      	cmp	r3, #0
    1fce:	db1f      	blt.n	2010 <kprintf+0x8e8>
/home/qemu-sgx/devel/optee/optee_os/lib/libutils/ext/snprintk.c:457
    1fd0:	f8d7 3090 	ldr.w	r3, [r7, #144]	; 0x90
    1fd4:	461a      	mov	r2, r3
    1fd6:	f04f 0100 	mov.w	r1, #0
    1fda:	f8d7 00a0 	ldr.w	r0, [r7, #160]	; 0xa0
    1fde:	f010 fd2d 	bl	12a3c <memchr>
    1fe2:	6678      	str	r0, [r7, #100]	; 0x64
/home/qemu-sgx/devel/optee/optee_os/lib/libutils/ext/snprintk.c:459
    1fe4:	6e7b      	ldr	r3, [r7, #100]	; 0x64
    1fe6:	2b00      	cmp	r3, #0
    1fe8:	d00e      	beq.n	2008 <kprintf+0x8e0>
/home/qemu-sgx/devel/optee/optee_os/lib/libutils/ext/snprintk.c:460
    1fea:	6e7a      	ldr	r2, [r7, #100]	; 0x64
    1fec:	f8d7 30a0 	ldr.w	r3, [r7, #160]	; 0xa0
    1ff0:	eba2 0303 	sub.w	r3, r2, r3
    1ff4:	673b      	str	r3, [r7, #112]	; 0x70
/home/qemu-sgx/devel/optee/optee_os/lib/libutils/ext/snprintk.c:461
    1ff6:	6f3a      	ldr	r2, [r7, #112]	; 0x70
    1ff8:	f8d7 3090 	ldr.w	r3, [r7, #144]	; 0x90
    1ffc:	429a      	cmp	r2, r3
    1ffe:	dd0d      	ble.n	201c <kprintf+0x8f4>
/home/qemu-sgx/devel/optee/optee_os/lib/libutils/ext/snprintk.c:462
    2000:	f8d7 3090 	ldr.w	r3, [r7, #144]	; 0x90
    2004:	673b      	str	r3, [r7, #112]	; 0x70
    2006:	e009      	b.n	201c <kprintf+0x8f4>
/home/qemu-sgx/devel/optee/optee_os/lib/libutils/ext/snprintk.c:464
    2008:	f8d7 3090 	ldr.w	r3, [r7, #144]	; 0x90
    200c:	673b      	str	r3, [r7, #112]	; 0x70
    200e:	e005      	b.n	201c <kprintf+0x8f4>
/home/qemu-sgx/devel/optee/optee_os/lib/libutils/ext/snprintk.c:466
    2010:	f8d7 00a0 	ldr.w	r0, [r7, #160]	; 0xa0
    2014:	f010 fd9c 	bl	12b50 <strlen>
    2018:	4603      	mov	r3, r0
    201a:	673b      	str	r3, [r7, #112]	; 0x70
/home/qemu-sgx/devel/optee/optee_os/lib/libutils/ext/snprintk.c:467
    201c:	f04f 0300 	mov.w	r3, #0
    2020:	f887 308f 	strb.w	r3, [r7, #143]	; 0x8f
/home/qemu-sgx/devel/optee/optee_os/lib/libutils/ext/snprintk.c:468
    2024:	e213      	b.n	244e <kprintf+0xd26>
/home/qemu-sgx/devel/optee/optee_os/lib/libutils/ext/snprintk.c:470
    2026:	f8d7 309c 	ldr.w	r3, [r7, #156]	; 0x9c
    202a:	f043 0310 	orr.w	r3, r3, #16
    202e:	f8c7 309c 	str.w	r3, [r7, #156]	; 0x9c
/home/qemu-sgx/devel/optee/optee_os/lib/libutils/ext/snprintk.c:473
    2032:	f8d7 309c 	ldr.w	r3, [r7, #156]	; 0x9c
    2036:	f003 0380 	and.w	r3, r3, #128	; 0x80
    203a:	2b00      	cmp	r3, #0
    203c:	d00c      	beq.n	2058 <kprintf+0x930>
    203e:	f8d7 30d0 	ldr.w	r3, [r7, #208]	; 0xd0
    2042:	f103 0307 	add.w	r3, r3, #7
    2046:	f023 0207 	bic.w	r2, r3, #7
    204a:	f102 0308 	add.w	r3, r2, #8
    204e:	f8c7 30d0 	str.w	r3, [r7, #208]	; 0xd0
    2052:	e9d2 8900 	ldrd	r8, r9, [r2]
    2056:	e067      	b.n	2128 <kprintf+0xa00>
/home/qemu-sgx/devel/optee/optee_os/lib/libutils/ext/snprintk.c:473 (discriminator 2)
    2058:	f8d7 309c 	ldr.w	r3, [r7, #156]	; 0x9c
    205c:	f403 7380 	and.w	r3, r3, #256	; 0x100
    2060:	2b00      	cmp	r3, #0
    2062:	d00b      	beq.n	207c <kprintf+0x954>
/home/qemu-sgx/devel/optee/optee_os/lib/libutils/ext/snprintk.c:473
    2064:	f8d7 20d0 	ldr.w	r2, [r7, #208]	; 0xd0
    2068:	f102 0304 	add.w	r3, r2, #4
    206c:	f8c7 30d0 	str.w	r3, [r7, #208]	; 0xd0
    2070:	6813      	ldr	r3, [r2, #0]
    2072:	f04f 0200 	mov.w	r2, #0
    2076:	4698      	mov	r8, r3
    2078:	4691      	mov	r9, r2
    207a:	e055      	b.n	2128 <kprintf+0xa00>
/home/qemu-sgx/devel/optee/optee_os/lib/libutils/ext/snprintk.c:473 (discriminator 5)
    207c:	f8d7 309c 	ldr.w	r3, [r7, #156]	; 0x9c
    2080:	f403 7300 	and.w	r3, r3, #512	; 0x200
    2084:	2b00      	cmp	r3, #0
    2086:	d00b      	beq.n	20a0 <kprintf+0x978>
/home/qemu-sgx/devel/optee/optee_os/lib/libutils/ext/snprintk.c:473
    2088:	f8d7 20d0 	ldr.w	r2, [r7, #208]	; 0xd0
    208c:	f102 0304 	add.w	r3, r2, #4
    2090:	f8c7 30d0 	str.w	r3, [r7, #208]	; 0xd0
    2094:	6813      	ldr	r3, [r2, #0]
    2096:	f04f 0200 	mov.w	r2, #0
    209a:	4698      	mov	r8, r3
    209c:	4691      	mov	r9, r2
    209e:	e043      	b.n	2128 <kprintf+0xa00>
/home/qemu-sgx/devel/optee/optee_os/lib/libutils/ext/snprintk.c:473 (discriminator 8)
    20a0:	f8d7 309c 	ldr.w	r3, [r7, #156]	; 0x9c
    20a4:	f003 0320 	and.w	r3, r3, #32
    20a8:	2b00      	cmp	r3, #0
    20aa:	d00c      	beq.n	20c6 <kprintf+0x99e>
/home/qemu-sgx/devel/optee/optee_os/lib/libutils/ext/snprintk.c:473
    20ac:	f8d7 30d0 	ldr.w	r3, [r7, #208]	; 0xd0
    20b0:	f103 0307 	add.w	r3, r3, #7
    20b4:	f023 0207 	bic.w	r2, r3, #7
    20b8:	f102 0308 	add.w	r3, r2, #8
    20bc:	f8c7 30d0 	str.w	r3, [r7, #208]	; 0xd0
    20c0:	e9d2 8900 	ldrd	r8, r9, [r2]
    20c4:	e030      	b.n	2128 <kprintf+0xa00>
/home/qemu-sgx/devel/optee/optee_os/lib/libutils/ext/snprintk.c:473 (discriminator 11)
    20c6:	f8d7 309c 	ldr.w	r3, [r7, #156]	; 0x9c
    20ca:	f003 0310 	and.w	r3, r3, #16
    20ce:	2b00      	cmp	r3, #0
    20d0:	d00b      	beq.n	20ea <kprintf+0x9c2>
/home/qemu-sgx/devel/optee/optee_os/lib/libutils/ext/snprintk.c:473
    20d2:	f8d7 20d0 	ldr.w	r2, [r7, #208]	; 0xd0
    20d6:	f102 0304 	add.w	r3, r2, #4
    20da:	f8c7 30d0 	str.w	r3, [r7, #208]	; 0xd0
    20de:	6813      	ldr	r3, [r2, #0]
    20e0:	f04f 0200 	mov.w	r2, #0
    20e4:	4698      	mov	r8, r3
    20e6:	4691      	mov	r9, r2
    20e8:	e01e      	b.n	2128 <kprintf+0xa00>
/home/qemu-sgx/devel/optee/optee_os/lib/libutils/ext/snprintk.c:473 (discriminator 14)
    20ea:	f8d7 309c 	ldr.w	r3, [r7, #156]	; 0x9c
    20ee:	f003 0340 	and.w	r3, r3, #64	; 0x40
    20f2:	2b00      	cmp	r3, #0
    20f4:	d00d      	beq.n	2112 <kprintf+0x9ea>
/home/qemu-sgx/devel/optee/optee_os/lib/libutils/ext/snprintk.c:473
    20f6:	f8d7 20d0 	ldr.w	r2, [r7, #208]	; 0xd0
    20fa:	f102 0304 	add.w	r3, r2, #4
    20fe:	f8c7 30d0 	str.w	r3, [r7, #208]	; 0xd0
    2102:	6813      	ldr	r3, [r2, #0]
    2104:	b29b      	uxth	r3, r3
    2106:	b29b      	uxth	r3, r3
    2108:	f04f 0200 	mov.w	r2, #0
    210c:	4698      	mov	r8, r3
    210e:	4691      	mov	r9, r2
    2110:	e00a      	b.n	2128 <kprintf+0xa00>
    2112:	f8d7 20d0 	ldr.w	r2, [r7, #208]	; 0xd0
    2116:	f102 0304 	add.w	r3, r2, #4
    211a:	f8c7 30d0 	str.w	r3, [r7, #208]	; 0xd0
    211e:	6813      	ldr	r3, [r2, #0]
    2120:	f04f 0200 	mov.w	r2, #0
    2124:	4698      	mov	r8, r3
    2126:	4691      	mov	r9, r2
/home/qemu-sgx/devel/optee/optee_os/lib/libutils/ext/snprintk.c:473 (discriminator 24)
    2128:	e9c7 8920 	strd	r8, r9, [r7, #128]	; 0x80
/home/qemu-sgx/devel/optee/optee_os/lib/libutils/ext/snprintk.c:474 (discriminator 24)
    212c:	f04f 0301 	mov.w	r3, #1
    2130:	67fb      	str	r3, [r7, #124]	; 0x7c
/home/qemu-sgx/devel/optee/optee_os/lib/libutils/ext/snprintk.c:475 (discriminator 24)
    2132:	e09a      	b.n	226a <kprintf+0xb42>
/home/qemu-sgx/devel/optee/optee_os/lib/libutils/ext/snprintk.c:477
    2134:	f8df 35c4 	ldr.w	r3, [pc, #1476]	; 26fc <kprintf+0xfd4>
    2138:	447b      	add	r3, pc
    213a:	66fb      	str	r3, [r7, #108]	; 0x6c
/home/qemu-sgx/devel/optee/optee_os/lib/libutils/ext/snprintk.c:478
    213c:	e003      	b.n	2146 <kprintf+0xa1e>
/home/qemu-sgx/devel/optee/optee_os/lib/libutils/ext/snprintk.c:480
    213e:	f8df 35c0 	ldr.w	r3, [pc, #1472]	; 2700 <kprintf+0xfd8>
    2142:	447b      	add	r3, pc
    2144:	66fb      	str	r3, [r7, #108]	; 0x6c
/home/qemu-sgx/devel/optee/optee_os/lib/libutils/ext/snprintk.c:481
    2146:	f8d7 309c 	ldr.w	r3, [r7, #156]	; 0x9c
    214a:	f003 0380 	and.w	r3, r3, #128	; 0x80
    214e:	2b00      	cmp	r3, #0
    2150:	d00c      	beq.n	216c <kprintf+0xa44>
    2152:	f8d7 30d0 	ldr.w	r3, [r7, #208]	; 0xd0
    2156:	f103 0307 	add.w	r3, r3, #7
    215a:	f023 0207 	bic.w	r2, r3, #7
    215e:	f102 0308 	add.w	r3, r2, #8
    2162:	f8c7 30d0 	str.w	r3, [r7, #208]	; 0xd0
    2166:	e9d2 ab00 	ldrd	sl, fp, [r2]
    216a:	e067      	b.n	223c <kprintf+0xb14>
/home/qemu-sgx/devel/optee/optee_os/lib/libutils/ext/snprintk.c:481 (discriminator 2)
    216c:	f8d7 309c 	ldr.w	r3, [r7, #156]	; 0x9c
    2170:	f403 7380 	and.w	r3, r3, #256	; 0x100
    2174:	2b00      	cmp	r3, #0
    2176:	d00b      	beq.n	2190 <kprintf+0xa68>
/home/qemu-sgx/devel/optee/optee_os/lib/libutils/ext/snprintk.c:481
    2178:	f8d7 20d0 	ldr.w	r2, [r7, #208]	; 0xd0
    217c:	f102 0304 	add.w	r3, r2, #4
    2180:	f8c7 30d0 	str.w	r3, [r7, #208]	; 0xd0
    2184:	6813      	ldr	r3, [r2, #0]
    2186:	f04f 0200 	mov.w	r2, #0
    218a:	469a      	mov	sl, r3
    218c:	4693      	mov	fp, r2
    218e:	e055      	b.n	223c <kprintf+0xb14>
/home/qemu-sgx/devel/optee/optee_os/lib/libutils/ext/snprintk.c:481 (discriminator 5)
    2190:	f8d7 309c 	ldr.w	r3, [r7, #156]	; 0x9c
    2194:	f403 7300 	and.w	r3, r3, #512	; 0x200
    2198:	2b00      	cmp	r3, #0
    219a:	d00b      	beq.n	21b4 <kprintf+0xa8c>
/home/qemu-sgx/devel/optee/optee_os/lib/libutils/ext/snprintk.c:481
    219c:	f8d7 20d0 	ldr.w	r2, [r7, #208]	; 0xd0
    21a0:	f102 0304 	add.w	r3, r2, #4
    21a4:	f8c7 30d0 	str.w	r3, [r7, #208]	; 0xd0
    21a8:	6813      	ldr	r3, [r2, #0]
    21aa:	f04f 0200 	mov.w	r2, #0
    21ae:	469a      	mov	sl, r3
    21b0:	4693      	mov	fp, r2
    21b2:	e043      	b.n	223c <kprintf+0xb14>
/home/qemu-sgx/devel/optee/optee_os/lib/libutils/ext/snprintk.c:481 (discriminator 8)
    21b4:	f8d7 309c 	ldr.w	r3, [r7, #156]	; 0x9c
    21b8:	f003 0320 	and.w	r3, r3, #32
    21bc:	2b00      	cmp	r3, #0
    21be:	d00c      	beq.n	21da <kprintf+0xab2>
/home/qemu-sgx/devel/optee/optee_os/lib/libutils/ext/snprintk.c:481
    21c0:	f8d7 30d0 	ldr.w	r3, [r7, #208]	; 0xd0
    21c4:	f103 0307 	add.w	r3, r3, #7
    21c8:	f023 0207 	bic.w	r2, r3, #7
    21cc:	f102 0308 	add.w	r3, r2, #8
    21d0:	f8c7 30d0 	str.w	r3, [r7, #208]	; 0xd0
    21d4:	e9d2 ab00 	ldrd	sl, fp, [r2]
    21d8:	e030      	b.n	223c <kprintf+0xb14>
/home/qemu-sgx/devel/optee/optee_os/lib/libutils/ext/snprintk.c:481 (discriminator 11)
    21da:	f8d7 309c 	ldr.w	r3, [r7, #156]	; 0x9c
    21de:	f003 0310 	and.w	r3, r3, #16
    21e2:	2b00      	cmp	r3, #0
    21e4:	d00b      	beq.n	21fe <kprintf+0xad6>
/home/qemu-sgx/devel/optee/optee_os/lib/libutils/ext/snprintk.c:481
    21e6:	f8d7 20d0 	ldr.w	r2, [r7, #208]	; 0xd0
    21ea:	f102 0304 	add.w	r3, r2, #4
    21ee:	f8c7 30d0 	str.w	r3, [r7, #208]	; 0xd0
    21f2:	6813      	ldr	r3, [r2, #0]
    21f4:	f04f 0200 	mov.w	r2, #0
    21f8:	469a      	mov	sl, r3
    21fa:	4693      	mov	fp, r2
    21fc:	e01e      	b.n	223c <kprintf+0xb14>
/home/qemu-sgx/devel/optee/optee_os/lib/libutils/ext/snprintk.c:481 (discriminator 14)
    21fe:	f8d7 309c 	ldr.w	r3, [r7, #156]	; 0x9c
    2202:	f003 0340 	and.w	r3, r3, #64	; 0x40
    2206:	2b00      	cmp	r3, #0
    2208:	d00d      	beq.n	2226 <kprintf+0xafe>
/home/qemu-sgx/devel/optee/optee_os/lib/libutils/ext/snprintk.c:481
    220a:	f8d7 20d0 	ldr.w	r2, [r7, #208]	; 0xd0
    220e:	f102 0304 	add.w	r3, r2, #4
    2212:	f8c7 30d0 	str.w	r3, [r7, #208]	; 0xd0
    2216:	6813      	ldr	r3, [r2, #0]
    2218:	b29b      	uxth	r3, r3
    221a:	b29b      	uxth	r3, r3
    221c:	f04f 0200 	mov.w	r2, #0
    2220:	469a      	mov	sl, r3
    2222:	4693      	mov	fp, r2
    2224:	e00a      	b.n	223c <kprintf+0xb14>
    2226:	f8d7 20d0 	ldr.w	r2, [r7, #208]	; 0xd0
    222a:	f102 0304 	add.w	r3, r2, #4
    222e:	f8c7 30d0 	str.w	r3, [r7, #208]	; 0xd0
    2232:	6813      	ldr	r3, [r2, #0]
    2234:	f04f 0200 	mov.w	r2, #0
    2238:	469a      	mov	sl, r3
    223a:	4693      	mov	fp, r2
/home/qemu-sgx/devel/optee/optee_os/lib/libutils/ext/snprintk.c:481 (discriminator 24)
    223c:	e9c7 ab20 	strd	sl, fp, [r7, #128]	; 0x80
/home/qemu-sgx/devel/optee/optee_os/lib/libutils/ext/snprintk.c:482 (discriminator 24)
    2240:	f04f 0302 	mov.w	r3, #2
    2244:	67fb      	str	r3, [r7, #124]	; 0x7c
/home/qemu-sgx/devel/optee/optee_os/lib/libutils/ext/snprintk.c:484 (discriminator 24)
    2246:	f8d7 309c 	ldr.w	r3, [r7, #156]	; 0x9c
    224a:	f003 0301 	and.w	r3, r3, #1
    224e:	2b00      	cmp	r3, #0
    2250:	d00a      	beq.n	2268 <kprintf+0xb40>
/home/qemu-sgx/devel/optee/optee_os/lib/libutils/ext/snprintk.c:484 (discriminator 1)
    2252:	e9d7 2320 	ldrd	r2, r3, [r7, #128]	; 0x80
    2256:	4313      	orrs	r3, r2
    2258:	d006      	beq.n	2268 <kprintf+0xb40>
/home/qemu-sgx/devel/optee/optee_os/lib/libutils/ext/snprintk.c:485
    225a:	f8d7 309c 	ldr.w	r3, [r7, #156]	; 0x9c
    225e:	f043 0302 	orr.w	r3, r3, #2
    2262:	f8c7 309c 	str.w	r3, [r7, #156]	; 0x9c
    2266:	e000      	b.n	226a <kprintf+0xb42>
/home/qemu-sgx/devel/optee/optee_os/lib/libutils/ext/snprintk.c:488
    2268:	bf00      	nop
    226a:	f04f 0300 	mov.w	r3, #0
    226e:	f887 308f 	strb.w	r3, [r7, #143]	; 0x8f
/home/qemu-sgx/devel/optee/optee_os/lib/libutils/ext/snprintk.c:494
    2272:	f8d7 3090 	ldr.w	r3, [r7, #144]	; 0x90
    2276:	67bb      	str	r3, [r7, #120]	; 0x78
    2278:	6fbb      	ldr	r3, [r7, #120]	; 0x78
    227a:	2b00      	cmp	r3, #0
    227c:	db05      	blt.n	228a <kprintf+0xb62>
/home/qemu-sgx/devel/optee/optee_os/lib/libutils/ext/snprintk.c:495
    227e:	f8d7 309c 	ldr.w	r3, [r7, #156]	; 0x9c
    2282:	f423 6380 	bic.w	r3, r3, #1024	; 0x400
    2286:	f8c7 309c 	str.w	r3, [r7, #156]	; 0x9c
/home/qemu-sgx/devel/optee/optee_os/lib/libutils/ext/snprintk.c:502
    228a:	f107 033c 	add.w	r3, r7, #60	; 0x3c
    228e:	f103 0325 	add.w	r3, r3, #37	; 0x25
    2292:	f8c7 30a0 	str.w	r3, [r7, #160]	; 0xa0
/home/qemu-sgx/devel/optee/optee_os/lib/libutils/ext/snprintk.c:503
    2296:	e9d7 2320 	ldrd	r2, r3, [r7, #128]	; 0x80
    229a:	4313      	orrs	r3, r2
    229c:	d104      	bne.n	22a8 <kprintf+0xb80>
/home/qemu-sgx/devel/optee/optee_os/lib/libutils/ext/snprintk.c:503 (discriminator 1)
    229e:	f8d7 3090 	ldr.w	r3, [r7, #144]	; 0x90
    22a2:	2b00      	cmp	r3, #0
    22a4:	f000 80af 	beq.w	2406 <kprintf+0xcde>
    22a8:	6ffb      	ldr	r3, [r7, #124]	; 0x7c
    22aa:	2b02      	cmp	r3, #2
    22ac:	d07c      	beq.n	23a8 <kprintf+0xc80>
    22ae:	6ffb      	ldr	r3, [r7, #124]	; 0x7c
    22b0:	2b02      	cmp	r3, #2
    22b2:	f200 809c 	bhi.w	23ee <kprintf+0xcc6>
    22b6:	6ffb      	ldr	r3, [r7, #124]	; 0x7c
    22b8:	2b00      	cmp	r3, #0
    22ba:	d004      	beq.n	22c6 <kprintf+0xb9e>
    22bc:	6ffb      	ldr	r3, [r7, #124]	; 0x7c
    22be:	2b01      	cmp	r3, #1
    22c0:	d05c      	beq.n	237c <kprintf+0xc54>
    22c2:	e094      	b.n	23ee <kprintf+0xcc6>
/home/qemu-sgx/devel/optee/optee_os/lib/libutils/ext/snprintk.c:510
    22c4:	bf00      	nop
/home/qemu-sgx/devel/optee/optee_os/lib/libutils/ext/snprintk.c:512 (discriminator 1)
    22c6:	f897 3080 	ldrb.w	r3, [r7, #128]	; 0x80
    22ca:	f003 0307 	and.w	r3, r3, #7
    22ce:	b2da      	uxtb	r2, r3
    22d0:	f8d7 30a0 	ldr.w	r3, [r7, #160]	; 0xa0
    22d4:	f103 33ff 	add.w	r3, r3, #4294967295	; 0xffffffff
    22d8:	f8c7 30a0 	str.w	r3, [r7, #160]	; 0xa0
    22dc:	f102 0330 	add.w	r3, r2, #48	; 0x30
    22e0:	b2db      	uxtb	r3, r3
    22e2:	f8d7 20a0 	ldr.w	r2, [r7, #160]	; 0xa0
    22e6:	7013      	strb	r3, [r2, #0]
/home/qemu-sgx/devel/optee/optee_os/lib/libutils/ext/snprintk.c:513 (discriminator 1)
    22e8:	e9d7 2320 	ldrd	r2, r3, [r7, #128]	; 0x80
    22ec:	f04f 0000 	mov.w	r0, #0
    22f0:	f04f 0100 	mov.w	r1, #0
    22f4:	ea4f 00d2 	mov.w	r0, r2, lsr #3
    22f8:	ea40 7043 	orr.w	r0, r0, r3, lsl #29
    22fc:	ea4f 01d3 	mov.w	r1, r3, lsr #3
    2300:	e9c7 0120 	strd	r0, r1, [r7, #128]	; 0x80
/home/qemu-sgx/devel/optee/optee_os/lib/libutils/ext/snprintk.c:514 (discriminator 1)
    2304:	e9d7 2320 	ldrd	r2, r3, [r7, #128]	; 0x80
    2308:	4313      	orrs	r3, r2
    230a:	d1db      	bne.n	22c4 <kprintf+0xb9c>
/home/qemu-sgx/devel/optee/optee_os/lib/libutils/ext/snprintk.c:516
    230c:	f8d7 309c 	ldr.w	r3, [r7, #156]	; 0x9c
    2310:	f003 0301 	and.w	r3, r3, #1
    2314:	2b00      	cmp	r3, #0
    2316:	d078      	beq.n	240a <kprintf+0xce2>
/home/qemu-sgx/devel/optee/optee_os/lib/libutils/ext/snprintk.c:516 (discriminator 1)
    2318:	f8d7 30a0 	ldr.w	r3, [r7, #160]	; 0xa0
    231c:	781b      	ldrb	r3, [r3, #0]
    231e:	2b30      	cmp	r3, #48	; 0x30
    2320:	d073      	beq.n	240a <kprintf+0xce2>
/home/qemu-sgx/devel/optee/optee_os/lib/libutils/ext/snprintk.c:517
    2322:	f8d7 30a0 	ldr.w	r3, [r7, #160]	; 0xa0
    2326:	f103 33ff 	add.w	r3, r3, #4294967295	; 0xffffffff
    232a:	f8c7 30a0 	str.w	r3, [r7, #160]	; 0xa0
    232e:	f8d7 20a0 	ldr.w	r2, [r7, #160]	; 0xa0
    2332:	f04f 0330 	mov.w	r3, #48	; 0x30
    2336:	7013      	strb	r3, [r2, #0]
/home/qemu-sgx/devel/optee/optee_os/lib/libutils/ext/snprintk.c:518
    2338:	e067      	b.n	240a <kprintf+0xce2>
/home/qemu-sgx/devel/optee/optee_os/lib/libutils/ext/snprintk.c:523
    233a:	e9d7 0120 	ldrd	r0, r1, [r7, #128]	; 0x80
    233e:	f04f 020a 	mov.w	r2, #10
    2342:	f04f 0300 	mov.w	r3, #0
    2346:	f000 e9ec 	blx	2720 <__aeabi_uldivmod>
    234a:	b2d2      	uxtb	r2, r2
    234c:	f8d7 30a0 	ldr.w	r3, [r7, #160]	; 0xa0
    2350:	f103 33ff 	add.w	r3, r3, #4294967295	; 0xffffffff
    2354:	f8c7 30a0 	str.w	r3, [r7, #160]	; 0xa0
    2358:	f102 0330 	add.w	r3, r2, #48	; 0x30
    235c:	b2db      	uxtb	r3, r3
    235e:	f8d7 20a0 	ldr.w	r2, [r7, #160]	; 0xa0
    2362:	7013      	strb	r3, [r2, #0]
/home/qemu-sgx/devel/optee/optee_os/lib/libutils/ext/snprintk.c:524
    2364:	e9d7 0120 	ldrd	r0, r1, [r7, #128]	; 0x80
    2368:	f04f 020a 	mov.w	r2, #10
    236c:	f04f 0300 	mov.w	r3, #0
    2370:	f000 e9d6 	blx	2720 <__aeabi_uldivmod>
    2374:	4602      	mov	r2, r0
    2376:	460b      	mov	r3, r1
    2378:	e9c7 2320 	strd	r2, r3, [r7, #128]	; 0x80
/home/qemu-sgx/devel/optee/optee_os/lib/libutils/ext/snprintk.c:522
    237c:	e9d7 2320 	ldrd	r2, r3, [r7, #128]	; 0x80
    2380:	2a0a      	cmp	r2, #10
    2382:	f173 0300 	sbcs.w	r3, r3, #0
    2386:	d2d8      	bcs.n	233a <kprintf+0xc12>
/home/qemu-sgx/devel/optee/optee_os/lib/libutils/ext/snprintk.c:526
    2388:	f897 2080 	ldrb.w	r2, [r7, #128]	; 0x80
    238c:	f8d7 30a0 	ldr.w	r3, [r7, #160]	; 0xa0
    2390:	f103 33ff 	add.w	r3, r3, #4294967295	; 0xffffffff
    2394:	f8c7 30a0 	str.w	r3, [r7, #160]	; 0xa0
    2398:	f102 0330 	add.w	r3, r2, #48	; 0x30
    239c:	b2db      	uxtb	r3, r3
    239e:	f8d7 20a0 	ldr.w	r2, [r7, #160]	; 0xa0
    23a2:	7013      	strb	r3, [r2, #0]
/home/qemu-sgx/devel/optee/optee_os/lib/libutils/ext/snprintk.c:527
    23a4:	e032      	b.n	240c <kprintf+0xce4>
/home/qemu-sgx/devel/optee/optee_os/lib/libutils/ext/snprintk.c:529
    23a6:	bf00      	nop
/home/qemu-sgx/devel/optee/optee_os/lib/libutils/ext/snprintk.c:531 (discriminator 1)
    23a8:	f8d7 3080 	ldr.w	r3, [r7, #128]	; 0x80
    23ac:	f003 020f 	and.w	r2, r3, #15
    23b0:	6efb      	ldr	r3, [r7, #108]	; 0x6c
    23b2:	441a      	add	r2, r3
    23b4:	f8d7 30a0 	ldr.w	r3, [r7, #160]	; 0xa0
    23b8:	f103 33ff 	add.w	r3, r3, #4294967295	; 0xffffffff
    23bc:	f8c7 30a0 	str.w	r3, [r7, #160]	; 0xa0
    23c0:	7813      	ldrb	r3, [r2, #0]
    23c2:	f8d7 20a0 	ldr.w	r2, [r7, #160]	; 0xa0
    23c6:	7013      	strb	r3, [r2, #0]
/home/qemu-sgx/devel/optee/optee_os/lib/libutils/ext/snprintk.c:532 (discriminator 1)
    23c8:	e9d7 2320 	ldrd	r2, r3, [r7, #128]	; 0x80
    23cc:	f04f 0000 	mov.w	r0, #0
    23d0:	f04f 0100 	mov.w	r1, #0
    23d4:	ea4f 1012 	mov.w	r0, r2, lsr #4
    23d8:	ea40 7003 	orr.w	r0, r0, r3, lsl #28
    23dc:	ea4f 1113 	mov.w	r1, r3, lsr #4
    23e0:	e9c7 0120 	strd	r0, r1, [r7, #128]	; 0x80
/home/qemu-sgx/devel/optee/optee_os/lib/libutils/ext/snprintk.c:533 (discriminator 1)
    23e4:	e9d7 2320 	ldrd	r2, r3, [r7, #128]	; 0x80
    23e8:	4313      	orrs	r3, r2
    23ea:	d1dc      	bne.n	23a6 <kprintf+0xc7e>
/home/qemu-sgx/devel/optee/optee_os/lib/libutils/ext/snprintk.c:534
    23ec:	e00e      	b.n	240c <kprintf+0xce4>
/home/qemu-sgx/devel/optee/optee_os/lib/libutils/ext/snprintk.c:538
    23ee:	4bc5      	ldr	r3, [pc, #788]	; (2704 <kprintf+0xfdc>)
    23f0:	447b      	add	r3, pc
    23f2:	f8c7 30a0 	str.w	r3, [r7, #160]	; 0xa0
/home/qemu-sgx/devel/optee/optee_os/lib/libutils/ext/snprintk.c:539
    23f6:	f8d7 00a0 	ldr.w	r0, [r7, #160]	; 0xa0
    23fa:	f010 fba9 	bl	12b50 <strlen>
    23fe:	4603      	mov	r3, r0
    2400:	673b      	str	r3, [r7, #112]	; 0x70
/home/qemu-sgx/devel/optee/optee_os/lib/libutils/ext/snprintk.c:540
    2402:	bf00      	nop
/home/qemu-sgx/devel/optee/optee_os/lib/libutils/ext/snprintk.c:545
    2404:	e023      	b.n	244e <kprintf+0xd26>
/home/qemu-sgx/devel/optee/optee_os/lib/libutils/ext/snprintk.c:542
    2406:	bf00      	nop
    2408:	e000      	b.n	240c <kprintf+0xce4>
/home/qemu-sgx/devel/optee/optee_os/lib/libutils/ext/snprintk.c:518
    240a:	bf00      	nop
/home/qemu-sgx/devel/optee/optee_os/lib/libutils/ext/snprintk.c:543
    240c:	f107 023c 	add.w	r2, r7, #60	; 0x3c
    2410:	f102 0225 	add.w	r2, r2, #37	; 0x25
    2414:	f8d7 30a0 	ldr.w	r3, [r7, #160]	; 0xa0
    2418:	eba2 0303 	sub.w	r3, r2, r3
    241c:	673b      	str	r3, [r7, #112]	; 0x70
/home/qemu-sgx/devel/optee/optee_os/lib/libutils/ext/snprintk.c:545
    241e:	e016      	b.n	244e <kprintf+0xd26>
/home/qemu-sgx/devel/optee/optee_os/lib/libutils/ext/snprintk.c:547
    2420:	f8d7 30a8 	ldr.w	r3, [r7, #168]	; 0xa8
    2424:	2b00      	cmp	r3, #0
    2426:	f000 814b 	beq.w	26c0 <kprintf+0xf98>
/home/qemu-sgx/devel/optee/optee_os/lib/libutils/ext/snprintk.c:550
    242a:	f107 033c 	add.w	r3, r7, #60	; 0x3c
    242e:	f8c7 30a0 	str.w	r3, [r7, #160]	; 0xa0
/home/qemu-sgx/devel/optee/optee_os/lib/libutils/ext/snprintk.c:551
    2432:	f8d7 30a8 	ldr.w	r3, [r7, #168]	; 0xa8
    2436:	b2db      	uxtb	r3, r3
    2438:	f8d7 20a0 	ldr.w	r2, [r7, #160]	; 0xa0
    243c:	7013      	strb	r3, [r2, #0]
/home/qemu-sgx/devel/optee/optee_os/lib/libutils/ext/snprintk.c:552
    243e:	f04f 0301 	mov.w	r3, #1
    2442:	673b      	str	r3, [r7, #112]	; 0x70
/home/qemu-sgx/devel/optee/optee_os/lib/libutils/ext/snprintk.c:553
    2444:	f04f 0300 	mov.w	r3, #0
    2448:	f887 308f 	strb.w	r3, [r7, #143]	; 0x8f
/home/qemu-sgx/devel/optee/optee_os/lib/libutils/ext/snprintk.c:554
    244c:	bf00      	nop
/home/qemu-sgx/devel/optee/optee_os/lib/libutils/ext/snprintk.c:571
    244e:	6f3a      	ldr	r2, [r7, #112]	; 0x70
    2450:	6fbb      	ldr	r3, [r7, #120]	; 0x78
    2452:	4293      	cmp	r3, r2
    2454:	bfb8      	it	lt
    2456:	4613      	movlt	r3, r2
    2458:	677b      	str	r3, [r7, #116]	; 0x74
/home/qemu-sgx/devel/optee/optee_os/lib/libutils/ext/snprintk.c:572
    245a:	f897 308f 	ldrb.w	r3, [r7, #143]	; 0x8f
    245e:	2b00      	cmp	r3, #0
    2460:	d004      	beq.n	246c <kprintf+0xd44>
/home/qemu-sgx/devel/optee/optee_os/lib/libutils/ext/snprintk.c:573
    2462:	6f7b      	ldr	r3, [r7, #116]	; 0x74
    2464:	f103 0301 	add.w	r3, r3, #1
    2468:	677b      	str	r3, [r7, #116]	; 0x74
    246a:	e009      	b.n	2480 <kprintf+0xd58>
/home/qemu-sgx/devel/optee/optee_os/lib/libutils/ext/snprintk.c:574
    246c:	f8d7 309c 	ldr.w	r3, [r7, #156]	; 0x9c
    2470:	f003 0302 	and.w	r3, r3, #2
    2474:	2b00      	cmp	r3, #0
    2476:	d003      	beq.n	2480 <kprintf+0xd58>
/home/qemu-sgx/devel/optee/optee_os/lib/libutils/ext/snprintk.c:575
    2478:	6f7b      	ldr	r3, [r7, #116]	; 0x74
    247a:	f103 0302 	add.w	r3, r3, #2
    247e:	677b      	str	r3, [r7, #116]	; 0x74
/home/qemu-sgx/devel/optee/optee_os/lib/libutils/ext/snprintk.c:578
    2480:	6f7a      	ldr	r2, [r7, #116]	; 0x74
    2482:	f8d7 3094 	ldr.w	r3, [r7, #148]	; 0x94
    2486:	429a      	cmp	r2, r3
    2488:	bfb8      	it	lt
    248a:	461a      	movlt	r2, r3
    248c:	f8d7 3098 	ldr.w	r3, [r7, #152]	; 0x98
    2490:	4413      	add	r3, r2
    2492:	f8c7 3098 	str.w	r3, [r7, #152]	; 0x98
/home/qemu-sgx/devel/optee/optee_os/lib/libutils/ext/snprintk.c:581
    2496:	f8d7 209c 	ldr.w	r2, [r7, #156]	; 0x9c
    249a:	f240 4304 	movw	r3, #1028	; 0x404
    249e:	ea03 0302 	and.w	r3, r3, r2
    24a2:	2b00      	cmp	r3, #0
    24a4:	d123      	bne.n	24ee <kprintf+0xdc6>
/home/qemu-sgx/devel/optee/optee_os/lib/libutils/ext/snprintk.c:582
    24a6:	f8d7 2094 	ldr.w	r2, [r7, #148]	; 0x94
    24aa:	6f7b      	ldr	r3, [r7, #116]	; 0x74
    24ac:	eba2 0303 	sub.w	r3, r2, r3
    24b0:	f8c7 30a4 	str.w	r3, [r7, #164]	; 0xa4
/home/qemu-sgx/devel/optee/optee_os/lib/libutils/ext/snprintk.c:583
    24b4:	e013      	b.n	24de <kprintf+0xdb6>
/home/qemu-sgx/devel/optee/optee_os/lib/libutils/ext/snprintk.c:584
    24b6:	6b3b      	ldr	r3, [r7, #48]	; 0x30
    24b8:	2b08      	cmp	r3, #8
    24ba:	d110      	bne.n	24de <kprintf+0xdb6>
/home/qemu-sgx/devel/optee/optee_os/lib/libutils/ext/snprintk.c:584 (discriminator 1)
    24bc:	6abb      	ldr	r3, [r7, #40]	; 0x28
    24be:	2b00      	cmp	r3, #0
    24c0:	d00d      	beq.n	24de <kprintf+0xdb6>
/home/qemu-sgx/devel/optee/optee_os/lib/libutils/ext/snprintk.c:584 (discriminator 2)
    24c2:	6afb      	ldr	r3, [r7, #44]	; 0x2c
    24c4:	2b00      	cmp	r3, #0
    24c6:	d003      	beq.n	24d0 <kprintf+0xda8>
/home/qemu-sgx/devel/optee/optee_os/lib/libutils/ext/snprintk.c:584 (discriminator 4)
    24c8:	6aba      	ldr	r2, [r7, #40]	; 0x28
    24ca:	6ebb      	ldr	r3, [r7, #104]	; 0x68
    24cc:	429a      	cmp	r2, r3
    24ce:	d206      	bcs.n	24de <kprintf+0xdb6>
/home/qemu-sgx/devel/optee/optee_os/lib/libutils/ext/snprintk.c:584 (discriminator 5)
    24d0:	6aba      	ldr	r2, [r7, #40]	; 0x28
    24d2:	f102 0301 	add.w	r3, r2, #1
    24d6:	62bb      	str	r3, [r7, #40]	; 0x28
    24d8:	f04f 0320 	mov.w	r3, #32
    24dc:	7013      	strb	r3, [r2, #0]
/home/qemu-sgx/devel/optee/optee_os/lib/libutils/ext/snprintk.c:583
    24de:	f8d7 20a4 	ldr.w	r2, [r7, #164]	; 0xa4
    24e2:	f102 33ff 	add.w	r3, r2, #4294967295	; 0xffffffff
    24e6:	f8c7 30a4 	str.w	r3, [r7, #164]	; 0xa4
    24ea:	2a00      	cmp	r2, #0
    24ec:	dce3      	bgt.n	24b6 <kprintf+0xd8e>
/home/qemu-sgx/devel/optee/optee_os/lib/libutils/ext/snprintk.c:588
    24ee:	f897 308f 	ldrb.w	r3, [r7, #143]	; 0x8f
    24f2:	2b00      	cmp	r3, #0
    24f4:	d014      	beq.n	2520 <kprintf+0xdf8>
/home/qemu-sgx/devel/optee/optee_os/lib/libutils/ext/snprintk.c:589
    24f6:	6b3b      	ldr	r3, [r7, #48]	; 0x30
    24f8:	2b08      	cmp	r3, #8
    24fa:	d140      	bne.n	257e <kprintf+0xe56>
/home/qemu-sgx/devel/optee/optee_os/lib/libutils/ext/snprintk.c:589 (discriminator 1)
    24fc:	6abb      	ldr	r3, [r7, #40]	; 0x28
    24fe:	2b00      	cmp	r3, #0
    2500:	d03d      	beq.n	257e <kprintf+0xe56>
/home/qemu-sgx/devel/optee/optee_os/lib/libutils/ext/snprintk.c:589 (discriminator 2)
    2502:	6afb      	ldr	r3, [r7, #44]	; 0x2c
    2504:	2b00      	cmp	r3, #0
    2506:	d003      	beq.n	2510 <kprintf+0xde8>
/home/qemu-sgx/devel/optee/optee_os/lib/libutils/ext/snprintk.c:589 (discriminator 4)
    2508:	6aba      	ldr	r2, [r7, #40]	; 0x28
    250a:	6ebb      	ldr	r3, [r7, #104]	; 0x68
    250c:	429a      	cmp	r2, r3
    250e:	d236      	bcs.n	257e <kprintf+0xe56>
/home/qemu-sgx/devel/optee/optee_os/lib/libutils/ext/snprintk.c:589 (discriminator 5)
    2510:	6aba      	ldr	r2, [r7, #40]	; 0x28
    2512:	f102 0301 	add.w	r3, r2, #1
    2516:	62bb      	str	r3, [r7, #40]	; 0x28
    2518:	f897 308f 	ldrb.w	r3, [r7, #143]	; 0x8f
    251c:	7013      	strb	r3, [r2, #0]
    251e:	e02e      	b.n	257e <kprintf+0xe56>
/home/qemu-sgx/devel/optee/optee_os/lib/libutils/ext/snprintk.c:590
    2520:	f8d7 309c 	ldr.w	r3, [r7, #156]	; 0x9c
    2524:	f003 0302 	and.w	r3, r3, #2
    2528:	2b00      	cmp	r3, #0
    252a:	d028      	beq.n	257e <kprintf+0xe56>
/home/qemu-sgx/devel/optee/optee_os/lib/libutils/ext/snprintk.c:591
    252c:	6b3b      	ldr	r3, [r7, #48]	; 0x30
    252e:	2b08      	cmp	r3, #8
    2530:	d110      	bne.n	2554 <kprintf+0xe2c>
/home/qemu-sgx/devel/optee/optee_os/lib/libutils/ext/snprintk.c:591 (discriminator 1)
    2532:	6abb      	ldr	r3, [r7, #40]	; 0x28
    2534:	2b00      	cmp	r3, #0
    2536:	d00d      	beq.n	2554 <kprintf+0xe2c>
/home/qemu-sgx/devel/optee/optee_os/lib/libutils/ext/snprintk.c:591 (discriminator 2)
    2538:	6afb      	ldr	r3, [r7, #44]	; 0x2c
    253a:	2b00      	cmp	r3, #0
    253c:	d003      	beq.n	2546 <kprintf+0xe1e>
/home/qemu-sgx/devel/optee/optee_os/lib/libutils/ext/snprintk.c:591 (discriminator 4)
    253e:	6aba      	ldr	r2, [r7, #40]	; 0x28
    2540:	6ebb      	ldr	r3, [r7, #104]	; 0x68
    2542:	429a      	cmp	r2, r3
    2544:	d206      	bcs.n	2554 <kprintf+0xe2c>
/home/qemu-sgx/devel/optee/optee_os/lib/libutils/ext/snprintk.c:591 (discriminator 5)
    2546:	6aba      	ldr	r2, [r7, #40]	; 0x28
    2548:	f102 0301 	add.w	r3, r2, #1
    254c:	62bb      	str	r3, [r7, #40]	; 0x28
    254e:	f04f 0330 	mov.w	r3, #48	; 0x30
    2552:	7013      	strb	r3, [r2, #0]
/home/qemu-sgx/devel/optee/optee_os/lib/libutils/ext/snprintk.c:592
    2554:	6b3b      	ldr	r3, [r7, #48]	; 0x30
    2556:	2b08      	cmp	r3, #8
    2558:	d111      	bne.n	257e <kprintf+0xe56>
/home/qemu-sgx/devel/optee/optee_os/lib/libutils/ext/snprintk.c:592 (discriminator 1)
    255a:	6abb      	ldr	r3, [r7, #40]	; 0x28
    255c:	2b00      	cmp	r3, #0
    255e:	d00e      	beq.n	257e <kprintf+0xe56>
/home/qemu-sgx/devel/optee/optee_os/lib/libutils/ext/snprintk.c:592 (discriminator 2)
    2560:	6afb      	ldr	r3, [r7, #44]	; 0x2c
    2562:	2b00      	cmp	r3, #0
    2564:	d003      	beq.n	256e <kprintf+0xe46>
/home/qemu-sgx/devel/optee/optee_os/lib/libutils/ext/snprintk.c:592 (discriminator 4)
    2566:	6aba      	ldr	r2, [r7, #40]	; 0x28
    2568:	6ebb      	ldr	r3, [r7, #104]	; 0x68
    256a:	429a      	cmp	r2, r3
    256c:	d207      	bcs.n	257e <kprintf+0xe56>
/home/qemu-sgx/devel/optee/optee_os/lib/libutils/ext/snprintk.c:592 (discriminator 5)
    256e:	6aba      	ldr	r2, [r7, #40]	; 0x28
    2570:	f102 0301 	add.w	r3, r2, #1
    2574:	62bb      	str	r3, [r7, #40]	; 0x28
    2576:	f8d7 30a8 	ldr.w	r3, [r7, #168]	; 0xa8
    257a:	b2db      	uxtb	r3, r3
    257c:	7013      	strb	r3, [r2, #0]
/home/qemu-sgx/devel/optee/optee_os/lib/libutils/ext/snprintk.c:596
    257e:	f8d7 209c 	ldr.w	r2, [r7, #156]	; 0x9c
    2582:	f240 4304 	movw	r3, #1028	; 0x404
    2586:	ea03 0302 	and.w	r3, r3, r2
    258a:	f5b3 6f80 	cmp.w	r3, #1024	; 0x400
    258e:	d123      	bne.n	25d8 <kprintf+0xeb0>
/home/qemu-sgx/devel/optee/optee_os/lib/libutils/ext/snprintk.c:597
    2590:	f8d7 2094 	ldr.w	r2, [r7, #148]	; 0x94
    2594:	6f7b      	ldr	r3, [r7, #116]	; 0x74
    2596:	eba2 0303 	sub.w	r3, r2, r3
    259a:	f8c7 30a4 	str.w	r3, [r7, #164]	; 0xa4
/home/qemu-sgx/devel/optee/optee_os/lib/libutils/ext/snprintk.c:598
    259e:	e013      	b.n	25c8 <kprintf+0xea0>
/home/qemu-sgx/devel/optee/optee_os/lib/libutils/ext/snprintk.c:599
    25a0:	6b3b      	ldr	r3, [r7, #48]	; 0x30
    25a2:	2b08      	cmp	r3, #8
    25a4:	d110      	bne.n	25c8 <kprintf+0xea0>
/home/qemu-sgx/devel/optee/optee_os/lib/libutils/ext/snprintk.c:599 (discriminator 1)
    25a6:	6abb      	ldr	r3, [r7, #40]	; 0x28
    25a8:	2b00      	cmp	r3, #0
    25aa:	d00d      	beq.n	25c8 <kprintf+0xea0>
/home/qemu-sgx/devel/optee/optee_os/lib/libutils/ext/snprintk.c:599 (discriminator 2)
    25ac:	6afb      	ldr	r3, [r7, #44]	; 0x2c
    25ae:	2b00      	cmp	r3, #0
    25b0:	d003      	beq.n	25ba <kprintf+0xe92>
/home/qemu-sgx/devel/optee/optee_os/lib/libutils/ext/snprintk.c:599 (discriminator 4)
    25b2:	6aba      	ldr	r2, [r7, #40]	; 0x28
    25b4:	6ebb      	ldr	r3, [r7, #104]	; 0x68
    25b6:	429a      	cmp	r2, r3
    25b8:	d206      	bcs.n	25c8 <kprintf+0xea0>
/home/qemu-sgx/devel/optee/optee_os/lib/libutils/ext/snprintk.c:599 (discriminator 5)
    25ba:	6aba      	ldr	r2, [r7, #40]	; 0x28
    25bc:	f102 0301 	add.w	r3, r2, #1
    25c0:	62bb      	str	r3, [r7, #40]	; 0x28
    25c2:	f04f 0330 	mov.w	r3, #48	; 0x30
    25c6:	7013      	strb	r3, [r2, #0]
/home/qemu-sgx/devel/optee/optee_os/lib/libutils/ext/snprintk.c:598
    25c8:	f8d7 20a4 	ldr.w	r2, [r7, #164]	; 0xa4
    25cc:	f102 33ff 	add.w	r3, r2, #4294967295	; 0xffffffff
    25d0:	f8c7 30a4 	str.w	r3, [r7, #164]	; 0xa4
    25d4:	2a00      	cmp	r2, #0
    25d6:	dce3      	bgt.n	25a0 <kprintf+0xe78>
/home/qemu-sgx/devel/optee/optee_os/lib/libutils/ext/snprintk.c:603
    25d8:	6fba      	ldr	r2, [r7, #120]	; 0x78
    25da:	6f3b      	ldr	r3, [r7, #112]	; 0x70
    25dc:	eba2 0303 	sub.w	r3, r2, r3
    25e0:	f8c7 30a4 	str.w	r3, [r7, #164]	; 0xa4
/home/qemu-sgx/devel/optee/optee_os/lib/libutils/ext/snprintk.c:604
    25e4:	e013      	b.n	260e <kprintf+0xee6>
/home/qemu-sgx/devel/optee/optee_os/lib/libutils/ext/snprintk.c:605
    25e6:	6b3b      	ldr	r3, [r7, #48]	; 0x30
    25e8:	2b08      	cmp	r3, #8
    25ea:	d110      	bne.n	260e <kprintf+0xee6>
/home/qemu-sgx/devel/optee/optee_os/lib/libutils/ext/snprintk.c:605 (discriminator 1)
    25ec:	6abb      	ldr	r3, [r7, #40]	; 0x28
    25ee:	2b00      	cmp	r3, #0
    25f0:	d00d      	beq.n	260e <kprintf+0xee6>
/home/qemu-sgx/devel/optee/optee_os/lib/libutils/ext/snprintk.c:605 (discriminator 2)
    25f2:	6afb      	ldr	r3, [r7, #44]	; 0x2c
    25f4:	2b00      	cmp	r3, #0
    25f6:	d003      	beq.n	2600 <kprintf+0xed8>
/home/qemu-sgx/devel/optee/optee_os/lib/libutils/ext/snprintk.c:605 (discriminator 4)
    25f8:	6aba      	ldr	r2, [r7, #40]	; 0x28
    25fa:	6ebb      	ldr	r3, [r7, #104]	; 0x68
    25fc:	429a      	cmp	r2, r3
    25fe:	d206      	bcs.n	260e <kprintf+0xee6>
/home/qemu-sgx/devel/optee/optee_os/lib/libutils/ext/snprintk.c:605 (discriminator 5)
    2600:	6aba      	ldr	r2, [r7, #40]	; 0x28
    2602:	f102 0301 	add.w	r3, r2, #1
    2606:	62bb      	str	r3, [r7, #40]	; 0x28
    2608:	f04f 0330 	mov.w	r3, #48	; 0x30
    260c:	7013      	strb	r3, [r2, #0]
/home/qemu-sgx/devel/optee/optee_os/lib/libutils/ext/snprintk.c:604
    260e:	f8d7 20a4 	ldr.w	r2, [r7, #164]	; 0xa4
    2612:	f102 33ff 	add.w	r3, r2, #4294967295	; 0xffffffff
    2616:	f8c7 30a4 	str.w	r3, [r7, #164]	; 0xa4
    261a:	2a00      	cmp	r2, #0
    261c:	dce3      	bgt.n	25e6 <kprintf+0xebe>
/home/qemu-sgx/devel/optee/optee_os/lib/libutils/ext/snprintk.c:608
    261e:	e01a      	b.n	2656 <kprintf+0xf2e>
/home/qemu-sgx/devel/optee/optee_os/lib/libutils/ext/snprintk.c:609
    2620:	6b3b      	ldr	r3, [r7, #48]	; 0x30
    2622:	2b08      	cmp	r3, #8
    2624:	d111      	bne.n	264a <kprintf+0xf22>
/home/qemu-sgx/devel/optee/optee_os/lib/libutils/ext/snprintk.c:609 (discriminator 1)
    2626:	6abb      	ldr	r3, [r7, #40]	; 0x28
    2628:	2b00      	cmp	r3, #0
    262a:	d00e      	beq.n	264a <kprintf+0xf22>
/home/qemu-sgx/devel/optee/optee_os/lib/libutils/ext/snprintk.c:609 (discriminator 2)
    262c:	6afb      	ldr	r3, [r7, #44]	; 0x2c
    262e:	2b00      	cmp	r3, #0
    2630:	d003      	beq.n	263a <kprintf+0xf12>
/home/qemu-sgx/devel/optee/optee_os/lib/libutils/ext/snprintk.c:609 (discriminator 4)
    2632:	6aba      	ldr	r2, [r7, #40]	; 0x28
    2634:	6ebb      	ldr	r3, [r7, #104]	; 0x68
    2636:	429a      	cmp	r2, r3
    2638:	d207      	bcs.n	264a <kprintf+0xf22>
/home/qemu-sgx/devel/optee/optee_os/lib/libutils/ext/snprintk.c:609 (discriminator 5)
    263a:	6aba      	ldr	r2, [r7, #40]	; 0x28
    263c:	f102 0301 	add.w	r3, r2, #1
    2640:	62bb      	str	r3, [r7, #40]	; 0x28
    2642:	f8d7 30a0 	ldr.w	r3, [r7, #160]	; 0xa0
    2646:	781b      	ldrb	r3, [r3, #0]
    2648:	7013      	strb	r3, [r2, #0]
/home/qemu-sgx/devel/optee/optee_os/lib/libutils/ext/snprintk.c:608
    264a:	f8d7 30a0 	ldr.w	r3, [r7, #160]	; 0xa0
    264e:	f103 0301 	add.w	r3, r3, #1
    2652:	f8c7 30a0 	str.w	r3, [r7, #160]	; 0xa0
/home/qemu-sgx/devel/optee/optee_os/lib/libutils/ext/snprintk.c:608 (discriminator 1)
    2656:	6f3a      	ldr	r2, [r7, #112]	; 0x70
    2658:	f102 33ff 	add.w	r3, r2, #4294967295	; 0xffffffff
    265c:	673b      	str	r3, [r7, #112]	; 0x70
    265e:	2a00      	cmp	r2, #0
    2660:	d1de      	bne.n	2620 <kprintf+0xef8>
/home/qemu-sgx/devel/optee/optee_os/lib/libutils/ext/snprintk.c:611
    2662:	f8d7 309c 	ldr.w	r3, [r7, #156]	; 0x9c
    2666:	f003 0304 	and.w	r3, r3, #4
    266a:	2b00      	cmp	r3, #0
    266c:	f43f a8aa 	beq.w	17c4 <kprintf+0x9c>
/home/qemu-sgx/devel/optee/optee_os/lib/libutils/ext/snprintk.c:612
    2670:	f8d7 2094 	ldr.w	r2, [r7, #148]	; 0x94
    2674:	6f7b      	ldr	r3, [r7, #116]	; 0x74
    2676:	eba2 0303 	sub.w	r3, r2, r3
    267a:	f8c7 30a4 	str.w	r3, [r7, #164]	; 0xa4
/home/qemu-sgx/devel/optee/optee_os/lib/libutils/ext/snprintk.c:613
    267e:	e013      	b.n	26a8 <kprintf+0xf80>
/home/qemu-sgx/devel/optee/optee_os/lib/libutils/ext/snprintk.c:614
    2680:	6b3b      	ldr	r3, [r7, #48]	; 0x30
    2682:	2b08      	cmp	r3, #8
    2684:	d110      	bne.n	26a8 <kprintf+0xf80>
/home/qemu-sgx/devel/optee/optee_os/lib/libutils/ext/snprintk.c:614 (discriminator 1)
    2686:	6abb      	ldr	r3, [r7, #40]	; 0x28
    2688:	2b00      	cmp	r3, #0
    268a:	d00d      	beq.n	26a8 <kprintf+0xf80>
/home/qemu-sgx/devel/optee/optee_os/lib/libutils/ext/snprintk.c:614 (discriminator 2)
    268c:	6afb      	ldr	r3, [r7, #44]	; 0x2c
    268e:	2b00      	cmp	r3, #0
    2690:	d003      	beq.n	269a <kprintf+0xf72>
/home/qemu-sgx/devel/optee/optee_os/lib/libutils/ext/snprintk.c:614 (discriminator 4)
    2692:	6aba      	ldr	r2, [r7, #40]	; 0x28
    2694:	6ebb      	ldr	r3, [r7, #104]	; 0x68
    2696:	429a      	cmp	r2, r3
    2698:	d206      	bcs.n	26a8 <kprintf+0xf80>
/home/qemu-sgx/devel/optee/optee_os/lib/libutils/ext/snprintk.c:614 (discriminator 5)
    269a:	6aba      	ldr	r2, [r7, #40]	; 0x28
    269c:	f102 0301 	add.w	r3, r2, #1
    26a0:	62bb      	str	r3, [r7, #40]	; 0x28
    26a2:	f04f 0320 	mov.w	r3, #32
    26a6:	7013      	strb	r3, [r2, #0]
/home/qemu-sgx/devel/optee/optee_os/lib/libutils/ext/snprintk.c:613
    26a8:	f8d7 20a4 	ldr.w	r2, [r7, #164]	; 0xa4
    26ac:	f102 33ff 	add.w	r3, r2, #4294967295	; 0xffffffff
    26b0:	f8c7 30a4 	str.w	r3, [r7, #164]	; 0xa4
    26b4:	2a00      	cmp	r2, #0
    26b6:	dce3      	bgt.n	2680 <kprintf+0xf58>
/home/qemu-sgx/devel/optee/optee_os/lib/libutils/ext/snprintk.c:281
    26b8:	f7ff b884 	b.w	17c4 <kprintf+0x9c>
/home/qemu-sgx/devel/optee/optee_os/lib/libutils/ext/snprintk.c:286
    26bc:	bf00      	nop
    26be:	e000      	b.n	26c2 <kprintf+0xf9a>
/home/qemu-sgx/devel/optee/optee_os/lib/libutils/ext/snprintk.c:548
    26c0:	bf00      	nop
/home/qemu-sgx/devel/optee/optee_os/lib/libutils/ext/snprintk.c:619
    26c2:	6b3b      	ldr	r3, [r7, #48]	; 0x30
    26c4:	2b08      	cmp	r3, #8
    26c6:	d105      	bne.n	26d4 <kprintf+0xfac>
/home/qemu-sgx/devel/optee/optee_os/lib/libutils/ext/snprintk.c:619 (discriminator 1)
    26c8:	6afb      	ldr	r3, [r7, #44]	; 0x2c
    26ca:	2b00      	cmp	r3, #0
    26cc:	d002      	beq.n	26d4 <kprintf+0xfac>
/home/qemu-sgx/devel/optee/optee_os/lib/libutils/ext/snprintk.c:620
    26ce:	6afb      	ldr	r3, [r7, #44]	; 0x2c
    26d0:	6aba      	ldr	r2, [r7, #40]	; 0x28
    26d2:	601a      	str	r2, [r3, #0]
/home/qemu-sgx/devel/optee/optee_os/lib/libutils/ext/snprintk.c:621
    26d4:	f8d7 3098 	ldr.w	r3, [r7, #152]	; 0x98
/home/qemu-sgx/devel/optee/optee_os/lib/libutils/ext/snprintk.c:622
    26d8:	4618      	mov	r0, r3
    26da:	f107 07b0 	add.w	r7, r7, #176	; 0xb0
    26de:	46bd      	mov	sp, r7
    26e0:	e9dd 4500 	ldrd	r4, r5, [sp]
    26e4:	e9dd 7802 	ldrd	r7, r8, [sp, #8]
    26e8:	e9dd 9a04 	ldrd	r9, sl, [sp, #16]
    26ec:	b006      	add	sp, #24
    26ee:	e8bd 8800 	ldmia.w	sp!, {fp, pc}
    26f2:	bf00      	nop
    26f4:	00012706 	.word	0x00012706
    26f8:	0001272a 	.word	0x0001272a
    26fc:	0001256c 	.word	0x0001256c
    2700:	0001254e 	.word	0x0001254e
    2704:	00012304 	.word	0x00012304

00002708 <__aeabi_ldivmod>:
__aeabi_ldivmod():
/home/qemu-sgx/devel/optee/optee_os/lib/libutils/isoc/arch/arm/arm32_aeabi_ldivmod_a32.S:12
    2708:	e92d5000 	push	{ip, lr}
/home/qemu-sgx/devel/optee/optee_os/lib/libutils/isoc/arch/arm/arm32_aeabi_ldivmod_a32.S:14
    270c:	e92d000f 	push	{r0, r1, r2, r3}
/home/qemu-sgx/devel/optee/optee_os/lib/libutils/isoc/arch/arm/arm32_aeabi_ldivmod_a32.S:16
    2710:	e1a0000d 	mov	r0, sp
/home/qemu-sgx/devel/optee/optee_os/lib/libutils/isoc/arch/arm/arm32_aeabi_ldivmod_a32.S:17
    2714:	fb0041b1 	blx	12de2 <__l_divmod>
/home/qemu-sgx/devel/optee/optee_os/lib/libutils/isoc/arch/arm/arm32_aeabi_ldivmod_a32.S:18
    2718:	e8bd000f 	pop	{r0, r1, r2, r3}
/home/qemu-sgx/devel/optee/optee_os/lib/libutils/isoc/arch/arm/arm32_aeabi_ldivmod_a32.S:19
    271c:	e8bd9000 	pop	{ip, pc}

00002720 <__aeabi_uldivmod>:
__aeabi_uldivmod():
/home/qemu-sgx/devel/optee/optee_os/lib/libutils/isoc/arch/arm/arm32_aeabi_ldivmod_a32.S:27
    2720:	e92d5000 	push	{ip, lr}
/home/qemu-sgx/devel/optee/optee_os/lib/libutils/isoc/arch/arm/arm32_aeabi_ldivmod_a32.S:29
    2724:	e92d000f 	push	{r0, r1, r2, r3}
/home/qemu-sgx/devel/optee/optee_os/lib/libutils/isoc/arch/arm/arm32_aeabi_ldivmod_a32.S:31
    2728:	e1a0000d 	mov	r0, sp
/home/qemu-sgx/devel/optee/optee_os/lib/libutils/isoc/arch/arm/arm32_aeabi_ldivmod_a32.S:32
    272c:	fa004193 	blx	12d80 <__ul_divmod>
/home/qemu-sgx/devel/optee/optee_os/lib/libutils/isoc/arch/arm/arm32_aeabi_ldivmod_a32.S:33
    2730:	e8bd000f 	pop	{r0, r1, r2, r3}
/home/qemu-sgx/devel/optee/optee_os/lib/libutils/isoc/arch/arm/arm32_aeabi_ldivmod_a32.S:34
    2734:	e8bd9000 	pop	{ip, pc}

00002738 <trace_ext_puts>:
trace_ext_puts():
/home/qemu-sgx/devel/optee/optee_os/lib/libutee/trace_ext.c:22
    2738:	e96d 7e02 	strd	r7, lr, [sp, #-8]!
    273c:	b082      	sub	sp, #8
    273e:	af00      	add	r7, sp, #0
    2740:	6078      	str	r0, [r7, #4]
/home/qemu-sgx/devel/optee/optee_os/lib/libutee/trace_ext.c:26
    2742:	6878      	ldr	r0, [r7, #4]
    2744:	f010 fa04 	bl	12b50 <strlen>
    2748:	4603      	mov	r3, r0
    274a:	4619      	mov	r1, r3
    274c:	6878      	ldr	r0, [r7, #4]
    274e:	f004 edee 	blx	732c <_utee_log>
/home/qemu-sgx/devel/optee/optee_os/lib/libutee/trace_ext.c:28
    2752:	bf00      	nop
    2754:	f107 0708 	add.w	r7, r7, #8
    2758:	46bd      	mov	sp, r7
    275a:	bd80      	pop	{r7, pc}

0000275c <trace_ext_get_thread_id>:
trace_ext_get_thread_id():
/home/qemu-sgx/devel/optee/optee_os/lib/libutee/trace_ext.c:31
    275c:	f84d 7d04 	str.w	r7, [sp, #-4]!
    2760:	af00      	add	r7, sp, #0
/home/qemu-sgx/devel/optee/optee_os/lib/libutee/trace_ext.c:32
    2762:	f04f 33ff 	mov.w	r3, #4294967295	; 0xffffffff
/home/qemu-sgx/devel/optee/optee_os/lib/libutee/trace_ext.c:33
    2766:	4618      	mov	r0, r3
    2768:	46bd      	mov	sp, r7
    276a:	f85d 7b04 	ldr.w	r7, [sp], #4
    276e:	4770      	bx	lr

00002770 <printf>:
printf():
/home/qemu-sgx/devel/optee/optee_os/lib/libutee/trace_ext.c:41
    2770:	b40f      	push	{r0, r1, r2, r3}
    2772:	e96d 7e02 	strd	r7, lr, [sp, #-8]!
    2776:	b0c2      	sub	sp, #264	; 0x108
    2778:	af00      	add	r7, sp, #0
