
out/873bcd08-c2c3-11e6-a937-d0bf9c45c61c.elf:     file format elf32-littlearm
out/873bcd08-c2c3-11e6-a937-d0bf9c45c61c.elf
architecture: armv7, flags 0x00000150:
HAS_SYMS, DYNAMIC, D_PAGED
start address 0x000006e4

Program Header:
0x70000001 off    0x00017418 vaddr 0x00016418 paddr 0x00016418 align 2**2
         filesz 0x00000b90 memsz 0x00000b90 flags r--
    LOAD off    0x00001000 vaddr 0x00000000 paddr 0x00000000 align 2**12
         filesz 0x00017064 memsz 0x00017064 flags r-x
    LOAD off    0x00019000 vaddr 0x00018000 paddr 0x00018000 align 2**12
         filesz 0x000003a8 memsz 0x0000b408 flags rw-
 DYNAMIC off    0x00019000 vaddr 0x00018000 paddr 0x00018000 align 2**2
         filesz 0x00000088 memsz 0x00000088 flags rw-
   STACK off    0x00000000 vaddr 0x00000000 paddr 0x00000000 align 2**4
         filesz 0x00000000 memsz 0x00000000 flags rwx

Dynamic Section:
  HASH                 0x00017038
  GNU_HASH             0x000153ec
  STRTAB               0x00017008
  SYMTAB               0x00016fa8
  STRSZ                0x0000002e
  SYMENT               0x00000010
  DEBUG                0x00000000
  REL                  0x000180d8
  RELSZ                0x000001a0
  RELENT               0x00000008
  FLAGS_1              0x08000000
  RELCOUNT             0x00000023
private flags = 5000400: [Version5 EABI] [hard-float ABI]

Sections:
Idx Name          Size      VMA       LMA       File off  Algn
  0 .ta_head      00000020  00000000  00000000  00001000  2**3
                  CONTENTS, ALLOC, LOAD, READONLY, DATA
  1 .text         000140e6  00000020  00000020  00001020  2**2
                  CONTENTS, ALLOC, LOAD, READONLY, CODE
  2 .rodata       000012e2  00014108  00014108  00015108  2**2
                  CONTENTS, ALLOC, LOAD, READONLY, DATA
  3 .gnu.hash     0000002c  000153ec  000153ec  000163ec  2**2
                  CONTENTS, ALLOC, LOAD, READONLY, DATA
  4 .ARM.extab    00001000  00015418  00015418  00016418  2**2
                  CONTENTS, ALLOC, LOAD, READONLY, DATA
  5 .ARM.exidx    00000b90  00016418  00016418  00017418  2**2
                  CONTENTS, ALLOC, LOAD, READONLY, DATA
  6 .dynsym       00000060  00016fa8  00016fa8  00017fa8  2**2
                  CONTENTS, ALLOC, LOAD, READONLY, DATA
  7 .dynstr       0000002e  00017008  00017008  00018008  2**0
                  CONTENTS, ALLOC, LOAD, READONLY, DATA
  8 .hash         0000002c  00017038  00017038  00018038  2**2
                  CONTENTS, ALLOC, LOAD, READONLY, DATA
  9 .dynamic      00000088  00018000  00018000  00019000  2**2
                  CONTENTS, ALLOC, LOAD, DATA
 10 .got          00000050  00018088  00018088  00019088  2**2
                  CONTENTS, ALLOC, LOAD, DATA
 11 .rel.got      00000088  000181f0  000181f0  000191f0  2**2
                  CONTENTS, ALLOC, LOAD, READONLY, DATA
 12 .data         00000130  00018278  00018278  00019278  2**2
                  CONTENTS, ALLOC, LOAD, DATA
 13 .bss          0000b060  000183a8  000183a8  000193a8  2**2
                  ALLOC
 14 .debug_info   0000dab7  00000000  00000000  000193a8  2**0
                  CONTENTS, READONLY, DEBUGGING, OCTETS
 15 .debug_abbrev 00002ca3  00000000  00000000  00026e5f  2**0
                  CONTENTS, READONLY, DEBUGGING, OCTETS
 16 .debug_aranges 00000628  00000000  00000000  00029b08  2**3
                  CONTENTS, READONLY, DEBUGGING, OCTETS
 17 .debug_macro  0001b1b3  00000000  00000000  0002a130  2**0
                  CONTENTS, READONLY, DEBUGGING, OCTETS
 18 .debug_line   0000b0c1  00000000  00000000  000452e3  2**0
                  CONTENTS, READONLY, DEBUGGING, OCTETS
 19 .debug_str    000185fb  00000000  00000000  000503a4  2**0
                  CONTENTS, READONLY, DEBUGGING, OCTETS
 20 .comment      0000005d  00000000  00000000  0006899f  2**0
                  CONTENTS, READONLY
 21 .ARM.attributes 00000033  00000000  00000000  000689fc  2**0
                  CONTENTS, READONLY
 22 .debug_frame  00003a78  00000000  00000000  00068a30  2**2
                  CONTENTS, READONLY, DEBUGGING, OCTETS
 23 .rel.dyn      00000118  000180d8  000180d8  000190d8  2**2
                  CONTENTS, ALLOC, LOAD, READONLY, DATA
 24 .debug_ranges 00000240  00000000  00000000  0006c4a8  2**3
                  CONTENTS, READONLY, DEBUGGING, OCTETS
SYMBOL TABLE:
00000000 l    d  .ta_head	00000000 .ta_head
00000020 l    d  .text	00000000 .text
00014108 l    d  .rodata	00000000 .rodata
000153ec l    d  .gnu.hash	00000000 .gnu.hash
00015418 l    d  .ARM.extab	00000000 .ARM.extab
00016418 l    d  .ARM.exidx	00000000 .ARM.exidx
00016fa8 l    d  .dynsym	00000000 .dynsym
00017008 l    d  .dynstr	00000000 .dynstr
00017038 l    d  .hash	00000000 .hash
00018000 l    d  .dynamic	00000000 .dynamic
00018088 l    d  .got	00000000 .got
000181f0 l    d  .rel.got	00000000 .rel.got
00018278 l    d  .data	00000000 .data
000183a8 l    d  .bss	00000000 .bss
00000000 l    d  .debug_info	00000000 .debug_info
00000000 l    d  .debug_abbrev	00000000 .debug_abbrev
00000000 l    d  .debug_aranges	00000000 .debug_aranges
00000000 l    d  .debug_macro	00000000 .debug_macro
00000000 l    d  .debug_line	00000000 .debug_line
00000000 l    d  .debug_str	00000000 .debug_str
00000000 l    d  .comment	00000000 .comment
00000000 l    d  .ARM.attributes	00000000 .ARM.attributes
00000000 l    d  .debug_frame	00000000 .debug_frame
000180d8 l    d  .rel.dyn	00000000 .rel.dyn
00000000 l    d  .debug_ranges	00000000 .debug_ranges
00000000 l    df *ABS*	00000000 user_ta_header.c
000141ac l     O .rodata	00000001 __compound_literal.0
000141ad l     O .rodata	00000001 __compound_literal.1
000141ae l     O .rodata	00000001 __compound_literal.2
000141b0 l     O .rodata	00000004 __compound_literal.3
000141b4 l     O .rodata	00000004 __compound_literal.4
00000000 l    df *ABS*	00000000 ta_entry.c
0000007c l     F .text	00000144 ta_entry_tcp_open
0001412c l     O .rodata	00000012 __func__.6
000001c0 l     F .text	00000144 ta_entry_udp_open
00014140 l     O .rodata	00000012 __func__.5
00000304 l     F .text	00000088 ta_entry_close
00014154 l     O .rodata	0000000f __func__.4
0000038c l     F .text	000000bc ta_entry_send
00014164 l     O .rodata	0000000e __func__.3
00000448 l     F .text	000000ac ta_entry_recv
00014174 l     O .rodata	0000000e __func__.2
000004f4 l     F .text	000000a0 ta_entry_error
00014184 l     O .rodata	0000000f __func__.1
00000594 l     F .text	000000ac ta_entry_ioctl
00014194 l     O .rodata	0000000f __func__.0
00000000 l    df *ABS*	00000000 out/ta_entry_a32.o
00000000 l    df *ABS*	00000000 bget_malloc.c
000006e8 l     F .text	0000001a tag_asan_free
00000702 l     F .text	0000001a tag_asan_alloced
0000071c l     F .text	00000024 memset_unchecked
00000740 l     F .text	00000024 memcpy_unchecked
00000764 l     F .text	00000090 buf_get_pos
00014678 l     O .rodata	00000005 __func__.9
00014680 l     O .rodata	00000006 __func__.8
00014688 l     O .rodata	00000006 __func__.7
00014690 l     O .rodata	00000005 __func__.6
00014698 l     O .rodata	00000006 __func__.5
000146a0 l     O .rodata	00000007 __func__.4
000203a8 l     O .bss	00000004 bchain
000203ac l     O .bss	00000004 bp
000182d0 l     O .data	00000004 next
000203b0 l     O .bss	00000004 mymalloc
000203b4 l     O .bss	00000004 myfree
000182d4 l     O .data	0000001c mypoolset
000011cc l     F .text	0000004c myrand
00001218 l     F .text	00000024 mysrand
0000123c l     F .text	00000064 stats
000012a0 l     F .text	0000003e blimit
000146a8 l     O .rodata	0000000f __func__.3
000016f4 l     F .text	0000001c malloc_lock
00001710 l     F .text	0000001a malloc_unlock
000182f0 l     O .data	0000005c malloc_ctx
0000172a l     F .text	0000001a print_oom
00001744 l     F .text	00000064 raw_malloc_return_hook
000017a8 l     F .text	00000044 gen_malloc_reset_stats
00001808 l     F .text	00000042 gen_malloc_get_stats
00001870 l     F .text	00000018 raw_malloc_validate_pools
00001888 l     F .text	0000002c bpool_foreach_iterator_init
000018b4 l     F .text	000000d8 bpool_foreach_pool
000146b8 l     O .rodata	00000013 __func__.2
0000198c l     F .text	00000076 bpool_foreach
00001a02 l     F .text	0000009c raw_memalign
00001a9e l     F .text	0000002e raw_malloc
00001acc l     F .text	00000032 raw_free
00001afe l     F .text	000000ca raw_calloc
00001bc8 l     F .text	000000ac raw_realloc
00001c74 l     F .text	0000005c bget_buf_size
000146cc l     O .rodata	0000000e __func__.1
00001d20 l     F .text	0000004c free_helper
00001dc0 l     F .text	0000002e realloc_unlocked
00001e90 l     F .text	00000026 get_payload_start_size
00001ef2 l     F .text	0000013e gen_malloc_add_pool
000146dc l     O .rodata	00000014 __func__.0
00002030 l     F .text	000000a8 gen_malloc_buffer_is_within_alloced
000020d8 l     F .text	000000ba gen_malloc_buffer_overlaps_heap
00000000 l    df *ABS*	00000000 trace.c
00002280 l     F .text	00000054 trace_level_to_string
00014714 l     O .rodata	00000005 lvl_strs.0
000022d4 l     F .text	00000060 print_thread_id
00002334 l     F .text	0000001e print_core_id
00000000 l    df *ABS*	00000000 snprintk.c
0001471c l     O .rodata	00000011 hexdigits
00014730 l     O .rodata	00000011 HEXDIGITS
0000285c l     F .text	00000fe0 kprintf
000027be l     F .text	0000009e uuid2str
00000000 l    df *ABS*	00000000 arm32_aeabi_ldivmod_a32.o
00000000 l    df *ABS*	00000000 assert.c
00000000 l    df *ABS*	00000000 trace_ext.c
00000000 l    df *ABS*	00000000 tee_api_operations.c
000039e4 l     F .text	0000006e __tee_alg_get_class
00003a52 l     F .text	00000046 __tee_alg_get_main_alg
00003a98 l     F .text	00000036 __tee_alg_get_key_type
00003ace l     F .text	0000022e __tee_alg_get_digest_size
000052bc l     F .text	00000048 init_hash_operation
000054b6 l     F .text	00000330 tee_buffer_update
00000000 l    df *ABS*	00000000 tee_api_panic.c
000074e2 l     F .text	00000024 check_res
00007506 l     F .text	00000040 check_access
00000000 l    df *ABS*	00000000 utee_syscalls_a32.o
00000000 l    df *ABS*	00000000 user_ta_entry.c
00007b94 l     F .text	00000010 __utee_gprof_init
00007ba4 l     F .text	00000010 __utee_gprof_fini
00018394 l     O .data	00000008 ta_sessions
000203e8 l     O .bss	00000001 init_done
0001839c l     O .data	00000008 __phdr_info_head
000203ec l     O .bss	00000004 _num_mod_init
00007bb4 l     F .text	000000cc _init_iterate_phdr_cb
0001484c l     O .rodata	00000016 __func__.0
00007c80 l     F .text	000000fc _get_fn_array
00007ec8 l     F .text	00000074 _fini_iterate_phdr_cb
00007f5c l     F .text	0000005c init_instance
00007fb8 l     F .text	00000018 uninit_instance
00007fd0 l     F .text	00000058 ta_header_save_params
00008028 l     F .text	00000044 ta_header_get_session
0000806c l     F .text	000000c0 ta_header_add_session
0000812c l     F .text	000000d4 ta_header_remove_session
00008200 l     F .text	00000182 to_utee_params
00008382 l     F .text	000000e2 from_utee_params
00008464 l     F .text	0000008e entry_open_session
000084f2 l     F .text	00000040 entry_close_session
00008532 l     F .text	00000070 entry_invoke_command
00000000 l    df *ABS*	00000000 abort.c
00000000 l    df *ABS*	00000000 tee_api.c
000203f0 l     O .bss	00000004 tee_api_instance_data
00008638 l     F .text	000002fe copy_param
00008936 l     F .text	00000110 update_out_param
00014880 l     O .rodata	0000000b __func__.0
00000000 l    df *ABS*	00000000 tee_api_arith_mpi.c
000090b8 l     F .text	00000030 api_panic
000090e8 l     F .text	00000030 mpi_panic
000203f4 l     O .bss	00003000 data.17
00014950 l     O .rodata	00000012 __func__.16
00009180 l     F .text	00000090 copy_mpi_to_bigint
00009210 l     F .text	000000a0 get_mpi
00014964 l     O .rodata	00000008 __func__.15
0001496c l     O .rodata	0000000f __func__.14
0001497c l     O .rodata	0000001f __func__.13
0001499c l     O .rodata	00000019 __func__.12
000149b8 l     O .rodata	00000015 __func__.11
0000983a l     F .text	000000fe bigint_binary
000149d0 l     O .rodata	0000000e __func__.10
00009938 l     F .text	00000184 bigint_binary_mod
000149e0 l     O .rodata	00000012 __func__.9
000149f4 l     O .rodata	0000000e __func__.8
00014a04 l     O .rodata	0000000e __func__.7
00014a14 l     O .rodata	0000000e __func__.6
00014a24 l     O .rodata	00000011 __func__.5
00014a38 l     O .rodata	00000018 __func__.4
0000a14c l     F .text	0000002a mpi_is_odd
0000a176 l     F .text	00000032 mpi_is_even
0000a1a8 l     F .text	00000794 mpi_egcd
00014a50 l     O .rodata	00000009 __func__.3
00014a5c l     O .rodata	0000001d __func__.2
0000abcc l     F .text	00000030 rng_read
00014a7c l     O .rodata	00000019 __func__.1
00014a98 l     O .rodata	00000015 __func__.0
00000000 l    df *ABS*	00000000 tee_socket_pta.c
0000ae9c l     F .text	0000007c invoke_socket_pta
000233f4 l     O .bss	00000004 sess.1
00014ab0 l     O .rodata	00000010 socket_uuid.0
00000000 l    df *ABS*	00000000 tee_system_pta.c
0000b124 l     F .text	00000064 reg_pair_to_64
0000b188 l     F .text	0000003a reg_pair_from_64
0000b1c2 l     F .text	0000007e invoke_system_pta
000233f8 l     O .bss	00000004 sess.3
00014b18 l     O .rodata	00000010 uuid.2
00014b28 l     O .rodata	0000000a __func__.1
00014b34 l     O .rodata	00000017 __func__.0
00000000 l    df *ABS*	00000000 tcb.c
000233fc l     O .bss	00000004 _tcb
00023400 l     O .bss	00000004 _tls_size
00014be8 l     O .rodata	00000010 __func__.1
00014bf8 l     O .rodata	00000010 __func__.0
00000000 l    df *ABS*	00000000 bignum.c
0000b8a0 l     F .text	00000024 mbedtls_mpi_zeroize
0000b8c4 l     F .text	0000003a mpi_init
0000bc40 l     F .text	00000064 mbedtls_mpi_resize_clear
0000bdde l     F .text	00000056 mpi_safe_cond_select_sign
0000be34 l     F .text	00000078 mpi_safe_cond_assign
0000c2ce l     F .text	0000004e mbedtls_clz
0000c3b8 l     F .text	00000082 mpi_get_digit
0000c638 l     F .text	000000da mpi_write_hlp
0000c90c l     F .text	0000005a mpi_uint_bigendian_to_host_c
0000c966 l     F .text	0000001c mpi_uint_bigendian_to_host
0000c982 l     F .text	00000072 mpi_bigendian_to_host
0000d260 l     F .text	00000052 ct_lt_mpi_uint
0000d5c8 l     F .text	000000aa mpi_sub_hlp
0000d9da l     F .text	00001a20 mpi_mul_hlp
0000f668 l     F .text	000000d6 mbedtls_int_div_int
0000ff94 l     F .text	0000006e mpi_montg_init
00010020 l     F .text	0000013a mpi_montmul
00010184 l     F .text	00000044 mpi_montred
000101ee l     F .text	00000040 mbedtls_mpi_cf_bool_eq
0001022e l     F .text	0000007e mpi_select
00010bd2 l     F .text	000000ba mpi_fill_random_internal
00014c1c l     O .rodata	000002a0 small_prime
00011326 l     F .text	000000a6 mpi_check_small_factors
000113cc l     F .text	000002d2 mpi_miller_rabin
00014ebc l     O .rodata	00000024 gcd_pairs
00000000 l    df *ABS*	00000000 platform_util.c
000183a4 l     O .data	00000004 memset_func
00000000 l    df *ABS*	00000000 mempool.c
00011fd4 l     F .text	00000018 get_pool
00011fec l     F .text	00000018 put_pool
000153c8 l     O .rodata	00000013 __func__.1
000153dc l     O .rodata	0000000e __func__.0
00000000 l    df *ABS*	00000000 strndup.c
00000000 l    df *ABS*	00000000 memcpy.c
00000000 l    df *ABS*	00000000 memset.c
00000000 l    df *ABS*	00000000 strnlen.c
00000000 l    df *ABS*	00000000 aeabi_unwind.c
00000000 l    df *ABS*	00000000 memchr.c
00000000 l    df *ABS*	00000000 strlen.c
00000000 l    df *ABS*	00000000 arm32_aeabi_ldivmod.c
00012714 l     F .text	0000012a division_lqr
0001283e l     F .text	0000007c ul_div_qr
00000000 l    df *ABS*	00000000 tee_tcpudp_socket.c
000129fc l     F .text	00000020 __tee_socket_ioctl_cmd_to_proto
00012a1c l     F .text	000000ce tcp_open
00012aea l     F .text	000000ce udp_open
00012bb8 l     F .text	00000038 sock_close
00012bf0 l     F .text	00000050 sock_send
00012c40 l     F .text	00000058 sock_recv
00012c98 l     F .text	0000002a sock_error
00012cc2 l     F .text	0000008c tcp_ioctl
00012d4e l     F .text	0000008c udp_ioctl
0001834c l     O .data	00000020 tcp_socket_instance
0001836c l     O .data	00000020 udp_socket_instance
00000000 l    df *ABS*	00000000 tee_api_objects.c
00000000 l    df *ABS*	00000000 snprintf.c
00000000 l    df *ABS*	00000000 memmove.c
00000000 l    df *ABS*	00000000 consttime_memcmp.c
00000000 l    df *ABS*	00000000 
00018000 l     O *ABS*	00000000 _DYNAMIC
00018088 l     O *ABS*	00000000 _GLOBAL_OFFSET_TABLE_
000039ac g     F .text	00000038 putchar
000133c4 g     F .text	00000164 TEE_PopulateTransientObject
0000accc g     F .text	00000024 TEE_BigIntConvertToFMM
00009f54 g     F .text	00000024 TEE_BigIntSquareMod
00009602 g     F .text	000001ba TEE_BigIntShiftRight
0000b388 g     F .text	000000cc tee_invoke_supp_plugin
0000b9e4 g     F .text	00000108 mbedtls_mpi_grow
0001291c g     F .text	000000e0 __l_divmod
00005304 g     F .text	0000005c TEE_DigestUpdate
00008fe4 g     F .text	00000046 TEE_Realloc
00004f46 g     F .text	00000232 TEE_SetOperationKey2
000076b0 g     F .text	00000034 __utee_check_inout_annotation
00003900 g     F .text	00000074 printf
00013528 g     F .text	00000048 TEE_InitRefAttribute
0000770c g     F .text	00000014 _utee_log
00008b64 g     F .text	00000126 TEE_InvokeTACommand
00007546 g     F .text	0000005a __utee_check_outbuf_annotation
0000b91c g     F .text	0000003c mbedtls_mpi_init_mempool
000079a8 g     F .text	00000014 _utee_cryp_random_number_generate
0000cbf0 g     F .text	000000e4 mbedtls_mpi_write_binary
0000623c g     F .text	00000224 TEE_AEEncryptFinal
0001229c g     F .text	00000058 strndup
000026ea g     F .text	0000002e vsnprintk
0000d98a g     F .text	00000050 mbedtls_mpi_sub_int
00013f14 g     F .text	0000013e memmove
00013eaa g     F .text	0000003c snprintf
000095c6 g     F .text	0000003c TEE_BigIntCmpS32
00013570 g     F .text	00000048 TEE_InitValueAttribute
0000baec g     F .text	00000154 mbedtls_mpi_shrink
00012546 g     F .text	00000010 __aeabi_unwind_cpp_pr0
00009abc g     F .text	00000034 TEE_BigIntAdd
00007908 g     F .text	00000014 _utee_cryp_obj_restrict_usage
000141a8 g     O .rodata	00000004 ta_heap_size
00013364 g     F .text	00000060 TEE_ResetTransientObject
00007a30 g     F .text	00000018 _utee_asymm_operate
0000c43a g     F .text	000001fe mbedtls_mpi_read_string
0000541e g     F .text	00000098 TEE_CipherInit
00009b24 g     F .text	000000b0 TEE_BigIntNeg
00007acc g     F .text	00000014 _utee_storage_free_enum
00000020 g       .text	00000000 __text_start
00013b1e g     F .text	0000005a TEE_StartPersistentObjectEnumerator
0000ce56 g     F .text	0000016a mbedtls_mpi_shift_r
000021e8 g     F .text	0000002c malloc_buffer_overlaps_heap
00007870 g     F .text	00000014 _utee_hash_init
00009ee4 g     F .text	00000038 TEE_BigIntSubMod
00011772 g     F .text	00000314 mbedtls_mpi_gen_prime
0000c138 g     F .text	0000004e mbedtls_mpi_get_bit
0000ca92 g     F .text	00000088 mbedtls_mpi_read_binary
00005f2e g     F .text	000000ee TEE_AEInit
00002352 g     F .text	00000036 trace_printf
0001015a g     F .text	0000002a mbedtls_mpi_montmul
00007b80 g     F .text	00000014 _utee_cache_operation
000122f4 g     F .text	000000f2 memcpy
0000acf0 g     F .text	0000009c TEE_BigIntConvertFromFMM
000074c8 g     F .text	0000001a TEE_Panic
00003854 g     F .text	00000018 __aeabi_uldivmod
00005178 g     F .text	00000144 TEE_CopyOperation
00003974 g     F .text	00000038 puts
0000ad8c g     F .text	00000110 TEE_BigIntComputeFMM
0000184a g     F .text	00000026 malloc_get_stats
00008f44 g     F .text	0000002c TEE_GetREETime
00013a60 g     F .text	0000005a TEE_AllocatePersistentObjectEnumerator
0001827c g     O .data	00000054 ta_props
00006640 g     F .text	000001c2 TEE_AsymmetricEncrypt
000075a0 g     F .text	00000040 __utee_check_instring_annotation
00001cd0 g     F .text	00000050 malloc
00012264 g     F .text	00000024 __ta_entry_c
000136bc g     F .text	00000126 TEE_GenerateKey
00013ee6 g     F .text	0000002e vsnprintf
00018278 g     O .data	00000004 trace_level
00009570 g     F .text	00000056 TEE_BigIntCmp
00014274 g     O .rodata	00000004 ta_num_props
00000c28 g     F .text	000000c8 bgetr
00007a60 g     F .text	00000018 _utee_storage_obj_open
000121e8 g     F .text	0000007c mempool_free
000057e6 g     F .text	000001b6 TEE_CipherUpdate
00007884 g     F .text	00000014 _utee_hash_update
00009396 g     F .text	00000086 TEE_BigIntConvertToOctetString
00004bb0 g     F .text	000001cc TEE_GetOperationInfoMultiple
0000c31c g     F .text	00000078 mbedtls_mpi_bitlen
000097bc g     F .text	00000046 TEE_BigIntGetBit
000141a4 g     O .rodata	00000003 trace_ext_prefix
00007b08 g     F .text	00000014 _utee_storage_next_enum
00000b80 g     F .text	000000a8 bgetz
00008d8c g     F .text	0000001c TEE_GetInstanceData
00008e42 g     F .text	00000038 TEE_Wait
0000f3fa g     F .text	000001c2 mbedtls_mpi_mul_mpi
00012566 g     F .text	00000010 __aeabi_unwind_cpp_pr2
0000906e g     F .text	00000024 TEE_CacheFlush
00002388 g     F .text	0000030c trace_vprintf
00000034 g     F .text	00000010 TA_DestroyEntryPoint
0000b8fe g     F .text	0000001e mbedtls_mpi_init
00007a90 g     F .text	00000014 _utee_storage_obj_del
0000c254 g     F .text	0000007a mbedtls_mpi_lsb
0000386c g     F .text	00000048 _assert_log
00007848 g     F .text	00000014 _utee_cryp_state_copy
0000acb0 g     F .text	0000001c TEE_BigIntFMMContextSizeInU32
0000b2d8 g     F .text	000000b0 tee_unmap
00005e3c g     F .text	000000f2 TEE_MACCompareFinal
000139f0 g     F .text	00000070 TEE_RenamePersistentObject
00005360 g     F .text	000000be TEE_DigestDoFinal
00009118 g     F .text	00000068 _TEE_MathAPI_Init
0000b454 g     F .text	0000030c __utee_tcb_init
0000d7e2 g     F .text	000000ac mbedtls_mpi_add_mpi
00008618 g     F .text	00000020 abort
00010cf6 g     F .text	00000164 mbedtls_mpi_random
00007638 g     F .text	00000034 __utee_check_out_annotation
000183a8 g     O .bss	00008000 ta_heap
00009f78 g     F .text	0000010c TEE_BigIntInvMod
00007d7c g     F .text	0000014c __utee_call_elf_init_fn
00000064 g     F .text	00000018 TA_CloseSessionEntryPoint
00007778 g     F .text	00000014 _utee_close_ta_session
00006802 g     F .text	000001c2 TEE_AsymmetricDecrypt
000137e2 g     F .text	000000be TEE_OpenPersistentObject
0000d88e g     F .text	000000ac mbedtls_mpi_sub_mpi
00014052 g     F .text	000000b4 consttime_memcmp
000076f8 g     F .text	00000014 _utee_return
00007720 g     F .text	00000014 __utee_panic
0000b760 g     F .text	00000038 __tls_get_addr
00012502 g     F .text	00000044 strnlen
00000640 g     F .text	000000a2 TA_InvokeCommandEntryPoint
00007f3c g     F .text	00000020 __utee_call_elf_fini_fn
00001ed4 g     F .text	0000001e free_wipe
00012078 g     F .text	000000f4 mempool_alloc
000076e4 g     F .text	00000014 _utee_panic
0001216c g     F .text	0000007c mempool_calloc
00007b6c g     F .text	00000014 _utee_cryp_obj_generate_key
000135b8 g     F .text	0000004c TEE_CopyObjectAttributes
00007b44 g     F .text	00000014 _utee_storage_obj_trunc
000077cc g     F .text	00000014 _utee_unmask_cancellation
00001d6c g     F .text	00000054 calloc
00008f70 g     F .text	00000074 TEE_Malloc
00008d26 g     F .text	00000042 TEE_CheckMemoryAccessRights
000128ba g     F .text	00000062 __ul_divmod
00007734 g     F .text	00000018 _utee_get_property
0000c0ca g     F .text	0000006e mbedtls_mpi_lset
00013c3a g     F .text	00000092 TEE_ReadObjectData
000130aa g     F .text	000000cc TEE_GetObjectBufferAttribute
00000044 g     F .text	00000020 TA_OpenSessionEntryPoint
00004af8 g     F .text	0000004a TEE_FreeOperation
0000b798 g     F .text	00000108 dl_iterate_phdr
00023408 g       .bss	00000000 __ftrace_buf_end
000203b8 g     O .bss	00000004 ta_param_types
0000fd8a g     F .text	00000052 mbedtls_mpi_div_int
00012dda g     F .text	0000017e __utee_from_attr
0001169e g     F .text	000000ac mbedtls_mpi_is_prime_ext
0000abfc g     F .text	00000054 TEE_BigIntIsProbablePrime
0000f5bc g     F .text	000000ac mbedtls_mpi_mul_int
000139aa g     F .text	00000046 TEE_CloseAndDeletePersistentObject1
000102ac g     F .text	00000748 mbedtls_mpi_exp_mod
0000beac g     F .text	000000ca mbedtls_mpi_safe_cond_assign
0000d2b2 g     F .text	0000013e mbedtls_mpi_lt_mpi_ct
0000af18 g     F .text	000000ae __tee_socket_pta_open
00006460 g     F .text	000001e0 TEE_AEDecryptFinal
000092b0 g     F .text	0000006c TEE_BigIntInit
000075e0 g     F .text	00000058 __utee_check_outstring_annotation
00008da8 g     F .text	00000024 TEE_MemMove
00011fa4 g     F .text	00000030 mbedtls_platform_zeroize
0000931c g     F .text	0000007a TEE_BigIntConvertFromOctetString
00007a18 g     F .text	00000018 _utee_authenc_dec_final
0000cfc0 g     F .text	0000012e mbedtls_mpi_cmp_abs
00007b1c g     F .text	00000014 _utee_storage_obj_read
00005c54 g     F .text	00000072 TEE_MACInit
000069c4 g     F .text	000001b4 TEE_AsymmetricSignDigest
00012576 g     F .text	00000114 memchr
00008cbe g     F .text	00000034 TEE_UnmaskCancellation
00012f58 g     F .text	0000006e TEE_GetObjectInfo
00011a86 g     F .text	0000051e mbedtls_mpi_self_test
0001838c g     O .data	00000004 TEE_tcpSocket
00018390 g     O .data	00000004 TEE_udpSocket
00007b58 g     F .text	00000014 _utee_storage_obj_seek
00006096 g     F .text	000001a6 TEE_AEUpdate
00013304 g     F .text	00000060 TEE_FreeTransientObject
000077b8 g     F .text	00000014 _utee_check_access_rights
0000d3f0 g     F .text	0000004c mbedtls_mpi_cmp_int
00007ae0 g     F .text	00000014 _utee_storage_reset_enum
000012de g     F .text	00000416 bget_main_test
00006ef4 g     F .text	00000026 rand
0000766c g     F .text	00000044 __utee_check_attr_in_annotation
000079e8 g     F .text	00000018 _utee_authenc_update_payload
00004b42 g     F .text	0000006e TEE_GetOperationInfo
00009e40 g     F .text	0000006c TEE_BigIntMod
0000fe7a g     F .text	0000011a mbedtls_mpi_mod_int
0000c9f4 g     F .text	0000009e mbedtls_mpi_read_binary_le
00009cd4 g     F .text	0000016c TEE_BigIntDiv
00007930 g     F .text	00000014 _utee_cryp_obj_alloc
00023408 g       .bss	00000000 __ftrace_buf_start
0000bca4 g     F .text	000000f8 mbedtls_mpi_copy
00006f1a g     F .text	000005ae TEE_IsAlgorithmSupported
000017ec g     F .text	0000001c malloc_reset_stats
0000278a g     F .text	00000034 __vsprintf
0000781c g     F .text	00000014 _utee_set_ta_time
0000778c g     F .text	00000018 _utee_invoke_ta_command
0001305e g     F .text	0000004c TEE_RestrictObjectUsage1
00001dee g     F .text	0000004e realloc
0000bd9c g     F .text	00000042 mbedtls_mpi_swap
00012004 g     F .text	00000074 mempool_alloc_pool
00009bd4 g     F .text	000000e0 TEE_BigIntMul
00004d7c g     F .text	00000080 TEE_ResetOperation
0000ccd4 g     F .text	00000182 mbedtls_mpi_shift_l
0000d0ee g     F .text	00000172 mbedtls_mpi_cmp_mpi
00008df0 g     F .text	00000026 TEE_MemFill
00002192 g     F .text	0000002a malloc_add_pool
00005cc6 g     F .text	00000082 TEE_MACUpdate
0000225c g     F .text	00000024 trace_get_level
0000d43c g     F .text	0000018c mbedtls_mpi_add_abs
00013012 g     F .text	0000004c TEE_RestrictObjectUsage
0000ac8a g     F .text	00000026 TEE_BigIntFMMSizeInU32
0000ac50 g     F .text	0000001e TEE_BigIntInitFMM
00013268 g     F .text	00000032 TEE_CloseObject
000078b0 g     F .text	00000014 _utee_cipher_init
000085a2 g     F .text	00000076 __utee_entry
00014106 g       .text	00000000 __text_end
0000a084 g     F .text	000000c8 TEE_BigIntRelativePrime
0000fddc g     F .text	0000009e mbedtls_mpi_mod_mpi
000078f4 g     F .text	00000014 _utee_cryp_obj_get_info
00001028 g     F .text	000000fc bpool
00007830 g     F .text	00000018 _utee_cryp_state_alloc
00008c8a g     F .text	00000034 TEE_GetCancellationFlag
000109f4 g     F .text	000001de mbedtls_mpi_gcd
00008efe g     F .text	00000046 TEE_SetTAPersistentTime
0000b066 g     F .text	0000005e __tee_socket_pta_recv
0000cb1a g     F .text	000000d6 mbedtls_mpi_write_binary_le
000123e6 g     F .text	0000011c memset
00008e7a g     F .text	00000084 TEE_GetTAPersistentTime
00002694 g     F .text	0000001e dhex_dump
000138a0 g     F .text	000000d8 TEE_CreatePersistentObject
00008cf2 g     F .text	00000034 TEE_MaskCancellation
0000601c g     F .text	0000007a TEE_AEUpdateAAD
00013d4a g     F .text	0000006c TEE_TruncateObjectData
0000791c g     F .text	00000014 _utee_cryp_obj_get_attr
00012fc6 g     F .text	0000004c TEE_GetObjectInfo1
000078dc g     F .text	00000018 _utee_cipher_final
00002214 g     F .text	00000048 trace_set_level
00013176 g     F .text	000000f2 TEE_GetObjectValueAttribute
00004dfc g     F .text	0000014a TEE_SetOperationKey
0000785c g     F .text	00000014 _utee_cryp_state_free
00007760 g     F .text	00000018 _utee_open_ta_session
0000949c g     F .text	000000d4 TEE_BigIntConvertToS32
00009af0 g     F .text	00000034 TEE_BigIntSub
00012288 g     F .text	00000014 tahead_get_trace_level
00007af4 g     F .text	00000014 _utee_storage_start_enum
00013db6 g     F .text	000000f4 TEE_SeekObjectData
0000b240 g     F .text	00000098 tee_map_zi
000101c8 g     F .text	00000026 mbedtls_mpi_montred
00001e3c g     F .text	00000054 memalign
0000599c g     F .text	000002b8 TEE_CipherDoFinal
0000941c g     F .text	00000080 TEE_BigIntConvertFromS32
0000d93a g     F .text	00000050 mbedtls_mpi_add_int
00007a00 g     F .text	00000018 _utee_authenc_enc_final
000021bc g     F .text	0000002c malloc_buffer_is_within_alloced
00007944 g     F .text	00000014 _utee_cryp_obj_close
0000ac6e g     F .text	0000001c TEE_BigIntInitFMMContext
000077e0 g     F .text	00000014 _utee_mask_cancellation
00007aa4 g     F .text	00000014 _utee_storage_obj_rename
00013ccc g     F .text	0000007e TEE_WriteObjectData
00013aec g     F .text	00000032 TEE_ResetPersistentObjectEnumerator
00009cb4 g     F .text	00000020 TEE_BigIntSquare
00007b30 g     F .text	00000014 _utee_storage_obj_write
00000020 g     F .text	00000014 TA_CreateEntryPoint
000006e4 g     F .text	00000004 __ta_entry
000079d4 g     F .text	00000014 _utee_authenc_update_aad
00010002 g     F .text	0000001e mbedtls_mpi_montg_init
000026b4 g     F .text	00000036 snprintk
00009802 g     F .text	00000038 TEE_BigIntGetBitCount
00007980 g     F .text	00000014 _utee_cryp_obj_copy
00009f1c g     F .text	00000038 TEE_BigIntMulMod
00010e5a g     F .text	000004cc mbedtls_mpi_inv_mod
00006d02 g     F .text	000001c6 TEE_DeriveKey
000203bc g     O .bss	00000020 ta_params
0000f73e g     F .text	0000064c mbedtls_mpi_div_mpi
0000c394 g     F .text	00000024 mbedtls_mpi_size
000007f4 g     F .text	0000038c bget
0001329a g     F .text	0000006a TEE_AllocateTransientObject
000077f4 g     F .text	00000014 _utee_wait
0000c186 g     F .text	000000ce mbedtls_mpi_set_bit
0000902a g     F .text	00000020 TEE_Free
0001174a g     F .text	00000028 mbedtls_mpi_is_prime
00009092 g     F .text	00000024 TEE_CacheInvalidate
000038b4 g     F .text	00000014 _assert_break
00009eac g     F .text	00000038 TEE_BigIntAddMod
00007808 g     F .text	00000014 _utee_get_time
00003cfc g     F .text	00000dfc TEE_AllocateOperation
0000796c g     F .text	00000014 _utee_cryp_obj_populate
0000b008 g     F .text	0000005e __tee_socket_pta_send
00006ec8 g     F .text	0000002c TEE_GenerateRandom
00008dcc g     F .text	00000024 TEE_MemCompare
000078c4 g     F .text	00000018 _utee_cipher_update
00002718 g     F .text	00000072 __vsnprintf
000203dc g     O .bss	0000000c __elf_phdr_info
00013aba g     F .text	00000032 TEE_FreePersistentObjectEnumerator
00008a46 g     F .text	000000ee TEE_OpenTASession
0000afc6 g     F .text	00000042 __tee_socket_pta_close
000038c8 g     F .text	00000024 trace_ext_puts
000038ec g     F .text	00000014 trace_ext_get_thread_id
00013978 g     F .text	00000032 TEE_CloseAndDeletePersistentObject
0000b0c4 g     F .text	0000005e __tee_socket_pta_ioctl
00007994 g     F .text	00000014 _utee_cryp_derive_key
0000b958 g     F .text	0000008c mbedtls_mpi_free
00007958 g     F .text	00000014 _utee_cryp_obj_reset
0000904a g     F .text	00000024 TEE_CacheClean
0000774c g     F .text	00000014 _utee_get_property_name_to_index
0000bf76 g     F .text	00000154 mbedtls_mpi_safe_cond_swap
000079bc g     F .text	00000018 _utee_authenc_init
00013604 g     F .text	000000b8 TEE_CopyObjectAttributes1
0001268a g     F .text	0000008a strlen
0000a93c g     F .text	00000290 TEE_BigIntComputeExtendedGcd
00012556 g     F .text	00000010 __aeabi_unwind_cpp_pr1
00007ab8 g     F .text	00000014 _utee_storage_alloc_enum
00008e16 g     F .text	0000002c TEE_GetSystemTime
00007a48 g     F .text	00000018 _utee_asymm_verify
00000000 g     O .ta_head	00000020 ta_head
00000cf0 g     F .text	00000338 brel
0000d672 g     F .text	00000170 mbedtls_mpi_sub_abs
00010c8c g     F .text	0000006a mbedtls_mpi_fill_random
00008d68 g     F .text	00000024 TEE_SetInstanceData
000077a4 g     F .text	00000014 _utee_get_cancellation_flag
0000383c g     F .text	00000018 __aeabi_ldivmod
0000c712 g     F .text	000001fa mbedtls_mpi_write_string
00013b78 g     F .text	000000c2 TEE_GetNextPersistentObject
00008b34 g     F .text	00000030 TEE_CloseTASession
00006b78 g     F .text	0000018a TEE_AsymmetricVerifyDigest
00007a78 g     F .text	00000018 _utee_storage_obj_create
00001eb6 g     F .text	0000001e free
00001124 g     F .text	000000a8 bstats
00005d48 g     F .text	000000f4 TEE_MACComputeFinal
00023404 g     O .bss	00000004 mbedtls_mpi_mempool
00007898 g     F .text	00000018 _utee_hash_final



Disassembly of section .text:

00000020 <TA_CreateEntryPoint>:
TA_CreateEntryPoint():
/home/qemu-sgx/devel/optee/out-br/build/optee_test_ext-1.0/ta/socket/ta_entry.c:17
      20:	f84d 7d04 	str.w	r7, [sp, #-4]!
      24:	af00      	add	r7, sp, #0
/home/qemu-sgx/devel/optee/out-br/build/optee_test_ext-1.0/ta/socket/ta_entry.c:18
      26:	f04f 0300 	mov.w	r3, #0
/home/qemu-sgx/devel/optee/out-br/build/optee_test_ext-1.0/ta/socket/ta_entry.c:19
      2a:	4618      	mov	r0, r3
      2c:	46bd      	mov	sp, r7
      2e:	f85d 7b04 	ldr.w	r7, [sp], #4
      32:	4770      	bx	lr

00000034 <TA_DestroyEntryPoint>:
TA_DestroyEntryPoint():
/home/qemu-sgx/devel/optee/out-br/build/optee_test_ext-1.0/ta/socket/ta_entry.c:22
      34:	f84d 7d04 	str.w	r7, [sp, #-4]!
      38:	af00      	add	r7, sp, #0
/home/qemu-sgx/devel/optee/out-br/build/optee_test_ext-1.0/ta/socket/ta_entry.c:23
      3a:	bf00      	nop
      3c:	46bd      	mov	sp, r7
      3e:	f85d 7b04 	ldr.w	r7, [sp], #4
      42:	4770      	bx	lr

00000044 <TA_OpenSessionEntryPoint>:
TA_OpenSessionEntryPoint():
/home/qemu-sgx/devel/optee/out-br/build/optee_test_ext-1.0/ta/socket/ta_entry.c:28
      44:	f84d 7d04 	str.w	r7, [sp, #-4]!
      48:	b085      	sub	sp, #20
      4a:	af00      	add	r7, sp, #0
      4c:	60f8      	str	r0, [r7, #12]
      4e:	60b9      	str	r1, [r7, #8]
      50:	607a      	str	r2, [r7, #4]
/home/qemu-sgx/devel/optee/out-br/build/optee_test_ext-1.0/ta/socket/ta_entry.c:32
      52:	f04f 0300 	mov.w	r3, #0
/home/qemu-sgx/devel/optee/out-br/build/optee_test_ext-1.0/ta/socket/ta_entry.c:33
      56:	4618      	mov	r0, r3
      58:	f107 0714 	add.w	r7, r7, #20
      5c:	46bd      	mov	sp, r7
      5e:	f85d 7b04 	ldr.w	r7, [sp], #4
      62:	4770      	bx	lr

00000064 <TA_CloseSessionEntryPoint>:
TA_CloseSessionEntryPoint():
/home/qemu-sgx/devel/optee/out-br/build/optee_test_ext-1.0/ta/socket/ta_entry.c:36
      64:	f84d 7d04 	str.w	r7, [sp, #-4]!
      68:	b083      	sub	sp, #12
      6a:	af00      	add	r7, sp, #0
      6c:	6078      	str	r0, [r7, #4]
/home/qemu-sgx/devel/optee/out-br/build/optee_test_ext-1.0/ta/socket/ta_entry.c:38
      6e:	bf00      	nop
      70:	f107 070c 	add.w	r7, r7, #12
      74:	46bd      	mov	sp, r7
      76:	f85d 7b04 	ldr.w	r7, [sp], #4
      7a:	4770      	bx	lr

0000007c <ta_entry_tcp_open>:
ta_entry_tcp_open():
/home/qemu-sgx/devel/optee/out-br/build/optee_test_ext-1.0/ta/socket/ta_entry.c:46
      7c:	f84d 4d0c 	str.w	r4, [sp, #-12]!
      80:	e9cd 7e01 	strd	r7, lr, [sp, #4]
      84:	b08f      	sub	sp, #60	; 0x3c
      86:	af04      	add	r7, sp, #16
      88:	6078      	str	r0, [r7, #4]
      8a:	6039      	str	r1, [r7, #0]
      8c:	4c48      	ldr	r4, [pc, #288]	; (1b0 <ta_entry_tcp_open+0x134>)
      8e:	447c      	add	r4, pc
/home/qemu-sgx/devel/optee/out-br/build/optee_test_ext-1.0/ta/socket/ta_entry.c:47
      90:	f04f 0300 	mov.w	r3, #0
      94:	f6cf 73ff 	movt	r3, #65535	; 0xffff
      98:	627b      	str	r3, [r7, #36]	; 0x24
/home/qemu-sgx/devel/optee/out-br/build/optee_test_ext-1.0/ta/socket/ta_entry.c:48
      9a:	f107 0318 	add.w	r3, r7, #24
      9e:	efc0 0010 	vmov.i32	d16, #0	; 0x00000000
      a2:	edc3 0b00 	vstr	d16, [r3]
/home/qemu-sgx/devel/optee/out-br/build/optee_test_ext-1.0/ta/socket/ta_entry.c:49
      a6:	f107 030c 	add.w	r3, r7, #12
      aa:	efc0 0010 	vmov.i32	d16, #0	; 0x00000000
      ae:	edc3 0b00 	vstr	d16, [r3]
      b2:	edc3 0b01 	vstr	d16, [r3, #4]
/home/qemu-sgx/devel/optee/out-br/build/optee_test_ext-1.0/ta/socket/ta_entry.c:50
      b6:	f242 6351 	movw	r3, #9809	; 0x2651
      ba:	623b      	str	r3, [r7, #32]
/home/qemu-sgx/devel/optee/out-br/build/optee_test_ext-1.0/ta/socket/ta_entry.c:56
      bc:	687a      	ldr	r2, [r7, #4]
      be:	6a3b      	ldr	r3, [r7, #32]
      c0:	429a      	cmp	r2, r3
      c2:	d015      	beq.n	f0 <ta_entry_tcp_open+0x74>
/home/qemu-sgx/devel/optee/out-br/build/optee_test_ext-1.0/ta/socket/ta_entry.c:57
      c4:	6a3b      	ldr	r3, [r7, #32]
      c6:	9302      	str	r3, [sp, #8]
      c8:	687b      	ldr	r3, [r7, #4]
      ca:	9301      	str	r3, [sp, #4]
      cc:	4b39      	ldr	r3, [pc, #228]	; (1b4 <ta_entry_tcp_open+0x138>)
      ce:	447b      	add	r3, pc
      d0:	9300      	str	r3, [sp, #0]
      d2:	f04f 0301 	mov.w	r3, #1
      d6:	f04f 0201 	mov.w	r2, #1
      da:	f04f 0139 	mov.w	r1, #57	; 0x39
      de:	4836      	ldr	r0, [pc, #216]	; (1b8 <ta_entry_tcp_open+0x13c>)
      e0:	4478      	add	r0, pc
      e2:	f002 f936 	bl	2352 <trace_printf>
/home/qemu-sgx/devel/optee/out-br/build/optee_test_ext-1.0/ta/socket/ta_entry.c:59
      e6:	f04f 0306 	mov.w	r3, #6
      ea:	f6cf 73ff 	movt	r3, #65535	; 0xffff
      ee:	e055      	b.n	19c <ta_entry_tcp_open+0x120>
/home/qemu-sgx/devel/optee/out-br/build/optee_test_ext-1.0/ta/socket/ta_entry.c:62
      f0:	683b      	ldr	r3, [r7, #0]
      f2:	f103 0310 	add.w	r3, r3, #16
      f6:	685b      	ldr	r3, [r3, #4]
      f8:	2b07      	cmp	r3, #7
      fa:	d80a      	bhi.n	112 <ta_entry_tcp_open+0x96>
/home/qemu-sgx/devel/optee/out-br/build/optee_test_ext-1.0/ta/socket/ta_entry.c:63
      fc:	683b      	ldr	r3, [r7, #0]
      fe:	f103 0310 	add.w	r3, r3, #16
     102:	f04f 0208 	mov.w	r2, #8
     106:	605a      	str	r2, [r3, #4]
/home/qemu-sgx/devel/optee/out-br/build/optee_test_ext-1.0/ta/socket/ta_entry.c:64
     108:	f04f 0310 	mov.w	r3, #16
     10c:	f6cf 73ff 	movt	r3, #65535	; 0xffff
     110:	e044      	b.n	19c <ta_entry_tcp_open+0x120>
/home/qemu-sgx/devel/optee/out-br/build/optee_test_ext-1.0/ta/socket/ta_entry.c:67
     112:	683b      	ldr	r3, [r7, #0]
     114:	681b      	ldr	r3, [r3, #0]
     116:	60fb      	str	r3, [r7, #12]
/home/qemu-sgx/devel/optee/out-br/build/optee_test_ext-1.0/ta/socket/ta_entry.c:68
     118:	683b      	ldr	r3, [r7, #0]
     11a:	685b      	ldr	r3, [r3, #4]
     11c:	b29b      	uxth	r3, r3
     11e:	82bb      	strh	r3, [r7, #20]
/home/qemu-sgx/devel/optee/out-br/build/optee_test_ext-1.0/ta/socket/ta_entry.c:69
     120:	683b      	ldr	r3, [r7, #0]
     122:	f103 0308 	add.w	r3, r3, #8
     126:	681a      	ldr	r2, [r3, #0]
/home/qemu-sgx/devel/optee/out-br/build/optee_test_ext-1.0/ta/socket/ta_entry.c:70
     128:	683b      	ldr	r3, [r7, #0]
     12a:	f103 0308 	add.w	r3, r3, #8
/home/qemu-sgx/devel/optee/out-br/build/optee_test_ext-1.0/ta/socket/ta_entry.c:69
     12e:	685b      	ldr	r3, [r3, #4]
     130:	4619      	mov	r1, r3
     132:	4610      	mov	r0, r2
     134:	f012 f8b2 	bl	1229c <strndup>
     138:	4603      	mov	r3, r0
     13a:	613b      	str	r3, [r7, #16]
/home/qemu-sgx/devel/optee/out-br/build/optee_test_ext-1.0/ta/socket/ta_entry.c:71
     13c:	693b      	ldr	r3, [r7, #16]
     13e:	2b00      	cmp	r3, #0
     140:	d104      	bne.n	14c <ta_entry_tcp_open+0xd0>
/home/qemu-sgx/devel/optee/out-br/build/optee_test_ext-1.0/ta/socket/ta_entry.c:72
     142:	f04f 030c 	mov.w	r3, #12
     146:	f6cf 73ff 	movt	r3, #65535	; 0xffff
     14a:	e027      	b.n	19c <ta_entry_tcp_open+0x120>
/home/qemu-sgx/devel/optee/out-br/build/optee_test_ext-1.0/ta/socket/ta_entry.c:74
     14c:	4b1b      	ldr	r3, [pc, #108]	; (1bc <ta_entry_tcp_open+0x140>)
     14e:	58e3      	ldr	r3, [r4, r3]
     150:	681b      	ldr	r3, [r3, #0]
     152:	61fb      	str	r3, [r7, #28]
/home/qemu-sgx/devel/optee/out-br/build/optee_test_ext-1.0/ta/socket/ta_entry.c:75
     154:	69fb      	ldr	r3, [r7, #28]
     156:	689b      	ldr	r3, [r3, #8]
     158:	683a      	ldr	r2, [r7, #0]
     15a:	f102 0218 	add.w	r2, r2, #24
     15e:	f107 010c 	add.w	r1, r7, #12
     162:	f107 0018 	add.w	r0, r7, #24
     166:	4798      	blx	r3
     168:	6278      	str	r0, [r7, #36]	; 0x24
/home/qemu-sgx/devel/optee/out-br/build/optee_test_ext-1.0/ta/socket/ta_entry.c:76
     16a:	693b      	ldr	r3, [r7, #16]
     16c:	4618      	mov	r0, r3
     16e:	f001 fea2 	bl	1eb6 <free>
/home/qemu-sgx/devel/optee/out-br/build/optee_test_ext-1.0/ta/socket/ta_entry.c:77
     172:	6a7b      	ldr	r3, [r7, #36]	; 0x24
     174:	2b00      	cmp	r3, #0
     176:	d110      	bne.n	19a <ta_entry_tcp_open+0x11e>
/home/qemu-sgx/devel/optee/out-br/build/optee_test_ext-1.0/ta/socket/ta_entry.c:78
     178:	683b      	ldr	r3, [r7, #0]
     17a:	f103 0310 	add.w	r3, r3, #16
     17e:	681b      	ldr	r3, [r3, #0]
     180:	f107 0118 	add.w	r1, r7, #24
     184:	f04f 0208 	mov.w	r2, #8
     188:	4618      	mov	r0, r3
     18a:	f012 f8b3 	bl	122f4 <memcpy>
/home/qemu-sgx/devel/optee/out-br/build/optee_test_ext-1.0/ta/socket/ta_entry.c:79
     18e:	683b      	ldr	r3, [r7, #0]
     190:	f103 0310 	add.w	r3, r3, #16
     194:	f04f 0208 	mov.w	r2, #8
     198:	605a      	str	r2, [r3, #4]
/home/qemu-sgx/devel/optee/out-br/build/optee_test_ext-1.0/ta/socket/ta_entry.c:81
     19a:	6a7b      	ldr	r3, [r7, #36]	; 0x24
/home/qemu-sgx/devel/optee/out-br/build/optee_test_ext-1.0/ta/socket/ta_entry.c:82 (discriminator 1)
     19c:	4618      	mov	r0, r3
     19e:	f107 072c 	add.w	r7, r7, #44	; 0x2c
     1a2:	46bd      	mov	sp, r7
     1a4:	e9dd 4700 	ldrd	r4, r7, [sp]
     1a8:	b002      	add	sp, #8
     1aa:	f85d fb04 	ldr.w	pc, [sp], #4
     1ae:	bf00      	nop
     1b0:	00017ff6 	.word	0x00017ff6
     1b4:	00014036 	.word	0x00014036
     1b8:	00014048 	.word	0x00014048
     1bc:	0000002c 	.word	0x0000002c

000001c0 <ta_entry_udp_open>:
ta_entry_udp_open():
/home/qemu-sgx/devel/optee/out-br/build/optee_test_ext-1.0/ta/socket/ta_entry.c:85
     1c0:	f84d 4d0c 	str.w	r4, [sp, #-12]!
     1c4:	e9cd 7e01 	strd	r7, lr, [sp, #4]
     1c8:	b08f      	sub	sp, #60	; 0x3c
     1ca:	af04      	add	r7, sp, #16
     1cc:	6078      	str	r0, [r7, #4]
     1ce:	6039      	str	r1, [r7, #0]
     1d0:	4c48      	ldr	r4, [pc, #288]	; (2f4 <ta_entry_udp_open+0x134>)
     1d2:	447c      	add	r4, pc
/home/qemu-sgx/devel/optee/out-br/build/optee_test_ext-1.0/ta/socket/ta_entry.c:86
     1d4:	f04f 0300 	mov.w	r3, #0
     1d8:	f6cf 73ff 	movt	r3, #65535	; 0xffff
     1dc:	627b      	str	r3, [r7, #36]	; 0x24
/home/qemu-sgx/devel/optee/out-br/build/optee_test_ext-1.0/ta/socket/ta_entry.c:87
     1de:	f107 0318 	add.w	r3, r7, #24
     1e2:	efc0 0010 	vmov.i32	d16, #0	; 0x00000000
     1e6:	edc3 0b00 	vstr	d16, [r3]
/home/qemu-sgx/devel/optee/out-br/build/optee_test_ext-1.0/ta/socket/ta_entry.c:88
     1ea:	f107 030c 	add.w	r3, r7, #12
     1ee:	efc0 0010 	vmov.i32	d16, #0	; 0x00000000
     1f2:	edc3 0b00 	vstr	d16, [r3]
     1f6:	edc3 0b01 	vstr	d16, [r3, #4]
/home/qemu-sgx/devel/optee/out-br/build/optee_test_ext-1.0/ta/socket/ta_entry.c:89
     1fa:	f242 6351 	movw	r3, #9809	; 0x2651
     1fe:	623b      	str	r3, [r7, #32]
/home/qemu-sgx/devel/optee/out-br/build/optee_test_ext-1.0/ta/socket/ta_entry.c:95
     200:	687a      	ldr	r2, [r7, #4]
     202:	6a3b      	ldr	r3, [r7, #32]
     204:	429a      	cmp	r2, r3
     206:	d015      	beq.n	234 <ta_entry_udp_open+0x74>
/home/qemu-sgx/devel/optee/out-br/build/optee_test_ext-1.0/ta/socket/ta_entry.c:96
     208:	6a3b      	ldr	r3, [r7, #32]
     20a:	9302      	str	r3, [sp, #8]
     20c:	687b      	ldr	r3, [r7, #4]
     20e:	9301      	str	r3, [sp, #4]
     210:	4b39      	ldr	r3, [pc, #228]	; (2f8 <ta_entry_udp_open+0x138>)
     212:	447b      	add	r3, pc
     214:	9300      	str	r3, [sp, #0]
     216:	f04f 0301 	mov.w	r3, #1
     21a:	f04f 0201 	mov.w	r2, #1
     21e:	f04f 0160 	mov.w	r1, #96	; 0x60
     222:	4836      	ldr	r0, [pc, #216]	; (2fc <ta_entry_udp_open+0x13c>)
     224:	4478      	add	r0, pc
     226:	f002 f894 	bl	2352 <trace_printf>
/home/qemu-sgx/devel/optee/out-br/build/optee_test_ext-1.0/ta/socket/ta_entry.c:98
     22a:	f04f 0306 	mov.w	r3, #6
     22e:	f6cf 73ff 	movt	r3, #65535	; 0xffff
     232:	e055      	b.n	2e0 <ta_entry_udp_open+0x120>
/home/qemu-sgx/devel/optee/out-br/build/optee_test_ext-1.0/ta/socket/ta_entry.c:101
     234:	683b      	ldr	r3, [r7, #0]
     236:	f103 0310 	add.w	r3, r3, #16
     23a:	685b      	ldr	r3, [r3, #4]
     23c:	2b07      	cmp	r3, #7
     23e:	d80a      	bhi.n	256 <ta_entry_udp_open+0x96>
/home/qemu-sgx/devel/optee/out-br/build/optee_test_ext-1.0/ta/socket/ta_entry.c:102
     240:	683b      	ldr	r3, [r7, #0]
     242:	f103 0310 	add.w	r3, r3, #16
     246:	f04f 0208 	mov.w	r2, #8
     24a:	605a      	str	r2, [r3, #4]
/home/qemu-sgx/devel/optee/out-br/build/optee_test_ext-1.0/ta/socket/ta_entry.c:103
     24c:	f04f 0310 	mov.w	r3, #16
     250:	f6cf 73ff 	movt	r3, #65535	; 0xffff
     254:	e044      	b.n	2e0 <ta_entry_udp_open+0x120>
/home/qemu-sgx/devel/optee/out-br/build/optee_test_ext-1.0/ta/socket/ta_entry.c:106
     256:	683b      	ldr	r3, [r7, #0]
     258:	681b      	ldr	r3, [r3, #0]
     25a:	60fb      	str	r3, [r7, #12]
/home/qemu-sgx/devel/optee/out-br/build/optee_test_ext-1.0/ta/socket/ta_entry.c:107
     25c:	683b      	ldr	r3, [r7, #0]
     25e:	685b      	ldr	r3, [r3, #4]
     260:	b29b      	uxth	r3, r3
     262:	82bb      	strh	r3, [r7, #20]
/home/qemu-sgx/devel/optee/out-br/build/optee_test_ext-1.0/ta/socket/ta_entry.c:108
     264:	683b      	ldr	r3, [r7, #0]
     266:	f103 0308 	add.w	r3, r3, #8
     26a:	681a      	ldr	r2, [r3, #0]
/home/qemu-sgx/devel/optee/out-br/build/optee_test_ext-1.0/ta/socket/ta_entry.c:109
     26c:	683b      	ldr	r3, [r7, #0]
     26e:	f103 0308 	add.w	r3, r3, #8
/home/qemu-sgx/devel/optee/out-br/build/optee_test_ext-1.0/ta/socket/ta_entry.c:108
     272:	685b      	ldr	r3, [r3, #4]
     274:	4619      	mov	r1, r3
     276:	4610      	mov	r0, r2
     278:	f012 f810 	bl	1229c <strndup>
     27c:	4603      	mov	r3, r0
     27e:	613b      	str	r3, [r7, #16]
/home/qemu-sgx/devel/optee/out-br/build/optee_test_ext-1.0/ta/socket/ta_entry.c:110
     280:	693b      	ldr	r3, [r7, #16]
     282:	2b00      	cmp	r3, #0
     284:	d104      	bne.n	290 <ta_entry_udp_open+0xd0>
/home/qemu-sgx/devel/optee/out-br/build/optee_test_ext-1.0/ta/socket/ta_entry.c:111
     286:	f04f 030c 	mov.w	r3, #12
     28a:	f6cf 73ff 	movt	r3, #65535	; 0xffff
     28e:	e027      	b.n	2e0 <ta_entry_udp_open+0x120>
/home/qemu-sgx/devel/optee/out-br/build/optee_test_ext-1.0/ta/socket/ta_entry.c:113
     290:	4b1b      	ldr	r3, [pc, #108]	; (300 <ta_entry_udp_open+0x140>)
     292:	58e3      	ldr	r3, [r4, r3]
     294:	681b      	ldr	r3, [r3, #0]
     296:	61fb      	str	r3, [r7, #28]
/home/qemu-sgx/devel/optee/out-br/build/optee_test_ext-1.0/ta/socket/ta_entry.c:114
     298:	69fb      	ldr	r3, [r7, #28]
     29a:	689b      	ldr	r3, [r3, #8]
     29c:	683a      	ldr	r2, [r7, #0]
     29e:	f102 0218 	add.w	r2, r2, #24
     2a2:	f107 010c 	add.w	r1, r7, #12
     2a6:	f107 0018 	add.w	r0, r7, #24
     2aa:	4798      	blx	r3
     2ac:	6278      	str	r0, [r7, #36]	; 0x24
/home/qemu-sgx/devel/optee/out-br/build/optee_test_ext-1.0/ta/socket/ta_entry.c:115
     2ae:	693b      	ldr	r3, [r7, #16]
     2b0:	4618      	mov	r0, r3
     2b2:	f001 fe00 	bl	1eb6 <free>
/home/qemu-sgx/devel/optee/out-br/build/optee_test_ext-1.0/ta/socket/ta_entry.c:116
     2b6:	6a7b      	ldr	r3, [r7, #36]	; 0x24
     2b8:	2b00      	cmp	r3, #0
     2ba:	d110      	bne.n	2de <ta_entry_udp_open+0x11e>
/home/qemu-sgx/devel/optee/out-br/build/optee_test_ext-1.0/ta/socket/ta_entry.c:117
     2bc:	683b      	ldr	r3, [r7, #0]
     2be:	f103 0310 	add.w	r3, r3, #16
     2c2:	681b      	ldr	r3, [r3, #0]
     2c4:	f107 0118 	add.w	r1, r7, #24
     2c8:	f04f 0208 	mov.w	r2, #8
     2cc:	4618      	mov	r0, r3
     2ce:	f012 f811 	bl	122f4 <memcpy>
/home/qemu-sgx/devel/optee/out-br/build/optee_test_ext-1.0/ta/socket/ta_entry.c:118
     2d2:	683b      	ldr	r3, [r7, #0]
     2d4:	f103 0310 	add.w	r3, r3, #16
     2d8:	f04f 0208 	mov.w	r2, #8
     2dc:	605a      	str	r2, [r3, #4]
/home/qemu-sgx/devel/optee/out-br/build/optee_test_ext-1.0/ta/socket/ta_entry.c:120
     2de:	6a7b      	ldr	r3, [r7, #36]	; 0x24
/home/qemu-sgx/devel/optee/out-br/build/optee_test_ext-1.0/ta/socket/ta_entry.c:121 (discriminator 1)
     2e0:	4618      	mov	r0, r3
     2e2:	f107 072c 	add.w	r7, r7, #44	; 0x2c
     2e6:	46bd      	mov	sp, r7
     2e8:	e9dd 4700 	ldrd	r4, r7, [sp]
     2ec:	b002      	add	sp, #8
     2ee:	f85d fb04 	ldr.w	pc, [sp], #4
     2f2:	bf00      	nop
     2f4:	00017eb2 	.word	0x00017eb2
     2f8:	00013ef2 	.word	0x00013ef2
     2fc:	00013f18 	.word	0x00013f18
     300:	00000030 	.word	0x00000030

00000304 <ta_entry_close>:
ta_entry_close():
/home/qemu-sgx/devel/optee/out-br/build/optee_test_ext-1.0/ta/socket/ta_entry.c:124
     304:	e96d 7e02 	strd	r7, lr, [sp, #-8]!
     308:	b088      	sub	sp, #32
     30a:	af04      	add	r7, sp, #16
     30c:	6078      	str	r0, [r7, #4]
     30e:	6039      	str	r1, [r7, #0]
/home/qemu-sgx/devel/optee/out-br/build/optee_test_ext-1.0/ta/socket/ta_entry.c:125
     310:	f04f 0300 	mov.w	r3, #0
     314:	60fb      	str	r3, [r7, #12]
/home/qemu-sgx/devel/optee/out-br/build/optee_test_ext-1.0/ta/socket/ta_entry.c:126
     316:	f04f 0305 	mov.w	r3, #5
     31a:	60bb      	str	r3, [r7, #8]
/home/qemu-sgx/devel/optee/out-br/build/optee_test_ext-1.0/ta/socket/ta_entry.c:131
     31c:	687a      	ldr	r2, [r7, #4]
     31e:	68bb      	ldr	r3, [r7, #8]
     320:	429a      	cmp	r2, r3
     322:	d015      	beq.n	350 <ta_entry_close+0x4c>
/home/qemu-sgx/devel/optee/out-br/build/optee_test_ext-1.0/ta/socket/ta_entry.c:132
     324:	68bb      	ldr	r3, [r7, #8]
     326:	9302      	str	r3, [sp, #8]
     328:	687b      	ldr	r3, [r7, #4]
     32a:	9301      	str	r3, [sp, #4]
     32c:	4b15      	ldr	r3, [pc, #84]	; (384 <ta_entry_close+0x80>)
     32e:	447b      	add	r3, pc
     330:	9300      	str	r3, [sp, #0]
     332:	f04f 0301 	mov.w	r3, #1
     336:	f04f 0201 	mov.w	r2, #1
     33a:	f04f 0184 	mov.w	r1, #132	; 0x84
     33e:	4812      	ldr	r0, [pc, #72]	; (388 <ta_entry_close+0x84>)
     340:	4478      	add	r0, pc
     342:	f002 f806 	bl	2352 <trace_printf>
/home/qemu-sgx/devel/optee/out-br/build/optee_test_ext-1.0/ta/socket/ta_entry.c:134
     346:	f04f 0306 	mov.w	r3, #6
     34a:	f6cf 73ff 	movt	r3, #65535	; 0xffff
     34e:	e013      	b.n	378 <ta_entry_close+0x74>
/home/qemu-sgx/devel/optee/out-br/build/optee_test_ext-1.0/ta/socket/ta_entry.c:137
     350:	683b      	ldr	r3, [r7, #0]
     352:	685b      	ldr	r3, [r3, #4]
     354:	2b08      	cmp	r3, #8
     356:	d004      	beq.n	362 <ta_entry_close+0x5e>
/home/qemu-sgx/devel/optee/out-br/build/optee_test_ext-1.0/ta/socket/ta_entry.c:138
     358:	f04f 0306 	mov.w	r3, #6
     35c:	f6cf 73ff 	movt	r3, #65535	; 0xffff
     360:	e00a      	b.n	378 <ta_entry_close+0x74>
/home/qemu-sgx/devel/optee/out-br/build/optee_test_ext-1.0/ta/socket/ta_entry.c:140
     362:	683b      	ldr	r3, [r7, #0]
     364:	681b      	ldr	r3, [r3, #0]
     366:	60fb      	str	r3, [r7, #12]
/home/qemu-sgx/devel/optee/out-br/build/optee_test_ext-1.0/ta/socket/ta_entry.c:141
     368:	68fb      	ldr	r3, [r7, #12]
     36a:	685b      	ldr	r3, [r3, #4]
     36c:	68db      	ldr	r3, [r3, #12]
     36e:	68fa      	ldr	r2, [r7, #12]
     370:	6812      	ldr	r2, [r2, #0]
     372:	4610      	mov	r0, r2
     374:	4798      	blx	r3
     376:	4603      	mov	r3, r0
/home/qemu-sgx/devel/optee/out-br/build/optee_test_ext-1.0/ta/socket/ta_entry.c:142
     378:	4618      	mov	r0, r3
     37a:	f107 0710 	add.w	r7, r7, #16
     37e:	46bd      	mov	sp, r7
     380:	bd80      	pop	{r7, pc}
     382:	bf00      	nop
     384:	00013dd6 	.word	0x00013dd6
     388:	00013e10 	.word	0x00013e10

0000038c <ta_entry_send>:
ta_entry_send():
/home/qemu-sgx/devel/optee/out-br/build/optee_test_ext-1.0/ta/socket/ta_entry.c:145
     38c:	f84d 4d0c 	str.w	r4, [sp, #-12]!
     390:	e9cd 7e01 	strd	r7, lr, [sp, #4]
     394:	b089      	sub	sp, #36	; 0x24
     396:	af04      	add	r7, sp, #16
     398:	6078      	str	r0, [r7, #4]
     39a:	6039      	str	r1, [r7, #0]
/home/qemu-sgx/devel/optee/out-br/build/optee_test_ext-1.0/ta/socket/ta_entry.c:146
     39c:	f04f 0300 	mov.w	r3, #0
     3a0:	60fb      	str	r3, [r7, #12]
/home/qemu-sgx/devel/optee/out-br/build/optee_test_ext-1.0/ta/socket/ta_entry.c:147
     3a2:	f240 3355 	movw	r3, #853	; 0x355
     3a6:	60bb      	str	r3, [r7, #8]
/home/qemu-sgx/devel/optee/out-br/build/optee_test_ext-1.0/ta/socket/ta_entry.c:153
     3a8:	687a      	ldr	r2, [r7, #4]
     3aa:	68bb      	ldr	r3, [r7, #8]
     3ac:	429a      	cmp	r2, r3
     3ae:	d015      	beq.n	3dc <ta_entry_send+0x50>
/home/qemu-sgx/devel/optee/out-br/build/optee_test_ext-1.0/ta/socket/ta_entry.c:154
     3b0:	68bb      	ldr	r3, [r7, #8]
     3b2:	9302      	str	r3, [sp, #8]
     3b4:	687b      	ldr	r3, [r7, #4]
     3b6:	9301      	str	r3, [sp, #4]
     3b8:	4b21      	ldr	r3, [pc, #132]	; (440 <ta_entry_send+0xb4>)
     3ba:	447b      	add	r3, pc
     3bc:	9300      	str	r3, [sp, #0]
     3be:	f04f 0301 	mov.w	r3, #1
     3c2:	f04f 0201 	mov.w	r2, #1
     3c6:	f04f 019a 	mov.w	r1, #154	; 0x9a
     3ca:	481e      	ldr	r0, [pc, #120]	; (444 <ta_entry_send+0xb8>)
     3cc:	4478      	add	r0, pc
     3ce:	f001 ffc0 	bl	2352 <trace_printf>
/home/qemu-sgx/devel/optee/out-br/build/optee_test_ext-1.0/ta/socket/ta_entry.c:156
     3d2:	f04f 0306 	mov.w	r3, #6
     3d6:	f6cf 73ff 	movt	r3, #65535	; 0xffff
     3da:	e027      	b.n	42c <ta_entry_send+0xa0>
/home/qemu-sgx/devel/optee/out-br/build/optee_test_ext-1.0/ta/socket/ta_entry.c:159
     3dc:	683b      	ldr	r3, [r7, #0]
     3de:	685b      	ldr	r3, [r3, #4]
     3e0:	2b08      	cmp	r3, #8
     3e2:	d004      	beq.n	3ee <ta_entry_send+0x62>
/home/qemu-sgx/devel/optee/out-br/build/optee_test_ext-1.0/ta/socket/ta_entry.c:160
     3e4:	f04f 0306 	mov.w	r3, #6
     3e8:	f6cf 73ff 	movt	r3, #65535	; 0xffff
     3ec:	e01e      	b.n	42c <ta_entry_send+0xa0>
/home/qemu-sgx/devel/optee/out-br/build/optee_test_ext-1.0/ta/socket/ta_entry.c:162
     3ee:	683b      	ldr	r3, [r7, #0]
     3f0:	681b      	ldr	r3, [r3, #0]
     3f2:	60fb      	str	r3, [r7, #12]
/home/qemu-sgx/devel/optee/out-br/build/optee_test_ext-1.0/ta/socket/ta_entry.c:163
     3f4:	683b      	ldr	r3, [r7, #0]
     3f6:	f103 0208 	add.w	r2, r3, #8
     3fa:	683b      	ldr	r3, [r7, #0]
     3fc:	f103 0310 	add.w	r3, r3, #16
     400:	6852      	ldr	r2, [r2, #4]
     402:	605a      	str	r2, [r3, #4]
/home/qemu-sgx/devel/optee/out-br/build/optee_test_ext-1.0/ta/socket/ta_entry.c:164
     404:	68fb      	ldr	r3, [r7, #12]
     406:	685b      	ldr	r3, [r3, #4]
     408:	691c      	ldr	r4, [r3, #16]
     40a:	68fb      	ldr	r3, [r7, #12]
     40c:	6818      	ldr	r0, [r3, #0]
     40e:	683b      	ldr	r3, [r7, #0]
     410:	f103 0308 	add.w	r3, r3, #8
     414:	6819      	ldr	r1, [r3, #0]
/home/qemu-sgx/devel/optee/out-br/build/optee_test_ext-1.0/ta/socket/ta_entry.c:165
     416:	683b      	ldr	r3, [r7, #0]
     418:	f103 0310 	add.w	r3, r3, #16
/home/qemu-sgx/devel/optee/out-br/build/optee_test_ext-1.0/ta/socket/ta_entry.c:164
     41c:	f103 0204 	add.w	r2, r3, #4
/home/qemu-sgx/devel/optee/out-br/build/optee_test_ext-1.0/ta/socket/ta_entry.c:165
     420:	683b      	ldr	r3, [r7, #0]
     422:	f103 0310 	add.w	r3, r3, #16
/home/qemu-sgx/devel/optee/out-br/build/optee_test_ext-1.0/ta/socket/ta_entry.c:164
     426:	681b      	ldr	r3, [r3, #0]
     428:	47a0      	blx	r4
     42a:	4603      	mov	r3, r0
/home/qemu-sgx/devel/optee/out-br/build/optee_test_ext-1.0/ta/socket/ta_entry.c:166
     42c:	4618      	mov	r0, r3
     42e:	f107 0714 	add.w	r7, r7, #20
     432:	46bd      	mov	sp, r7
     434:	e9dd 4700 	ldrd	r4, r7, [sp]
     438:	b002      	add	sp, #8
     43a:	f85d fb04 	ldr.w	pc, [sp], #4
     43e:	bf00      	nop
     440:	00013d4a 	.word	0x00013d4a
     444:	00013d94 	.word	0x00013d94

00000448 <ta_entry_recv>:
ta_entry_recv():
/home/qemu-sgx/devel/optee/out-br/build/optee_test_ext-1.0/ta/socket/ta_entry.c:169
     448:	f84d 4d0c 	str.w	r4, [sp, #-12]!
     44c:	e9cd 7e01 	strd	r7, lr, [sp, #4]
     450:	b089      	sub	sp, #36	; 0x24
     452:	af04      	add	r7, sp, #16
     454:	6078      	str	r0, [r7, #4]
     456:	6039      	str	r1, [r7, #0]
/home/qemu-sgx/devel/optee/out-br/build/optee_test_ext-1.0/ta/socket/ta_entry.c:170
     458:	f04f 0300 	mov.w	r3, #0
     45c:	60fb      	str	r3, [r7, #12]
/home/qemu-sgx/devel/optee/out-br/build/optee_test_ext-1.0/ta/socket/ta_entry.c:171
     45e:	f240 1365 	movw	r3, #357	; 0x165
     462:	60bb      	str	r3, [r7, #8]
/home/qemu-sgx/devel/optee/out-br/build/optee_test_ext-1.0/ta/socket/ta_entry.c:177
     464:	687a      	ldr	r2, [r7, #4]
     466:	68bb      	ldr	r3, [r7, #8]
     468:	429a      	cmp	r2, r3
     46a:	d015      	beq.n	498 <ta_entry_recv+0x50>
/home/qemu-sgx/devel/optee/out-br/build/optee_test_ext-1.0/ta/socket/ta_entry.c:178
     46c:	68bb      	ldr	r3, [r7, #8]
     46e:	9302      	str	r3, [sp, #8]
     470:	687b      	ldr	r3, [r7, #4]
     472:	9301      	str	r3, [sp, #4]
     474:	4b1d      	ldr	r3, [pc, #116]	; (4ec <ta_entry_recv+0xa4>)
     476:	447b      	add	r3, pc
     478:	9300      	str	r3, [sp, #0]
     47a:	f04f 0301 	mov.w	r3, #1
     47e:	f04f 0201 	mov.w	r2, #1
     482:	f04f 01b2 	mov.w	r1, #178	; 0xb2
     486:	481a      	ldr	r0, [pc, #104]	; (4f0 <ta_entry_recv+0xa8>)
     488:	4478      	add	r0, pc
     48a:	f001 ff62 	bl	2352 <trace_printf>
/home/qemu-sgx/devel/optee/out-br/build/optee_test_ext-1.0/ta/socket/ta_entry.c:180
     48e:	f04f 0306 	mov.w	r3, #6
     492:	f6cf 73ff 	movt	r3, #65535	; 0xffff
     496:	e01f      	b.n	4d8 <ta_entry_recv+0x90>
/home/qemu-sgx/devel/optee/out-br/build/optee_test_ext-1.0/ta/socket/ta_entry.c:183
     498:	683b      	ldr	r3, [r7, #0]
     49a:	685b      	ldr	r3, [r3, #4]
     49c:	2b08      	cmp	r3, #8
     49e:	d004      	beq.n	4aa <ta_entry_recv+0x62>
/home/qemu-sgx/devel/optee/out-br/build/optee_test_ext-1.0/ta/socket/ta_entry.c:184
     4a0:	f04f 0306 	mov.w	r3, #6
     4a4:	f6cf 73ff 	movt	r3, #65535	; 0xffff
     4a8:	e016      	b.n	4d8 <ta_entry_recv+0x90>
/home/qemu-sgx/devel/optee/out-br/build/optee_test_ext-1.0/ta/socket/ta_entry.c:186
     4aa:	683b      	ldr	r3, [r7, #0]
     4ac:	681b      	ldr	r3, [r3, #0]
     4ae:	60fb      	str	r3, [r7, #12]
/home/qemu-sgx/devel/optee/out-br/build/optee_test_ext-1.0/ta/socket/ta_entry.c:187
     4b0:	68fb      	ldr	r3, [r7, #12]
     4b2:	685b      	ldr	r3, [r3, #4]
     4b4:	695c      	ldr	r4, [r3, #20]
     4b6:	68fb      	ldr	r3, [r7, #12]
     4b8:	6818      	ldr	r0, [r3, #0]
     4ba:	683b      	ldr	r3, [r7, #0]
     4bc:	f103 0308 	add.w	r3, r3, #8
     4c0:	6819      	ldr	r1, [r3, #0]
/home/qemu-sgx/devel/optee/out-br/build/optee_test_ext-1.0/ta/socket/ta_entry.c:188
     4c2:	683b      	ldr	r3, [r7, #0]
     4c4:	f103 0308 	add.w	r3, r3, #8
/home/qemu-sgx/devel/optee/out-br/build/optee_test_ext-1.0/ta/socket/ta_entry.c:187
     4c8:	f103 0204 	add.w	r2, r3, #4
/home/qemu-sgx/devel/optee/out-br/build/optee_test_ext-1.0/ta/socket/ta_entry.c:188
     4cc:	683b      	ldr	r3, [r7, #0]
     4ce:	f103 0310 	add.w	r3, r3, #16
/home/qemu-sgx/devel/optee/out-br/build/optee_test_ext-1.0/ta/socket/ta_entry.c:187
     4d2:	681b      	ldr	r3, [r3, #0]
     4d4:	47a0      	blx	r4
     4d6:	4603      	mov	r3, r0
/home/qemu-sgx/devel/optee/out-br/build/optee_test_ext-1.0/ta/socket/ta_entry.c:189
     4d8:	4618      	mov	r0, r3
     4da:	f107 0714 	add.w	r7, r7, #20
     4de:	46bd      	mov	sp, r7
     4e0:	e9dd 4700 	ldrd	r4, r7, [sp]
     4e4:	b002      	add	sp, #8
     4e6:	f85d fb04 	ldr.w	pc, [sp], #4
     4ea:	bf00      	nop
     4ec:	00013c8e 	.word	0x00013c8e
     4f0:	00013ce8 	.word	0x00013ce8

000004f4 <ta_entry_error>:
ta_entry_error():
/home/qemu-sgx/devel/optee/out-br/build/optee_test_ext-1.0/ta/socket/ta_entry.c:192
     4f4:	f84d 4d0c 	str.w	r4, [sp, #-12]!
     4f8:	e9cd 7e01 	strd	r7, lr, [sp, #4]
     4fc:	b089      	sub	sp, #36	; 0x24
     4fe:	af04      	add	r7, sp, #16
     500:	6078      	str	r0, [r7, #4]
     502:	6039      	str	r1, [r7, #0]
/home/qemu-sgx/devel/optee/out-br/build/optee_test_ext-1.0/ta/socket/ta_entry.c:193
     504:	f04f 0300 	mov.w	r3, #0
     508:	60fb      	str	r3, [r7, #12]
/home/qemu-sgx/devel/optee/out-br/build/optee_test_ext-1.0/ta/socket/ta_entry.c:194
     50a:	f04f 0325 	mov.w	r3, #37	; 0x25
     50e:	60bb      	str	r3, [r7, #8]
/home/qemu-sgx/devel/optee/out-br/build/optee_test_ext-1.0/ta/socket/ta_entry.c:200
     510:	687a      	ldr	r2, [r7, #4]
     512:	68bb      	ldr	r3, [r7, #8]
     514:	429a      	cmp	r2, r3
     516:	d015      	beq.n	544 <ta_entry_error+0x50>
/home/qemu-sgx/devel/optee/out-br/build/optee_test_ext-1.0/ta/socket/ta_entry.c:201
     518:	68bb      	ldr	r3, [r7, #8]
     51a:	9302      	str	r3, [sp, #8]
     51c:	687b      	ldr	r3, [r7, #4]
     51e:	9301      	str	r3, [sp, #4]
     520:	4b1a      	ldr	r3, [pc, #104]	; (58c <ta_entry_error+0x98>)
     522:	447b      	add	r3, pc
     524:	9300      	str	r3, [sp, #0]
     526:	f04f 0301 	mov.w	r3, #1
     52a:	f04f 0201 	mov.w	r2, #1
     52e:	f04f 01c9 	mov.w	r1, #201	; 0xc9
     532:	4817      	ldr	r0, [pc, #92]	; (590 <ta_entry_error+0x9c>)
     534:	4478      	add	r0, pc
     536:	f001 ff0c 	bl	2352 <trace_printf>
/home/qemu-sgx/devel/optee/out-br/build/optee_test_ext-1.0/ta/socket/ta_entry.c:203
     53a:	f04f 0306 	mov.w	r3, #6
     53e:	f6cf 73ff 	movt	r3, #65535	; 0xffff
     542:	e019      	b.n	578 <ta_entry_error+0x84>
/home/qemu-sgx/devel/optee/out-br/build/optee_test_ext-1.0/ta/socket/ta_entry.c:206
     544:	683b      	ldr	r3, [r7, #0]
     546:	685b      	ldr	r3, [r3, #4]
     548:	2b08      	cmp	r3, #8
     54a:	d004      	beq.n	556 <ta_entry_error+0x62>
/home/qemu-sgx/devel/optee/out-br/build/optee_test_ext-1.0/ta/socket/ta_entry.c:207
     54c:	f04f 0306 	mov.w	r3, #6
     550:	f6cf 73ff 	movt	r3, #65535	; 0xffff
     554:	e010      	b.n	578 <ta_entry_error+0x84>
/home/qemu-sgx/devel/optee/out-br/build/optee_test_ext-1.0/ta/socket/ta_entry.c:209
     556:	683b      	ldr	r3, [r7, #0]
     558:	681b      	ldr	r3, [r3, #0]
     55a:	60fb      	str	r3, [r7, #12]
/home/qemu-sgx/devel/optee/out-br/build/optee_test_ext-1.0/ta/socket/ta_entry.c:210
     55c:	68fb      	ldr	r3, [r7, #12]
     55e:	685b      	ldr	r3, [r3, #4]
     560:	699b      	ldr	r3, [r3, #24]
     562:	68fa      	ldr	r2, [r7, #12]
     564:	6811      	ldr	r1, [r2, #0]
     566:	683a      	ldr	r2, [r7, #0]
     568:	f102 0408 	add.w	r4, r2, #8
     56c:	4608      	mov	r0, r1
     56e:	4798      	blx	r3
     570:	4603      	mov	r3, r0
     572:	6023      	str	r3, [r4, #0]
/home/qemu-sgx/devel/optee/out-br/build/optee_test_ext-1.0/ta/socket/ta_entry.c:211
     574:	f04f 0300 	mov.w	r3, #0
/home/qemu-sgx/devel/optee/out-br/build/optee_test_ext-1.0/ta/socket/ta_entry.c:212
     578:	4618      	mov	r0, r3
     57a:	f107 0714 	add.w	r7, r7, #20
     57e:	46bd      	mov	sp, r7
     580:	e9dd 4700 	ldrd	r4, r7, [sp]
     584:	b002      	add	sp, #8
     586:	f85d fb04 	ldr.w	pc, [sp], #4
     58a:	bf00      	nop
     58c:	00013be2 	.word	0x00013be2
     590:	00013c4c 	.word	0x00013c4c

00000594 <ta_entry_ioctl>:
ta_entry_ioctl():
/home/qemu-sgx/devel/optee/out-br/build/optee_test_ext-1.0/ta/socket/ta_entry.c:215
     594:	f84d 4d0c 	str.w	r4, [sp, #-12]!
     598:	e9cd 7e01 	strd	r7, lr, [sp, #4]
     59c:	b089      	sub	sp, #36	; 0x24
     59e:	af04      	add	r7, sp, #16
     5a0:	6078      	str	r0, [r7, #4]
     5a2:	6039      	str	r1, [r7, #0]
/home/qemu-sgx/devel/optee/out-br/build/optee_test_ext-1.0/ta/socket/ta_entry.c:216
     5a4:	f04f 0300 	mov.w	r3, #0
     5a8:	60fb      	str	r3, [r7, #12]
/home/qemu-sgx/devel/optee/out-br/build/optee_test_ext-1.0/ta/socket/ta_entry.c:217
     5aa:	f240 1375 	movw	r3, #373	; 0x175
     5ae:	60bb      	str	r3, [r7, #8]
/home/qemu-sgx/devel/optee/out-br/build/optee_test_ext-1.0/ta/socket/ta_entry.c:223
     5b0:	687a      	ldr	r2, [r7, #4]
     5b2:	68bb      	ldr	r3, [r7, #8]
     5b4:	429a      	cmp	r2, r3
     5b6:	d015      	beq.n	5e4 <ta_entry_ioctl+0x50>
/home/qemu-sgx/devel/optee/out-br/build/optee_test_ext-1.0/ta/socket/ta_entry.c:224
     5b8:	68bb      	ldr	r3, [r7, #8]
     5ba:	9302      	str	r3, [sp, #8]
     5bc:	687b      	ldr	r3, [r7, #4]
     5be:	9301      	str	r3, [sp, #4]
     5c0:	4b1d      	ldr	r3, [pc, #116]	; (638 <ta_entry_ioctl+0xa4>)
     5c2:	447b      	add	r3, pc
     5c4:	9300      	str	r3, [sp, #0]
     5c6:	f04f 0301 	mov.w	r3, #1
     5ca:	f04f 0201 	mov.w	r2, #1
     5ce:	f04f 01e0 	mov.w	r1, #224	; 0xe0
     5d2:	481a      	ldr	r0, [pc, #104]	; (63c <ta_entry_ioctl+0xa8>)
     5d4:	4478      	add	r0, pc
     5d6:	f001 febc 	bl	2352 <trace_printf>
/home/qemu-sgx/devel/optee/out-br/build/optee_test_ext-1.0/ta/socket/ta_entry.c:226
     5da:	f04f 0306 	mov.w	r3, #6
     5de:	f6cf 73ff 	movt	r3, #65535	; 0xffff
     5e2:	e01f      	b.n	624 <ta_entry_ioctl+0x90>
/home/qemu-sgx/devel/optee/out-br/build/optee_test_ext-1.0/ta/socket/ta_entry.c:229
     5e4:	683b      	ldr	r3, [r7, #0]
     5e6:	685b      	ldr	r3, [r3, #4]
     5e8:	2b08      	cmp	r3, #8
     5ea:	d004      	beq.n	5f6 <ta_entry_ioctl+0x62>
/home/qemu-sgx/devel/optee/out-br/build/optee_test_ext-1.0/ta/socket/ta_entry.c:230
     5ec:	f04f 0306 	mov.w	r3, #6
     5f0:	f6cf 73ff 	movt	r3, #65535	; 0xffff
     5f4:	e016      	b.n	624 <ta_entry_ioctl+0x90>
/home/qemu-sgx/devel/optee/out-br/build/optee_test_ext-1.0/ta/socket/ta_entry.c:232
     5f6:	683b      	ldr	r3, [r7, #0]
     5f8:	681b      	ldr	r3, [r3, #0]
     5fa:	60fb      	str	r3, [r7, #12]
/home/qemu-sgx/devel/optee/out-br/build/optee_test_ext-1.0/ta/socket/ta_entry.c:233
     5fc:	68fb      	ldr	r3, [r7, #12]
     5fe:	685b      	ldr	r3, [r3, #4]
     600:	69dc      	ldr	r4, [r3, #28]
     602:	68fb      	ldr	r3, [r7, #12]
     604:	6818      	ldr	r0, [r3, #0]
     606:	683b      	ldr	r3, [r7, #0]
     608:	f103 0310 	add.w	r3, r3, #16
     60c:	6819      	ldr	r1, [r3, #0]
/home/qemu-sgx/devel/optee/out-br/build/optee_test_ext-1.0/ta/socket/ta_entry.c:234
     60e:	683b      	ldr	r3, [r7, #0]
     610:	f103 0308 	add.w	r3, r3, #8
/home/qemu-sgx/devel/optee/out-br/build/optee_test_ext-1.0/ta/socket/ta_entry.c:233
     614:	681a      	ldr	r2, [r3, #0]
/home/qemu-sgx/devel/optee/out-br/build/optee_test_ext-1.0/ta/socket/ta_entry.c:235
     616:	683b      	ldr	r3, [r7, #0]
     618:	f103 0308 	add.w	r3, r3, #8
/home/qemu-sgx/devel/optee/out-br/build/optee_test_ext-1.0/ta/socket/ta_entry.c:233
     61c:	f103 0304 	add.w	r3, r3, #4
     620:	47a0      	blx	r4
     622:	4603      	mov	r3, r0
/home/qemu-sgx/devel/optee/out-br/build/optee_test_ext-1.0/ta/socket/ta_entry.c:236
     624:	4618      	mov	r0, r3
     626:	f107 0714 	add.w	r7, r7, #20
     62a:	46bd      	mov	sp, r7
     62c:	e9dd 4700 	ldrd	r4, r7, [sp]
     630:	b002      	add	sp, #8
     632:	f85d fb04 	ldr.w	pc, [sp], #4
     636:	bf00      	nop
     638:	00013b42 	.word	0x00013b42
     63c:	00013bbc 	.word	0x00013bbc

00000640 <TA_InvokeCommandEntryPoint>:
TA_InvokeCommandEntryPoint():
/home/qemu-sgx/devel/optee/out-br/build/optee_test_ext-1.0/ta/socket/ta_entry.c:243
     640:	e96d 7e02 	strd	r7, lr, [sp, #-8]!
     644:	b084      	sub	sp, #16
     646:	af00      	add	r7, sp, #0
     648:	60f8      	str	r0, [r7, #12]
     64a:	60b9      	str	r1, [r7, #8]
     64c:	607a      	str	r2, [r7, #4]
     64e:	603b      	str	r3, [r7, #0]
     650:	68bb      	ldr	r3, [r7, #8]
     652:	2b06      	cmp	r3, #6
     654:	d83c      	bhi.n	6d0 <TA_InvokeCommandEntryPoint+0x90>
     656:	a202      	add	r2, pc, #8	; (adr r2, 660 <TA_InvokeCommandEntryPoint+0x20>)
     658:	f852 3023 	ldr.w	r3, [r2, r3, lsl #2]
     65c:	441a      	add	r2, r3
     65e:	4710      	bx	r2
     660:	0000001d 	.word	0x0000001d
     664:	00000029 	.word	0x00000029
     668:	00000035 	.word	0x00000035
     66c:	00000041 	.word	0x00000041
     670:	0000004d 	.word	0x0000004d
     674:	00000059 	.word	0x00000059
     678:	00000065 	.word	0x00000065
/home/qemu-sgx/devel/optee/out-br/build/optee_test_ext-1.0/ta/socket/ta_entry.c:248
     67c:	6839      	ldr	r1, [r7, #0]
     67e:	6878      	ldr	r0, [r7, #4]
     680:	f7ff fcfc 	bl	7c <ta_entry_tcp_open>
     684:	4603      	mov	r3, r0
     686:	e027      	b.n	6d8 <TA_InvokeCommandEntryPoint+0x98>
/home/qemu-sgx/devel/optee/out-br/build/optee_test_ext-1.0/ta/socket/ta_entry.c:250
     688:	6839      	ldr	r1, [r7, #0]
     68a:	6878      	ldr	r0, [r7, #4]
     68c:	f7ff fd98 	bl	1c0 <ta_entry_udp_open>
     690:	4603      	mov	r3, r0
     692:	e021      	b.n	6d8 <TA_InvokeCommandEntryPoint+0x98>
/home/qemu-sgx/devel/optee/out-br/build/optee_test_ext-1.0/ta/socket/ta_entry.c:252
     694:	6839      	ldr	r1, [r7, #0]
     696:	6878      	ldr	r0, [r7, #4]
     698:	f7ff fe34 	bl	304 <ta_entry_close>
     69c:	4603      	mov	r3, r0
     69e:	e01b      	b.n	6d8 <TA_InvokeCommandEntryPoint+0x98>
/home/qemu-sgx/devel/optee/out-br/build/optee_test_ext-1.0/ta/socket/ta_entry.c:254
     6a0:	6839      	ldr	r1, [r7, #0]
     6a2:	6878      	ldr	r0, [r7, #4]
     6a4:	f7ff fe72 	bl	38c <ta_entry_send>
     6a8:	4603      	mov	r3, r0
     6aa:	e015      	b.n	6d8 <TA_InvokeCommandEntryPoint+0x98>
/home/qemu-sgx/devel/optee/out-br/build/optee_test_ext-1.0/ta/socket/ta_entry.c:256
     6ac:	6839      	ldr	r1, [r7, #0]
     6ae:	6878      	ldr	r0, [r7, #4]
     6b0:	f7ff feca 	bl	448 <ta_entry_recv>
     6b4:	4603      	mov	r3, r0
     6b6:	e00f      	b.n	6d8 <TA_InvokeCommandEntryPoint+0x98>
/home/qemu-sgx/devel/optee/out-br/build/optee_test_ext-1.0/ta/socket/ta_entry.c:258
     6b8:	6839      	ldr	r1, [r7, #0]
     6ba:	6878      	ldr	r0, [r7, #4]
     6bc:	f7ff ff1a 	bl	4f4 <ta_entry_error>
     6c0:	4603      	mov	r3, r0
     6c2:	e009      	b.n	6d8 <TA_InvokeCommandEntryPoint+0x98>
/home/qemu-sgx/devel/optee/out-br/build/optee_test_ext-1.0/ta/socket/ta_entry.c:260
     6c4:	6839      	ldr	r1, [r7, #0]
     6c6:	6878      	ldr	r0, [r7, #4]
     6c8:	f7ff ff64 	bl	594 <ta_entry_ioctl>
     6cc:	4603      	mov	r3, r0
     6ce:	e003      	b.n	6d8 <TA_InvokeCommandEntryPoint+0x98>
/home/qemu-sgx/devel/optee/out-br/build/optee_test_ext-1.0/ta/socket/ta_entry.c:262
     6d0:	f04f 0306 	mov.w	r3, #6
     6d4:	f6cf 73ff 	movt	r3, #65535	; 0xffff
/home/qemu-sgx/devel/optee/out-br/build/optee_test_ext-1.0/ta/socket/ta_entry.c:264
     6d8:	4618      	mov	r0, r3
     6da:	f107 0710 	add.w	r7, r7, #16
     6de:	46bd      	mov	sp, r7
     6e0:	bd80      	pop	{r7, pc}
     6e2:	bf00      	nop

000006e4 <__ta_entry>:
__ta_entry():
/home/qemu-sgx/devel/optee/optee_os/out/arm/export-ta_arm32/src/ta_entry_a32.S:20
     6e4:	fa0046de 	blx	12264 <__ta_entry_c>

000006e8 <tag_asan_free>:
tag_asan_free():
/home/qemu-sgx/devel/optee/optee_os/lib/libutils/isoc/bget_malloc.c:122
     6e8:	f84d 7d04 	str.w	r7, [sp, #-4]!
     6ec:	b083      	sub	sp, #12
     6ee:	af00      	add	r7, sp, #0
     6f0:	6078      	str	r0, [r7, #4]
     6f2:	6039      	str	r1, [r7, #0]
/home/qemu-sgx/devel/optee/optee_os/lib/libutils/isoc/bget_malloc.c:123
     6f4:	bf00      	nop
     6f6:	f107 070c 	add.w	r7, r7, #12
     6fa:	46bd      	mov	sp, r7
     6fc:	f85d 7b04 	ldr.w	r7, [sp], #4
     700:	4770      	bx	lr

00000702 <tag_asan_alloced>:
tag_asan_alloced():
/home/qemu-sgx/devel/optee/optee_os/lib/libutils/isoc/bget_malloc.c:126
     702:	f84d 7d04 	str.w	r7, [sp, #-4]!
     706:	b083      	sub	sp, #12
     708:	af00      	add	r7, sp, #0
     70a:	6078      	str	r0, [r7, #4]
     70c:	6039      	str	r1, [r7, #0]
/home/qemu-sgx/devel/optee/optee_os/lib/libutils/isoc/bget_malloc.c:127
     70e:	bf00      	nop
     710:	f107 070c 	add.w	r7, r7, #12
     714:	46bd      	mov	sp, r7
     716:	f85d 7b04 	ldr.w	r7, [sp], #4
     71a:	4770      	bx	lr

0000071c <memset_unchecked>:
memset_unchecked():
/home/qemu-sgx/devel/optee/optee_os/lib/libutils/isoc/bget_malloc.c:130
     71c:	e96d 7e02 	strd	r7, lr, [sp, #-8]!
     720:	b084      	sub	sp, #16
     722:	af00      	add	r7, sp, #0
     724:	60f8      	str	r0, [r7, #12]
     726:	60b9      	str	r1, [r7, #8]
     728:	607a      	str	r2, [r7, #4]
/home/qemu-sgx/devel/optee/optee_os/lib/libutils/isoc/bget_malloc.c:131
     72a:	687a      	ldr	r2, [r7, #4]
     72c:	68b9      	ldr	r1, [r7, #8]
     72e:	68f8      	ldr	r0, [r7, #12]
     730:	f011 fe59 	bl	123e6 <memset>
     734:	4603      	mov	r3, r0
/home/qemu-sgx/devel/optee/optee_os/lib/libutils/isoc/bget_malloc.c:132
     736:	4618      	mov	r0, r3
     738:	f107 0710 	add.w	r7, r7, #16
     73c:	46bd      	mov	sp, r7
     73e:	bd80      	pop	{r7, pc}

00000740 <memcpy_unchecked>:
memcpy_unchecked():
/home/qemu-sgx/devel/optee/optee_os/lib/libutils/isoc/bget_malloc.c:136
     740:	e96d 7e02 	strd	r7, lr, [sp, #-8]!
     744:	b084      	sub	sp, #16
     746:	af00      	add	r7, sp, #0
     748:	60f8      	str	r0, [r7, #12]
     74a:	60b9      	str	r1, [r7, #8]
     74c:	607a      	str	r2, [r7, #4]
/home/qemu-sgx/devel/optee/optee_os/lib/libutils/isoc/bget_malloc.c:137
     74e:	687a      	ldr	r2, [r7, #4]
     750:	68b9      	ldr	r1, [r7, #8]
     752:	68f8      	ldr	r0, [r7, #12]
     754:	f011 fdce 	bl	122f4 <memcpy>
     758:	4603      	mov	r3, r0
/home/qemu-sgx/devel/optee/optee_os/lib/libutils/isoc/bget_malloc.c:138
     75a:	4618      	mov	r0, r3
     75c:	f107 0710 	add.w	r7, r7, #16
     760:	46bd      	mov	sp, r7
     762:	bd80      	pop	{r7, pc}

00000764 <buf_get_pos>:
buf_get_pos():
/home/qemu-sgx/devel/optee/optee_os/lib/libutils/isoc/bget.c:581
     764:	f84d 7d04 	str.w	r7, [sp, #-4]!
     768:	b087      	sub	sp, #28
     76a:	af00      	add	r7, sp, #0
     76c:	60f8      	str	r0, [r7, #12]
     76e:	60b9      	str	r1, [r7, #8]
     770:	607a      	str	r2, [r7, #4]
     772:	603b      	str	r3, [r7, #0]
/home/qemu-sgx/devel/optee/optee_os/lib/libutils/isoc/bget.c:582
     774:	f04f 0300 	mov.w	r3, #0
     778:	617b      	str	r3, [r7, #20]
/home/qemu-sgx/devel/optee/optee_os/lib/libutils/isoc/bget.c:583
     77a:	f04f 0300 	mov.w	r3, #0
     77e:	613b      	str	r3, [r7, #16]
/home/qemu-sgx/devel/optee/optee_os/lib/libutils/isoc/bget.c:585
     780:	68fb      	ldr	r3, [r7, #12]
     782:	685b      	ldr	r3, [r3, #4]
     784:	683a      	ldr	r2, [r7, #0]
     786:	429a      	cmp	r2, r3
     788:	dd02      	ble.n	790 <buf_get_pos+0x2c>
/home/qemu-sgx/devel/optee/optee_os/lib/libutils/isoc/bget.c:586
     78a:	f04f 33ff 	mov.w	r3, #4294967295	; 0xffffffff
     78e:	e02a      	b.n	7e6 <buf_get_pos+0x82>
/home/qemu-sgx/devel/optee/optee_os/lib/libutils/isoc/bget.c:592
     790:	68fb      	ldr	r3, [r7, #12]
     792:	685b      	ldr	r3, [r3, #4]
     794:	461a      	mov	r2, r3
     796:	68fb      	ldr	r3, [r7, #12]
     798:	441a      	add	r2, r3
     79a:	683b      	ldr	r3, [r7, #0]
     79c:	eba2 0203 	sub.w	r2, r2, r3
     7a0:	687b      	ldr	r3, [r7, #4]
     7a2:	4413      	add	r3, r2
     7a4:	f103 0308 	add.w	r3, r3, #8
     7a8:	617b      	str	r3, [r7, #20]
/home/qemu-sgx/devel/optee/optee_os/lib/libutils/isoc/bget.c:594
     7aa:	68bb      	ldr	r3, [r7, #8]
     7ac:	f1c3 0300 	rsb	r3, r3, #0
     7b0:	461a      	mov	r2, r3
     7b2:	697b      	ldr	r3, [r7, #20]
     7b4:	ea03 0302 	and.w	r3, r3, r2
     7b8:	617b      	str	r3, [r7, #20]
/home/qemu-sgx/devel/optee/optee_os/lib/libutils/isoc/bget.c:595
     7ba:	68fb      	ldr	r3, [r7, #12]
     7bc:	697a      	ldr	r2, [r7, #20]
     7be:	eba2 0203 	sub.w	r2, r2, r3
     7c2:	687b      	ldr	r3, [r7, #4]
     7c4:	eba2 0303 	sub.w	r3, r2, r3
     7c8:	f1a3 0308 	sub.w	r3, r3, #8
     7cc:	613b      	str	r3, [r7, #16]
/home/qemu-sgx/devel/optee/optee_os/lib/libutils/isoc/bget.c:597
     7ce:	693b      	ldr	r3, [r7, #16]
     7d0:	2b00      	cmp	r3, #0
     7d2:	d101      	bne.n	7d8 <buf_get_pos+0x74>
/home/qemu-sgx/devel/optee/optee_os/lib/libutils/isoc/bget.c:598
     7d4:	693b      	ldr	r3, [r7, #16]
     7d6:	e006      	b.n	7e6 <buf_get_pos+0x82>
/home/qemu-sgx/devel/optee/optee_os/lib/libutils/isoc/bget.c:599
     7d8:	693b      	ldr	r3, [r7, #16]
     7da:	2b0f      	cmp	r3, #15
     7dc:	d901      	bls.n	7e2 <buf_get_pos+0x7e>
/home/qemu-sgx/devel/optee/optee_os/lib/libutils/isoc/bget.c:600
     7de:	693b      	ldr	r3, [r7, #16]
     7e0:	e001      	b.n	7e6 <buf_get_pos+0x82>
/home/qemu-sgx/devel/optee/optee_os/lib/libutils/isoc/bget.c:602
     7e2:	f04f 33ff 	mov.w	r3, #4294967295	; 0xffffffff
/home/qemu-sgx/devel/optee/optee_os/lib/libutils/isoc/bget.c:603
     7e6:	4618      	mov	r0, r3
     7e8:	f107 071c 	add.w	r7, r7, #28
     7ec:	46bd      	mov	sp, r7
     7ee:	f85d 7b04 	ldr.w	r7, [sp], #4
     7f2:	4770      	bx	lr

000007f4 <bget>:
bget():
/home/qemu-sgx/devel/optee/optee_os/lib/libutils/isoc/bget.c:612
     7f4:	e96d 7e02 	strd	r7, lr, [sp, #-8]!
     7f8:	b08c      	sub	sp, #48	; 0x30
     7fa:	af00      	add	r7, sp, #0
     7fc:	60f8      	str	r0, [r7, #12]
     7fe:	60b9      	str	r1, [r7, #8]
     800:	607a      	str	r2, [r7, #4]
     802:	603b      	str	r3, [r7, #0]
/home/qemu-sgx/devel/optee/optee_os/lib/libutils/isoc/bget.c:613
     804:	68fb      	ldr	r3, [r7, #12]
     806:	62fb      	str	r3, [r7, #44]	; 0x2c
/home/qemu-sgx/devel/optee/optee_os/lib/libutils/isoc/bget.c:614
     808:	687b      	ldr	r3, [r7, #4]
     80a:	617b      	str	r3, [r7, #20]
/home/qemu-sgx/devel/optee/optee_os/lib/libutils/isoc/bget.c:625
     80c:	697b      	ldr	r3, [r7, #20]
     80e:	2b00      	cmp	r3, #0
     810:	dc0b      	bgt.n	82a <bget+0x36>
/home/qemu-sgx/devel/optee/optee_os/lib/libutils/isoc/bget.c:625 (discriminator 1)
     812:	4bc3      	ldr	r3, [pc, #780]	; (b20 <bget+0x32c>)
     814:	447b      	add	r3, pc
     816:	f240 2271 	movw	r2, #625	; 0x271
     81a:	49c2      	ldr	r1, [pc, #776]	; (b24 <bget+0x330>)
     81c:	4479      	add	r1, pc
     81e:	48c2      	ldr	r0, [pc, #776]	; (b28 <bget+0x334>)
     820:	4478      	add	r0, pc
     822:	f003 f823 	bl	386c <_assert_log>
     826:	f003 f845 	bl	38b4 <_assert_break>
/home/qemu-sgx/devel/optee/optee_os/lib/libutils/isoc/bget.c:626
     82a:	bf00      	nop
/home/qemu-sgx/devel/optee/optee_os/lib/libutils/isoc/bget.c:628
     82c:	6afb      	ldr	r3, [r7, #44]	; 0x2c
     82e:	2b00      	cmp	r3, #0
     830:	db0e      	blt.n	850 <bget+0x5c>
/home/qemu-sgx/devel/optee/optee_os/lib/libutils/isoc/bget.c:628 (discriminator 1)
     832:	6afb      	ldr	r3, [r7, #44]	; 0x2c
     834:	2b00      	cmp	r3, #0
     836:	dd0e      	ble.n	856 <bget+0x62>
/home/qemu-sgx/devel/optee/optee_os/lib/libutils/isoc/bget.c:628 (discriminator 2)
     838:	6afb      	ldr	r3, [r7, #44]	; 0x2c
     83a:	2b00      	cmp	r3, #0
     83c:	d008      	beq.n	850 <bget+0x5c>
/home/qemu-sgx/devel/optee/optee_os/lib/libutils/isoc/bget.c:628 (discriminator 3)
     83e:	6afb      	ldr	r3, [r7, #44]	; 0x2c
     840:	f1c3 0200 	rsb	r2, r3, #0
     844:	6afb      	ldr	r3, [r7, #44]	; 0x2c
     846:	ea02 0203 	and.w	r2, r2, r3
     84a:	6afb      	ldr	r3, [r7, #44]	; 0x2c
     84c:	429a      	cmp	r2, r3
     84e:	d002      	beq.n	856 <bget+0x62>
/home/qemu-sgx/devel/optee/optee_os/lib/libutils/isoc/bget.c:629
     850:	f04f 0300 	mov.w	r3, #0
     854:	e15e      	b.n	b14 <bget+0x320>
/home/qemu-sgx/devel/optee/optee_os/lib/libutils/isoc/bget.c:630
     856:	68bb      	ldr	r3, [r7, #8]
     858:	f003 0307 	and.w	r3, r3, #7
     85c:	2b00      	cmp	r3, #0
     85e:	d002      	beq.n	866 <bget+0x72>
/home/qemu-sgx/devel/optee/optee_os/lib/libutils/isoc/bget.c:631
     860:	f04f 0300 	mov.w	r3, #0
     864:	e156      	b.n	b14 <bget+0x320>
/home/qemu-sgx/devel/optee/optee_os/lib/libutils/isoc/bget.c:633
     866:	697b      	ldr	r3, [r7, #20]
     868:	2b07      	cmp	r3, #7
     86a:	d802      	bhi.n	872 <bget+0x7e>
/home/qemu-sgx/devel/optee/optee_os/lib/libutils/isoc/bget.c:634
     86c:	f04f 0308 	mov.w	r3, #8
     870:	617b      	str	r3, [r7, #20]
/home/qemu-sgx/devel/optee/optee_os/lib/libutils/isoc/bget.c:636
     872:	6afb      	ldr	r3, [r7, #44]	; 0x2c
     874:	2b07      	cmp	r3, #7
     876:	d802      	bhi.n	87e <bget+0x8a>
/home/qemu-sgx/devel/optee/optee_os/lib/libutils/isoc/bget.c:637
     878:	f04f 0308 	mov.w	r3, #8
     87c:	62fb      	str	r3, [r7, #44]	; 0x2c
/home/qemu-sgx/devel/optee/optee_os/lib/libutils/isoc/bget.c:640
     87e:	697b      	ldr	r3, [r7, #20]
     880:	f04f 0200 	mov.w	r2, #0
     884:	3307      	adds	r3, #7
     886:	d701      	bvc.n	88c <bget+0x98>
     888:	f04f 0201 	mov.w	r2, #1
     88c:	617b      	str	r3, [r7, #20]
     88e:	4613      	mov	r3, r2
     890:	f003 0301 	and.w	r3, r3, #1
     894:	b2db      	uxtb	r3, r3
     896:	2b00      	cmp	r3, #0
     898:	d002      	beq.n	8a0 <bget+0xac>
/home/qemu-sgx/devel/optee/optee_os/lib/libutils/isoc/bget.c:641
     89a:	f04f 0300 	mov.w	r3, #0
     89e:	e139      	b.n	b14 <bget+0x320>
/home/qemu-sgx/devel/optee/optee_os/lib/libutils/isoc/bget.c:643
     8a0:	697b      	ldr	r3, [r7, #20]
     8a2:	f023 0307 	bic.w	r3, r3, #7
     8a6:	617b      	str	r3, [r7, #20]
/home/qemu-sgx/devel/optee/optee_os/lib/libutils/isoc/bget.c:648
     8a8:	697b      	ldr	r3, [r7, #20]
     8aa:	f04f 0200 	mov.w	r2, #0
     8ae:	3308      	adds	r3, #8
     8b0:	d701      	bvc.n	8b6 <bget+0xc2>
     8b2:	f04f 0201 	mov.w	r2, #1
     8b6:	617b      	str	r3, [r7, #20]
     8b8:	4613      	mov	r3, r2
     8ba:	f003 0301 	and.w	r3, r3, #1
     8be:	b2db      	uxtb	r3, r3
     8c0:	2b00      	cmp	r3, #0
     8c2:	d002      	beq.n	8ca <bget+0xd6>
/home/qemu-sgx/devel/optee/optee_os/lib/libutils/isoc/bget.c:649
     8c4:	f04f 0300 	mov.w	r3, #0
     8c8:	e124      	b.n	b14 <bget+0x320>
/home/qemu-sgx/devel/optee/optee_os/lib/libutils/isoc/bget.c:650
     8ca:	697a      	ldr	r2, [r7, #20]
     8cc:	f04f 0100 	mov.w	r1, #0
     8d0:	68bb      	ldr	r3, [r7, #8]
     8d2:	18d3      	adds	r3, r2, r3
     8d4:	d701      	bvc.n	8da <bget+0xe6>
     8d6:	f04f 0101 	mov.w	r1, #1
     8da:	617b      	str	r3, [r7, #20]
     8dc:	460b      	mov	r3, r1
     8de:	f003 0301 	and.w	r3, r3, #1
     8e2:	b2db      	uxtb	r3, r3
     8e4:	2b00      	cmp	r3, #0
     8e6:	d002      	beq.n	8ee <bget+0xfa>
/home/qemu-sgx/devel/optee/optee_os/lib/libutils/isoc/bget.c:651
     8e8:	f04f 0300 	mov.w	r3, #0
     8ec:	e112      	b.n	b14 <bget+0x320>
/home/qemu-sgx/devel/optee/optee_os/lib/libutils/isoc/bget.c:660
     8ee:	683b      	ldr	r3, [r7, #0]
     8f0:	689b      	ldr	r3, [r3, #8]
     8f2:	62bb      	str	r3, [r7, #40]	; 0x28
/home/qemu-sgx/devel/optee/optee_os/lib/libutils/isoc/bget.c:684
     8f4:	e107      	b.n	b06 <bget+0x312>
/home/qemu-sgx/devel/optee/optee_os/lib/libutils/isoc/bget.c:685
     8f6:	697b      	ldr	r3, [r7, #20]
     8f8:	68ba      	ldr	r2, [r7, #8]
     8fa:	6af9      	ldr	r1, [r7, #44]	; 0x2c
     8fc:	6ab8      	ldr	r0, [r7, #40]	; 0x28
     8fe:	f7ff ff31 	bl	764 <buf_get_pos>
     902:	6278      	str	r0, [r7, #36]	; 0x24
/home/qemu-sgx/devel/optee/optee_os/lib/libutils/isoc/bget.c:686
     904:	6a7b      	ldr	r3, [r7, #36]	; 0x24
     906:	2b00      	cmp	r3, #0
     908:	f2c0 80fa 	blt.w	b00 <bget+0x30c>
/home/qemu-sgx/devel/optee/optee_os/lib/libutils/isoc/bget.c:687
     90c:	6a7b      	ldr	r3, [r7, #36]	; 0x24
     90e:	6aba      	ldr	r2, [r7, #40]	; 0x28
     910:	4413      	add	r3, r2
     912:	623b      	str	r3, [r7, #32]
/home/qemu-sgx/devel/optee/optee_os/lib/libutils/isoc/bget.c:688
     914:	6abb      	ldr	r3, [r7, #40]	; 0x28
     916:	685b      	ldr	r3, [r3, #4]
     918:	461a      	mov	r2, r3
     91a:	6abb      	ldr	r3, [r7, #40]	; 0x28
     91c:	4413      	add	r3, r2
     91e:	61fb      	str	r3, [r7, #28]
/home/qemu-sgx/devel/optee/optee_os/lib/libutils/isoc/bget.c:690
     920:	69fb      	ldr	r3, [r7, #28]
     922:	681a      	ldr	r2, [r3, #0]
     924:	6abb      	ldr	r3, [r7, #40]	; 0x28
     926:	685b      	ldr	r3, [r3, #4]
     928:	429a      	cmp	r2, r3
     92a:	d00b      	beq.n	944 <bget+0x150>
/home/qemu-sgx/devel/optee/optee_os/lib/libutils/isoc/bget.c:690 (discriminator 1)
     92c:	4b7f      	ldr	r3, [pc, #508]	; (b2c <bget+0x338>)
     92e:	447b      	add	r3, pc
     930:	f240 22b2 	movw	r2, #690	; 0x2b2
     934:	497e      	ldr	r1, [pc, #504]	; (b30 <bget+0x33c>)
     936:	4479      	add	r1, pc
     938:	487e      	ldr	r0, [pc, #504]	; (b34 <bget+0x340>)
     93a:	4478      	add	r0, pc
     93c:	f002 ff96 	bl	386c <_assert_log>
     940:	f002 ffb8 	bl	38b4 <_assert_break>
/home/qemu-sgx/devel/optee/optee_os/lib/libutils/isoc/bget.c:696
     944:	69fb      	ldr	r3, [r7, #28]
     946:	f04f 0200 	mov.w	r2, #0
     94a:	601a      	str	r2, [r3, #0]
/home/qemu-sgx/devel/optee/optee_os/lib/libutils/isoc/bget.c:698
     94c:	6abb      	ldr	r3, [r7, #40]	; 0x28
     94e:	68db      	ldr	r3, [r3, #12]
     950:	689b      	ldr	r3, [r3, #8]
     952:	6aba      	ldr	r2, [r7, #40]	; 0x28
     954:	429a      	cmp	r2, r3
     956:	d00b      	beq.n	970 <bget+0x17c>
/home/qemu-sgx/devel/optee/optee_os/lib/libutils/isoc/bget.c:698 (discriminator 1)
     958:	4b77      	ldr	r3, [pc, #476]	; (b38 <bget+0x344>)
     95a:	447b      	add	r3, pc
     95c:	f240 22ba 	movw	r2, #698	; 0x2ba
     960:	4976      	ldr	r1, [pc, #472]	; (b3c <bget+0x348>)
     962:	4479      	add	r1, pc
     964:	4876      	ldr	r0, [pc, #472]	; (b40 <bget+0x34c>)
     966:	4478      	add	r0, pc
     968:	f002 ff80 	bl	386c <_assert_log>
     96c:	f002 ffa2 	bl	38b4 <_assert_break>
/home/qemu-sgx/devel/optee/optee_os/lib/libutils/isoc/bget.c:699
     970:	6abb      	ldr	r3, [r7, #40]	; 0x28
     972:	689b      	ldr	r3, [r3, #8]
     974:	68db      	ldr	r3, [r3, #12]
     976:	6aba      	ldr	r2, [r7, #40]	; 0x28
     978:	429a      	cmp	r2, r3
     97a:	d00b      	beq.n	994 <bget+0x1a0>
/home/qemu-sgx/devel/optee/optee_os/lib/libutils/isoc/bget.c:699 (discriminator 1)
     97c:	4b71      	ldr	r3, [pc, #452]	; (b44 <bget+0x350>)
     97e:	447b      	add	r3, pc
     980:	f240 22bb 	movw	r2, #699	; 0x2bb
     984:	4970      	ldr	r1, [pc, #448]	; (b48 <bget+0x354>)
     986:	4479      	add	r1, pc
     988:	4870      	ldr	r0, [pc, #448]	; (b4c <bget+0x358>)
     98a:	4478      	add	r0, pc
     98c:	f002 ff6e 	bl	386c <_assert_log>
     990:	f002 ff90 	bl	38b4 <_assert_break>
/home/qemu-sgx/devel/optee/optee_os/lib/libutils/isoc/bget.c:701
     994:	6a7b      	ldr	r3, [r7, #36]	; 0x24
     996:	2b00      	cmp	r3, #0
     998:	d110      	bne.n	9bc <bget+0x1c8>
/home/qemu-sgx/devel/optee/optee_os/lib/libutils/isoc/bget.c:706
     99a:	6abb      	ldr	r3, [r7, #40]	; 0x28
     99c:	68db      	ldr	r3, [r3, #12]
     99e:	6aba      	ldr	r2, [r7, #40]	; 0x28
     9a0:	6892      	ldr	r2, [r2, #8]
     9a2:	609a      	str	r2, [r3, #8]
/home/qemu-sgx/devel/optee/optee_os/lib/libutils/isoc/bget.c:707
     9a4:	6abb      	ldr	r3, [r7, #40]	; 0x28
     9a6:	689b      	ldr	r3, [r3, #8]
     9a8:	6aba      	ldr	r2, [r7, #40]	; 0x28
     9aa:	68d2      	ldr	r2, [r2, #12]
     9ac:	60da      	str	r2, [r3, #12]
/home/qemu-sgx/devel/optee/optee_os/lib/libutils/isoc/bget.c:710
     9ae:	6abb      	ldr	r3, [r7, #40]	; 0x28
     9b0:	685b      	ldr	r3, [r3, #4]
     9b2:	f1c3 0200 	rsb	r2, r3, #0
     9b6:	6abb      	ldr	r3, [r7, #40]	; 0x28
     9b8:	605a      	str	r2, [r3, #4]
     9ba:	e00c      	b.n	9d6 <bget+0x1e2>
/home/qemu-sgx/devel/optee/optee_os/lib/libutils/isoc/bget.c:716
     9bc:	6abb      	ldr	r3, [r7, #40]	; 0x28
     9be:	685b      	ldr	r3, [r3, #4]
     9c0:	6a7a      	ldr	r2, [r7, #36]	; 0x24
     9c2:	eba2 0203 	sub.w	r2, r2, r3
     9c6:	6a3b      	ldr	r3, [r7, #32]
     9c8:	605a      	str	r2, [r3, #4]
/home/qemu-sgx/devel/optee/optee_os/lib/libutils/isoc/bget.c:717
     9ca:	6a3b      	ldr	r3, [r7, #32]
     9cc:	6a7a      	ldr	r2, [r7, #36]	; 0x24
     9ce:	601a      	str	r2, [r3, #0]
/home/qemu-sgx/devel/optee/optee_os/lib/libutils/isoc/bget.c:718
     9d0:	6abb      	ldr	r3, [r7, #40]	; 0x28
     9d2:	6a7a      	ldr	r2, [r7, #36]	; 0x24
     9d4:	605a      	str	r2, [r3, #4]
/home/qemu-sgx/devel/optee/optee_os/lib/libutils/isoc/bget.c:721
     9d6:	6a3b      	ldr	r3, [r7, #32]
     9d8:	685b      	ldr	r3, [r3, #4]
     9da:	2b00      	cmp	r3, #0
     9dc:	db0b      	blt.n	9f6 <bget+0x202>
/home/qemu-sgx/devel/optee/optee_os/lib/libutils/isoc/bget.c:721 (discriminator 1)
     9de:	4b5c      	ldr	r3, [pc, #368]	; (b50 <bget+0x35c>)
     9e0:	447b      	add	r3, pc
     9e2:	f240 22d1 	movw	r2, #721	; 0x2d1
     9e6:	495b      	ldr	r1, [pc, #364]	; (b54 <bget+0x360>)
     9e8:	4479      	add	r1, pc
     9ea:	485b      	ldr	r0, [pc, #364]	; (b58 <bget+0x364>)
     9ec:	4478      	add	r0, pc
     9ee:	f002 ff3d 	bl	386c <_assert_log>
     9f2:	f002 ff5f 	bl	38b4 <_assert_break>
/home/qemu-sgx/devel/optee/optee_os/lib/libutils/isoc/bget.c:727
     9f6:	6a3b      	ldr	r3, [r7, #32]
     9f8:	685b      	ldr	r3, [r3, #4]
     9fa:	f1c3 0200 	rsb	r2, r3, #0
     9fe:	697b      	ldr	r3, [r7, #20]
     a00:	eba2 0303 	sub.w	r3, r2, r3
     a04:	2b10      	cmp	r3, #16
     a06:	d962      	bls.n	ace <bget+0x2da>
/home/qemu-sgx/devel/optee/optee_os/lib/libutils/isoc/bget.c:733
     a08:	697b      	ldr	r3, [r7, #20]
     a0a:	461a      	mov	r2, r3
     a0c:	6a3b      	ldr	r3, [r7, #32]
     a0e:	4413      	add	r3, r2
     a10:	62bb      	str	r3, [r7, #40]	; 0x28
/home/qemu-sgx/devel/optee/optee_os/lib/libutils/isoc/bget.c:734
     a12:	6a3b      	ldr	r3, [r7, #32]
     a14:	685b      	ldr	r3, [r3, #4]
     a16:	f1c3 0200 	rsb	r2, r3, #0
     a1a:	697b      	ldr	r3, [r7, #20]
     a1c:	eba2 0203 	sub.w	r2, r2, r3
     a20:	6abb      	ldr	r3, [r7, #40]	; 0x28
     a22:	605a      	str	r2, [r3, #4]
/home/qemu-sgx/devel/optee/optee_os/lib/libutils/isoc/bget.c:735
     a24:	6abb      	ldr	r3, [r7, #40]	; 0x28
     a26:	f04f 0200 	mov.w	r2, #0
     a2a:	601a      	str	r2, [r3, #0]
/home/qemu-sgx/devel/optee/optee_os/lib/libutils/isoc/bget.c:736
     a2c:	6a3b      	ldr	r3, [r7, #32]
     a2e:	685a      	ldr	r2, [r3, #4]
     a30:	6abb      	ldr	r3, [r7, #40]	; 0x28
     a32:	685b      	ldr	r3, [r3, #4]
     a34:	441a      	add	r2, r3
     a36:	6a3b      	ldr	r3, [r7, #32]
     a38:	605a      	str	r2, [r3, #4]
/home/qemu-sgx/devel/optee/optee_os/lib/libutils/isoc/bget.c:738
     a3a:	683b      	ldr	r3, [r7, #0]
     a3c:	68db      	ldr	r3, [r3, #12]
     a3e:	689a      	ldr	r2, [r3, #8]
     a40:	683b      	ldr	r3, [r7, #0]
     a42:	429a      	cmp	r2, r3
     a44:	d00b      	beq.n	a5e <bget+0x26a>
/home/qemu-sgx/devel/optee/optee_os/lib/libutils/isoc/bget.c:738 (discriminator 1)
     a46:	4b45      	ldr	r3, [pc, #276]	; (b5c <bget+0x368>)
     a48:	447b      	add	r3, pc
     a4a:	f240 22e2 	movw	r2, #738	; 0x2e2
     a4e:	4944      	ldr	r1, [pc, #272]	; (b60 <bget+0x36c>)
     a50:	4479      	add	r1, pc
     a52:	4844      	ldr	r0, [pc, #272]	; (b64 <bget+0x370>)
     a54:	4478      	add	r0, pc
     a56:	f002 ff09 	bl	386c <_assert_log>
     a5a:	f002 ff2b 	bl	38b4 <_assert_break>
/home/qemu-sgx/devel/optee/optee_os/lib/libutils/isoc/bget.c:740
     a5e:	683b      	ldr	r3, [r7, #0]
     a60:	689b      	ldr	r3, [r3, #8]
     a62:	68da      	ldr	r2, [r3, #12]
     a64:	683b      	ldr	r3, [r7, #0]
     a66:	429a      	cmp	r2, r3
     a68:	d00b      	beq.n	a82 <bget+0x28e>
/home/qemu-sgx/devel/optee/optee_os/lib/libutils/isoc/bget.c:740 (discriminator 1)
     a6a:	4b3f      	ldr	r3, [pc, #252]	; (b68 <bget+0x374>)
     a6c:	447b      	add	r3, pc
     a6e:	f44f 7239 	mov.w	r2, #740	; 0x2e4
     a72:	493e      	ldr	r1, [pc, #248]	; (b6c <bget+0x378>)
     a74:	4479      	add	r1, pc
     a76:	483e      	ldr	r0, [pc, #248]	; (b70 <bget+0x37c>)
     a78:	4478      	add	r0, pc
     a7a:	f002 fef7 	bl	386c <_assert_log>
     a7e:	f002 ff19 	bl	38b4 <_assert_break>
/home/qemu-sgx/devel/optee/optee_os/lib/libutils/isoc/bget.c:742
     a82:	683a      	ldr	r2, [r7, #0]
     a84:	6abb      	ldr	r3, [r7, #40]	; 0x28
     a86:	609a      	str	r2, [r3, #8]
/home/qemu-sgx/devel/optee/optee_os/lib/libutils/isoc/bget.c:743
     a88:	683b      	ldr	r3, [r7, #0]
     a8a:	68da      	ldr	r2, [r3, #12]
     a8c:	6abb      	ldr	r3, [r7, #40]	; 0x28
     a8e:	60da      	str	r2, [r3, #12]
/home/qemu-sgx/devel/optee/optee_os/lib/libutils/isoc/bget.c:744
     a90:	683b      	ldr	r3, [r7, #0]
     a92:	6aba      	ldr	r2, [r7, #40]	; 0x28
     a94:	60da      	str	r2, [r3, #12]
/home/qemu-sgx/devel/optee/optee_os/lib/libutils/isoc/bget.c:745
     a96:	6abb      	ldr	r3, [r7, #40]	; 0x28
     a98:	68db      	ldr	r3, [r3, #12]
     a9a:	6aba      	ldr	r2, [r7, #40]	; 0x28
     a9c:	609a      	str	r2, [r3, #8]
/home/qemu-sgx/devel/optee/optee_os/lib/libutils/isoc/bget.c:747
     a9e:	6abb      	ldr	r3, [r7, #40]	; 0x28
     aa0:	685b      	ldr	r3, [r3, #4]
     aa2:	461a      	mov	r2, r3
     aa4:	6abb      	ldr	r3, [r7, #40]	; 0x28
     aa6:	4413      	add	r3, r2
     aa8:	69fa      	ldr	r2, [r7, #28]
     aaa:	429a      	cmp	r2, r3
     aac:	d00b      	beq.n	ac6 <bget+0x2d2>
/home/qemu-sgx/devel/optee/optee_os/lib/libutils/isoc/bget.c:747 (discriminator 1)
     aae:	4b31      	ldr	r3, [pc, #196]	; (b74 <bget+0x380>)
     ab0:	447b      	add	r3, pc
     ab2:	f240 22eb 	movw	r2, #747	; 0x2eb
     ab6:	4930      	ldr	r1, [pc, #192]	; (b78 <bget+0x384>)
     ab8:	4479      	add	r1, pc
     aba:	4830      	ldr	r0, [pc, #192]	; (b7c <bget+0x388>)
     abc:	4478      	add	r0, pc
     abe:	f002 fed5 	bl	386c <_assert_log>
     ac2:	f002 fef7 	bl	38b4 <_assert_break>
/home/qemu-sgx/devel/optee/optee_os/lib/libutils/isoc/bget.c:748
     ac6:	6abb      	ldr	r3, [r7, #40]	; 0x28
     ac8:	685a      	ldr	r2, [r3, #4]
     aca:	69fb      	ldr	r3, [r7, #28]
     acc:	601a      	str	r2, [r3, #0]
/home/qemu-sgx/devel/optee/optee_os/lib/libutils/isoc/bget.c:752
     ace:	683b      	ldr	r3, [r7, #0]
     ad0:	691a      	ldr	r2, [r3, #16]
     ad2:	6a3b      	ldr	r3, [r7, #32]
     ad4:	685b      	ldr	r3, [r3, #4]
     ad6:	eba2 0203 	sub.w	r2, r2, r3
     ada:	683b      	ldr	r3, [r7, #0]
     adc:	611a      	str	r2, [r3, #16]
/home/qemu-sgx/devel/optee/optee_os/lib/libutils/isoc/bget.c:753
     ade:	683b      	ldr	r3, [r7, #0]
     ae0:	695b      	ldr	r3, [r3, #20]
     ae2:	f103 0201 	add.w	r2, r3, #1
     ae6:	683b      	ldr	r3, [r7, #0]
     ae8:	615a      	str	r2, [r3, #20]
/home/qemu-sgx/devel/optee/optee_os/lib/libutils/isoc/bget.c:755
     aea:	6a3b      	ldr	r3, [r7, #32]
     aec:	f103 0308 	add.w	r3, r3, #8
     af0:	61bb      	str	r3, [r7, #24]
/home/qemu-sgx/devel/optee/optee_os/lib/libutils/isoc/bget.c:756
     af2:	697b      	ldr	r3, [r7, #20]
     af4:	4619      	mov	r1, r3
     af6:	69b8      	ldr	r0, [r7, #24]
     af8:	f7ff fe03 	bl	702 <tag_asan_alloced>
/home/qemu-sgx/devel/optee/optee_os/lib/libutils/isoc/bget.c:757
     afc:	69bb      	ldr	r3, [r7, #24]
     afe:	e009      	b.n	b14 <bget+0x320>
/home/qemu-sgx/devel/optee/optee_os/lib/libutils/isoc/bget.c:759
     b00:	6abb      	ldr	r3, [r7, #40]	; 0x28
     b02:	689b      	ldr	r3, [r3, #8]
     b04:	62bb      	str	r3, [r7, #40]	; 0x28
/home/qemu-sgx/devel/optee/optee_os/lib/libutils/isoc/bget.c:684
     b06:	683b      	ldr	r3, [r7, #0]
     b08:	6aba      	ldr	r2, [r7, #40]	; 0x28
     b0a:	429a      	cmp	r2, r3
     b0c:	f47f aef3 	bne.w	8f6 <bget+0x102>
/home/qemu-sgx/devel/optee/optee_os/lib/libutils/isoc/bget.c:838
     b10:	f04f 0300 	mov.w	r3, #0
/home/qemu-sgx/devel/optee/optee_os/lib/libutils/isoc/bget.c:839 (discriminator 1)
     b14:	4618      	mov	r0, r3
     b16:	f107 0730 	add.w	r7, r7, #48	; 0x30
     b1a:	46bd      	mov	sp, r7
     b1c:	bd80      	pop	{r7, pc}
     b1e:	bf00      	nop
     b20:	00013e60 	.word	0x00013e60
     b24:	00013a58 	.word	0x00013a58
     b28:	00013a70 	.word	0x00013a70
     b2c:	00013d46 	.word	0x00013d46
     b30:	0001393e 	.word	0x0001393e
     b34:	00013962 	.word	0x00013962
     b38:	00013d1a 	.word	0x00013d1a
     b3c:	00013912 	.word	0x00013912
     b40:	00013956 	.word	0x00013956
     b44:	00013cf6 	.word	0x00013cf6
     b48:	000138ee 	.word	0x000138ee
     b4c:	0001394e 	.word	0x0001394e
     b50:	00013c94 	.word	0x00013c94
     b54:	0001388c 	.word	0x0001388c
     b58:	00013908 	.word	0x00013908
     b5c:	00013c2c 	.word	0x00013c2c
     b60:	00013824 	.word	0x00013824
     b64:	000138b4 	.word	0x000138b4
     b68:	00013c08 	.word	0x00013c08
     b6c:	00013800 	.word	0x00013800
     b70:	000138cc 	.word	0x000138cc
     b74:	00013bc4 	.word	0x00013bc4
     b78:	000137bc 	.word	0x000137bc
     b7c:	000138c4 	.word	0x000138c4

00000b80 <bgetz>:
bgetz():
/home/qemu-sgx/devel/optee/optee_os/lib/libutils/isoc/bget.c:850
     b80:	e96d 7e02 	strd	r7, lr, [sp, #-8]!
     b84:	b088      	sub	sp, #32
     b86:	af00      	add	r7, sp, #0
     b88:	60f8      	str	r0, [r7, #12]
     b8a:	60b9      	str	r1, [r7, #8]
     b8c:	607a      	str	r2, [r7, #4]
     b8e:	603b      	str	r3, [r7, #0]
/home/qemu-sgx/devel/optee/optee_os/lib/libutils/isoc/bget.c:851
     b90:	683b      	ldr	r3, [r7, #0]
     b92:	687a      	ldr	r2, [r7, #4]
     b94:	68b9      	ldr	r1, [r7, #8]
     b96:	68f8      	ldr	r0, [r7, #12]
     b98:	f7ff fe2c 	bl	7f4 <bget>
     b9c:	61b8      	str	r0, [r7, #24]
/home/qemu-sgx/devel/optee/optee_os/lib/libutils/isoc/bget.c:853
     b9e:	69bb      	ldr	r3, [r7, #24]
     ba0:	2b00      	cmp	r3, #0
     ba2:	d035      	beq.n	c10 <bgetz+0x90>
/home/qemu-sgx/devel/optee/optee_os/lib/libutils/isoc/bget.c:857
     ba4:	69bb      	ldr	r3, [r7, #24]
     ba6:	f1a3 0308 	sub.w	r3, r3, #8
     baa:	617b      	str	r3, [r7, #20]
/home/qemu-sgx/devel/optee/optee_os/lib/libutils/isoc/bget.c:858
     bac:	697b      	ldr	r3, [r7, #20]
     bae:	685b      	ldr	r3, [r3, #4]
     bb0:	f1c3 0300 	rsb	r3, r3, #0
     bb4:	61fb      	str	r3, [r7, #28]
/home/qemu-sgx/devel/optee/optee_os/lib/libutils/isoc/bget.c:859
     bb6:	69fb      	ldr	r3, [r7, #28]
     bb8:	2b00      	cmp	r3, #0
     bba:	d10e      	bne.n	bda <bgetz+0x5a>
/home/qemu-sgx/devel/optee/optee_os/lib/libutils/isoc/bget.c:862
     bbc:	69bb      	ldr	r3, [r7, #24]
     bbe:	f1a3 0310 	sub.w	r3, r3, #16
     bc2:	613b      	str	r3, [r7, #16]
/home/qemu-sgx/devel/optee/optee_os/lib/libutils/isoc/bget.c:863
     bc4:	693b      	ldr	r3, [r7, #16]
     bc6:	681b      	ldr	r3, [r3, #0]
     bc8:	461a      	mov	r2, r3
     bca:	693b      	ldr	r3, [r7, #16]
     bcc:	685b      	ldr	r3, [r3, #4]
     bce:	eba2 0303 	sub.w	r3, r2, r3
     bd2:	f1a3 0310 	sub.w	r3, r3, #16
     bd6:	61fb      	str	r3, [r7, #28]
     bd8:	e003      	b.n	be2 <bgetz+0x62>
/home/qemu-sgx/devel/optee/optee_os/lib/libutils/isoc/bget.c:865
     bda:	69fb      	ldr	r3, [r7, #28]
     bdc:	f1a3 0308 	sub.w	r3, r3, #8
     be0:	61fb      	str	r3, [r7, #28]
/home/qemu-sgx/devel/optee/optee_os/lib/libutils/isoc/bget.c:867
     be2:	69fa      	ldr	r2, [r7, #28]
     be4:	687b      	ldr	r3, [r7, #4]
     be6:	429a      	cmp	r2, r3
     be8:	da0b      	bge.n	c02 <bgetz+0x82>
/home/qemu-sgx/devel/optee/optee_os/lib/libutils/isoc/bget.c:867 (discriminator 1)
     bea:	4b0c      	ldr	r3, [pc, #48]	; (c1c <bgetz+0x9c>)
     bec:	447b      	add	r3, pc
     bee:	f240 3263 	movw	r2, #867	; 0x363
     bf2:	490b      	ldr	r1, [pc, #44]	; (c20 <bgetz+0xa0>)
     bf4:	4479      	add	r1, pc
     bf6:	480b      	ldr	r0, [pc, #44]	; (c24 <bgetz+0xa4>)
     bf8:	4478      	add	r0, pc
     bfa:	f002 fe37 	bl	386c <_assert_log>
     bfe:	f002 fe59 	bl	38b4 <_assert_break>
/home/qemu-sgx/devel/optee/optee_os/lib/libutils/isoc/bget.c:868
     c02:	69fb      	ldr	r3, [r7, #28]
     c04:	461a      	mov	r2, r3
     c06:	f04f 0100 	mov.w	r1, #0
     c0a:	69b8      	ldr	r0, [r7, #24]
     c0c:	f7ff fd86 	bl	71c <memset_unchecked>
/home/qemu-sgx/devel/optee/optee_os/lib/libutils/isoc/bget.c:870
     c10:	69bb      	ldr	r3, [r7, #24]
/home/qemu-sgx/devel/optee/optee_os/lib/libutils/isoc/bget.c:871
     c12:	4618      	mov	r0, r3
     c14:	f107 0720 	add.w	r7, r7, #32
     c18:	46bd      	mov	sp, r7
     c1a:	bd80      	pop	{r7, pc}
     c1c:	00013a90 	.word	0x00013a90
     c20:	00013680 	.word	0x00013680
     c24:	000137b0 	.word	0x000137b0

00000c28 <bgetr>:
bgetr():
/home/qemu-sgx/devel/optee/optee_os/lib/libutils/isoc/bget.c:884
     c28:	e96d 7e02 	strd	r7, lr, [sp, #-8]!
     c2c:	b088      	sub	sp, #32
     c2e:	af00      	add	r7, sp, #0
     c30:	60f8      	str	r0, [r7, #12]
     c32:	60b9      	str	r1, [r7, #8]
     c34:	607a      	str	r2, [r7, #4]
     c36:	603b      	str	r3, [r7, #0]
/home/qemu-sgx/devel/optee/optee_os/lib/libutils/isoc/bget.c:889
     c38:	6abb      	ldr	r3, [r7, #40]	; 0x28
     c3a:	683a      	ldr	r2, [r7, #0]
     c3c:	6879      	ldr	r1, [r7, #4]
     c3e:	68b8      	ldr	r0, [r7, #8]
     c40:	f7ff fdd8 	bl	7f4 <bget>
     c44:	61f8      	str	r0, [r7, #28]
     c46:	69fb      	ldr	r3, [r7, #28]
     c48:	2b00      	cmp	r3, #0
     c4a:	d102      	bne.n	c52 <bgetr+0x2a>
/home/qemu-sgx/devel/optee/optee_os/lib/libutils/isoc/bget.c:890
     c4c:	f04f 0300 	mov.w	r3, #0
     c50:	e042      	b.n	cd8 <bgetr+0xb0>
/home/qemu-sgx/devel/optee/optee_os/lib/libutils/isoc/bget.c:892
     c52:	68fb      	ldr	r3, [r7, #12]
     c54:	2b00      	cmp	r3, #0
     c56:	d101      	bne.n	c5c <bgetr+0x34>
/home/qemu-sgx/devel/optee/optee_os/lib/libutils/isoc/bget.c:893
     c58:	69fb      	ldr	r3, [r7, #28]
     c5a:	e03d      	b.n	cd8 <bgetr+0xb0>
/home/qemu-sgx/devel/optee/optee_os/lib/libutils/isoc/bget.c:895
     c5c:	68fb      	ldr	r3, [r7, #12]
     c5e:	f1a3 0308 	sub.w	r3, r3, #8
     c62:	61bb      	str	r3, [r7, #24]
/home/qemu-sgx/devel/optee/optee_os/lib/libutils/isoc/bget.c:896
     c64:	69bb      	ldr	r3, [r7, #24]
     c66:	685b      	ldr	r3, [r3, #4]
     c68:	f1c3 0300 	rsb	r3, r3, #0
     c6c:	617b      	str	r3, [r7, #20]
/home/qemu-sgx/devel/optee/optee_os/lib/libutils/isoc/bget.c:906
     c6e:	697b      	ldr	r3, [r7, #20]
     c70:	f1a3 0308 	sub.w	r3, r3, #8
     c74:	617b      	str	r3, [r7, #20]
/home/qemu-sgx/devel/optee/optee_os/lib/libutils/isoc/bget.c:907
     c76:	697b      	ldr	r3, [r7, #20]
     c78:	2b00      	cmp	r3, #0
     c7a:	dc0b      	bgt.n	c94 <bgetr+0x6c>
/home/qemu-sgx/devel/optee/optee_os/lib/libutils/isoc/bget.c:907 (discriminator 1)
     c7c:	4b19      	ldr	r3, [pc, #100]	; (ce4 <bgetr+0xbc>)
     c7e:	447b      	add	r3, pc
     c80:	f240 328b 	movw	r2, #907	; 0x38b
     c84:	4918      	ldr	r1, [pc, #96]	; (ce8 <bgetr+0xc0>)
     c86:	4479      	add	r1, pc
     c88:	4818      	ldr	r0, [pc, #96]	; (cec <bgetr+0xc4>)
     c8a:	4478      	add	r0, pc
     c8c:	f002 fdee 	bl	386c <_assert_log>
     c90:	f002 fe10 	bl	38b4 <_assert_break>
/home/qemu-sgx/devel/optee/optee_os/lib/libutils/isoc/bget.c:909
     c94:	697a      	ldr	r2, [r7, #20]
     c96:	683b      	ldr	r3, [r7, #0]
     c98:	4293      	cmp	r3, r2
     c9a:	bfa8      	it	ge
     c9c:	4613      	movge	r3, r2
/home/qemu-sgx/devel/optee/optee_os/lib/libutils/isoc/bget.c:908
     c9e:	461a      	mov	r2, r3
     ca0:	68f9      	ldr	r1, [r7, #12]
     ca2:	69f8      	ldr	r0, [r7, #28]
     ca4:	f011 fb26 	bl	122f4 <memcpy>
/home/qemu-sgx/devel/optee/optee_os/lib/libutils/isoc/bget.c:912
     ca8:	683a      	ldr	r2, [r7, #0]
     caa:	697b      	ldr	r3, [r7, #20]
     cac:	429a      	cmp	r2, r3
     cae:	dd0c      	ble.n	cca <bgetr+0xa2>
/home/qemu-sgx/devel/optee/optee_os/lib/libutils/isoc/bget.c:913
     cb0:	697b      	ldr	r3, [r7, #20]
     cb2:	69fa      	ldr	r2, [r7, #28]
     cb4:	eb02 0003 	add.w	r0, r2, r3
     cb8:	683a      	ldr	r2, [r7, #0]
     cba:	697b      	ldr	r3, [r7, #20]
     cbc:	eba2 0303 	sub.w	r3, r2, r3
     cc0:	461a      	mov	r2, r3
     cc2:	f04f 0100 	mov.w	r1, #0
     cc6:	f011 fb8e 	bl	123e6 <memset>
/home/qemu-sgx/devel/optee/optee_os/lib/libutils/isoc/bget.c:915
     cca:	f04f 0200 	mov.w	r2, #0
     cce:	6ab9      	ldr	r1, [r7, #40]	; 0x28
     cd0:	68f8      	ldr	r0, [r7, #12]
     cd2:	f000 f80d 	bl	cf0 <brel>
/home/qemu-sgx/devel/optee/optee_os/lib/libutils/isoc/bget.c:916
     cd6:	69fb      	ldr	r3, [r7, #28]
/home/qemu-sgx/devel/optee/optee_os/lib/libutils/isoc/bget.c:917
     cd8:	4618      	mov	r0, r3
     cda:	f107 0720 	add.w	r7, r7, #32
     cde:	46bd      	mov	sp, r7
     ce0:	bd80      	pop	{r7, pc}
     ce2:	bf00      	nop
     ce4:	00013a06 	.word	0x00013a06
     ce8:	000135ee 	.word	0x000135ee
     cec:	0001372e 	.word	0x0001372e

00000cf0 <brel>:
brel():
/home/qemu-sgx/devel/optee/optee_os/lib/libutils/isoc/bget.c:925
     cf0:	f84d 4d0c 	str.w	r4, [sp, #-12]!
     cf4:	e9cd 7e01 	strd	r7, lr, [sp, #4]
     cf8:	b089      	sub	sp, #36	; 0x24
     cfa:	af00      	add	r7, sp, #0
     cfc:	60f8      	str	r0, [r7, #12]
     cfe:	60b9      	str	r1, [r7, #8]
     d00:	607a      	str	r2, [r7, #4]
/home/qemu-sgx/devel/optee/optee_os/lib/libutils/isoc/bget.c:929
     d02:	68fb      	ldr	r3, [r7, #12]
     d04:	f1a3 0308 	sub.w	r3, r3, #8
     d08:	61fb      	str	r3, [r7, #28]
/home/qemu-sgx/devel/optee/optee_os/lib/libutils/isoc/bget.c:931
     d0a:	68bb      	ldr	r3, [r7, #8]
     d0c:	699b      	ldr	r3, [r3, #24]
     d0e:	f103 0201 	add.w	r2, r3, #1
     d12:	68bb      	ldr	r3, [r7, #8]
     d14:	619a      	str	r2, [r3, #24]
/home/qemu-sgx/devel/optee/optee_os/lib/libutils/isoc/bget.c:933
     d16:	68fb      	ldr	r3, [r7, #12]
     d18:	2b00      	cmp	r3, #0
     d1a:	d10b      	bne.n	d34 <brel+0x44>
/home/qemu-sgx/devel/optee/optee_os/lib/libutils/isoc/bget.c:933 (discriminator 1)
     d1c:	4ba1      	ldr	r3, [pc, #644]	; (fa4 <brel+0x2b4>)
     d1e:	447b      	add	r3, pc
     d20:	f240 32a5 	movw	r2, #933	; 0x3a5
     d24:	49a0      	ldr	r1, [pc, #640]	; (fa8 <brel+0x2b8>)
     d26:	4479      	add	r1, pc
     d28:	48a0      	ldr	r0, [pc, #640]	; (fac <brel+0x2bc>)
     d2a:	4478      	add	r0, pc
     d2c:	f002 fd9e 	bl	386c <_assert_log>
     d30:	f002 fdc0 	bl	38b4 <_assert_break>
/home/qemu-sgx/devel/optee/optee_os/lib/libutils/isoc/bget.c:965
     d34:	69fb      	ldr	r3, [r7, #28]
     d36:	685b      	ldr	r3, [r3, #4]
     d38:	2b00      	cmp	r3, #0
     d3a:	db02      	blt.n	d42 <brel+0x52>
/home/qemu-sgx/devel/optee/optee_os/lib/libutils/isoc/bget.c:966
     d3c:	f04f 0300 	mov.w	r3, #0
     d40:	61bb      	str	r3, [r7, #24]
/home/qemu-sgx/devel/optee/optee_os/lib/libutils/isoc/bget.c:968
     d42:	69fb      	ldr	r3, [r7, #28]
     d44:	685b      	ldr	r3, [r3, #4]
     d46:	2b00      	cmp	r3, #0
     d48:	db0b      	blt.n	d62 <brel+0x72>
/home/qemu-sgx/devel/optee/optee_os/lib/libutils/isoc/bget.c:968 (discriminator 1)
     d4a:	4b99      	ldr	r3, [pc, #612]	; (fb0 <brel+0x2c0>)
     d4c:	447b      	add	r3, pc
     d4e:	f44f 7272 	mov.w	r2, #968	; 0x3c8
     d52:	4998      	ldr	r1, [pc, #608]	; (fb4 <brel+0x2c4>)
     d54:	4479      	add	r1, pc
     d56:	4898      	ldr	r0, [pc, #608]	; (fb8 <brel+0x2c8>)
     d58:	4478      	add	r0, pc
     d5a:	f002 fd87 	bl	386c <_assert_log>
     d5e:	f002 fda9 	bl	38b4 <_assert_break>
/home/qemu-sgx/devel/optee/optee_os/lib/libutils/isoc/bget.c:969
     d62:	69fb      	ldr	r3, [r7, #28]
     d64:	685b      	ldr	r3, [r3, #4]
     d66:	f1c3 0300 	rsb	r3, r3, #0
     d6a:	617b      	str	r3, [r7, #20]
/home/qemu-sgx/devel/optee/optee_os/lib/libutils/isoc/bget.c:974
     d6c:	69fb      	ldr	r3, [r7, #28]
     d6e:	685b      	ldr	r3, [r3, #4]
     d70:	f1c3 0300 	rsb	r3, r3, #0
     d74:	69fa      	ldr	r2, [r7, #28]
     d76:	4413      	add	r3, r2
     d78:	681b      	ldr	r3, [r3, #0]
     d7a:	2b00      	cmp	r3, #0
     d7c:	d00b      	beq.n	d96 <brel+0xa6>
/home/qemu-sgx/devel/optee/optee_os/lib/libutils/isoc/bget.c:974 (discriminator 1)
     d7e:	4b8f      	ldr	r3, [pc, #572]	; (fbc <brel+0x2cc>)
     d80:	447b      	add	r3, pc
     d82:	f240 32ce 	movw	r2, #974	; 0x3ce
     d86:	498e      	ldr	r1, [pc, #568]	; (fc0 <brel+0x2d0>)
     d88:	4479      	add	r1, pc
     d8a:	488e      	ldr	r0, [pc, #568]	; (fc4 <brel+0x2d4>)
     d8c:	4478      	add	r0, pc
     d8e:	f002 fd6d 	bl	386c <_assert_log>
     d92:	f002 fd8f 	bl	38b4 <_assert_break>
/home/qemu-sgx/devel/optee/optee_os/lib/libutils/isoc/bget.c:977
     d96:	68bb      	ldr	r3, [r7, #8]
     d98:	691a      	ldr	r2, [r3, #16]
     d9a:	69fb      	ldr	r3, [r7, #28]
     d9c:	685b      	ldr	r3, [r3, #4]
     d9e:	441a      	add	r2, r3
     da0:	68bb      	ldr	r3, [r7, #8]
     da2:	611a      	str	r2, [r3, #16]
/home/qemu-sgx/devel/optee/optee_os/lib/libutils/isoc/bget.c:978
     da4:	68bb      	ldr	r3, [r7, #8]
     da6:	691b      	ldr	r3, [r3, #16]
     da8:	2b00      	cmp	r3, #0
     daa:	da0b      	bge.n	dc4 <brel+0xd4>
/home/qemu-sgx/devel/optee/optee_os/lib/libutils/isoc/bget.c:978 (discriminator 1)
     dac:	4b86      	ldr	r3, [pc, #536]	; (fc8 <brel+0x2d8>)
     dae:	447b      	add	r3, pc
     db0:	f240 32d2 	movw	r2, #978	; 0x3d2
     db4:	4985      	ldr	r1, [pc, #532]	; (fcc <brel+0x2dc>)
     db6:	4479      	add	r1, pc
     db8:	4885      	ldr	r0, [pc, #532]	; (fd0 <brel+0x2e0>)
     dba:	4478      	add	r0, pc
     dbc:	f002 fd56 	bl	386c <_assert_log>
     dc0:	f002 fd78 	bl	38b4 <_assert_break>
/home/qemu-sgx/devel/optee/optee_os/lib/libutils/isoc/bget.c:983
     dc4:	69fb      	ldr	r3, [r7, #28]
     dc6:	681b      	ldr	r3, [r3, #0]
     dc8:	2b00      	cmp	r3, #0
     dca:	d026      	beq.n	e1a <brel+0x12a>
/home/qemu-sgx/devel/optee/optee_os/lib/libutils/isoc/bget.c:991
     dcc:	69fb      	ldr	r3, [r7, #28]
     dce:	685c      	ldr	r4, [r3, #4]
/home/qemu-sgx/devel/optee/optee_os/lib/libutils/isoc/bget.c:994
     dd0:	69fb      	ldr	r3, [r7, #28]
     dd2:	681b      	ldr	r3, [r3, #0]
     dd4:	f1c3 0300 	rsb	r3, r3, #0
     dd8:	69fa      	ldr	r2, [r7, #28]
     dda:	4413      	add	r3, r2
     ddc:	685a      	ldr	r2, [r3, #4]
     dde:	69fb      	ldr	r3, [r7, #28]
     de0:	681b      	ldr	r3, [r3, #0]
     de2:	429a      	cmp	r2, r3
     de4:	d00b      	beq.n	dfe <brel+0x10e>
/home/qemu-sgx/devel/optee/optee_os/lib/libutils/isoc/bget.c:994 (discriminator 1)
     de6:	4b7b      	ldr	r3, [pc, #492]	; (fd4 <brel+0x2e4>)
     de8:	447b      	add	r3, pc
     dea:	f240 32e2 	movw	r2, #994	; 0x3e2
     dee:	497a      	ldr	r1, [pc, #488]	; (fd8 <brel+0x2e8>)
     df0:	4479      	add	r1, pc
     df2:	487a      	ldr	r0, [pc, #488]	; (fdc <brel+0x2ec>)
     df4:	4478      	add	r0, pc
     df6:	f002 fd39 	bl	386c <_assert_log>
     dfa:	f002 fd5b 	bl	38b4 <_assert_break>
/home/qemu-sgx/devel/optee/optee_os/lib/libutils/isoc/bget.c:995
     dfe:	69fb      	ldr	r3, [r7, #28]
     e00:	681b      	ldr	r3, [r3, #0]
     e02:	f1c3 0300 	rsb	r3, r3, #0
     e06:	69fa      	ldr	r2, [r7, #28]
     e08:	4413      	add	r3, r2
     e0a:	61fb      	str	r3, [r7, #28]
/home/qemu-sgx/devel/optee/optee_os/lib/libutils/isoc/bget.c:996
     e0c:	69fb      	ldr	r3, [r7, #28]
     e0e:	685b      	ldr	r3, [r3, #4]
     e10:	eba3 0204 	sub.w	r2, r3, r4
     e14:	69fb      	ldr	r3, [r7, #28]
     e16:	605a      	str	r2, [r3, #4]
     e18:	e037      	b.n	e8a <brel+0x19a>
/home/qemu-sgx/devel/optee/optee_os/lib/libutils/isoc/bget.c:1002
     e1a:	68bb      	ldr	r3, [r7, #8]
     e1c:	68db      	ldr	r3, [r3, #12]
     e1e:	689a      	ldr	r2, [r3, #8]
     e20:	68bb      	ldr	r3, [r7, #8]
     e22:	429a      	cmp	r2, r3
     e24:	d00b      	beq.n	e3e <brel+0x14e>
/home/qemu-sgx/devel/optee/optee_os/lib/libutils/isoc/bget.c:1002 (discriminator 1)
     e26:	4b6e      	ldr	r3, [pc, #440]	; (fe0 <brel+0x2f0>)
     e28:	447b      	add	r3, pc
     e2a:	f240 32ea 	movw	r2, #1002	; 0x3ea
     e2e:	496d      	ldr	r1, [pc, #436]	; (fe4 <brel+0x2f4>)
     e30:	4479      	add	r1, pc
     e32:	486d      	ldr	r0, [pc, #436]	; (fe8 <brel+0x2f8>)
     e34:	4478      	add	r0, pc
     e36:	f002 fd19 	bl	386c <_assert_log>
     e3a:	f002 fd3b 	bl	38b4 <_assert_break>
/home/qemu-sgx/devel/optee/optee_os/lib/libutils/isoc/bget.c:1003
     e3e:	68bb      	ldr	r3, [r7, #8]
     e40:	689b      	ldr	r3, [r3, #8]
     e42:	68da      	ldr	r2, [r3, #12]
     e44:	68bb      	ldr	r3, [r7, #8]
     e46:	429a      	cmp	r2, r3
     e48:	d00b      	beq.n	e62 <brel+0x172>
/home/qemu-sgx/devel/optee/optee_os/lib/libutils/isoc/bget.c:1003 (discriminator 1)
     e4a:	4b68      	ldr	r3, [pc, #416]	; (fec <brel+0x2fc>)
     e4c:	447b      	add	r3, pc
     e4e:	f240 32eb 	movw	r2, #1003	; 0x3eb
     e52:	4967      	ldr	r1, [pc, #412]	; (ff0 <brel+0x300>)
     e54:	4479      	add	r1, pc
     e56:	4867      	ldr	r0, [pc, #412]	; (ff4 <brel+0x304>)
     e58:	4478      	add	r0, pc
     e5a:	f002 fd07 	bl	386c <_assert_log>
     e5e:	f002 fd29 	bl	38b4 <_assert_break>
/home/qemu-sgx/devel/optee/optee_os/lib/libutils/isoc/bget.c:1004
     e62:	68ba      	ldr	r2, [r7, #8]
     e64:	69fb      	ldr	r3, [r7, #28]
     e66:	609a      	str	r2, [r3, #8]
/home/qemu-sgx/devel/optee/optee_os/lib/libutils/isoc/bget.c:1005
     e68:	68bb      	ldr	r3, [r7, #8]
     e6a:	68da      	ldr	r2, [r3, #12]
     e6c:	69fb      	ldr	r3, [r7, #28]
     e6e:	60da      	str	r2, [r3, #12]
/home/qemu-sgx/devel/optee/optee_os/lib/libutils/isoc/bget.c:1006
     e70:	68bb      	ldr	r3, [r7, #8]
     e72:	69fa      	ldr	r2, [r7, #28]
     e74:	60da      	str	r2, [r3, #12]
/home/qemu-sgx/devel/optee/optee_os/lib/libutils/isoc/bget.c:1007
     e76:	69fb      	ldr	r3, [r7, #28]
     e78:	68db      	ldr	r3, [r3, #12]
     e7a:	69fa      	ldr	r2, [r7, #28]
     e7c:	609a      	str	r2, [r3, #8]
/home/qemu-sgx/devel/optee/optee_os/lib/libutils/isoc/bget.c:1008
     e7e:	69fb      	ldr	r3, [r7, #28]
     e80:	685b      	ldr	r3, [r3, #4]
     e82:	f1c3 0200 	rsb	r2, r3, #0
     e86:	69fb      	ldr	r3, [r7, #28]
     e88:	605a      	str	r2, [r3, #4]
/home/qemu-sgx/devel/optee/optee_os/lib/libutils/isoc/bget.c:1016
     e8a:	69fb      	ldr	r3, [r7, #28]
     e8c:	685b      	ldr	r3, [r3, #4]
     e8e:	461a      	mov	r2, r3
     e90:	69fb      	ldr	r3, [r7, #28]
     e92:	4413      	add	r3, r2
     e94:	61bb      	str	r3, [r7, #24]
/home/qemu-sgx/devel/optee/optee_os/lib/libutils/isoc/bget.c:1017
     e96:	69bb      	ldr	r3, [r7, #24]
     e98:	685b      	ldr	r3, [r3, #4]
     e9a:	2b00      	cmp	r3, #0
     e9c:	dd50      	ble.n	f40 <brel+0x250>
/home/qemu-sgx/devel/optee/optee_os/lib/libutils/isoc/bget.c:1022
     e9e:	69bb      	ldr	r3, [r7, #24]
     ea0:	685b      	ldr	r3, [r3, #4]
     ea2:	461a      	mov	r2, r3
     ea4:	69bb      	ldr	r3, [r7, #24]
     ea6:	4413      	add	r3, r2
     ea8:	681a      	ldr	r2, [r3, #0]
     eaa:	69bb      	ldr	r3, [r7, #24]
     eac:	685b      	ldr	r3, [r3, #4]
     eae:	429a      	cmp	r2, r3
     eb0:	d00b      	beq.n	eca <brel+0x1da>
/home/qemu-sgx/devel/optee/optee_os/lib/libutils/isoc/bget.c:1022 (discriminator 1)
     eb2:	4b51      	ldr	r3, [pc, #324]	; (ff8 <brel+0x308>)
     eb4:	447b      	add	r3, pc
     eb6:	f240 32fe 	movw	r2, #1022	; 0x3fe
     eba:	4950      	ldr	r1, [pc, #320]	; (ffc <brel+0x30c>)
     ebc:	4479      	add	r1, pc
     ebe:	4850      	ldr	r0, [pc, #320]	; (1000 <brel+0x310>)
     ec0:	4478      	add	r0, pc
     ec2:	f002 fcd3 	bl	386c <_assert_log>
     ec6:	f002 fcf5 	bl	38b4 <_assert_break>
/home/qemu-sgx/devel/optee/optee_os/lib/libutils/isoc/bget.c:1023
     eca:	69bb      	ldr	r3, [r7, #24]
     ecc:	68db      	ldr	r3, [r3, #12]
     ece:	689b      	ldr	r3, [r3, #8]
     ed0:	69ba      	ldr	r2, [r7, #24]
     ed2:	429a      	cmp	r2, r3
     ed4:	d00b      	beq.n	eee <brel+0x1fe>
/home/qemu-sgx/devel/optee/optee_os/lib/libutils/isoc/bget.c:1023 (discriminator 1)
     ed6:	4b4b      	ldr	r3, [pc, #300]	; (1004 <brel+0x314>)
     ed8:	447b      	add	r3, pc
     eda:	f240 32ff 	movw	r2, #1023	; 0x3ff
     ede:	494a      	ldr	r1, [pc, #296]	; (1008 <brel+0x318>)
     ee0:	4479      	add	r1, pc
     ee2:	484a      	ldr	r0, [pc, #296]	; (100c <brel+0x31c>)
     ee4:	4478      	add	r0, pc
     ee6:	f002 fcc1 	bl	386c <_assert_log>
     eea:	f002 fce3 	bl	38b4 <_assert_break>
/home/qemu-sgx/devel/optee/optee_os/lib/libutils/isoc/bget.c:1024
     eee:	69bb      	ldr	r3, [r7, #24]
     ef0:	689b      	ldr	r3, [r3, #8]
     ef2:	68db      	ldr	r3, [r3, #12]
     ef4:	69ba      	ldr	r2, [r7, #24]
     ef6:	429a      	cmp	r2, r3
     ef8:	d00b      	beq.n	f12 <brel+0x222>
/home/qemu-sgx/devel/optee/optee_os/lib/libutils/isoc/bget.c:1024 (discriminator 1)
     efa:	4b45      	ldr	r3, [pc, #276]	; (1010 <brel+0x320>)
     efc:	447b      	add	r3, pc
     efe:	f44f 6280 	mov.w	r2, #1024	; 0x400
     f02:	4944      	ldr	r1, [pc, #272]	; (1014 <brel+0x324>)
     f04:	4479      	add	r1, pc
     f06:	4844      	ldr	r0, [pc, #272]	; (1018 <brel+0x328>)
     f08:	4478      	add	r0, pc
     f0a:	f002 fcaf 	bl	386c <_assert_log>
     f0e:	f002 fcd1 	bl	38b4 <_assert_break>
/home/qemu-sgx/devel/optee/optee_os/lib/libutils/isoc/bget.c:1025
     f12:	69bb      	ldr	r3, [r7, #24]
     f14:	68db      	ldr	r3, [r3, #12]
     f16:	69ba      	ldr	r2, [r7, #24]
     f18:	6892      	ldr	r2, [r2, #8]
     f1a:	609a      	str	r2, [r3, #8]
/home/qemu-sgx/devel/optee/optee_os/lib/libutils/isoc/bget.c:1026
     f1c:	69bb      	ldr	r3, [r7, #24]
     f1e:	689b      	ldr	r3, [r3, #8]
     f20:	69ba      	ldr	r2, [r7, #24]
     f22:	68d2      	ldr	r2, [r2, #12]
     f24:	60da      	str	r2, [r3, #12]
/home/qemu-sgx/devel/optee/optee_os/lib/libutils/isoc/bget.c:1027
     f26:	69fb      	ldr	r3, [r7, #28]
     f28:	685a      	ldr	r2, [r3, #4]
     f2a:	69bb      	ldr	r3, [r7, #24]
     f2c:	685b      	ldr	r3, [r3, #4]
     f2e:	441a      	add	r2, r3
     f30:	69fb      	ldr	r3, [r7, #28]
     f32:	605a      	str	r2, [r3, #4]
/home/qemu-sgx/devel/optee/optee_os/lib/libutils/isoc/bget.c:1036
     f34:	69fb      	ldr	r3, [r7, #28]
     f36:	685b      	ldr	r3, [r3, #4]
     f38:	461a      	mov	r2, r3
     f3a:	69fb      	ldr	r3, [r7, #28]
     f3c:	4413      	add	r3, r2
     f3e:	61bb      	str	r3, [r7, #24]
/home/qemu-sgx/devel/optee/optee_os/lib/libutils/isoc/bget.c:1038
     f40:	687b      	ldr	r3, [r7, #4]
     f42:	2b00      	cmp	r3, #0
     f44:	d00b      	beq.n	f5e <brel+0x26e>
/home/qemu-sgx/devel/optee/optee_os/lib/libutils/isoc/bget.c:1039
     f46:	69fb      	ldr	r3, [r7, #28]
     f48:	f103 0010 	add.w	r0, r3, #16
/home/qemu-sgx/devel/optee/optee_os/lib/libutils/isoc/bget.c:1040
     f4c:	69fb      	ldr	r3, [r7, #28]
     f4e:	685b      	ldr	r3, [r3, #4]
     f50:	f1a3 0310 	sub.w	r3, r3, #16
/home/qemu-sgx/devel/optee/optee_os/lib/libutils/isoc/bget.c:1039
     f54:	461a      	mov	r2, r3
     f56:	f04f 0155 	mov.w	r1, #85	; 0x55
     f5a:	f7ff fbdf 	bl	71c <memset_unchecked>
/home/qemu-sgx/devel/optee/optee_os/lib/libutils/isoc/bget.c:1042
     f5e:	69bb      	ldr	r3, [r7, #24]
     f60:	685b      	ldr	r3, [r3, #4]
     f62:	2b00      	cmp	r3, #0
     f64:	db0b      	blt.n	f7e <brel+0x28e>
/home/qemu-sgx/devel/optee/optee_os/lib/libutils/isoc/bget.c:1042 (discriminator 1)
     f66:	4b2d      	ldr	r3, [pc, #180]	; (101c <brel+0x32c>)
     f68:	447b      	add	r3, pc
     f6a:	f240 4212 	movw	r2, #1042	; 0x412
     f6e:	492c      	ldr	r1, [pc, #176]	; (1020 <brel+0x330>)
     f70:	4479      	add	r1, pc
     f72:	482c      	ldr	r0, [pc, #176]	; (1024 <brel+0x334>)
     f74:	4478      	add	r0, pc
     f76:	f002 fc79 	bl	386c <_assert_log>
     f7a:	f002 fc9b 	bl	38b4 <_assert_break>
/home/qemu-sgx/devel/optee/optee_os/lib/libutils/isoc/bget.c:1047
     f7e:	69fb      	ldr	r3, [r7, #28]
     f80:	685a      	ldr	r2, [r3, #4]
     f82:	69bb      	ldr	r3, [r7, #24]
     f84:	601a      	str	r2, [r3, #0]
/home/qemu-sgx/devel/optee/optee_os/lib/libutils/isoc/bget.c:1074
     f86:	697b      	ldr	r3, [r7, #20]
     f88:	4619      	mov	r1, r3
     f8a:	68f8      	ldr	r0, [r7, #12]
     f8c:	f7ff fbac 	bl	6e8 <tag_asan_free>
/home/qemu-sgx/devel/optee/optee_os/lib/libutils/isoc/bget.c:1075
     f90:	bf00      	nop
     f92:	f107 0724 	add.w	r7, r7, #36	; 0x24
     f96:	46bd      	mov	sp, r7
     f98:	e9dd 4700 	ldrd	r4, r7, [sp]
     f9c:	b002      	add	sp, #8
     f9e:	f85d fb04 	ldr.w	pc, [sp], #4
     fa2:	bf00      	nop
     fa4:	0001396e 	.word	0x0001396e
     fa8:	0001354e 	.word	0x0001354e
     fac:	0001369a 	.word	0x0001369a
     fb0:	00013940 	.word	0x00013940
     fb4:	00013520 	.word	0x00013520
     fb8:	00013678 	.word	0x00013678
     fbc:	0001390c 	.word	0x0001390c
     fc0:	000134ec 	.word	0x000134ec
     fc4:	00013654 	.word	0x00013654
     fc8:	000138de 	.word	0x000138de
     fcc:	000134be 	.word	0x000134be
     fd0:	00013652 	.word	0x00013652
     fd4:	000138a4 	.word	0x000138a4
     fd8:	00013484 	.word	0x00013484
     fdc:	00013630 	.word	0x00013630
     fe0:	00013864 	.word	0x00013864
     fe4:	00013444 	.word	0x00013444
     fe8:	000134d4 	.word	0x000134d4
     fec:	00013840 	.word	0x00013840
     ff0:	00013420 	.word	0x00013420
     ff4:	000134ec 	.word	0x000134ec
     ff8:	000137d8 	.word	0x000137d8
     ffc:	000133b8 	.word	0x000133b8
    1000:	000135a0 	.word	0x000135a0
    1004:	000137b4 	.word	0x000137b4
    1008:	00013394 	.word	0x00013394
    100c:	000135b8 	.word	0x000135b8
    1010:	00013790 	.word	0x00013790
    1014:	00013370 	.word	0x00013370
    1018:	000135b4 	.word	0x000135b4
    101c:	00013724 	.word	0x00013724
    1020:	00013304 	.word	0x00013304
    1024:	00013568 	.word	0x00013568

00001028 <bpool>:
bpool():
/home/qemu-sgx/devel/optee/optee_os/lib/libutils/isoc/bget.c:1101
    1028:	e96d 7e02 	strd	r7, lr, [sp, #-8]!
    102c:	b086      	sub	sp, #24
    102e:	af00      	add	r7, sp, #0
    1030:	60f8      	str	r0, [r7, #12]
    1032:	60b9      	str	r1, [r7, #8]
    1034:	607a      	str	r2, [r7, #4]
/home/qemu-sgx/devel/optee/optee_os/lib/libutils/isoc/bget.c:1102
    1036:	68fb      	ldr	r3, [r7, #12]
    1038:	617b      	str	r3, [r7, #20]
/home/qemu-sgx/devel/optee/optee_os/lib/libutils/isoc/bget.c:1106
    103a:	68bb      	ldr	r3, [r7, #8]
    103c:	f023 0307 	bic.w	r3, r3, #7
    1040:	60bb      	str	r3, [r7, #8]
/home/qemu-sgx/devel/optee/optee_os/lib/libutils/isoc/bget.c:1125
    1042:	68bb      	ldr	r3, [r7, #8]
    1044:	f1a3 0308 	sub.w	r3, r3, #8
    1048:	2b00      	cmp	r3, #0
    104a:	da0b      	bge.n	1064 <bpool+0x3c>
/home/qemu-sgx/devel/optee/optee_os/lib/libutils/isoc/bget.c:1125 (discriminator 1)
    104c:	4b2c      	ldr	r3, [pc, #176]	; (1100 <bpool+0xd8>)
    104e:	447b      	add	r3, pc
    1050:	f240 4265 	movw	r2, #1125	; 0x465
    1054:	492b      	ldr	r1, [pc, #172]	; (1104 <bpool+0xdc>)
    1056:	4479      	add	r1, pc
    1058:	482b      	ldr	r0, [pc, #172]	; (1108 <bpool+0xe0>)
    105a:	4478      	add	r0, pc
    105c:	f002 fc06 	bl	386c <_assert_log>
    1060:	f002 fc28 	bl	38b4 <_assert_break>
/home/qemu-sgx/devel/optee/optee_os/lib/libutils/isoc/bget.c:1131
    1064:	697b      	ldr	r3, [r7, #20]
    1066:	f04f 0200 	mov.w	r2, #0
    106a:	601a      	str	r2, [r3, #0]
/home/qemu-sgx/devel/optee/optee_os/lib/libutils/isoc/bget.c:1135
    106c:	687b      	ldr	r3, [r7, #4]
    106e:	68db      	ldr	r3, [r3, #12]
    1070:	689a      	ldr	r2, [r3, #8]
    1072:	687b      	ldr	r3, [r7, #4]
    1074:	429a      	cmp	r2, r3
    1076:	d00b      	beq.n	1090 <bpool+0x68>
/home/qemu-sgx/devel/optee/optee_os/lib/libutils/isoc/bget.c:1135 (discriminator 1)
    1078:	4b24      	ldr	r3, [pc, #144]	; (110c <bpool+0xe4>)
    107a:	447b      	add	r3, pc
    107c:	f240 426f 	movw	r2, #1135	; 0x46f
    1080:	4923      	ldr	r1, [pc, #140]	; (1110 <bpool+0xe8>)
    1082:	4479      	add	r1, pc
    1084:	4823      	ldr	r0, [pc, #140]	; (1114 <bpool+0xec>)
    1086:	4478      	add	r0, pc
    1088:	f002 fbf0 	bl	386c <_assert_log>
    108c:	f002 fc12 	bl	38b4 <_assert_break>
/home/qemu-sgx/devel/optee/optee_os/lib/libutils/isoc/bget.c:1136
    1090:	687b      	ldr	r3, [r7, #4]
    1092:	689b      	ldr	r3, [r3, #8]
    1094:	68da      	ldr	r2, [r3, #12]
    1096:	687b      	ldr	r3, [r7, #4]
    1098:	429a      	cmp	r2, r3
    109a:	d00b      	beq.n	10b4 <bpool+0x8c>
/home/qemu-sgx/devel/optee/optee_os/lib/libutils/isoc/bget.c:1136 (discriminator 1)
    109c:	4b1e      	ldr	r3, [pc, #120]	; (1118 <bpool+0xf0>)
    109e:	447b      	add	r3, pc
    10a0:	f44f 628e 	mov.w	r2, #1136	; 0x470
    10a4:	491d      	ldr	r1, [pc, #116]	; (111c <bpool+0xf4>)
    10a6:	4479      	add	r1, pc
    10a8:	481d      	ldr	r0, [pc, #116]	; (1120 <bpool+0xf8>)
    10aa:	4478      	add	r0, pc
    10ac:	f002 fbde 	bl	386c <_assert_log>
    10b0:	f002 fc00 	bl	38b4 <_assert_break>
/home/qemu-sgx/devel/optee/optee_os/lib/libutils/isoc/bget.c:1137
    10b4:	687a      	ldr	r2, [r7, #4]
    10b6:	697b      	ldr	r3, [r7, #20]
    10b8:	609a      	str	r2, [r3, #8]
/home/qemu-sgx/devel/optee/optee_os/lib/libutils/isoc/bget.c:1138
    10ba:	687b      	ldr	r3, [r7, #4]
    10bc:	68da      	ldr	r2, [r3, #12]
    10be:	697b      	ldr	r3, [r7, #20]
    10c0:	60da      	str	r2, [r3, #12]
/home/qemu-sgx/devel/optee/optee_os/lib/libutils/isoc/bget.c:1139
    10c2:	687b      	ldr	r3, [r7, #4]
    10c4:	697a      	ldr	r2, [r7, #20]
    10c6:	60da      	str	r2, [r3, #12]
/home/qemu-sgx/devel/optee/optee_os/lib/libutils/isoc/bget.c:1140
    10c8:	697b      	ldr	r3, [r7, #20]
    10ca:	68db      	ldr	r3, [r3, #12]
    10cc:	697a      	ldr	r2, [r7, #20]
    10ce:	609a      	str	r2, [r3, #8]
/home/qemu-sgx/devel/optee/optee_os/lib/libutils/isoc/bget.c:1150
    10d0:	68bb      	ldr	r3, [r7, #8]
    10d2:	f1a3 0308 	sub.w	r3, r3, #8
    10d6:	60bb      	str	r3, [r7, #8]
/home/qemu-sgx/devel/optee/optee_os/lib/libutils/isoc/bget.c:1151
    10d8:	697b      	ldr	r3, [r7, #20]
    10da:	68ba      	ldr	r2, [r7, #8]
    10dc:	605a      	str	r2, [r3, #4]
/home/qemu-sgx/devel/optee/optee_os/lib/libutils/isoc/bget.c:1156
    10de:	68bb      	ldr	r3, [r7, #8]
    10e0:	697a      	ldr	r2, [r7, #20]
    10e2:	4413      	add	r3, r2
    10e4:	613b      	str	r3, [r7, #16]
/home/qemu-sgx/devel/optee/optee_os/lib/libutils/isoc/bget.c:1157
    10e6:	693b      	ldr	r3, [r7, #16]
    10e8:	68ba      	ldr	r2, [r7, #8]
    10ea:	601a      	str	r2, [r3, #0]
/home/qemu-sgx/devel/optee/optee_os/lib/libutils/isoc/bget.c:1160
    10ec:	693b      	ldr	r3, [r7, #16]
    10ee:	f04f 4200 	mov.w	r2, #2147483648	; 0x80000000
    10f2:	605a      	str	r2, [r3, #4]
/home/qemu-sgx/devel/optee/optee_os/lib/libutils/isoc/bget.c:1161
    10f4:	bf00      	nop
    10f6:	f107 0718 	add.w	r7, r7, #24
    10fa:	46bd      	mov	sp, r7
    10fc:	bd80      	pop	{r7, pc}
    10fe:	bf00      	nop
    1100:	00013646 	.word	0x00013646
    1104:	0001321e 	.word	0x0001321e
    1108:	00013496 	.word	0x00013496
    110c:	0001361a 	.word	0x0001361a
    1110:	000131f2 	.word	0x000131f2
    1114:	00013282 	.word	0x00013282
    1118:	000135f6 	.word	0x000135f6
    111c:	000131ce 	.word	0x000131ce
    1120:	0001329a 	.word	0x0001329a

00001124 <bstats>:
bstats():
/home/qemu-sgx/devel/optee/optee_os/lib/libutils/isoc/bget.c:1171
    1124:	e96d 7e02 	strd	r7, lr, [sp, #-8]!
    1128:	b086      	sub	sp, #24
    112a:	af00      	add	r7, sp, #0
    112c:	60f8      	str	r0, [r7, #12]
    112e:	60b9      	str	r1, [r7, #8]
    1130:	607a      	str	r2, [r7, #4]
    1132:	603b      	str	r3, [r7, #0]
/home/qemu-sgx/devel/optee/optee_os/lib/libutils/isoc/bget.c:1172
    1134:	6a7b      	ldr	r3, [r7, #36]	; 0x24
    1136:	689b      	ldr	r3, [r3, #8]
    1138:	617b      	str	r3, [r7, #20]
/home/qemu-sgx/devel/optee/optee_os/lib/libutils/isoc/bget.c:1174
    113a:	6a7b      	ldr	r3, [r7, #36]	; 0x24
    113c:	695a      	ldr	r2, [r3, #20]
    113e:	683b      	ldr	r3, [r7, #0]
    1140:	601a      	str	r2, [r3, #0]
/home/qemu-sgx/devel/optee/optee_os/lib/libutils/isoc/bget.c:1175
    1142:	6a7b      	ldr	r3, [r7, #36]	; 0x24
    1144:	699a      	ldr	r2, [r3, #24]
    1146:	6a3b      	ldr	r3, [r7, #32]
    1148:	601a      	str	r2, [r3, #0]
/home/qemu-sgx/devel/optee/optee_os/lib/libutils/isoc/bget.c:1176
    114a:	6a7b      	ldr	r3, [r7, #36]	; 0x24
    114c:	691a      	ldr	r2, [r3, #16]
    114e:	68fb      	ldr	r3, [r7, #12]
    1150:	601a      	str	r2, [r3, #0]
/home/qemu-sgx/devel/optee/optee_os/lib/libutils/isoc/bget.c:1177
    1152:	68bb      	ldr	r3, [r7, #8]
    1154:	f04f 0200 	mov.w	r2, #0
    1158:	601a      	str	r2, [r3, #0]
/home/qemu-sgx/devel/optee/optee_os/lib/libutils/isoc/bget.c:1178
    115a:	687b      	ldr	r3, [r7, #4]
    115c:	f04f 32ff 	mov.w	r2, #4294967295	; 0xffffffff
    1160:	601a      	str	r2, [r3, #0]
/home/qemu-sgx/devel/optee/optee_os/lib/libutils/isoc/bget.c:1179
    1162:	e023      	b.n	11ac <bstats+0x88>
/home/qemu-sgx/devel/optee/optee_os/lib/libutils/isoc/bget.c:1180
    1164:	697b      	ldr	r3, [r7, #20]
    1166:	685b      	ldr	r3, [r3, #4]
    1168:	2b00      	cmp	r3, #0
    116a:	dc0b      	bgt.n	1184 <bstats+0x60>
/home/qemu-sgx/devel/optee/optee_os/lib/libutils/isoc/bget.c:1180 (discriminator 1)
    116c:	4b14      	ldr	r3, [pc, #80]	; (11c0 <bstats+0x9c>)
    116e:	447b      	add	r3, pc
    1170:	f240 429c 	movw	r2, #1180	; 0x49c
    1174:	4913      	ldr	r1, [pc, #76]	; (11c4 <bstats+0xa0>)
    1176:	4479      	add	r1, pc
    1178:	4813      	ldr	r0, [pc, #76]	; (11c8 <bstats+0xa4>)
    117a:	4478      	add	r0, pc
    117c:	f002 fb76 	bl	386c <_assert_log>
    1180:	f002 fb98 	bl	38b4 <_assert_break>
/home/qemu-sgx/devel/optee/optee_os/lib/libutils/isoc/bget.c:1181
    1184:	68bb      	ldr	r3, [r7, #8]
    1186:	681a      	ldr	r2, [r3, #0]
    1188:	697b      	ldr	r3, [r7, #20]
    118a:	685b      	ldr	r3, [r3, #4]
    118c:	441a      	add	r2, r3
    118e:	68bb      	ldr	r3, [r7, #8]
    1190:	601a      	str	r2, [r3, #0]
/home/qemu-sgx/devel/optee/optee_os/lib/libutils/isoc/bget.c:1182
    1192:	697b      	ldr	r3, [r7, #20]
    1194:	685a      	ldr	r2, [r3, #4]
    1196:	687b      	ldr	r3, [r7, #4]
    1198:	681b      	ldr	r3, [r3, #0]
    119a:	429a      	cmp	r2, r3
    119c:	dd03      	ble.n	11a6 <bstats+0x82>
/home/qemu-sgx/devel/optee/optee_os/lib/libutils/isoc/bget.c:1183
    119e:	697b      	ldr	r3, [r7, #20]
    11a0:	685a      	ldr	r2, [r3, #4]
    11a2:	687b      	ldr	r3, [r7, #4]
    11a4:	601a      	str	r2, [r3, #0]
/home/qemu-sgx/devel/optee/optee_os/lib/libutils/isoc/bget.c:1185
    11a6:	697b      	ldr	r3, [r7, #20]
    11a8:	689b      	ldr	r3, [r3, #8]
    11aa:	617b      	str	r3, [r7, #20]
/home/qemu-sgx/devel/optee/optee_os/lib/libutils/isoc/bget.c:1179
    11ac:	6a7b      	ldr	r3, [r7, #36]	; 0x24
    11ae:	697a      	ldr	r2, [r7, #20]
    11b0:	429a      	cmp	r2, r3
    11b2:	d1d7      	bne.n	1164 <bstats+0x40>
/home/qemu-sgx/devel/optee/optee_os/lib/libutils/isoc/bget.c:1187
    11b4:	bf00      	nop
    11b6:	bf00      	nop
    11b8:	f107 0718 	add.w	r7, r7, #24
    11bc:	46bd      	mov	sp, r7
    11be:	bd80      	pop	{r7, pc}
    11c0:	0001352e 	.word	0x0001352e
    11c4:	000130fe 	.word	0x000130fe
    11c8:	000133ae 	.word	0x000133ae

000011cc <myrand>:
myrand():
/home/qemu-sgx/devel/optee/optee_os/lib/libutils/isoc/bget.c:1411
    11cc:	f84d 7d04 	str.w	r7, [sp, #-4]!
    11d0:	af00      	add	r7, sp, #0
/home/qemu-sgx/devel/optee/optee_os/lib/libutils/isoc/bget.c:1412
    11d2:	4b0e      	ldr	r3, [pc, #56]	; (120c <myrand+0x40>)
    11d4:	447b      	add	r3, pc
    11d6:	681a      	ldr	r2, [r3, #0]
    11d8:	f644 636d 	movw	r3, #20077	; 0x4e6d
    11dc:	f2c4 13c6 	movt	r3, #16838	; 0x41c6
    11e0:	fb02 f303 	mul.w	r3, r2, r3
    11e4:	f503 5340 	add.w	r3, r3, #12288	; 0x3000
    11e8:	f103 0339 	add.w	r3, r3, #57	; 0x39
    11ec:	4a08      	ldr	r2, [pc, #32]	; (1210 <myrand+0x44>)
    11ee:	447a      	add	r2, pc
    11f0:	6013      	str	r3, [r2, #0]
/home/qemu-sgx/devel/optee/optee_os/lib/libutils/isoc/bget.c:1413
    11f2:	4b08      	ldr	r3, [pc, #32]	; (1214 <myrand+0x48>)
    11f4:	447b      	add	r3, pc
    11f6:	681b      	ldr	r3, [r3, #0]
    11f8:	ea4f 4313 	mov.w	r3, r3, lsr #16
    11fc:	f3c3 030e 	ubfx	r3, r3, #0, #15
/home/qemu-sgx/devel/optee/optee_os/lib/libutils/isoc/bget.c:1414
    1200:	4618      	mov	r0, r3
    1202:	46bd      	mov	sp, r7
    1204:	f85d 7b04 	ldr.w	r7, [sp], #4
    1208:	4770      	bx	lr
    120a:	bf00      	nop
    120c:	000170f8 	.word	0x000170f8
    1210:	000170de 	.word	0x000170de
    1214:	000170d8 	.word	0x000170d8

00001218 <mysrand>:
mysrand():
/home/qemu-sgx/devel/optee/optee_os/lib/libutils/isoc/bget.c:1419
    1218:	f84d 7d04 	str.w	r7, [sp, #-4]!
    121c:	b083      	sub	sp, #12
    121e:	af00      	add	r7, sp, #0
    1220:	6078      	str	r0, [r7, #4]
/home/qemu-sgx/devel/optee/optee_os/lib/libutils/isoc/bget.c:1420
    1222:	4b05      	ldr	r3, [pc, #20]	; (1238 <mysrand+0x20>)
    1224:	447b      	add	r3, pc
    1226:	687a      	ldr	r2, [r7, #4]
    1228:	601a      	str	r2, [r3, #0]
/home/qemu-sgx/devel/optee/optee_os/lib/libutils/isoc/bget.c:1421
    122a:	bf00      	nop
    122c:	f107 070c 	add.w	r7, r7, #12
    1230:	46bd      	mov	sp, r7
    1232:	f85d 7b04 	ldr.w	r7, [sp], #4
    1236:	4770      	bx	lr
    1238:	000170a8 	.word	0x000170a8

0000123c <stats>:
stats():
/home/qemu-sgx/devel/optee/optee_os/lib/libutils/isoc/bget.c:1427
    123c:	f84d 4d0c 	str.w	r4, [sp, #-12]!
    1240:	e9cd 7e01 	strd	r7, lr, [sp, #4]
    1244:	b08d      	sub	sp, #52	; 0x34
    1246:	af04      	add	r7, sp, #16
    1248:	6078      	str	r0, [r7, #4]
    124a:	6039      	str	r1, [r7, #0]
/home/qemu-sgx/devel/optee/optee_os/lib/libutils/isoc/bget.c:1438
    124c:	f107 0410 	add.w	r4, r7, #16
    1250:	f107 0214 	add.w	r2, r7, #20
    1254:	f107 0118 	add.w	r1, r7, #24
    1258:	f107 001c 	add.w	r0, r7, #28
    125c:	683b      	ldr	r3, [r7, #0]
    125e:	9301      	str	r3, [sp, #4]
    1260:	f107 030c 	add.w	r3, r7, #12
    1264:	9300      	str	r3, [sp, #0]
    1266:	4623      	mov	r3, r4
    1268:	f7ff ff5c 	bl	1124 <bstats>
/home/qemu-sgx/devel/optee/optee_os/lib/libutils/isoc/bget.c:1439
    126c:	6938      	ldr	r0, [r7, #16]
    126e:	68fc      	ldr	r4, [r7, #12]
    1270:	69fb      	ldr	r3, [r7, #28]
    1272:	69ba      	ldr	r2, [r7, #24]
    1274:	6979      	ldr	r1, [r7, #20]
    1276:	9102      	str	r1, [sp, #8]
    1278:	9201      	str	r2, [sp, #4]
    127a:	9300      	str	r3, [sp, #0]
    127c:	4623      	mov	r3, r4
    127e:	4602      	mov	r2, r0
    1280:	6879      	ldr	r1, [r7, #4]
    1282:	4806      	ldr	r0, [pc, #24]	; (129c <stats+0x60>)
    1284:	4478      	add	r0, pc
    1286:	f002 fb3b 	bl	3900 <printf>
/home/qemu-sgx/devel/optee/optee_os/lib/libutils/isoc/bget.c:1450
    128a:	bf00      	nop
    128c:	f107 0724 	add.w	r7, r7, #36	; 0x24
    1290:	46bd      	mov	sp, r7
    1292:	e9dd 4700 	ldrd	r4, r7, [sp]
    1296:	b002      	add	sp, #8
    1298:	f85d fb04 	ldr.w	pc, [sp], #4
    129c:	000132b4 	.word	0x000132b4

000012a0 <blimit>:
blimit():
/home/qemu-sgx/devel/optee/optee_os/lib/libutils/isoc/bget.c:1548
    12a0:	f84d 7d04 	str.w	r7, [sp, #-4]!
    12a4:	b083      	sub	sp, #12
    12a6:	af00      	add	r7, sp, #0
    12a8:	6078      	str	r0, [r7, #4]
/home/qemu-sgx/devel/optee/optee_os/lib/libutils/isoc/bget.c:1549
    12aa:	687b      	ldr	r3, [r7, #4]
    12ac:	2b03      	cmp	r3, #3
    12ae:	d802      	bhi.n	12b6 <blimit+0x16>
/home/qemu-sgx/devel/optee/optee_os/lib/libutils/isoc/bget.c:1550
    12b0:	f04f 0304 	mov.w	r3, #4
    12b4:	607b      	str	r3, [r7, #4]
/home/qemu-sgx/devel/optee/optee_os/lib/libutils/isoc/bget.c:1562
    12b6:	687a      	ldr	r2, [r7, #4]
    12b8:	f44f 6354 	mov.w	r3, #3392	; 0xd40
    12bc:	f2c0 0303 	movt	r3, #3
    12c0:	429a      	cmp	r2, r3
    12c2:	dd04      	ble.n	12ce <blimit+0x2e>
/home/qemu-sgx/devel/optee/optee_os/lib/libutils/isoc/bget.c:1563
    12c4:	f44f 6354 	mov.w	r3, #3392	; 0xd40
    12c8:	f2c0 0303 	movt	r3, #3
    12cc:	607b      	str	r3, [r7, #4]
/home/qemu-sgx/devel/optee/optee_os/lib/libutils/isoc/bget.c:1566
    12ce:	687b      	ldr	r3, [r7, #4]
/home/qemu-sgx/devel/optee/optee_os/lib/libutils/isoc/bget.c:1567
    12d0:	4618      	mov	r0, r3
    12d2:	f107 070c 	add.w	r7, r7, #12
    12d6:	46bd      	mov	sp, r7
    12d8:	f85d 7b04 	ldr.w	r7, [sp], #4
    12dc:	4770      	bx	lr

000012de <bget_main_test>:
bget_main_test():
/home/qemu-sgx/devel/optee/optee_os/lib/libutils/isoc/bget.c:1570
    12de:	f84d 4d0c 	str.w	r4, [sp, #-12]!
    12e2:	e9cd 7e01 	strd	r7, lr, [sp, #4]
    12e6:	b095      	sub	sp, #84	; 0x54
    12e8:	af02      	add	r7, sp, #8
    12ea:	6078      	str	r0, [r7, #4]
    12ec:	6039      	str	r1, [r7, #0]
/home/qemu-sgx/devel/optee/optee_os/lib/libutils/isoc/bget.c:1576
    12ee:	4bda      	ldr	r3, [pc, #872]	; (1658 <bget_main_test+0x37a>)
    12f0:	447b      	add	r3, pc
    12f2:	687a      	ldr	r2, [r7, #4]
    12f4:	601a      	str	r2, [r3, #0]
/home/qemu-sgx/devel/optee/optee_os/lib/libutils/isoc/bget.c:1577
    12f6:	4bd9      	ldr	r3, [pc, #868]	; (165c <bget_main_test+0x37e>)
    12f8:	447b      	add	r3, pc
    12fa:	683a      	ldr	r2, [r7, #0]
    12fc:	601a      	str	r2, [r3, #0]
/home/qemu-sgx/devel/optee/optee_os/lib/libutils/isoc/bget.c:1583
    12fe:	f240 40d2 	movw	r0, #1234	; 0x4d2
    1302:	f7ff ff89 	bl	1218 <mysrand>
/home/qemu-sgx/devel/optee/optee_os/lib/libutils/isoc/bget.c:1601
    1306:	4bd6      	ldr	r3, [pc, #856]	; (1660 <bget_main_test+0x382>)
    1308:	447b      	add	r3, pc
    130a:	681b      	ldr	r3, [r3, #0]
    130c:	f24c 3050 	movw	r0, #50000	; 0xc350
    1310:	4798      	blx	r3
    1312:	4602      	mov	r2, r0
    1314:	4bd3      	ldr	r3, [pc, #844]	; (1664 <bget_main_test+0x386>)
    1316:	447b      	add	r3, pc
    1318:	601a      	str	r2, [r3, #0]
/home/qemu-sgx/devel/optee/optee_os/lib/libutils/isoc/bget.c:1602
    131a:	4bd3      	ldr	r3, [pc, #844]	; (1668 <bget_main_test+0x38a>)
    131c:	447b      	add	r3, pc
    131e:	681b      	ldr	r3, [r3, #0]
    1320:	2b00      	cmp	r3, #0
    1322:	d10b      	bne.n	133c <bget_main_test+0x5e>
/home/qemu-sgx/devel/optee/optee_os/lib/libutils/isoc/bget.c:1602 (discriminator 1)
    1324:	4bd1      	ldr	r3, [pc, #836]	; (166c <bget_main_test+0x38e>)
    1326:	447b      	add	r3, pc
    1328:	f240 6242 	movw	r2, #1602	; 0x642
    132c:	49d0      	ldr	r1, [pc, #832]	; (1670 <bget_main_test+0x392>)
    132e:	4479      	add	r1, pc
    1330:	48d0      	ldr	r0, [pc, #832]	; (1674 <bget_main_test+0x396>)
    1332:	4478      	add	r0, pc
    1334:	f002 fa9a 	bl	386c <_assert_log>
    1338:	f002 fabc 	bl	38b4 <_assert_break>
/home/qemu-sgx/devel/optee/optee_os/lib/libutils/isoc/bget.c:1603
    133c:	4bce      	ldr	r3, [pc, #824]	; (1678 <bget_main_test+0x39a>)
    133e:	447b      	add	r3, pc
    1340:	681b      	ldr	r3, [r3, #0]
    1342:	4ace      	ldr	r2, [pc, #824]	; (167c <bget_main_test+0x39e>)
    1344:	447a      	add	r2, pc
    1346:	f24c 3150 	movw	r1, #50000	; 0xc350
    134a:	4618      	mov	r0, r3
    134c:	f7ff fe6c 	bl	1028 <bpool>
/home/qemu-sgx/devel/optee/optee_os/lib/libutils/isoc/bget.c:1606
    1350:	4bcb      	ldr	r3, [pc, #812]	; (1680 <bget_main_test+0x3a2>)
    1352:	447b      	add	r3, pc
    1354:	4619      	mov	r1, r3
    1356:	4bcb      	ldr	r3, [pc, #812]	; (1684 <bget_main_test+0x3a6>)
    1358:	447b      	add	r3, pc
    135a:	4618      	mov	r0, r3
    135c:	f7ff ff6e 	bl	123c <stats>
/home/qemu-sgx/devel/optee/optee_os/lib/libutils/isoc/bget.c:1614
    1360:	f04f 0300 	mov.w	r3, #0
    1364:	647b      	str	r3, [r7, #68]	; 0x44
    1366:	e13e      	b.n	15e6 <bget_main_test+0x308>
/home/qemu-sgx/devel/optee/optee_os/lib/libutils/isoc/bget.c:1619
    1368:	f7ff ff30 	bl	11cc <myrand>
    136c:	4603      	mov	r3, r0
    136e:	f3c3 0410 	ubfx	r4, r3, #0, #17
    1372:	f7ff ff2b 	bl	11cc <myrand>
    1376:	4603      	mov	r3, r0
    1378:	f003 0307 	and.w	r3, r3, #7
    137c:	fa44 f303 	asr.w	r3, r4, r3
    1380:	627b      	str	r3, [r7, #36]	; 0x24
/home/qemu-sgx/devel/optee/optee_os/lib/libutils/isoc/bget.c:1621
    1382:	f04f 0300 	mov.w	r3, #0
    1386:	63fb      	str	r3, [r7, #60]	; 0x3c
/home/qemu-sgx/devel/optee/optee_os/lib/libutils/isoc/bget.c:1622
    1388:	f04f 0300 	mov.w	r3, #0
    138c:	623b      	str	r3, [r7, #32]
/home/qemu-sgx/devel/optee/optee_os/lib/libutils/isoc/bget.c:1624
    138e:	f005 fdb1 	bl	6ef4 <rand>
    1392:	4603      	mov	r3, r0
    1394:	f003 0303 	and.w	r3, r3, #3
    1398:	2b03      	cmp	r3, #3
    139a:	d00e      	beq.n	13ba <bget_main_test+0xdc>
    139c:	2b03      	cmp	r3, #3
    139e:	dc10      	bgt.n	13c2 <bget_main_test+0xe4>
    13a0:	2b01      	cmp	r3, #1
    13a2:	d002      	beq.n	13aa <bget_main_test+0xcc>
    13a4:	2b02      	cmp	r3, #2
    13a6:	d004      	beq.n	13b2 <bget_main_test+0xd4>
/home/qemu-sgx/devel/optee/optee_os/lib/libutils/isoc/bget.c:1635
    13a8:	e00b      	b.n	13c2 <bget_main_test+0xe4>
/home/qemu-sgx/devel/optee/optee_os/lib/libutils/isoc/bget.c:1626
    13aa:	f04f 0320 	mov.w	r3, #32
    13ae:	63fb      	str	r3, [r7, #60]	; 0x3c
/home/qemu-sgx/devel/optee/optee_os/lib/libutils/isoc/bget.c:1627
    13b0:	e008      	b.n	13c4 <bget_main_test+0xe6>
/home/qemu-sgx/devel/optee/optee_os/lib/libutils/isoc/bget.c:1629
    13b2:	f04f 0340 	mov.w	r3, #64	; 0x40
    13b6:	63fb      	str	r3, [r7, #60]	; 0x3c
/home/qemu-sgx/devel/optee/optee_os/lib/libutils/isoc/bget.c:1630
    13b8:	e004      	b.n	13c4 <bget_main_test+0xe6>
/home/qemu-sgx/devel/optee/optee_os/lib/libutils/isoc/bget.c:1632
    13ba:	f04f 0380 	mov.w	r3, #128	; 0x80
    13be:	63fb      	str	r3, [r7, #60]	; 0x3c
/home/qemu-sgx/devel/optee/optee_os/lib/libutils/isoc/bget.c:1633
    13c0:	e000      	b.n	13c4 <bget_main_test+0xe6>
/home/qemu-sgx/devel/optee/optee_os/lib/libutils/isoc/bget.c:1635
    13c2:	bf00      	nop
/home/qemu-sgx/devel/optee/optee_os/lib/libutils/isoc/bget.c:1638
    13c4:	f005 fd96 	bl	6ef4 <rand>
    13c8:	4603      	mov	r3, r0
    13ca:	f003 0303 	and.w	r3, r3, #3
    13ce:	ea4f 03c3 	mov.w	r3, r3, lsl #3
    13d2:	623b      	str	r3, [r7, #32]
/home/qemu-sgx/devel/optee/optee_os/lib/libutils/isoc/bget.c:1640
    13d4:	6a7b      	ldr	r3, [r7, #36]	; 0x24
    13d6:	f5b3 3f00 	cmp.w	r3, #131072	; 0x20000
    13da:	dd0b      	ble.n	13f4 <bget_main_test+0x116>
/home/qemu-sgx/devel/optee/optee_os/lib/libutils/isoc/bget.c:1640 (discriminator 1)
    13dc:	4baa      	ldr	r3, [pc, #680]	; (1688 <bget_main_test+0x3aa>)
    13de:	447b      	add	r3, pc
    13e0:	f44f 62cd 	mov.w	r2, #1640	; 0x668
    13e4:	49a9      	ldr	r1, [pc, #676]	; (168c <bget_main_test+0x3ae>)
    13e6:	4479      	add	r1, pc
    13e8:	48a9      	ldr	r0, [pc, #676]	; (1690 <bget_main_test+0x3b2>)
    13ea:	4478      	add	r0, pc
    13ec:	f002 fa3e 	bl	386c <_assert_log>
    13f0:	f002 fa60 	bl	38b4 <_assert_break>
/home/qemu-sgx/devel/optee/optee_os/lib/libutils/isoc/bget.c:1641
    13f4:	6a78      	ldr	r0, [r7, #36]	; 0x24
    13f6:	f7ff ff53 	bl	12a0 <blimit>
    13fa:	6278      	str	r0, [r7, #36]	; 0x24
/home/qemu-sgx/devel/optee/optee_os/lib/libutils/isoc/bget.c:1642
    13fc:	f7ff fee6 	bl	11cc <myrand>
    1400:	4603      	mov	r3, r0
    1402:	f403 6380 	and.w	r3, r3, #1024	; 0x400
    1406:	2b00      	cmp	r3, #0
    1408:	d008      	beq.n	141c <bget_main_test+0x13e>
/home/qemu-sgx/devel/optee/optee_os/lib/libutils/isoc/bget.c:1643
    140a:	4ba2      	ldr	r3, [pc, #648]	; (1694 <bget_main_test+0x3b6>)
    140c:	447b      	add	r3, pc
    140e:	6a7a      	ldr	r2, [r7, #36]	; 0x24
    1410:	6a39      	ldr	r1, [r7, #32]
    1412:	6bf8      	ldr	r0, [r7, #60]	; 0x3c
    1414:	f7ff fbb4 	bl	b80 <bgetz>
    1418:	6438      	str	r0, [r7, #64]	; 0x40
    141a:	e007      	b.n	142c <bget_main_test+0x14e>
/home/qemu-sgx/devel/optee/optee_os/lib/libutils/isoc/bget.c:1645
    141c:	4b9e      	ldr	r3, [pc, #632]	; (1698 <bget_main_test+0x3ba>)
    141e:	447b      	add	r3, pc
    1420:	6a7a      	ldr	r2, [r7, #36]	; 0x24
    1422:	6a39      	ldr	r1, [r7, #32]
    1424:	6bf8      	ldr	r0, [r7, #60]	; 0x3c
    1426:	f7ff f9e5 	bl	7f4 <bget>
    142a:	6438      	str	r0, [r7, #64]	; 0x40
/home/qemu-sgx/devel/optee/optee_os/lib/libutils/isoc/bget.c:1647
    142c:	6c3b      	ldr	r3, [r7, #64]	; 0x40
    142e:	2b00      	cmp	r3, #0
    1430:	d11b      	bne.n	146a <bget_main_test+0x18c>
/home/qemu-sgx/devel/optee/optee_os/lib/libutils/isoc/bget.c:1651
    1432:	4b9a      	ldr	r3, [pc, #616]	; (169c <bget_main_test+0x3be>)
    1434:	447b      	add	r3, pc
    1436:	681b      	ldr	r3, [r3, #0]
    1438:	613b      	str	r3, [r7, #16]
/home/qemu-sgx/devel/optee/optee_os/lib/libutils/isoc/bget.c:1653
    143a:	693b      	ldr	r3, [r7, #16]
    143c:	2b00      	cmp	r3, #0
    143e:	f000 80cd 	beq.w	15dc <bget_main_test+0x2fe>
/home/qemu-sgx/devel/optee/optee_os/lib/libutils/isoc/bget.c:1656
    1442:	693b      	ldr	r3, [r7, #16]
    1444:	681b      	ldr	r3, [r3, #0]
    1446:	60fb      	str	r3, [r7, #12]
/home/qemu-sgx/devel/optee/optee_os/lib/libutils/isoc/bget.c:1657
    1448:	68fb      	ldr	r3, [r7, #12]
    144a:	2b00      	cmp	r3, #0
    144c:	f000 80c6 	beq.w	15dc <bget_main_test+0x2fe>
/home/qemu-sgx/devel/optee/optee_os/lib/libutils/isoc/bget.c:1658
    1450:	68fb      	ldr	r3, [r7, #12]
    1452:	681a      	ldr	r2, [r3, #0]
    1454:	693b      	ldr	r3, [r7, #16]
    1456:	601a      	str	r2, [r3, #0]
/home/qemu-sgx/devel/optee/optee_os/lib/libutils/isoc/bget.c:1659
    1458:	f04f 0201 	mov.w	r2, #1
    145c:	4b90      	ldr	r3, [pc, #576]	; (16a0 <bget_main_test+0x3c2>)
    145e:	447b      	add	r3, pc
    1460:	4619      	mov	r1, r3
    1462:	68f8      	ldr	r0, [r7, #12]
    1464:	f7ff fc44 	bl	cf0 <brel>
/home/qemu-sgx/devel/optee/optee_os/lib/libutils/isoc/bget.c:1662
    1468:	e0b8      	b.n	15dc <bget_main_test+0x2fe>
/home/qemu-sgx/devel/optee/optee_os/lib/libutils/isoc/bget.c:1665
    146a:	6bfb      	ldr	r3, [r7, #60]	; 0x3c
    146c:	2b00      	cmp	r3, #0
    146e:	d015      	beq.n	149c <bget_main_test+0x1be>
/home/qemu-sgx/devel/optee/optee_os/lib/libutils/isoc/bget.c:1665 (discriminator 1)
    1470:	6c3a      	ldr	r2, [r7, #64]	; 0x40
    1472:	6a3b      	ldr	r3, [r7, #32]
    1474:	4413      	add	r3, r2
    1476:	6bfa      	ldr	r2, [r7, #60]	; 0x3c
    1478:	f102 32ff 	add.w	r2, r2, #4294967295	; 0xffffffff
    147c:	ea03 0302 	and.w	r3, r3, r2
    1480:	2b00      	cmp	r3, #0
    1482:	d00b      	beq.n	149c <bget_main_test+0x1be>
/home/qemu-sgx/devel/optee/optee_os/lib/libutils/isoc/bget.c:1665 (discriminator 2)
    1484:	4b87      	ldr	r3, [pc, #540]	; (16a4 <bget_main_test+0x3c6>)
    1486:	447b      	add	r3, pc
    1488:	f240 6281 	movw	r2, #1665	; 0x681
    148c:	4986      	ldr	r1, [pc, #536]	; (16a8 <bget_main_test+0x3ca>)
    148e:	4479      	add	r1, pc
    1490:	4886      	ldr	r0, [pc, #536]	; (16ac <bget_main_test+0x3ce>)
    1492:	4478      	add	r0, pc
    1494:	f002 f9ea 	bl	386c <_assert_log>
    1498:	f002 fa0c 	bl	38b4 <_assert_break>
/home/qemu-sgx/devel/optee/optee_os/lib/libutils/isoc/bget.c:1666
    149c:	4b84      	ldr	r3, [pc, #528]	; (16b0 <bget_main_test+0x3d2>)
    149e:	447b      	add	r3, pc
    14a0:	681a      	ldr	r2, [r3, #0]
    14a2:	6c3b      	ldr	r3, [r7, #64]	; 0x40
    14a4:	601a      	str	r2, [r3, #0]
/home/qemu-sgx/devel/optee/optee_os/lib/libutils/isoc/bget.c:1667
    14a6:	4b83      	ldr	r3, [pc, #524]	; (16b4 <bget_main_test+0x3d6>)
    14a8:	447b      	add	r3, pc
    14aa:	6c3a      	ldr	r2, [r7, #64]	; 0x40
    14ac:	601a      	str	r2, [r3, #0]
/home/qemu-sgx/devel/optee/optee_os/lib/libutils/isoc/bget.c:1672
    14ae:	f7ff fe8d 	bl	11cc <myrand>
    14b2:	4603      	mov	r3, r0
    14b4:	f003 0310 	and.w	r3, r3, #16
    14b8:	2b00      	cmp	r3, #0
    14ba:	d12c      	bne.n	1516 <bget_main_test+0x238>
/home/qemu-sgx/devel/optee/optee_os/lib/libutils/isoc/bget.c:1673
    14bc:	4b7e      	ldr	r3, [pc, #504]	; (16b8 <bget_main_test+0x3da>)
    14be:	447b      	add	r3, pc
    14c0:	681b      	ldr	r3, [r3, #0]
    14c2:	63bb      	str	r3, [r7, #56]	; 0x38
/home/qemu-sgx/devel/optee/optee_os/lib/libutils/isoc/bget.c:1674
    14c4:	f7ff fe82 	bl	11cc <myrand>
    14c8:	4603      	mov	r3, r0
    14ca:	f003 0303 	and.w	r3, r3, #3
    14ce:	637b      	str	r3, [r7, #52]	; 0x34
/home/qemu-sgx/devel/optee/optee_os/lib/libutils/isoc/bget.c:1676
    14d0:	e006      	b.n	14e0 <bget_main_test+0x202>
/home/qemu-sgx/devel/optee/optee_os/lib/libutils/isoc/bget.c:1677
    14d2:	6bbb      	ldr	r3, [r7, #56]	; 0x38
    14d4:	681b      	ldr	r3, [r3, #0]
    14d6:	63bb      	str	r3, [r7, #56]	; 0x38
/home/qemu-sgx/devel/optee/optee_os/lib/libutils/isoc/bget.c:1678
    14d8:	6b7b      	ldr	r3, [r7, #52]	; 0x34
    14da:	f103 33ff 	add.w	r3, r3, #4294967295	; 0xffffffff
    14de:	637b      	str	r3, [r7, #52]	; 0x34
/home/qemu-sgx/devel/optee/optee_os/lib/libutils/isoc/bget.c:1676
    14e0:	6b7b      	ldr	r3, [r7, #52]	; 0x34
    14e2:	2b00      	cmp	r3, #0
    14e4:	dd02      	ble.n	14ec <bget_main_test+0x20e>
/home/qemu-sgx/devel/optee/optee_os/lib/libutils/isoc/bget.c:1676 (discriminator 1)
    14e6:	6bbb      	ldr	r3, [r7, #56]	; 0x38
    14e8:	2b00      	cmp	r3, #0
    14ea:	d1f2      	bne.n	14d2 <bget_main_test+0x1f4>
/home/qemu-sgx/devel/optee/optee_os/lib/libutils/isoc/bget.c:1680
    14ec:	6bbb      	ldr	r3, [r7, #56]	; 0x38
    14ee:	2b00      	cmp	r3, #0
    14f0:	d011      	beq.n	1516 <bget_main_test+0x238>
/home/qemu-sgx/devel/optee/optee_os/lib/libutils/isoc/bget.c:1683
    14f2:	6bbb      	ldr	r3, [r7, #56]	; 0x38
    14f4:	681b      	ldr	r3, [r3, #0]
    14f6:	61fb      	str	r3, [r7, #28]
/home/qemu-sgx/devel/optee/optee_os/lib/libutils/isoc/bget.c:1684
    14f8:	69fb      	ldr	r3, [r7, #28]
    14fa:	2b00      	cmp	r3, #0
    14fc:	d00b      	beq.n	1516 <bget_main_test+0x238>
/home/qemu-sgx/devel/optee/optee_os/lib/libutils/isoc/bget.c:1685
    14fe:	69fb      	ldr	r3, [r7, #28]
    1500:	681a      	ldr	r2, [r3, #0]
    1502:	6bbb      	ldr	r3, [r7, #56]	; 0x38
    1504:	601a      	str	r2, [r3, #0]
/home/qemu-sgx/devel/optee/optee_os/lib/libutils/isoc/bget.c:1686
    1506:	f04f 0201 	mov.w	r2, #1
    150a:	4b6c      	ldr	r3, [pc, #432]	; (16bc <bget_main_test+0x3de>)
    150c:	447b      	add	r3, pc
    150e:	4619      	mov	r1, r3
    1510:	69f8      	ldr	r0, [r7, #28]
    1512:	f7ff fbed 	bl	cf0 <brel>
/home/qemu-sgx/devel/optee/optee_os/lib/libutils/isoc/bget.c:1694
    1516:	f7ff fe59 	bl	11cc <myrand>
    151a:	4603      	mov	r3, r0
    151c:	f003 0320 	and.w	r3, r3, #32
    1520:	2b00      	cmp	r3, #0
    1522:	d15c      	bne.n	15de <bget_main_test+0x300>
/home/qemu-sgx/devel/optee/optee_os/lib/libutils/isoc/bget.c:1695
    1524:	4b66      	ldr	r3, [pc, #408]	; (16c0 <bget_main_test+0x3e2>)
    1526:	447b      	add	r3, pc
    1528:	681b      	ldr	r3, [r3, #0]
    152a:	633b      	str	r3, [r7, #48]	; 0x30
/home/qemu-sgx/devel/optee/optee_os/lib/libutils/isoc/bget.c:1696
    152c:	f7ff fe4e 	bl	11cc <myrand>
    1530:	4603      	mov	r3, r0
    1532:	f003 0303 	and.w	r3, r3, #3
    1536:	62fb      	str	r3, [r7, #44]	; 0x2c
/home/qemu-sgx/devel/optee/optee_os/lib/libutils/isoc/bget.c:1698
    1538:	e006      	b.n	1548 <bget_main_test+0x26a>
/home/qemu-sgx/devel/optee/optee_os/lib/libutils/isoc/bget.c:1699
    153a:	6b3b      	ldr	r3, [r7, #48]	; 0x30
    153c:	681b      	ldr	r3, [r3, #0]
    153e:	633b      	str	r3, [r7, #48]	; 0x30
/home/qemu-sgx/devel/optee/optee_os/lib/libutils/isoc/bget.c:1700
    1540:	6afb      	ldr	r3, [r7, #44]	; 0x2c
    1542:	f103 33ff 	add.w	r3, r3, #4294967295	; 0xffffffff
    1546:	62fb      	str	r3, [r7, #44]	; 0x2c
/home/qemu-sgx/devel/optee/optee_os/lib/libutils/isoc/bget.c:1698
    1548:	6afb      	ldr	r3, [r7, #44]	; 0x2c
    154a:	2b00      	cmp	r3, #0
    154c:	dd02      	ble.n	1554 <bget_main_test+0x276>
/home/qemu-sgx/devel/optee/optee_os/lib/libutils/isoc/bget.c:1698 (discriminator 1)
    154e:	6b3b      	ldr	r3, [r7, #48]	; 0x30
    1550:	2b00      	cmp	r3, #0
    1552:	d1f2      	bne.n	153a <bget_main_test+0x25c>
/home/qemu-sgx/devel/optee/optee_os/lib/libutils/isoc/bget.c:1702
    1554:	6b3b      	ldr	r3, [r7, #48]	; 0x30
    1556:	2b00      	cmp	r3, #0
    1558:	d041      	beq.n	15de <bget_main_test+0x300>
/home/qemu-sgx/devel/optee/optee_os/lib/libutils/isoc/bget.c:1705
    155a:	6b3b      	ldr	r3, [r7, #48]	; 0x30
    155c:	681b      	ldr	r3, [r3, #0]
    155e:	61bb      	str	r3, [r7, #24]
/home/qemu-sgx/devel/optee/optee_os/lib/libutils/isoc/bget.c:1706
    1560:	69bb      	ldr	r3, [r7, #24]
    1562:	2b00      	cmp	r3, #0
    1564:	d03b      	beq.n	15de <bget_main_test+0x300>
/home/qemu-sgx/devel/optee/optee_os/lib/libutils/isoc/bget.c:1712
    1566:	f005 fcc5 	bl	6ef4 <rand>
    156a:	4603      	mov	r3, r0
    156c:	f3c3 0410 	ubfx	r4, r3, #0, #17
    1570:	f005 fcc0 	bl	6ef4 <rand>
    1574:	4603      	mov	r3, r0
    1576:	f003 0307 	and.w	r3, r3, #7
    157a:	fa44 f303 	asr.w	r3, r4, r3
    157e:	627b      	str	r3, [r7, #36]	; 0x24
/home/qemu-sgx/devel/optee/optee_os/lib/libutils/isoc/bget.c:1714
    1580:	6a78      	ldr	r0, [r7, #36]	; 0x24
    1582:	f7ff fe8d 	bl	12a0 <blimit>
    1586:	6278      	str	r0, [r7, #36]	; 0x24
/home/qemu-sgx/devel/optee/optee_os/lib/libutils/isoc/bget.c:1718
    1588:	4b4e      	ldr	r3, [pc, #312]	; (16c4 <bget_main_test+0x3e6>)
    158a:	447b      	add	r3, pc
    158c:	9300      	str	r3, [sp, #0]
    158e:	6a7b      	ldr	r3, [r7, #36]	; 0x24
    1590:	6a3a      	ldr	r2, [r7, #32]
    1592:	6bf9      	ldr	r1, [r7, #60]	; 0x3c
    1594:	69b8      	ldr	r0, [r7, #24]
    1596:	f7ff fb47 	bl	c28 <bgetr>
    159a:	6178      	str	r0, [r7, #20]
/home/qemu-sgx/devel/optee/optee_os/lib/libutils/isoc/bget.c:1722
    159c:	697b      	ldr	r3, [r7, #20]
    159e:	2b00      	cmp	r3, #0
    15a0:	d01d      	beq.n	15de <bget_main_test+0x300>
/home/qemu-sgx/devel/optee/optee_os/lib/libutils/isoc/bget.c:1723
    15a2:	6bfb      	ldr	r3, [r7, #60]	; 0x3c
    15a4:	2b00      	cmp	r3, #0
    15a6:	d015      	beq.n	15d4 <bget_main_test+0x2f6>
/home/qemu-sgx/devel/optee/optee_os/lib/libutils/isoc/bget.c:1723 (discriminator 1)
    15a8:	697a      	ldr	r2, [r7, #20]
    15aa:	6a3b      	ldr	r3, [r7, #32]
    15ac:	4413      	add	r3, r2
    15ae:	6bfa      	ldr	r2, [r7, #60]	; 0x3c
    15b0:	f102 32ff 	add.w	r2, r2, #4294967295	; 0xffffffff
    15b4:	ea03 0302 	and.w	r3, r3, r2
    15b8:	2b00      	cmp	r3, #0
    15ba:	d00b      	beq.n	15d4 <bget_main_test+0x2f6>
/home/qemu-sgx/devel/optee/optee_os/lib/libutils/isoc/bget.c:1723 (discriminator 2)
    15bc:	4b42      	ldr	r3, [pc, #264]	; (16c8 <bget_main_test+0x3ea>)
    15be:	447b      	add	r3, pc
    15c0:	f240 62bb 	movw	r2, #1723	; 0x6bb
    15c4:	4941      	ldr	r1, [pc, #260]	; (16cc <bget_main_test+0x3ee>)
    15c6:	4479      	add	r1, pc
    15c8:	4841      	ldr	r0, [pc, #260]	; (16d0 <bget_main_test+0x3f2>)
    15ca:	4478      	add	r0, pc
    15cc:	f002 f94e 	bl	386c <_assert_log>
    15d0:	f002 f970 	bl	38b4 <_assert_break>
/home/qemu-sgx/devel/optee/optee_os/lib/libutils/isoc/bget.c:1725
    15d4:	6b3b      	ldr	r3, [r7, #48]	; 0x30
    15d6:	697a      	ldr	r2, [r7, #20]
    15d8:	601a      	str	r2, [r3, #0]
    15da:	e000      	b.n	15de <bget_main_test+0x300>
/home/qemu-sgx/devel/optee/optee_os/lib/libutils/isoc/bget.c:1662
    15dc:	bf00      	nop
/home/qemu-sgx/devel/optee/optee_os/lib/libutils/isoc/bget.c:1614 (discriminator 2)
    15de:	6c7b      	ldr	r3, [r7, #68]	; 0x44
    15e0:	f103 0301 	add.w	r3, r3, #1
    15e4:	647b      	str	r3, [r7, #68]	; 0x44
/home/qemu-sgx/devel/optee/optee_os/lib/libutils/isoc/bget.c:1614 (discriminator 1)
    15e6:	6c7b      	ldr	r3, [r7, #68]	; 0x44
    15e8:	f644 621f 	movw	r2, #19999	; 0x4e1f
    15ec:	4293      	cmp	r3, r2
    15ee:	f77f aebb 	ble.w	1368 <bget_main_test+0x8a>
/home/qemu-sgx/devel/optee/optee_os/lib/libutils/isoc/bget.c:1731
    15f2:	4b38      	ldr	r3, [pc, #224]	; (16d4 <bget_main_test+0x3f6>)
    15f4:	447b      	add	r3, pc
    15f6:	4619      	mov	r1, r3
    15f8:	4b37      	ldr	r3, [pc, #220]	; (16d8 <bget_main_test+0x3fa>)
    15fa:	447b      	add	r3, pc
    15fc:	4618      	mov	r0, r3
    15fe:	f7ff fe1d 	bl	123c <stats>
/home/qemu-sgx/devel/optee/optee_os/lib/libutils/isoc/bget.c:1741
    1602:	e010      	b.n	1626 <bget_main_test+0x348>
/home/qemu-sgx/devel/optee/optee_os/lib/libutils/isoc/bget.c:1742
    1604:	4b35      	ldr	r3, [pc, #212]	; (16dc <bget_main_test+0x3fe>)
    1606:	447b      	add	r3, pc
    1608:	681b      	ldr	r3, [r3, #0]
    160a:	62bb      	str	r3, [r7, #40]	; 0x28
/home/qemu-sgx/devel/optee/optee_os/lib/libutils/isoc/bget.c:1744
    160c:	6abb      	ldr	r3, [r7, #40]	; 0x28
    160e:	681a      	ldr	r2, [r3, #0]
    1610:	4b33      	ldr	r3, [pc, #204]	; (16e0 <bget_main_test+0x402>)
    1612:	447b      	add	r3, pc
    1614:	601a      	str	r2, [r3, #0]
/home/qemu-sgx/devel/optee/optee_os/lib/libutils/isoc/bget.c:1745
    1616:	f04f 0201 	mov.w	r2, #1
    161a:	4b32      	ldr	r3, [pc, #200]	; (16e4 <bget_main_test+0x406>)
    161c:	447b      	add	r3, pc
    161e:	4619      	mov	r1, r3
    1620:	6ab8      	ldr	r0, [r7, #40]	; 0x28
    1622:	f7ff fb65 	bl	cf0 <brel>
/home/qemu-sgx/devel/optee/optee_os/lib/libutils/isoc/bget.c:1741
    1626:	4b30      	ldr	r3, [pc, #192]	; (16e8 <bget_main_test+0x40a>)
    1628:	447b      	add	r3, pc
    162a:	681b      	ldr	r3, [r3, #0]
    162c:	2b00      	cmp	r3, #0
    162e:	d1e9      	bne.n	1604 <bget_main_test+0x326>
/home/qemu-sgx/devel/optee/optee_os/lib/libutils/isoc/bget.c:1747
    1630:	4b2e      	ldr	r3, [pc, #184]	; (16ec <bget_main_test+0x40e>)
    1632:	447b      	add	r3, pc
    1634:	4619      	mov	r1, r3
    1636:	4b2e      	ldr	r3, [pc, #184]	; (16f0 <bget_main_test+0x412>)
    1638:	447b      	add	r3, pc
    163a:	4618      	mov	r0, r3
    163c:	f7ff fdfe 	bl	123c <stats>
/home/qemu-sgx/devel/optee/optee_os/lib/libutils/isoc/bget.c:1759
    1640:	f04f 0300 	mov.w	r3, #0
/home/qemu-sgx/devel/optee/optee_os/lib/libutils/isoc/bget.c:1760
    1644:	4618      	mov	r0, r3
    1646:	f107 074c 	add.w	r7, r7, #76	; 0x4c
    164a:	46bd      	mov	sp, r7
    164c:	e9dd 4700 	ldrd	r4, r7, [sp]
    1650:	b002      	add	sp, #8
    1652:	f85d fb04 	ldr.w	pc, [sp], #4
    1656:	bf00      	nop
    1658:	0001f0bc 	.word	0x0001f0bc
    165c:	0001f0b8 	.word	0x0001f0b8
    1660:	0001f0a4 	.word	0x0001f0a4
    1664:	0001f092 	.word	0x0001f092
    1668:	0001f08c 	.word	0x0001f08c
    166c:	0001337e 	.word	0x0001337e
    1670:	00012f46 	.word	0x00012f46
    1674:	0001324a 	.word	0x0001324a
    1678:	0001f06a 	.word	0x0001f06a
    167c:	00016f8c 	.word	0x00016f8c
    1680:	00016f7e 	.word	0x00016f7e
    1684:	00013230 	.word	0x00013230
    1688:	000132c6 	.word	0x000132c6
    168c:	00012e8e 	.word	0x00012e8e
    1690:	000131aa 	.word	0x000131aa
    1694:	00016ec4 	.word	0x00016ec4
    1698:	00016eb2 	.word	0x00016eb2
    169c:	0001ef70 	.word	0x0001ef70
    16a0:	00016e72 	.word	0x00016e72
    16a4:	0001321e 	.word	0x0001321e
    16a8:	00012de6 	.word	0x00012de6
    16ac:	00013122 	.word	0x00013122
    16b0:	0001ef06 	.word	0x0001ef06
    16b4:	0001eefc 	.word	0x0001eefc
    16b8:	0001eee6 	.word	0x0001eee6
    16bc:	00016dc4 	.word	0x00016dc4
    16c0:	0001ee7e 	.word	0x0001ee7e
    16c4:	00016d46 	.word	0x00016d46
    16c8:	000130e6 	.word	0x000130e6
    16cc:	00012cae 	.word	0x00012cae
    16d0:	00013026 	.word	0x00013026
    16d4:	00016cdc 	.word	0x00016cdc
    16d8:	00013032 	.word	0x00013032
    16dc:	0001ed9e 	.word	0x0001ed9e
    16e0:	0001ed92 	.word	0x0001ed92
    16e4:	00016cb4 	.word	0x00016cb4
    16e8:	0001ed7c 	.word	0x0001ed7c
    16ec:	00016c9e 	.word	0x00016c9e
    16f0:	00013008 	.word	0x00013008

000016f4 <malloc_lock>:
malloc_lock():
/home/qemu-sgx/devel/optee/optee_os/lib/libutils/isoc/bget_malloc.c:176
    16f4:	f84d 7d04 	str.w	r7, [sp, #-4]!
    16f8:	b083      	sub	sp, #12
    16fa:	af00      	add	r7, sp, #0
    16fc:	6078      	str	r0, [r7, #4]
/home/qemu-sgx/devel/optee/optee_os/lib/libutils/isoc/bget_malloc.c:177
    16fe:	f04f 0300 	mov.w	r3, #0
/home/qemu-sgx/devel/optee/optee_os/lib/libutils/isoc/bget_malloc.c:178
    1702:	4618      	mov	r0, r3
    1704:	f107 070c 	add.w	r7, r7, #12
    1708:	46bd      	mov	sp, r7
    170a:	f85d 7b04 	ldr.w	r7, [sp], #4
    170e:	4770      	bx	lr

00001710 <malloc_unlock>:
malloc_unlock():
/home/qemu-sgx/devel/optee/optee_os/lib/libutils/isoc/bget_malloc.c:182
    1710:	f84d 7d04 	str.w	r7, [sp, #-4]!
    1714:	b083      	sub	sp, #12
    1716:	af00      	add	r7, sp, #0
    1718:	6078      	str	r0, [r7, #4]
    171a:	6039      	str	r1, [r7, #0]
/home/qemu-sgx/devel/optee/optee_os/lib/libutils/isoc/bget_malloc.c:183
    171c:	bf00      	nop
    171e:	f107 070c 	add.w	r7, r7, #12
    1722:	46bd      	mov	sp, r7
    1724:	f85d 7b04 	ldr.w	r7, [sp], #4
    1728:	4770      	bx	lr

0000172a <print_oom>:
print_oom():
/home/qemu-sgx/devel/optee/optee_os/lib/libutils/isoc/bget_malloc.c:199
    172a:	f84d 7d04 	str.w	r7, [sp, #-4]!
    172e:	b083      	sub	sp, #12
    1730:	af00      	add	r7, sp, #0
    1732:	6078      	str	r0, [r7, #4]
    1734:	6039      	str	r1, [r7, #0]
/home/qemu-sgx/devel/optee/optee_os/lib/libutils/isoc/bget_malloc.c:204
    1736:	bf00      	nop
    1738:	f107 070c 	add.w	r7, r7, #12
    173c:	46bd      	mov	sp, r7
    173e:	f85d 7b04 	ldr.w	r7, [sp], #4
    1742:	4770      	bx	lr

00001744 <raw_malloc_return_hook>:
raw_malloc_return_hook():
/home/qemu-sgx/devel/optee/optee_os/lib/libutils/isoc/bget_malloc.c:210
    1744:	e96d 7e02 	strd	r7, lr, [sp, #-8]!
    1748:	b084      	sub	sp, #16
    174a:	af00      	add	r7, sp, #0
    174c:	60f8      	str	r0, [r7, #12]
    174e:	60b9      	str	r1, [r7, #8]
    1750:	607a      	str	r2, [r7, #4]
/home/qemu-sgx/devel/optee/optee_os/lib/libutils/isoc/bget_malloc.c:211
    1752:	687b      	ldr	r3, [r7, #4]
    1754:	691b      	ldr	r3, [r3, #16]
    1756:	461a      	mov	r2, r3
    1758:	687b      	ldr	r3, [r7, #4]
    175a:	6c9b      	ldr	r3, [r3, #72]	; 0x48
    175c:	429a      	cmp	r2, r3
    175e:	d904      	bls.n	176a <raw_malloc_return_hook+0x26>
/home/qemu-sgx/devel/optee/optee_os/lib/libutils/isoc/bget_malloc.c:212
    1760:	687b      	ldr	r3, [r7, #4]
    1762:	691b      	ldr	r3, [r3, #16]
    1764:	461a      	mov	r2, r3
    1766:	687b      	ldr	r3, [r7, #4]
    1768:	649a      	str	r2, [r3, #72]	; 0x48
/home/qemu-sgx/devel/optee/optee_os/lib/libutils/isoc/bget_malloc.c:214
    176a:	68fb      	ldr	r3, [r7, #12]
    176c:	2b00      	cmp	r3, #0
    176e:	d116      	bne.n	179e <raw_malloc_return_hook+0x5a>
/home/qemu-sgx/devel/optee/optee_os/lib/libutils/isoc/bget_malloc.c:215
    1770:	687b      	ldr	r3, [r7, #4]
    1772:	6d1b      	ldr	r3, [r3, #80]	; 0x50
    1774:	f103 0201 	add.w	r2, r3, #1
    1778:	687b      	ldr	r3, [r7, #4]
    177a:	651a      	str	r2, [r3, #80]	; 0x50
/home/qemu-sgx/devel/optee/optee_os/lib/libutils/isoc/bget_malloc.c:216
    177c:	6879      	ldr	r1, [r7, #4]
    177e:	68b8      	ldr	r0, [r7, #8]
    1780:	f7ff ffd3 	bl	172a <print_oom>
/home/qemu-sgx/devel/optee/optee_os/lib/libutils/isoc/bget_malloc.c:217
    1784:	687b      	ldr	r3, [r7, #4]
    1786:	6d5b      	ldr	r3, [r3, #84]	; 0x54
    1788:	68ba      	ldr	r2, [r7, #8]
    178a:	429a      	cmp	r2, r3
    178c:	d907      	bls.n	179e <raw_malloc_return_hook+0x5a>
/home/qemu-sgx/devel/optee/optee_os/lib/libutils/isoc/bget_malloc.c:218
    178e:	687b      	ldr	r3, [r7, #4]
    1790:	68ba      	ldr	r2, [r7, #8]
    1792:	655a      	str	r2, [r3, #84]	; 0x54
/home/qemu-sgx/devel/optee/optee_os/lib/libutils/isoc/bget_malloc.c:220
    1794:	687b      	ldr	r3, [r7, #4]
    1796:	691b      	ldr	r3, [r3, #16]
    1798:	461a      	mov	r2, r3
/home/qemu-sgx/devel/optee/optee_os/lib/libutils/isoc/bget_malloc.c:219
    179a:	687b      	ldr	r3, [r7, #4]
    179c:	659a      	str	r2, [r3, #88]	; 0x58
/home/qemu-sgx/devel/optee/optee_os/lib/libutils/isoc/bget_malloc.c:223
    179e:	bf00      	nop
    17a0:	f107 0710 	add.w	r7, r7, #16
    17a4:	46bd      	mov	sp, r7
    17a6:	bd80      	pop	{r7, pc}

000017a8 <gen_malloc_reset_stats>:
gen_malloc_reset_stats():
/home/qemu-sgx/devel/optee/optee_os/lib/libutils/isoc/bget_malloc.c:226
    17a8:	e96d 7e02 	strd	r7, lr, [sp, #-8]!
    17ac:	b084      	sub	sp, #16
    17ae:	af00      	add	r7, sp, #0
    17b0:	6078      	str	r0, [r7, #4]
/home/qemu-sgx/devel/optee/optee_os/lib/libutils/isoc/bget_malloc.c:227
    17b2:	6878      	ldr	r0, [r7, #4]
    17b4:	f7ff ff9e 	bl	16f4 <malloc_lock>
    17b8:	60f8      	str	r0, [r7, #12]
/home/qemu-sgx/devel/optee/optee_os/lib/libutils/isoc/bget_malloc.c:229
    17ba:	687b      	ldr	r3, [r7, #4]
    17bc:	f04f 0200 	mov.w	r2, #0
    17c0:	649a      	str	r2, [r3, #72]	; 0x48
/home/qemu-sgx/devel/optee/optee_os/lib/libutils/isoc/bget_malloc.c:230
    17c2:	687b      	ldr	r3, [r7, #4]
    17c4:	f04f 0200 	mov.w	r2, #0
    17c8:	651a      	str	r2, [r3, #80]	; 0x50
/home/qemu-sgx/devel/optee/optee_os/lib/libutils/isoc/bget_malloc.c:231
    17ca:	687b      	ldr	r3, [r7, #4]
    17cc:	f04f 0200 	mov.w	r2, #0
    17d0:	655a      	str	r2, [r3, #84]	; 0x54
/home/qemu-sgx/devel/optee/optee_os/lib/libutils/isoc/bget_malloc.c:232
    17d2:	687b      	ldr	r3, [r7, #4]
    17d4:	f04f 0200 	mov.w	r2, #0
    17d8:	659a      	str	r2, [r3, #88]	; 0x58
/home/qemu-sgx/devel/optee/optee_os/lib/libutils/isoc/bget_malloc.c:233
    17da:	68f9      	ldr	r1, [r7, #12]
    17dc:	6878      	ldr	r0, [r7, #4]
    17de:	f7ff ff97 	bl	1710 <malloc_unlock>
/home/qemu-sgx/devel/optee/optee_os/lib/libutils/isoc/bget_malloc.c:234
    17e2:	bf00      	nop
    17e4:	f107 0710 	add.w	r7, r7, #16
    17e8:	46bd      	mov	sp, r7
    17ea:	bd80      	pop	{r7, pc}

000017ec <malloc_reset_stats>:
malloc_reset_stats():
/home/qemu-sgx/devel/optee/optee_os/lib/libutils/isoc/bget_malloc.c:237
    17ec:	e96d 7e02 	strd	r7, lr, [sp, #-8]!
    17f0:	af00      	add	r7, sp, #0
/home/qemu-sgx/devel/optee/optee_os/lib/libutils/isoc/bget_malloc.c:238
    17f2:	4b04      	ldr	r3, [pc, #16]	; (1804 <malloc_reset_stats+0x18>)
    17f4:	447b      	add	r3, pc
    17f6:	4618      	mov	r0, r3
    17f8:	f7ff ffd6 	bl	17a8 <gen_malloc_reset_stats>
/home/qemu-sgx/devel/optee/optee_os/lib/libutils/isoc/bget_malloc.c:239
    17fc:	bf00      	nop
    17fe:	46bd      	mov	sp, r7
    1800:	bd80      	pop	{r7, pc}
    1802:	bf00      	nop
    1804:	00016af8 	.word	0x00016af8

00001808 <gen_malloc_get_stats>:
gen_malloc_get_stats():
/home/qemu-sgx/devel/optee/optee_os/lib/libutils/isoc/bget_malloc.c:243
    1808:	e96d 7e02 	strd	r7, lr, [sp, #-8]!
    180c:	b084      	sub	sp, #16
    180e:	af00      	add	r7, sp, #0
    1810:	6078      	str	r0, [r7, #4]
    1812:	6039      	str	r1, [r7, #0]
/home/qemu-sgx/devel/optee/optee_os/lib/libutils/isoc/bget_malloc.c:244
    1814:	6878      	ldr	r0, [r7, #4]
    1816:	f7ff ff6d 	bl	16f4 <malloc_lock>
    181a:	60f8      	str	r0, [r7, #12]
/home/qemu-sgx/devel/optee/optee_os/lib/libutils/isoc/bget_malloc.c:246
    181c:	687b      	ldr	r3, [r7, #4]
    181e:	f103 0324 	add.w	r3, r3, #36	; 0x24
    1822:	f04f 0238 	mov.w	r2, #56	; 0x38
    1826:	4619      	mov	r1, r3
    1828:	6838      	ldr	r0, [r7, #0]
    182a:	f7fe ff89 	bl	740 <memcpy_unchecked>
/home/qemu-sgx/devel/optee/optee_os/lib/libutils/isoc/bget_malloc.c:247
    182e:	687b      	ldr	r3, [r7, #4]
    1830:	691b      	ldr	r3, [r3, #16]
    1832:	461a      	mov	r2, r3
    1834:	683b      	ldr	r3, [r7, #0]
    1836:	621a      	str	r2, [r3, #32]
/home/qemu-sgx/devel/optee/optee_os/lib/libutils/isoc/bget_malloc.c:248
    1838:	68f9      	ldr	r1, [r7, #12]
    183a:	6878      	ldr	r0, [r7, #4]
    183c:	f7ff ff68 	bl	1710 <malloc_unlock>
/home/qemu-sgx/devel/optee/optee_os/lib/libutils/isoc/bget_malloc.c:249
    1840:	bf00      	nop
    1842:	f107 0710 	add.w	r7, r7, #16
    1846:	46bd      	mov	sp, r7
    1848:	bd80      	pop	{r7, pc}

0000184a <malloc_get_stats>:
malloc_get_stats():
/home/qemu-sgx/devel/optee/optee_os/lib/libutils/isoc/bget_malloc.c:252
    184a:	e96d 7e02 	strd	r7, lr, [sp, #-8]!
    184e:	b082      	sub	sp, #8
    1850:	af00      	add	r7, sp, #0
    1852:	6078      	str	r0, [r7, #4]
/home/qemu-sgx/devel/optee/optee_os/lib/libutils/isoc/bget_malloc.c:253
    1854:	6879      	ldr	r1, [r7, #4]
    1856:	4b05      	ldr	r3, [pc, #20]	; (186c <malloc_get_stats+0x22>)
    1858:	447b      	add	r3, pc
    185a:	4618      	mov	r0, r3
    185c:	f7ff ffd4 	bl	1808 <gen_malloc_get_stats>
/home/qemu-sgx/devel/optee/optee_os/lib/libutils/isoc/bget_malloc.c:254
    1860:	bf00      	nop
    1862:	f107 0708 	add.w	r7, r7, #8
    1866:	46bd      	mov	sp, r7
    1868:	bd80      	pop	{r7, pc}
    186a:	bf00      	nop
    186c:	00016a94 	.word	0x00016a94

00001870 <raw_malloc_validate_pools>:
raw_malloc_validate_pools():
/home/qemu-sgx/devel/optee/optee_os/lib/libutils/isoc/bget_malloc.c:277
    1870:	f84d 7d04 	str.w	r7, [sp, #-4]!
    1874:	b083      	sub	sp, #12
    1876:	af00      	add	r7, sp, #0
    1878:	6078      	str	r0, [r7, #4]
/home/qemu-sgx/devel/optee/optee_os/lib/libutils/isoc/bget_malloc.c:278
    187a:	bf00      	nop
    187c:	f107 070c 	add.w	r7, r7, #12
    1880:	46bd      	mov	sp, r7
    1882:	f85d 7b04 	ldr.w	r7, [sp], #4
    1886:	4770      	bx	lr

00001888 <bpool_foreach_iterator_init>:
bpool_foreach_iterator_init():
/home/qemu-sgx/devel/optee/optee_os/lib/libutils/isoc/bget_malloc.c:288
    1888:	f84d 7d04 	str.w	r7, [sp, #-4]!
    188c:	b083      	sub	sp, #12
    188e:	af00      	add	r7, sp, #0
    1890:	6078      	str	r0, [r7, #4]
    1892:	6039      	str	r1, [r7, #0]
/home/qemu-sgx/devel/optee/optee_os/lib/libutils/isoc/bget_malloc.c:289
    1894:	683b      	ldr	r3, [r7, #0]
    1896:	f04f 0200 	mov.w	r2, #0
    189a:	605a      	str	r2, [r3, #4]
/home/qemu-sgx/devel/optee/optee_os/lib/libutils/isoc/bget_malloc.c:290
    189c:	687b      	ldr	r3, [r7, #4]
    189e:	69db      	ldr	r3, [r3, #28]
    18a0:	681a      	ldr	r2, [r3, #0]
    18a2:	683b      	ldr	r3, [r7, #0]
    18a4:	601a      	str	r2, [r3, #0]
/home/qemu-sgx/devel/optee/optee_os/lib/libutils/isoc/bget_malloc.c:291
    18a6:	bf00      	nop
    18a8:	f107 070c 	add.w	r7, r7, #12
    18ac:	46bd      	mov	sp, r7
    18ae:	f85d 7b04 	ldr.w	r7, [sp], #4
    18b2:	4770      	bx	lr

000018b4 <bpool_foreach_pool>:
bpool_foreach_pool():
/home/qemu-sgx/devel/optee/optee_os/lib/libutils/isoc/bget_malloc.c:295
    18b4:	e96d 7e02 	strd	r7, lr, [sp, #-8]!
    18b8:	b086      	sub	sp, #24
    18ba:	af00      	add	r7, sp, #0
    18bc:	60f8      	str	r0, [r7, #12]
    18be:	60b9      	str	r1, [r7, #8]
    18c0:	607a      	str	r2, [r7, #4]
    18c2:	603b      	str	r3, [r7, #0]
/home/qemu-sgx/devel/optee/optee_os/lib/libutils/isoc/bget_malloc.c:296
    18c4:	68fb      	ldr	r3, [r7, #12]
    18c6:	681b      	ldr	r3, [r3, #0]
    18c8:	613b      	str	r3, [r7, #16]
/home/qemu-sgx/devel/optee/optee_os/lib/libutils/isoc/bget_malloc.c:297
    18ca:	693b      	ldr	r3, [r7, #16]
    18cc:	685b      	ldr	r3, [r3, #4]
    18ce:	617b      	str	r3, [r7, #20]
/home/qemu-sgx/devel/optee/optee_os/lib/libutils/isoc/bget_malloc.c:299
    18d0:	697b      	ldr	r3, [r7, #20]
    18d2:	f1b3 4f00 	cmp.w	r3, #2147483648	; 0x80000000
    18d6:	d102      	bne.n	18de <bpool_foreach_pool+0x2a>
/home/qemu-sgx/devel/optee/optee_os/lib/libutils/isoc/bget_malloc.c:300
    18d8:	f04f 0300 	mov.w	r3, #0
    18dc:	e044      	b.n	1968 <bpool_foreach_pool+0xb4>
/home/qemu-sgx/devel/optee/optee_os/lib/libutils/isoc/bget_malloc.c:302
    18de:	697b      	ldr	r3, [r7, #20]
    18e0:	2b00      	cmp	r3, #0
    18e2:	da08      	bge.n	18f6 <bpool_foreach_pool+0x42>
/home/qemu-sgx/devel/optee/optee_os/lib/libutils/isoc/bget_malloc.c:304
    18e4:	697b      	ldr	r3, [r7, #20]
    18e6:	f1c3 0300 	rsb	r3, r3, #0
    18ea:	617b      	str	r3, [r7, #20]
/home/qemu-sgx/devel/optee/optee_os/lib/libutils/isoc/bget_malloc.c:306
    18ec:	683b      	ldr	r3, [r7, #0]
    18ee:	f04f 0200 	mov.w	r2, #0
    18f2:	701a      	strb	r2, [r3, #0]
    18f4:	e027      	b.n	1946 <bpool_foreach_pool+0x92>
/home/qemu-sgx/devel/optee/optee_os/lib/libutils/isoc/bget_malloc.c:309
    18f6:	683b      	ldr	r3, [r7, #0]
    18f8:	f04f 0201 	mov.w	r2, #1
    18fc:	701a      	strb	r2, [r3, #0]
/home/qemu-sgx/devel/optee/optee_os/lib/libutils/isoc/bget_malloc.c:312
    18fe:	693b      	ldr	r3, [r7, #16]
    1900:	68db      	ldr	r3, [r3, #12]
    1902:	689b      	ldr	r3, [r3, #8]
    1904:	693a      	ldr	r2, [r7, #16]
    1906:	429a      	cmp	r2, r3
    1908:	d00b      	beq.n	1922 <bpool_foreach_pool+0x6e>
/home/qemu-sgx/devel/optee/optee_os/lib/libutils/isoc/bget_malloc.c:312 (discriminator 1)
    190a:	4b1a      	ldr	r3, [pc, #104]	; (1974 <bpool_foreach_pool+0xc0>)
    190c:	447b      	add	r3, pc
    190e:	f44f 729c 	mov.w	r2, #312	; 0x138
    1912:	4919      	ldr	r1, [pc, #100]	; (1978 <bpool_foreach_pool+0xc4>)
    1914:	4479      	add	r1, pc
    1916:	4819      	ldr	r0, [pc, #100]	; (197c <bpool_foreach_pool+0xc8>)
    1918:	4478      	add	r0, pc
    191a:	f001 ffa7 	bl	386c <_assert_log>
    191e:	f001 ffc9 	bl	38b4 <_assert_break>
/home/qemu-sgx/devel/optee/optee_os/lib/libutils/isoc/bget_malloc.c:313
    1922:	693b      	ldr	r3, [r7, #16]
    1924:	689b      	ldr	r3, [r3, #8]
    1926:	68db      	ldr	r3, [r3, #12]
    1928:	693a      	ldr	r2, [r7, #16]
    192a:	429a      	cmp	r2, r3
    192c:	d00b      	beq.n	1946 <bpool_foreach_pool+0x92>
/home/qemu-sgx/devel/optee/optee_os/lib/libutils/isoc/bget_malloc.c:313 (discriminator 1)
    192e:	4b14      	ldr	r3, [pc, #80]	; (1980 <bpool_foreach_pool+0xcc>)
    1930:	447b      	add	r3, pc
    1932:	f240 1239 	movw	r2, #313	; 0x139
    1936:	4913      	ldr	r1, [pc, #76]	; (1984 <bpool_foreach_pool+0xd0>)
    1938:	4479      	add	r1, pc
    193a:	4813      	ldr	r0, [pc, #76]	; (1988 <bpool_foreach_pool+0xd4>)
    193c:	4478      	add	r0, pc
    193e:	f001 ff95 	bl	386c <_assert_log>
    1942:	f001 ffb7 	bl	38b4 <_assert_break>
/home/qemu-sgx/devel/optee/optee_os/lib/libutils/isoc/bget_malloc.c:316
    1946:	693b      	ldr	r3, [r7, #16]
    1948:	f103 0208 	add.w	r2, r3, #8
    194c:	68bb      	ldr	r3, [r7, #8]
    194e:	601a      	str	r2, [r3, #0]
/home/qemu-sgx/devel/optee/optee_os/lib/libutils/isoc/bget_malloc.c:317
    1950:	697b      	ldr	r3, [r7, #20]
    1952:	f1a3 0208 	sub.w	r2, r3, #8
    1956:	687b      	ldr	r3, [r7, #4]
    1958:	601a      	str	r2, [r3, #0]
/home/qemu-sgx/devel/optee/optee_os/lib/libutils/isoc/bget_malloc.c:319
    195a:	697b      	ldr	r3, [r7, #20]
    195c:	693a      	ldr	r2, [r7, #16]
    195e:	441a      	add	r2, r3
    1960:	68fb      	ldr	r3, [r7, #12]
    1962:	601a      	str	r2, [r3, #0]
/home/qemu-sgx/devel/optee/optee_os/lib/libutils/isoc/bget_malloc.c:320
    1964:	f04f 0301 	mov.w	r3, #1
/home/qemu-sgx/devel/optee/optee_os/lib/libutils/isoc/bget_malloc.c:321
    1968:	4618      	mov	r0, r3
    196a:	f107 0718 	add.w	r7, r7, #24
    196e:	46bd      	mov	sp, r7
    1970:	bd80      	pop	{r7, pc}
    1972:	bf00      	nop
    1974:	00012da8 	.word	0x00012da8
    1978:	00012d3c 	.word	0x00012d3c
    197c:	000129a4 	.word	0x000129a4
    1980:	00012d84 	.word	0x00012d84
    1984:	00012d18 	.word	0x00012d18
    1988:	0001299c 	.word	0x0001299c

0000198c <bpool_foreach>:
bpool_foreach():
/home/qemu-sgx/devel/optee/optee_os/lib/libutils/isoc/bget_malloc.c:325
    198c:	e96d 7e02 	strd	r7, lr, [sp, #-8]!
    1990:	b086      	sub	sp, #24
    1992:	af00      	add	r7, sp, #0
    1994:	60f8      	str	r0, [r7, #12]
    1996:	60b9      	str	r1, [r7, #8]
    1998:	607a      	str	r2, [r7, #4]
/home/qemu-sgx/devel/optee/optee_os/lib/libutils/isoc/bget_malloc.c:330
    199a:	f107 0313 	add.w	r3, r7, #19
    199e:	f107 0214 	add.w	r2, r7, #20
    19a2:	6879      	ldr	r1, [r7, #4]
    19a4:	68b8      	ldr	r0, [r7, #8]
    19a6:	f7ff ff85 	bl	18b4 <bpool_foreach_pool>
    19aa:	4603      	mov	r3, r0
    19ac:	2b00      	cmp	r3, #0
    19ae:	d005      	beq.n	19bc <bpool_foreach+0x30>
/home/qemu-sgx/devel/optee/optee_os/lib/libutils/isoc/bget_malloc.c:331
    19b0:	7cfb      	ldrb	r3, [r7, #19]
    19b2:	2b00      	cmp	r3, #0
    19b4:	d11e      	bne.n	19f4 <bpool_foreach+0x68>
/home/qemu-sgx/devel/optee/optee_os/lib/libutils/isoc/bget_malloc.c:333
    19b6:	f04f 0301 	mov.w	r3, #1
    19ba:	e01d      	b.n	19f8 <bpool_foreach+0x6c>
/home/qemu-sgx/devel/optee/optee_os/lib/libutils/isoc/bget_malloc.c:336
    19bc:	68bb      	ldr	r3, [r7, #8]
    19be:	685b      	ldr	r3, [r3, #4]
    19c0:	f103 0201 	add.w	r2, r3, #1
    19c4:	68fb      	ldr	r3, [r7, #12]
    19c6:	6a1b      	ldr	r3, [r3, #32]
    19c8:	429a      	cmp	r2, r3
    19ca:	d302      	bcc.n	19d2 <bpool_foreach+0x46>
/home/qemu-sgx/devel/optee/optee_os/lib/libutils/isoc/bget_malloc.c:337
    19cc:	f04f 0300 	mov.w	r3, #0
    19d0:	e012      	b.n	19f8 <bpool_foreach+0x6c>
/home/qemu-sgx/devel/optee/optee_os/lib/libutils/isoc/bget_malloc.c:339
    19d2:	68bb      	ldr	r3, [r7, #8]
    19d4:	685b      	ldr	r3, [r3, #4]
    19d6:	f103 0201 	add.w	r2, r3, #1
    19da:	68bb      	ldr	r3, [r7, #8]
    19dc:	605a      	str	r2, [r3, #4]
/home/qemu-sgx/devel/optee/optee_os/lib/libutils/isoc/bget_malloc.c:340
    19de:	68fb      	ldr	r3, [r7, #12]
    19e0:	69da      	ldr	r2, [r3, #28]
    19e2:	68bb      	ldr	r3, [r7, #8]
    19e4:	685b      	ldr	r3, [r3, #4]
    19e6:	ea4f 03c3 	mov.w	r3, r3, lsl #3
    19ea:	4413      	add	r3, r2
    19ec:	681a      	ldr	r2, [r3, #0]
    19ee:	68bb      	ldr	r3, [r7, #8]
    19f0:	601a      	str	r2, [r3, #0]
    19f2:	e7d2      	b.n	199a <bpool_foreach+0xe>
/home/qemu-sgx/devel/optee/optee_os/lib/libutils/isoc/bget_malloc.c:332
    19f4:	bf00      	nop
/home/qemu-sgx/devel/optee/optee_os/lib/libutils/isoc/bget_malloc.c:326
    19f6:	e7d0      	b.n	199a <bpool_foreach+0xe>
/home/qemu-sgx/devel/optee/optee_os/lib/libutils/isoc/bget_malloc.c:342
    19f8:	4618      	mov	r0, r3
    19fa:	f107 0718 	add.w	r7, r7, #24
    19fe:	46bd      	mov	sp, r7
    1a00:	bd80      	pop	{r7, pc}

00001a02 <raw_memalign>:
raw_memalign():
/home/qemu-sgx/devel/optee/optee_os/lib/libutils/isoc/bget_malloc.c:351
    1a02:	e96d 7e02 	strd	r7, lr, [sp, #-8]!
    1a06:	b086      	sub	sp, #24
    1a08:	af00      	add	r7, sp, #0
    1a0a:	60f8      	str	r0, [r7, #12]
    1a0c:	60b9      	str	r1, [r7, #8]
    1a0e:	607a      	str	r2, [r7, #4]
    1a10:	603b      	str	r3, [r7, #0]
/home/qemu-sgx/devel/optee/optee_os/lib/libutils/isoc/bget_malloc.c:352
    1a12:	f04f 0300 	mov.w	r3, #0
    1a16:	617b      	str	r3, [r7, #20]
/home/qemu-sgx/devel/optee/optee_os/lib/libutils/isoc/bget_malloc.c:355
    1a18:	687b      	ldr	r3, [r7, #4]
    1a1a:	2b00      	cmp	r3, #0
    1a1c:	d00b      	beq.n	1a36 <raw_memalign+0x34>
/home/qemu-sgx/devel/optee/optee_os/lib/libutils/isoc/bget_malloc.c:355 (discriminator 1)
    1a1e:	687b      	ldr	r3, [r7, #4]
    1a20:	2b00      	cmp	r3, #0
    1a22:	d008      	beq.n	1a36 <raw_memalign+0x34>
/home/qemu-sgx/devel/optee/optee_os/lib/libutils/isoc/bget_malloc.c:355 (discriminator 2)
    1a24:	687b      	ldr	r3, [r7, #4]
    1a26:	f1c3 0200 	rsb	r2, r3, #0
    1a2a:	687b      	ldr	r3, [r7, #4]
    1a2c:	ea03 0302 	and.w	r3, r3, r2
    1a30:	687a      	ldr	r2, [r7, #4]
    1a32:	429a      	cmp	r2, r3
    1a34:	d002      	beq.n	1a3c <raw_memalign+0x3a>
/home/qemu-sgx/devel/optee/optee_os/lib/libutils/isoc/bget_malloc.c:356
    1a36:	f04f 0300 	mov.w	r3, #0
    1a3a:	e02b      	b.n	1a94 <raw_memalign+0x92>
/home/qemu-sgx/devel/optee/optee_os/lib/libutils/isoc/bget_malloc.c:358
    1a3c:	6a38      	ldr	r0, [r7, #32]
    1a3e:	f7ff ff17 	bl	1870 <raw_malloc_validate_pools>
/home/qemu-sgx/devel/optee/optee_os/lib/libutils/isoc/bget_malloc.c:361
    1a42:	f04f 0100 	mov.w	r1, #0
    1a46:	683a      	ldr	r2, [r7, #0]
    1a48:	68bb      	ldr	r3, [r7, #8]
    1a4a:	4413      	add	r3, r2
    1a4c:	2b00      	cmp	r3, #0
    1a4e:	db02      	blt.n	1a56 <raw_memalign+0x54>
    1a50:	68ba      	ldr	r2, [r7, #8]
    1a52:	4293      	cmp	r3, r2
    1a54:	d201      	bcs.n	1a5a <raw_memalign+0x58>
    1a56:	f04f 0101 	mov.w	r1, #1
    1a5a:	613b      	str	r3, [r7, #16]
    1a5c:	460b      	mov	r3, r1
    1a5e:	f003 0301 	and.w	r3, r3, #1
    1a62:	b2db      	uxtb	r3, r3
    1a64:	2b00      	cmp	r3, #0
    1a66:	d10e      	bne.n	1a86 <raw_memalign+0x84>
/home/qemu-sgx/devel/optee/optee_os/lib/libutils/isoc/bget_malloc.c:365
    1a68:	693b      	ldr	r3, [r7, #16]
    1a6a:	2b00      	cmp	r3, #0
    1a6c:	d103      	bne.n	1a76 <raw_memalign+0x74>
/home/qemu-sgx/devel/optee/optee_os/lib/libutils/isoc/bget_malloc.c:366
    1a6e:	693b      	ldr	r3, [r7, #16]
    1a70:	f103 0301 	add.w	r3, r3, #1
    1a74:	613b      	str	r3, [r7, #16]
/home/qemu-sgx/devel/optee/optee_os/lib/libutils/isoc/bget_malloc.c:368
    1a76:	6878      	ldr	r0, [r7, #4]
    1a78:	68f9      	ldr	r1, [r7, #12]
    1a7a:	693a      	ldr	r2, [r7, #16]
    1a7c:	6a3b      	ldr	r3, [r7, #32]
    1a7e:	f7fe feb9 	bl	7f4 <bget>
    1a82:	6178      	str	r0, [r7, #20]
    1a84:	e000      	b.n	1a88 <raw_memalign+0x86>
/home/qemu-sgx/devel/optee/optee_os/lib/libutils/isoc/bget_malloc.c:362
    1a86:	bf00      	nop
/home/qemu-sgx/devel/optee/optee_os/lib/libutils/isoc/bget_malloc.c:370
    1a88:	6a3a      	ldr	r2, [r7, #32]
    1a8a:	6839      	ldr	r1, [r7, #0]
    1a8c:	6978      	ldr	r0, [r7, #20]
    1a8e:	f7ff fe59 	bl	1744 <raw_malloc_return_hook>
/home/qemu-sgx/devel/optee/optee_os/lib/libutils/isoc/bget_malloc.c:372
    1a92:	697b      	ldr	r3, [r7, #20]
/home/qemu-sgx/devel/optee/optee_os/lib/libutils/isoc/bget_malloc.c:373 (discriminator 1)
    1a94:	4618      	mov	r0, r3
    1a96:	f107 0718 	add.w	r7, r7, #24
    1a9a:	46bd      	mov	sp, r7
    1a9c:	bd80      	pop	{r7, pc}

00001a9e <raw_malloc>:
raw_malloc():
/home/qemu-sgx/devel/optee/optee_os/lib/libutils/isoc/bget_malloc.c:377
    1a9e:	e96d 7e02 	strd	r7, lr, [sp, #-8]!
    1aa2:	b086      	sub	sp, #24
    1aa4:	af02      	add	r7, sp, #8
    1aa6:	60f8      	str	r0, [r7, #12]
    1aa8:	60b9      	str	r1, [r7, #8]
    1aaa:	607a      	str	r2, [r7, #4]
    1aac:	603b      	str	r3, [r7, #0]
/home/qemu-sgx/devel/optee/optee_os/lib/libutils/isoc/bget_malloc.c:382
    1aae:	683b      	ldr	r3, [r7, #0]
    1ab0:	9300      	str	r3, [sp, #0]
    1ab2:	687b      	ldr	r3, [r7, #4]
    1ab4:	f04f 0208 	mov.w	r2, #8
    1ab8:	68b9      	ldr	r1, [r7, #8]
    1aba:	68f8      	ldr	r0, [r7, #12]
    1abc:	f7ff ffa1 	bl	1a02 <raw_memalign>
    1ac0:	4603      	mov	r3, r0
/home/qemu-sgx/devel/optee/optee_os/lib/libutils/isoc/bget_malloc.c:383
    1ac2:	4618      	mov	r0, r3
    1ac4:	f107 0710 	add.w	r7, r7, #16
    1ac8:	46bd      	mov	sp, r7
    1aca:	bd80      	pop	{r7, pc}

00001acc <raw_free>:
raw_free():
/home/qemu-sgx/devel/optee/optee_os/lib/libutils/isoc/bget_malloc.c:386
    1acc:	e96d 7e02 	strd	r7, lr, [sp, #-8]!
    1ad0:	b084      	sub	sp, #16
    1ad2:	af00      	add	r7, sp, #0
    1ad4:	60f8      	str	r0, [r7, #12]
    1ad6:	60b9      	str	r1, [r7, #8]
    1ad8:	4613      	mov	r3, r2
    1ada:	71fb      	strb	r3, [r7, #7]
/home/qemu-sgx/devel/optee/optee_os/lib/libutils/isoc/bget_malloc.c:387
    1adc:	68b8      	ldr	r0, [r7, #8]
    1ade:	f7ff fec7 	bl	1870 <raw_malloc_validate_pools>
/home/qemu-sgx/devel/optee/optee_os/lib/libutils/isoc/bget_malloc.c:389
    1ae2:	68fb      	ldr	r3, [r7, #12]
    1ae4:	2b00      	cmp	r3, #0
    1ae6:	d005      	beq.n	1af4 <raw_free+0x28>
/home/qemu-sgx/devel/optee/optee_os/lib/libutils/isoc/bget_malloc.c:390
    1ae8:	68bb      	ldr	r3, [r7, #8]
    1aea:	79fa      	ldrb	r2, [r7, #7]
    1aec:	4619      	mov	r1, r3
    1aee:	68f8      	ldr	r0, [r7, #12]
    1af0:	f7ff f8fe 	bl	cf0 <brel>
/home/qemu-sgx/devel/optee/optee_os/lib/libutils/isoc/bget_malloc.c:391
    1af4:	bf00      	nop
    1af6:	f107 0710 	add.w	r7, r7, #16
    1afa:	46bd      	mov	sp, r7
    1afc:	bd80      	pop	{r7, pc}

00001afe <raw_calloc>:
raw_calloc():
/home/qemu-sgx/devel/optee/optee_os/lib/libutils/isoc/bget_malloc.c:395
    1afe:	e96d 4504 	strd	r4, r5, [sp, #-16]!
    1b02:	e9cd 7e02 	strd	r7, lr, [sp, #8]
    1b06:	b086      	sub	sp, #24
    1b08:	af00      	add	r7, sp, #0
    1b0a:	60f8      	str	r0, [r7, #12]
    1b0c:	60b9      	str	r1, [r7, #8]
    1b0e:	607a      	str	r2, [r7, #4]
    1b10:	603b      	str	r3, [r7, #0]
/home/qemu-sgx/devel/optee/optee_os/lib/libutils/isoc/bget_malloc.c:396
    1b12:	f04f 0300 	mov.w	r3, #0
    1b16:	617b      	str	r3, [r7, #20]
/home/qemu-sgx/devel/optee/optee_os/lib/libutils/isoc/bget_malloc.c:399
    1b18:	6ab8      	ldr	r0, [r7, #40]	; 0x28
    1b1a:	f7ff fea9 	bl	1870 <raw_malloc_validate_pools>
/home/qemu-sgx/devel/optee/optee_os/lib/libutils/isoc/bget_malloc.c:402
    1b1e:	f04f 0100 	mov.w	r1, #0
    1b22:	687a      	ldr	r2, [r7, #4]
    1b24:	683b      	ldr	r3, [r7, #0]
    1b26:	fba2 4503 	umull	r4, r5, r2, r3
    1b2a:	f04f 0200 	mov.w	r2, #0
    1b2e:	f04f 0300 	mov.w	r3, #0
    1b32:	462a      	mov	r2, r5
    1b34:	f04f 0300 	mov.w	r3, #0
    1b38:	2a00      	cmp	r2, #0
    1b3a:	d001      	beq.n	1b40 <raw_calloc+0x42>
    1b3c:	f04f 0101 	mov.w	r1, #1
    1b40:	2c00      	cmp	r4, #0
    1b42:	da01      	bge.n	1b48 <raw_calloc+0x4a>
    1b44:	f04f 0101 	mov.w	r1, #1
    1b48:	4623      	mov	r3, r4
    1b4a:	613b      	str	r3, [r7, #16]
    1b4c:	460b      	mov	r3, r1
    1b4e:	f003 0301 	and.w	r3, r3, #1
    1b52:	b2db      	uxtb	r3, r3
    1b54:	2b00      	cmp	r3, #0
    1b56:	d122      	bne.n	1b9e <raw_calloc+0xa0>
/home/qemu-sgx/devel/optee/optee_os/lib/libutils/isoc/bget_malloc.c:404
    1b58:	693a      	ldr	r2, [r7, #16]
    1b5a:	f04f 0000 	mov.w	r0, #0
    1b5e:	68bb      	ldr	r3, [r7, #8]
    1b60:	4413      	add	r3, r2
    1b62:	f103 4100 	add.w	r1, r3, #2147483648	; 0x80000000
    1b66:	68ba      	ldr	r2, [r7, #8]
    1b68:	4291      	cmp	r1, r2
    1b6a:	d201      	bcs.n	1b70 <raw_calloc+0x72>
    1b6c:	f04f 0001 	mov.w	r0, #1
    1b70:	613b      	str	r3, [r7, #16]
    1b72:	4603      	mov	r3, r0
    1b74:	f003 0301 	and.w	r3, r3, #1
    1b78:	b2db      	uxtb	r3, r3
    1b7a:	2b00      	cmp	r3, #0
    1b7c:	d111      	bne.n	1ba2 <raw_calloc+0xa4>
/home/qemu-sgx/devel/optee/optee_os/lib/libutils/isoc/bget_malloc.c:408
    1b7e:	693b      	ldr	r3, [r7, #16]
    1b80:	2b00      	cmp	r3, #0
    1b82:	d103      	bne.n	1b8c <raw_calloc+0x8e>
/home/qemu-sgx/devel/optee/optee_os/lib/libutils/isoc/bget_malloc.c:409
    1b84:	693b      	ldr	r3, [r7, #16]
    1b86:	f103 0301 	add.w	r3, r3, #1
    1b8a:	613b      	str	r3, [r7, #16]
/home/qemu-sgx/devel/optee/optee_os/lib/libutils/isoc/bget_malloc.c:411
    1b8c:	68f9      	ldr	r1, [r7, #12]
    1b8e:	693a      	ldr	r2, [r7, #16]
    1b90:	6abb      	ldr	r3, [r7, #40]	; 0x28
    1b92:	f04f 0000 	mov.w	r0, #0
    1b96:	f7fe fff3 	bl	b80 <bgetz>
    1b9a:	6178      	str	r0, [r7, #20]
    1b9c:	e002      	b.n	1ba4 <raw_calloc+0xa6>
/home/qemu-sgx/devel/optee/optee_os/lib/libutils/isoc/bget_malloc.c:403
    1b9e:	bf00      	nop
    1ba0:	e000      	b.n	1ba4 <raw_calloc+0xa6>
/home/qemu-sgx/devel/optee/optee_os/lib/libutils/isoc/bget_malloc.c:405
    1ba2:	bf00      	nop
/home/qemu-sgx/devel/optee/optee_os/lib/libutils/isoc/bget_malloc.c:413
    1ba4:	687b      	ldr	r3, [r7, #4]
    1ba6:	683a      	ldr	r2, [r7, #0]
    1ba8:	fb02 f303 	mul.w	r3, r2, r3
    1bac:	6aba      	ldr	r2, [r7, #40]	; 0x28
    1bae:	4619      	mov	r1, r3
    1bb0:	6978      	ldr	r0, [r7, #20]
    1bb2:	f7ff fdc7 	bl	1744 <raw_malloc_return_hook>
/home/qemu-sgx/devel/optee/optee_os/lib/libutils/isoc/bget_malloc.c:415
    1bb6:	697b      	ldr	r3, [r7, #20]
/home/qemu-sgx/devel/optee/optee_os/lib/libutils/isoc/bget_malloc.c:416
    1bb8:	4618      	mov	r0, r3
    1bba:	f107 0718 	add.w	r7, r7, #24
    1bbe:	46bd      	mov	sp, r7
    1bc0:	e9dd 4500 	ldrd	r4, r5, [sp]
    1bc4:	b002      	add	sp, #8
    1bc6:	bd80      	pop	{r7, pc}

00001bc8 <raw_realloc>:
raw_realloc():
/home/qemu-sgx/devel/optee/optee_os/lib/libutils/isoc/bget_malloc.c:420
    1bc8:	e96d 7e02 	strd	r7, lr, [sp, #-8]!
    1bcc:	b088      	sub	sp, #32
    1bce:	af02      	add	r7, sp, #8
    1bd0:	60f8      	str	r0, [r7, #12]
    1bd2:	60b9      	str	r1, [r7, #8]
    1bd4:	607a      	str	r2, [r7, #4]
    1bd6:	603b      	str	r3, [r7, #0]
/home/qemu-sgx/devel/optee/optee_os/lib/libutils/isoc/bget_malloc.c:421
    1bd8:	f04f 0300 	mov.w	r3, #0
    1bdc:	617b      	str	r3, [r7, #20]
/home/qemu-sgx/devel/optee/optee_os/lib/libutils/isoc/bget_malloc.c:425
    1bde:	f04f 0100 	mov.w	r1, #0
    1be2:	683a      	ldr	r2, [r7, #0]
    1be4:	68bb      	ldr	r3, [r7, #8]
    1be6:	4413      	add	r3, r2
    1be8:	2b00      	cmp	r3, #0
    1bea:	db02      	blt.n	1bf2 <raw_realloc+0x2a>
    1bec:	68ba      	ldr	r2, [r7, #8]
    1bee:	4293      	cmp	r3, r2
    1bf0:	d201      	bcs.n	1bf6 <raw_realloc+0x2e>
    1bf2:	f04f 0101 	mov.w	r1, #1
    1bf6:	613b      	str	r3, [r7, #16]
    1bf8:	460b      	mov	r3, r1
    1bfa:	f003 0301 	and.w	r3, r3, #1
    1bfe:	b2db      	uxtb	r3, r3
    1c00:	2b00      	cmp	r3, #0
    1c02:	d129      	bne.n	1c58 <raw_realloc+0x90>
/home/qemu-sgx/devel/optee/optee_os/lib/libutils/isoc/bget_malloc.c:427
    1c04:	693a      	ldr	r2, [r7, #16]
    1c06:	f04f 0000 	mov.w	r0, #0
    1c0a:	687b      	ldr	r3, [r7, #4]
    1c0c:	4413      	add	r3, r2
    1c0e:	f103 4100 	add.w	r1, r3, #2147483648	; 0x80000000
    1c12:	687a      	ldr	r2, [r7, #4]
    1c14:	4291      	cmp	r1, r2
    1c16:	d201      	bcs.n	1c1c <raw_realloc+0x54>
    1c18:	f04f 0001 	mov.w	r0, #1
    1c1c:	613b      	str	r3, [r7, #16]
    1c1e:	4603      	mov	r3, r0
    1c20:	f003 0301 	and.w	r3, r3, #1
    1c24:	b2db      	uxtb	r3, r3
    1c26:	2b00      	cmp	r3, #0
    1c28:	d118      	bne.n	1c5c <raw_realloc+0x94>
/home/qemu-sgx/devel/optee/optee_os/lib/libutils/isoc/bget_malloc.c:430
    1c2a:	6a38      	ldr	r0, [r7, #32]
    1c2c:	f7ff fe20 	bl	1870 <raw_malloc_validate_pools>
/home/qemu-sgx/devel/optee/optee_os/lib/libutils/isoc/bget_malloc.c:433
    1c30:	693b      	ldr	r3, [r7, #16]
    1c32:	2b00      	cmp	r3, #0
    1c34:	d103      	bne.n	1c3e <raw_realloc+0x76>
/home/qemu-sgx/devel/optee/optee_os/lib/libutils/isoc/bget_malloc.c:434
    1c36:	693b      	ldr	r3, [r7, #16]
    1c38:	f103 0301 	add.w	r3, r3, #1
    1c3c:	613b      	str	r3, [r7, #16]
/home/qemu-sgx/devel/optee/optee_os/lib/libutils/isoc/bget_malloc.c:436
    1c3e:	693a      	ldr	r2, [r7, #16]
    1c40:	6a3b      	ldr	r3, [r7, #32]
    1c42:	9300      	str	r3, [sp, #0]
    1c44:	4613      	mov	r3, r2
    1c46:	f04f 0200 	mov.w	r2, #0
    1c4a:	f04f 0100 	mov.w	r1, #0
    1c4e:	68f8      	ldr	r0, [r7, #12]
    1c50:	f7fe ffea 	bl	c28 <bgetr>
    1c54:	6178      	str	r0, [r7, #20]
    1c56:	e002      	b.n	1c5e <raw_realloc+0x96>
/home/qemu-sgx/devel/optee/optee_os/lib/libutils/isoc/bget_malloc.c:426
    1c58:	bf00      	nop
    1c5a:	e000      	b.n	1c5e <raw_realloc+0x96>
/home/qemu-sgx/devel/optee/optee_os/lib/libutils/isoc/bget_malloc.c:428
    1c5c:	bf00      	nop
/home/qemu-sgx/devel/optee/optee_os/lib/libutils/isoc/bget_malloc.c:438
    1c5e:	6a3a      	ldr	r2, [r7, #32]
    1c60:	6839      	ldr	r1, [r7, #0]
    1c62:	6978      	ldr	r0, [r7, #20]
    1c64:	f7ff fd6e 	bl	1744 <raw_malloc_return_hook>
/home/qemu-sgx/devel/optee/optee_os/lib/libutils/isoc/bget_malloc.c:440
    1c68:	697b      	ldr	r3, [r7, #20]
/home/qemu-sgx/devel/optee/optee_os/lib/libutils/isoc/bget_malloc.c:441
    1c6a:	4618      	mov	r0, r3
    1c6c:	f107 0718 	add.w	r7, r7, #24
    1c70:	46bd      	mov	sp, r7
    1c72:	bd80      	pop	{r7, pc}

00001c74 <bget_buf_size>:
bget_buf_size():
/home/qemu-sgx/devel/optee/optee_os/lib/libutils/isoc/bget_malloc.c:445
    1c74:	e96d 7e02 	strd	r7, lr, [sp, #-8]!
    1c78:	b084      	sub	sp, #16
    1c7a:	af00      	add	r7, sp, #0
    1c7c:	6078      	str	r0, [r7, #4]
/home/qemu-sgx/devel/optee/optee_os/lib/libutils/isoc/bget_malloc.c:449
    1c7e:	687b      	ldr	r3, [r7, #4]
    1c80:	f1a3 0308 	sub.w	r3, r3, #8
    1c84:	60fb      	str	r3, [r7, #12]
/home/qemu-sgx/devel/optee/optee_os/lib/libutils/isoc/bget_malloc.c:450
    1c86:	68fb      	ldr	r3, [r7, #12]
    1c88:	685b      	ldr	r3, [r3, #4]
    1c8a:	f1c3 0300 	rsb	r3, r3, #0
    1c8e:	60bb      	str	r3, [r7, #8]
/home/qemu-sgx/devel/optee/optee_os/lib/libutils/isoc/bget_malloc.c:460
    1c90:	68bb      	ldr	r3, [r7, #8]
    1c92:	f1a3 0308 	sub.w	r3, r3, #8
    1c96:	60bb      	str	r3, [r7, #8]
/home/qemu-sgx/devel/optee/optee_os/lib/libutils/isoc/bget_malloc.c:461
    1c98:	68bb      	ldr	r3, [r7, #8]
    1c9a:	2b00      	cmp	r3, #0
    1c9c:	dc0b      	bgt.n	1cb6 <bget_buf_size+0x42>
/home/qemu-sgx/devel/optee/optee_os/lib/libutils/isoc/bget_malloc.c:461 (discriminator 1)
    1c9e:	4b09      	ldr	r3, [pc, #36]	; (1cc4 <bget_buf_size+0x50>)
    1ca0:	447b      	add	r3, pc
    1ca2:	f240 12cd 	movw	r2, #461	; 0x1cd
    1ca6:	4908      	ldr	r1, [pc, #32]	; (1cc8 <bget_buf_size+0x54>)
    1ca8:	4479      	add	r1, pc
    1caa:	4808      	ldr	r0, [pc, #32]	; (1ccc <bget_buf_size+0x58>)
    1cac:	4478      	add	r0, pc
    1cae:	f001 fddd 	bl	386c <_assert_log>
    1cb2:	f001 fdff 	bl	38b4 <_assert_break>
/home/qemu-sgx/devel/optee/optee_os/lib/libutils/isoc/bget_malloc.c:462
    1cb6:	68bb      	ldr	r3, [r7, #8]
/home/qemu-sgx/devel/optee/optee_os/lib/libutils/isoc/bget_malloc.c:463
    1cb8:	4618      	mov	r0, r3
    1cba:	f107 0710 	add.w	r7, r7, #16
    1cbe:	46bd      	mov	sp, r7
    1cc0:	bd80      	pop	{r7, pc}
    1cc2:	bf00      	nop
    1cc4:	00012a28 	.word	0x00012a28
    1cc8:	000129a8 	.word	0x000129a8
    1ccc:	0001270c 	.word	0x0001270c

00001cd0 <malloc>:
malloc():
/home/qemu-sgx/devel/optee/optee_os/lib/libutils/isoc/bget_malloc.c:715
    1cd0:	e96d 7e02 	strd	r7, lr, [sp, #-8]!
    1cd4:	b084      	sub	sp, #16
    1cd6:	af00      	add	r7, sp, #0
    1cd8:	6078      	str	r0, [r7, #4]
/home/qemu-sgx/devel/optee/optee_os/lib/libutils/isoc/bget_malloc.c:717
    1cda:	4b0e      	ldr	r3, [pc, #56]	; (1d14 <malloc+0x44>)
    1cdc:	447b      	add	r3, pc
    1cde:	4618      	mov	r0, r3
    1ce0:	f7ff fd08 	bl	16f4 <malloc_lock>
    1ce4:	60f8      	str	r0, [r7, #12]
/home/qemu-sgx/devel/optee/optee_os/lib/libutils/isoc/bget_malloc.c:719
    1ce6:	4b0c      	ldr	r3, [pc, #48]	; (1d18 <malloc+0x48>)
    1ce8:	447b      	add	r3, pc
    1cea:	687a      	ldr	r2, [r7, #4]
    1cec:	f04f 0100 	mov.w	r1, #0
    1cf0:	f04f 0000 	mov.w	r0, #0
    1cf4:	f7ff fed3 	bl	1a9e <raw_malloc>
    1cf8:	60b8      	str	r0, [r7, #8]
/home/qemu-sgx/devel/optee/optee_os/lib/libutils/isoc/bget_malloc.c:720
    1cfa:	68f9      	ldr	r1, [r7, #12]
    1cfc:	4b07      	ldr	r3, [pc, #28]	; (1d1c <malloc+0x4c>)
    1cfe:	447b      	add	r3, pc
    1d00:	4618      	mov	r0, r3
    1d02:	f7ff fd05 	bl	1710 <malloc_unlock>
/home/qemu-sgx/devel/optee/optee_os/lib/libutils/isoc/bget_malloc.c:721
    1d06:	68bb      	ldr	r3, [r7, #8]
/home/qemu-sgx/devel/optee/optee_os/lib/libutils/isoc/bget_malloc.c:722
    1d08:	4618      	mov	r0, r3
    1d0a:	f107 0710 	add.w	r7, r7, #16
    1d0e:	46bd      	mov	sp, r7
    1d10:	bd80      	pop	{r7, pc}
    1d12:	bf00      	nop
    1d14:	00016610 	.word	0x00016610
    1d18:	00016604 	.word	0x00016604
    1d1c:	000165ee 	.word	0x000165ee

00001d20 <free_helper>:
free_helper():
/home/qemu-sgx/devel/optee/optee_os/lib/libutils/isoc/bget_malloc.c:725
    1d20:	e96d 7e02 	strd	r7, lr, [sp, #-8]!
    1d24:	b084      	sub	sp, #16
    1d26:	af00      	add	r7, sp, #0
    1d28:	6078      	str	r0, [r7, #4]
    1d2a:	460b      	mov	r3, r1
    1d2c:	70fb      	strb	r3, [r7, #3]
/home/qemu-sgx/devel/optee/optee_os/lib/libutils/isoc/bget_malloc.c:726
    1d2e:	4b0c      	ldr	r3, [pc, #48]	; (1d60 <free_helper+0x40>)
    1d30:	447b      	add	r3, pc
    1d32:	4618      	mov	r0, r3
    1d34:	f7ff fcde 	bl	16f4 <malloc_lock>
    1d38:	60f8      	str	r0, [r7, #12]
/home/qemu-sgx/devel/optee/optee_os/lib/libutils/isoc/bget_malloc.c:728
    1d3a:	78fb      	ldrb	r3, [r7, #3]
    1d3c:	461a      	mov	r2, r3
    1d3e:	4b09      	ldr	r3, [pc, #36]	; (1d64 <free_helper+0x44>)
    1d40:	447b      	add	r3, pc
    1d42:	4619      	mov	r1, r3
    1d44:	6878      	ldr	r0, [r7, #4]
    1d46:	f7ff fec1 	bl	1acc <raw_free>
/home/qemu-sgx/devel/optee/optee_os/lib/libutils/isoc/bget_malloc.c:729
    1d4a:	68f9      	ldr	r1, [r7, #12]
    1d4c:	4b06      	ldr	r3, [pc, #24]	; (1d68 <free_helper+0x48>)
    1d4e:	447b      	add	r3, pc
    1d50:	4618      	mov	r0, r3
    1d52:	f7ff fcdd 	bl	1710 <malloc_unlock>
/home/qemu-sgx/devel/optee/optee_os/lib/libutils/isoc/bget_malloc.c:730
    1d56:	bf00      	nop
    1d58:	f107 0710 	add.w	r7, r7, #16
    1d5c:	46bd      	mov	sp, r7
    1d5e:	bd80      	pop	{r7, pc}
    1d60:	000165bc 	.word	0x000165bc
    1d64:	000165ac 	.word	0x000165ac
    1d68:	0001659e 	.word	0x0001659e

00001d6c <calloc>:
calloc():
/home/qemu-sgx/devel/optee/optee_os/lib/libutils/isoc/bget_malloc.c:733
    1d6c:	e96d 7e02 	strd	r7, lr, [sp, #-8]!
    1d70:	b086      	sub	sp, #24
    1d72:	af02      	add	r7, sp, #8
    1d74:	6078      	str	r0, [r7, #4]
    1d76:	6039      	str	r1, [r7, #0]
/home/qemu-sgx/devel/optee/optee_os/lib/libutils/isoc/bget_malloc.c:735
    1d78:	4b0e      	ldr	r3, [pc, #56]	; (1db4 <calloc+0x48>)
    1d7a:	447b      	add	r3, pc
    1d7c:	4618      	mov	r0, r3
    1d7e:	f7ff fcb9 	bl	16f4 <malloc_lock>
    1d82:	60f8      	str	r0, [r7, #12]
/home/qemu-sgx/devel/optee/optee_os/lib/libutils/isoc/bget_malloc.c:737
    1d84:	4b0c      	ldr	r3, [pc, #48]	; (1db8 <calloc+0x4c>)
    1d86:	447b      	add	r3, pc
    1d88:	9300      	str	r3, [sp, #0]
    1d8a:	683b      	ldr	r3, [r7, #0]
    1d8c:	687a      	ldr	r2, [r7, #4]
    1d8e:	f04f 0100 	mov.w	r1, #0
    1d92:	f04f 0000 	mov.w	r0, #0
    1d96:	f7ff feb2 	bl	1afe <raw_calloc>
    1d9a:	60b8      	str	r0, [r7, #8]
/home/qemu-sgx/devel/optee/optee_os/lib/libutils/isoc/bget_malloc.c:738
    1d9c:	68f9      	ldr	r1, [r7, #12]
    1d9e:	4b07      	ldr	r3, [pc, #28]	; (1dbc <calloc+0x50>)
    1da0:	447b      	add	r3, pc
    1da2:	4618      	mov	r0, r3
    1da4:	f7ff fcb4 	bl	1710 <malloc_unlock>
/home/qemu-sgx/devel/optee/optee_os/lib/libutils/isoc/bget_malloc.c:739
    1da8:	68bb      	ldr	r3, [r7, #8]
/home/qemu-sgx/devel/optee/optee_os/lib/libutils/isoc/bget_malloc.c:740
    1daa:	4618      	mov	r0, r3
    1dac:	f107 0710 	add.w	r7, r7, #16
    1db0:	46bd      	mov	sp, r7
    1db2:	bd80      	pop	{r7, pc}
    1db4:	00016572 	.word	0x00016572
    1db8:	00016566 	.word	0x00016566
    1dbc:	0001654c 	.word	0x0001654c

00001dc0 <realloc_unlocked>:
realloc_unlocked():
/home/qemu-sgx/devel/optee/optee_os/lib/libutils/isoc/bget_malloc.c:744
    1dc0:	e96d 7e02 	strd	r7, lr, [sp, #-8]!
    1dc4:	b086      	sub	sp, #24
    1dc6:	af02      	add	r7, sp, #8
    1dc8:	60f8      	str	r0, [r7, #12]
    1dca:	60b9      	str	r1, [r7, #8]
    1dcc:	607a      	str	r2, [r7, #4]
/home/qemu-sgx/devel/optee/optee_os/lib/libutils/isoc/bget_malloc.c:745
    1dce:	68fb      	ldr	r3, [r7, #12]
    1dd0:	9300      	str	r3, [sp, #0]
    1dd2:	687b      	ldr	r3, [r7, #4]
    1dd4:	f04f 0200 	mov.w	r2, #0
    1dd8:	f04f 0100 	mov.w	r1, #0
    1ddc:	68b8      	ldr	r0, [r7, #8]
    1dde:	f7ff fef3 	bl	1bc8 <raw_realloc>
    1de2:	4603      	mov	r3, r0
/home/qemu-sgx/devel/optee/optee_os/lib/libutils/isoc/bget_malloc.c:746
    1de4:	4618      	mov	r0, r3
    1de6:	f107 0710 	add.w	r7, r7, #16
    1dea:	46bd      	mov	sp, r7
    1dec:	bd80      	pop	{r7, pc}

00001dee <realloc>:
realloc():
/home/qemu-sgx/devel/optee/optee_os/lib/libutils/isoc/bget_malloc.c:749
    1dee:	e96d 7e02 	strd	r7, lr, [sp, #-8]!
    1df2:	b084      	sub	sp, #16
    1df4:	af00      	add	r7, sp, #0
    1df6:	6078      	str	r0, [r7, #4]
    1df8:	6039      	str	r1, [r7, #0]
/home/qemu-sgx/devel/optee/optee_os/lib/libutils/isoc/bget_malloc.c:751
    1dfa:	4b0d      	ldr	r3, [pc, #52]	; (1e30 <realloc+0x42>)
    1dfc:	447b      	add	r3, pc
    1dfe:	4618      	mov	r0, r3
    1e00:	f7ff fc78 	bl	16f4 <malloc_lock>
    1e04:	60f8      	str	r0, [r7, #12]
/home/qemu-sgx/devel/optee/optee_os/lib/libutils/isoc/bget_malloc.c:753
    1e06:	683a      	ldr	r2, [r7, #0]
    1e08:	6879      	ldr	r1, [r7, #4]
    1e0a:	4b0a      	ldr	r3, [pc, #40]	; (1e34 <realloc+0x46>)
    1e0c:	447b      	add	r3, pc
    1e0e:	4618      	mov	r0, r3
    1e10:	f7ff ffd6 	bl	1dc0 <realloc_unlocked>
    1e14:	60b8      	str	r0, [r7, #8]
/home/qemu-sgx/devel/optee/optee_os/lib/libutils/isoc/bget_malloc.c:754
    1e16:	68f9      	ldr	r1, [r7, #12]
    1e18:	4b07      	ldr	r3, [pc, #28]	; (1e38 <realloc+0x4a>)
    1e1a:	447b      	add	r3, pc
    1e1c:	4618      	mov	r0, r3
    1e1e:	f7ff fc77 	bl	1710 <malloc_unlock>
/home/qemu-sgx/devel/optee/optee_os/lib/libutils/isoc/bget_malloc.c:755
    1e22:	68bb      	ldr	r3, [r7, #8]
/home/qemu-sgx/devel/optee/optee_os/lib/libutils/isoc/bget_malloc.c:756
    1e24:	4618      	mov	r0, r3
    1e26:	f107 0710 	add.w	r7, r7, #16
    1e2a:	46bd      	mov	sp, r7
    1e2c:	bd80      	pop	{r7, pc}
    1e2e:	bf00      	nop
    1e30:	000164f0 	.word	0x000164f0
    1e34:	000164e0 	.word	0x000164e0
    1e38:	000164d2 	.word	0x000164d2

00001e3c <memalign>:
memalign():
/home/qemu-sgx/devel/optee/optee_os/lib/libutils/isoc/bget_malloc.c:759
    1e3c:	e96d 7e02 	strd	r7, lr, [sp, #-8]!
    1e40:	b086      	sub	sp, #24
    1e42:	af02      	add	r7, sp, #8
    1e44:	6078      	str	r0, [r7, #4]
    1e46:	6039      	str	r1, [r7, #0]
/home/qemu-sgx/devel/optee/optee_os/lib/libutils/isoc/bget_malloc.c:761
    1e48:	4b0e      	ldr	r3, [pc, #56]	; (1e84 <memalign+0x48>)
    1e4a:	447b      	add	r3, pc
    1e4c:	4618      	mov	r0, r3
    1e4e:	f7ff fc51 	bl	16f4 <malloc_lock>
    1e52:	60f8      	str	r0, [r7, #12]
/home/qemu-sgx/devel/optee/optee_os/lib/libutils/isoc/bget_malloc.c:763
    1e54:	4b0c      	ldr	r3, [pc, #48]	; (1e88 <memalign+0x4c>)
    1e56:	447b      	add	r3, pc
    1e58:	9300      	str	r3, [sp, #0]
    1e5a:	683b      	ldr	r3, [r7, #0]
    1e5c:	687a      	ldr	r2, [r7, #4]
    1e5e:	f04f 0100 	mov.w	r1, #0
    1e62:	f04f 0000 	mov.w	r0, #0
    1e66:	f7ff fdcc 	bl	1a02 <raw_memalign>
    1e6a:	60b8      	str	r0, [r7, #8]
/home/qemu-sgx/devel/optee/optee_os/lib/libutils/isoc/bget_malloc.c:764
    1e6c:	68f9      	ldr	r1, [r7, #12]
    1e6e:	4b07      	ldr	r3, [pc, #28]	; (1e8c <memalign+0x50>)
    1e70:	447b      	add	r3, pc
    1e72:	4618      	mov	r0, r3
    1e74:	f7ff fc4c 	bl	1710 <malloc_unlock>
/home/qemu-sgx/devel/optee/optee_os/lib/libutils/isoc/bget_malloc.c:765
    1e78:	68bb      	ldr	r3, [r7, #8]
/home/qemu-sgx/devel/optee/optee_os/lib/libutils/isoc/bget_malloc.c:766
    1e7a:	4618      	mov	r0, r3
    1e7c:	f107 0710 	add.w	r7, r7, #16
    1e80:	46bd      	mov	sp, r7
    1e82:	bd80      	pop	{r7, pc}
    1e84:	000164a2 	.word	0x000164a2
    1e88:	00016496 	.word	0x00016496
    1e8c:	0001647c 	.word	0x0001647c

00001e90 <get_payload_start_size>:
get_payload_start_size():
/home/qemu-sgx/devel/optee/optee_os/lib/libutils/isoc/bget_malloc.c:769
    1e90:	e96d 7e02 	strd	r7, lr, [sp, #-8]!
    1e94:	b082      	sub	sp, #8
    1e96:	af00      	add	r7, sp, #0
    1e98:	6078      	str	r0, [r7, #4]
    1e9a:	6039      	str	r1, [r7, #0]
/home/qemu-sgx/devel/optee/optee_os/lib/libutils/isoc/bget_malloc.c:770
    1e9c:	6878      	ldr	r0, [r7, #4]
    1e9e:	f7ff fee9 	bl	1c74 <bget_buf_size>
    1ea2:	4603      	mov	r3, r0
    1ea4:	461a      	mov	r2, r3
    1ea6:	683b      	ldr	r3, [r7, #0]
    1ea8:	601a      	str	r2, [r3, #0]
/home/qemu-sgx/devel/optee/optee_os/lib/libutils/isoc/bget_malloc.c:771
    1eaa:	687b      	ldr	r3, [r7, #4]
/home/qemu-sgx/devel/optee/optee_os/lib/libutils/isoc/bget_malloc.c:772
    1eac:	4618      	mov	r0, r3
    1eae:	f107 0708 	add.w	r7, r7, #8
    1eb2:	46bd      	mov	sp, r7
    1eb4:	bd80      	pop	{r7, pc}

00001eb6 <free>:
free():
/home/qemu-sgx/devel/optee/optee_os/lib/libutils/isoc/bget_malloc.c:777
    1eb6:	e96d 7e02 	strd	r7, lr, [sp, #-8]!
    1eba:	b082      	sub	sp, #8
    1ebc:	af00      	add	r7, sp, #0
    1ebe:	6078      	str	r0, [r7, #4]
/home/qemu-sgx/devel/optee/optee_os/lib/libutils/isoc/bget_malloc.c:778
    1ec0:	f04f 0100 	mov.w	r1, #0
    1ec4:	6878      	ldr	r0, [r7, #4]
    1ec6:	f7ff ff2b 	bl	1d20 <free_helper>
/home/qemu-sgx/devel/optee/optee_os/lib/libutils/isoc/bget_malloc.c:779
    1eca:	bf00      	nop
    1ecc:	f107 0708 	add.w	r7, r7, #8
    1ed0:	46bd      	mov	sp, r7
    1ed2:	bd80      	pop	{r7, pc}

00001ed4 <free_wipe>:
free_wipe():
/home/qemu-sgx/devel/optee/optee_os/lib/libutils/isoc/bget_malloc.c:782
    1ed4:	e96d 7e02 	strd	r7, lr, [sp, #-8]!
    1ed8:	b082      	sub	sp, #8
    1eda:	af00      	add	r7, sp, #0
    1edc:	6078      	str	r0, [r7, #4]
/home/qemu-sgx/devel/optee/optee_os/lib/libutils/isoc/bget_malloc.c:783
    1ede:	f04f 0101 	mov.w	r1, #1
    1ee2:	6878      	ldr	r0, [r7, #4]
    1ee4:	f7ff ff1c 	bl	1d20 <free_helper>
/home/qemu-sgx/devel/optee/optee_os/lib/libutils/isoc/bget_malloc.c:784
    1ee8:	bf00      	nop
    1eea:	f107 0708 	add.w	r7, r7, #8
    1eee:	46bd      	mov	sp, r7
    1ef0:	bd80      	pop	{r7, pc}

00001ef2 <gen_malloc_add_pool>:
gen_malloc_add_pool():
/home/qemu-sgx/devel/optee/optee_os/lib/libutils/isoc/bget_malloc.c:787
    1ef2:	e96d 7e02 	strd	r7, lr, [sp, #-8]!
    1ef6:	b08a      	sub	sp, #40	; 0x28
    1ef8:	af00      	add	r7, sp, #0
    1efa:	60f8      	str	r0, [r7, #12]
    1efc:	60b9      	str	r1, [r7, #8]
    1efe:	607a      	str	r2, [r7, #4]
/home/qemu-sgx/devel/optee/optee_os/lib/libutils/isoc/bget_malloc.c:791
    1f00:	68bb      	ldr	r3, [r7, #8]
    1f02:	627b      	str	r3, [r7, #36]	; 0x24
/home/qemu-sgx/devel/optee/optee_os/lib/libutils/isoc/bget_malloc.c:792
    1f04:	6a7a      	ldr	r2, [r7, #36]	; 0x24
    1f06:	687b      	ldr	r3, [r7, #4]
    1f08:	4413      	add	r3, r2
    1f0a:	623b      	str	r3, [r7, #32]
/home/qemu-sgx/devel/optee/optee_os/lib/libutils/isoc/bget_malloc.c:793
    1f0c:	f04f 0318 	mov.w	r3, #24
    1f10:	61fb      	str	r3, [r7, #28]
/home/qemu-sgx/devel/optee/optee_os/lib/libutils/isoc/bget_malloc.c:795
    1f12:	6a7b      	ldr	r3, [r7, #36]	; 0x24
    1f14:	f103 0307 	add.w	r3, r3, #7
    1f18:	f023 0307 	bic.w	r3, r3, #7
    1f1c:	627b      	str	r3, [r7, #36]	; 0x24
/home/qemu-sgx/devel/optee/optee_os/lib/libutils/isoc/bget_malloc.c:796
    1f1e:	6a3b      	ldr	r3, [r7, #32]
    1f20:	f023 0307 	bic.w	r3, r3, #7
    1f24:	623b      	str	r3, [r7, #32]
/home/qemu-sgx/devel/optee/optee_os/lib/libutils/isoc/bget_malloc.c:798
    1f26:	6a7a      	ldr	r2, [r7, #36]	; 0x24
    1f28:	6a3b      	ldr	r3, [r7, #32]
    1f2a:	429a      	cmp	r2, r3
    1f2c:	d872      	bhi.n	2014 <gen_malloc_add_pool+0x122>
/home/qemu-sgx/devel/optee/optee_os/lib/libutils/isoc/bget_malloc.c:798 (discriminator 1)
    1f2e:	6a3a      	ldr	r2, [r7, #32]
    1f30:	6a7b      	ldr	r3, [r7, #36]	; 0x24
    1f32:	eba2 0303 	sub.w	r3, r2, r3
    1f36:	69fa      	ldr	r2, [r7, #28]
    1f38:	429a      	cmp	r2, r3
    1f3a:	d86b      	bhi.n	2014 <gen_malloc_add_pool+0x122>
/home/qemu-sgx/devel/optee/optee_os/lib/libutils/isoc/bget_malloc.c:804
    1f3c:	68fb      	ldr	r3, [r7, #12]
    1f3e:	6a1b      	ldr	r3, [r3, #32]
    1f40:	2b00      	cmp	r3, #0
    1f42:	d106      	bne.n	1f52 <gen_malloc_add_pool+0x60>
/home/qemu-sgx/devel/optee/optee_os/lib/libutils/isoc/bget_malloc.c:804 (discriminator 1)
    1f44:	6a3a      	ldr	r2, [r7, #32]
    1f46:	6a7b      	ldr	r3, [r7, #36]	; 0x24
    1f48:	eba2 0303 	sub.w	r3, r2, r3
    1f4c:	f5b3 6f80 	cmp.w	r3, #1024	; 0x400
    1f50:	d362      	bcc.n	2018 <gen_malloc_add_pool+0x126>
/home/qemu-sgx/devel/optee/optee_os/lib/libutils/isoc/bget_malloc.c:809
    1f52:	68f8      	ldr	r0, [r7, #12]
    1f54:	f7ff fbce 	bl	16f4 <malloc_lock>
    1f58:	61b8      	str	r0, [r7, #24]
/home/qemu-sgx/devel/optee/optee_os/lib/libutils/isoc/bget_malloc.c:811
    1f5a:	6a78      	ldr	r0, [r7, #36]	; 0x24
    1f5c:	6a3a      	ldr	r2, [r7, #32]
    1f5e:	6a7b      	ldr	r3, [r7, #36]	; 0x24
    1f60:	eba2 0303 	sub.w	r3, r2, r3
    1f64:	4619      	mov	r1, r3
    1f66:	f7fe fbbf 	bl	6e8 <tag_asan_free>
/home/qemu-sgx/devel/optee/optee_os/lib/libutils/isoc/bget_malloc.c:812
    1f6a:	6a78      	ldr	r0, [r7, #36]	; 0x24
    1f6c:	6a3a      	ldr	r2, [r7, #32]
    1f6e:	6a7b      	ldr	r3, [r7, #36]	; 0x24
    1f70:	eba2 0303 	sub.w	r3, r2, r3
    1f74:	4619      	mov	r1, r3
    1f76:	68fb      	ldr	r3, [r7, #12]
    1f78:	461a      	mov	r2, r3
    1f7a:	f7ff f855 	bl	1028 <bpool>
/home/qemu-sgx/devel/optee/optee_os/lib/libutils/isoc/bget_malloc.c:813
    1f7e:	68fb      	ldr	r3, [r7, #12]
    1f80:	6a1b      	ldr	r3, [r3, #32]
    1f82:	f103 0301 	add.w	r3, r3, #1
    1f86:	617b      	str	r3, [r7, #20]
/home/qemu-sgx/devel/optee/optee_os/lib/libutils/isoc/bget_malloc.c:814
    1f88:	68fb      	ldr	r3, [r7, #12]
    1f8a:	69d9      	ldr	r1, [r3, #28]
    1f8c:	697b      	ldr	r3, [r7, #20]
    1f8e:	ea4f 03c3 	mov.w	r3, r3, lsl #3
    1f92:	461a      	mov	r2, r3
    1f94:	68f8      	ldr	r0, [r7, #12]
    1f96:	f7ff ff13 	bl	1dc0 <realloc_unlocked>
    1f9a:	6138      	str	r0, [r7, #16]
/home/qemu-sgx/devel/optee/optee_os/lib/libutils/isoc/bget_malloc.c:815
    1f9c:	693b      	ldr	r3, [r7, #16]
    1f9e:	2b00      	cmp	r3, #0
    1fa0:	d10b      	bne.n	1fba <gen_malloc_add_pool+0xc8>
/home/qemu-sgx/devel/optee/optee_os/lib/libutils/isoc/bget_malloc.c:815 (discriminator 1)
    1fa2:	4b20      	ldr	r3, [pc, #128]	; (2024 <gen_malloc_add_pool+0x132>)
    1fa4:	447b      	add	r3, pc
    1fa6:	f240 322f 	movw	r2, #815	; 0x32f
    1faa:	491f      	ldr	r1, [pc, #124]	; (2028 <gen_malloc_add_pool+0x136>)
    1fac:	4479      	add	r1, pc
    1fae:	481f      	ldr	r0, [pc, #124]	; (202c <gen_malloc_add_pool+0x13a>)
    1fb0:	4478      	add	r0, pc
    1fb2:	f001 fc5b 	bl	386c <_assert_log>
    1fb6:	f001 fc7d 	bl	38b4 <_assert_break>
/home/qemu-sgx/devel/optee/optee_os/lib/libutils/isoc/bget_malloc.c:816
    1fba:	68fb      	ldr	r3, [r7, #12]
    1fbc:	693a      	ldr	r2, [r7, #16]
    1fbe:	61da      	str	r2, [r3, #28]
/home/qemu-sgx/devel/optee/optee_os/lib/libutils/isoc/bget_malloc.c:817
    1fc0:	68fb      	ldr	r3, [r7, #12]
    1fc2:	69da      	ldr	r2, [r3, #28]
    1fc4:	68fb      	ldr	r3, [r7, #12]
    1fc6:	6a1b      	ldr	r3, [r3, #32]
    1fc8:	ea4f 03c3 	mov.w	r3, r3, lsl #3
    1fcc:	4413      	add	r3, r2
    1fce:	6a7a      	ldr	r2, [r7, #36]	; 0x24
    1fd0:	601a      	str	r2, [r3, #0]
/home/qemu-sgx/devel/optee/optee_os/lib/libutils/isoc/bget_malloc.c:818
    1fd2:	68fb      	ldr	r3, [r7, #12]
    1fd4:	69da      	ldr	r2, [r3, #28]
    1fd6:	68fb      	ldr	r3, [r7, #12]
    1fd8:	6a1b      	ldr	r3, [r3, #32]
    1fda:	ea4f 03c3 	mov.w	r3, r3, lsl #3
    1fde:	4413      	add	r3, r2
    1fe0:	6a39      	ldr	r1, [r7, #32]
    1fe2:	6a7a      	ldr	r2, [r7, #36]	; 0x24
    1fe4:	eba1 0202 	sub.w	r2, r1, r2
    1fe8:	605a      	str	r2, [r3, #4]
/home/qemu-sgx/devel/optee/optee_os/lib/libutils/isoc/bget_malloc.c:820
    1fea:	68fb      	ldr	r3, [r7, #12]
    1fec:	6cda      	ldr	r2, [r3, #76]	; 0x4c
    1fee:	68fb      	ldr	r3, [r7, #12]
    1ff0:	69d9      	ldr	r1, [r3, #28]
    1ff2:	68fb      	ldr	r3, [r7, #12]
    1ff4:	6a1b      	ldr	r3, [r3, #32]
    1ff6:	ea4f 03c3 	mov.w	r3, r3, lsl #3
    1ffa:	440b      	add	r3, r1
    1ffc:	685b      	ldr	r3, [r3, #4]
    1ffe:	441a      	add	r2, r3
    2000:	68fb      	ldr	r3, [r7, #12]
    2002:	64da      	str	r2, [r3, #76]	; 0x4c
/home/qemu-sgx/devel/optee/optee_os/lib/libutils/isoc/bget_malloc.c:822
    2004:	68fb      	ldr	r3, [r7, #12]
    2006:	697a      	ldr	r2, [r7, #20]
    2008:	621a      	str	r2, [r3, #32]
/home/qemu-sgx/devel/optee/optee_os/lib/libutils/isoc/bget_malloc.c:823
    200a:	69b9      	ldr	r1, [r7, #24]
    200c:	68f8      	ldr	r0, [r7, #12]
    200e:	f7ff fb7f 	bl	1710 <malloc_unlock>
    2012:	e002      	b.n	201a <gen_malloc_add_pool+0x128>
/home/qemu-sgx/devel/optee/optee_os/lib/libutils/isoc/bget_malloc.c:800
    2014:	bf00      	nop
    2016:	e000      	b.n	201a <gen_malloc_add_pool+0x128>
/home/qemu-sgx/devel/optee/optee_os/lib/libutils/isoc/bget_malloc.c:806
    2018:	bf00      	nop
/home/qemu-sgx/devel/optee/optee_os/lib/libutils/isoc/bget_malloc.c:824
    201a:	f107 0728 	add.w	r7, r7, #40	; 0x28
    201e:	46bd      	mov	sp, r7
    2020:	bd80      	pop	{r7, pc}
    2022:	bf00      	nop
    2024:	00012734 	.word	0x00012734
    2028:	000126a4 	.word	0x000126a4
    202c:	000126c0 	.word	0x000126c0

00002030 <gen_malloc_buffer_is_within_alloced>:
gen_malloc_buffer_is_within_alloced():
/home/qemu-sgx/devel/optee/optee_os/lib/libutils/isoc/bget_malloc.c:828
    2030:	e96d 7e02 	strd	r7, lr, [sp, #-8]!
    2034:	b08e      	sub	sp, #56	; 0x38
    2036:	af00      	add	r7, sp, #0
    2038:	60f8      	str	r0, [r7, #12]
    203a:	60b9      	str	r1, [r7, #8]
    203c:	607a      	str	r2, [r7, #4]
/home/qemu-sgx/devel/optee/optee_os/lib/libutils/isoc/bget_malloc.c:831
    203e:	68bb      	ldr	r3, [r7, #8]
    2040:	633b      	str	r3, [r7, #48]	; 0x30
/home/qemu-sgx/devel/optee/optee_os/lib/libutils/isoc/bget_malloc.c:832
    2042:	6b3a      	ldr	r2, [r7, #48]	; 0x30
    2044:	687b      	ldr	r3, [r7, #4]
    2046:	4413      	add	r3, r2
    2048:	62fb      	str	r3, [r7, #44]	; 0x2c
/home/qemu-sgx/devel/optee/optee_os/lib/libutils/isoc/bget_malloc.c:833
    204a:	f04f 0300 	mov.w	r3, #0
    204e:	f887 3037 	strb.w	r3, [r7, #55]	; 0x37
/home/qemu-sgx/devel/optee/optee_os/lib/libutils/isoc/bget_malloc.c:834
    2052:	68f8      	ldr	r0, [r7, #12]
    2054:	f7ff fb4e 	bl	16f4 <malloc_lock>
    2058:	62b8      	str	r0, [r7, #40]	; 0x28
/home/qemu-sgx/devel/optee/optee_os/lib/libutils/isoc/bget_malloc.c:836
    205a:	68f8      	ldr	r0, [r7, #12]
    205c:	f7ff fc08 	bl	1870 <raw_malloc_validate_pools>
/home/qemu-sgx/devel/optee/optee_os/lib/libutils/isoc/bget_malloc.c:839
    2060:	6b3a      	ldr	r2, [r7, #48]	; 0x30
    2062:	6afb      	ldr	r3, [r7, #44]	; 0x2c
    2064:	429a      	cmp	r2, r3
    2066:	d82b      	bhi.n	20c0 <gen_malloc_buffer_is_within_alloced+0x90>
/home/qemu-sgx/devel/optee/optee_os/lib/libutils/isoc/bget_malloc.c:842
    2068:	f107 0318 	add.w	r3, r7, #24
    206c:	4619      	mov	r1, r3
    206e:	68f8      	ldr	r0, [r7, #12]
    2070:	f7ff fc0a 	bl	1888 <bpool_foreach_iterator_init>
    2074:	e018      	b.n	20a8 <gen_malloc_buffer_is_within_alloced+0x78>
/home/qemu-sgx/devel/optee/optee_os/lib/libutils/isoc/bget_malloc.c:847
    2076:	697b      	ldr	r3, [r7, #20]
    2078:	f107 0210 	add.w	r2, r7, #16
    207c:	4611      	mov	r1, r2
    207e:	4618      	mov	r0, r3
    2080:	f7ff ff06 	bl	1e90 <get_payload_start_size>
    2084:	6278      	str	r0, [r7, #36]	; 0x24
/home/qemu-sgx/devel/optee/optee_os/lib/libutils/isoc/bget_malloc.c:848
    2086:	693b      	ldr	r3, [r7, #16]
    2088:	6a7a      	ldr	r2, [r7, #36]	; 0x24
    208a:	4413      	add	r3, r2
    208c:	623b      	str	r3, [r7, #32]
/home/qemu-sgx/devel/optee/optee_os/lib/libutils/isoc/bget_malloc.c:850
    208e:	6b3a      	ldr	r2, [r7, #48]	; 0x30
    2090:	6a7b      	ldr	r3, [r7, #36]	; 0x24
    2092:	429a      	cmp	r2, r3
    2094:	d308      	bcc.n	20a8 <gen_malloc_buffer_is_within_alloced+0x78>
/home/qemu-sgx/devel/optee/optee_os/lib/libutils/isoc/bget_malloc.c:850 (discriminator 1)
    2096:	6afa      	ldr	r2, [r7, #44]	; 0x2c
    2098:	6a3b      	ldr	r3, [r7, #32]
    209a:	429a      	cmp	r2, r3
    209c:	d804      	bhi.n	20a8 <gen_malloc_buffer_is_within_alloced+0x78>
/home/qemu-sgx/devel/optee/optee_os/lib/libutils/isoc/bget_malloc.c:851
    209e:	f04f 0301 	mov.w	r3, #1
    20a2:	f887 3037 	strb.w	r3, [r7, #55]	; 0x37
    20a6:	e00c      	b.n	20c2 <gen_malloc_buffer_is_within_alloced+0x92>
/home/qemu-sgx/devel/optee/optee_os/lib/libutils/isoc/bget_malloc.c:842 (discriminator 1)
    20a8:	f107 0214 	add.w	r2, r7, #20
    20ac:	f107 0318 	add.w	r3, r7, #24
    20b0:	4619      	mov	r1, r3
    20b2:	68f8      	ldr	r0, [r7, #12]
    20b4:	f7ff fc6a 	bl	198c <bpool_foreach>
    20b8:	4603      	mov	r3, r0
    20ba:	2b00      	cmp	r3, #0
    20bc:	d1db      	bne.n	2076 <gen_malloc_buffer_is_within_alloced+0x46>
/home/qemu-sgx/devel/optee/optee_os/lib/libutils/isoc/bget_malloc.c:856
    20be:	e000      	b.n	20c2 <gen_malloc_buffer_is_within_alloced+0x92>
/home/qemu-sgx/devel/optee/optee_os/lib/libutils/isoc/bget_malloc.c:840
    20c0:	bf00      	nop
/home/qemu-sgx/devel/optee/optee_os/lib/libutils/isoc/bget_malloc.c:857
    20c2:	6ab9      	ldr	r1, [r7, #40]	; 0x28
    20c4:	68f8      	ldr	r0, [r7, #12]
    20c6:	f7ff fb23 	bl	1710 <malloc_unlock>
/home/qemu-sgx/devel/optee/optee_os/lib/libutils/isoc/bget_malloc.c:859
    20ca:	f897 3037 	ldrb.w	r3, [r7, #55]	; 0x37
/home/qemu-sgx/devel/optee/optee_os/lib/libutils/isoc/bget_malloc.c:860
    20ce:	4618      	mov	r0, r3
    20d0:	f107 0738 	add.w	r7, r7, #56	; 0x38
    20d4:	46bd      	mov	sp, r7
    20d6:	bd80      	pop	{r7, pc}

000020d8 <gen_malloc_buffer_overlaps_heap>:
gen_malloc_buffer_overlaps_heap():
/home/qemu-sgx/devel/optee/optee_os/lib/libutils/isoc/bget_malloc.c:864
    20d8:	e96d 7e02 	strd	r7, lr, [sp, #-8]!
    20dc:	b08c      	sub	sp, #48	; 0x30
    20de:	af00      	add	r7, sp, #0
    20e0:	60f8      	str	r0, [r7, #12]
    20e2:	60b9      	str	r1, [r7, #8]
    20e4:	607a      	str	r2, [r7, #4]
/home/qemu-sgx/devel/optee/optee_os/lib/libutils/isoc/bget_malloc.c:865
    20e6:	68bb      	ldr	r3, [r7, #8]
    20e8:	627b      	str	r3, [r7, #36]	; 0x24
/home/qemu-sgx/devel/optee/optee_os/lib/libutils/isoc/bget_malloc.c:866
    20ea:	6a7a      	ldr	r2, [r7, #36]	; 0x24
    20ec:	687b      	ldr	r3, [r7, #4]
    20ee:	4413      	add	r3, r2
    20f0:	623b      	str	r3, [r7, #32]
/home/qemu-sgx/devel/optee/optee_os/lib/libutils/isoc/bget_malloc.c:868
    20f2:	f04f 0300 	mov.w	r3, #0
    20f6:	f887 302b 	strb.w	r3, [r7, #43]	; 0x2b
/home/qemu-sgx/devel/optee/optee_os/lib/libutils/isoc/bget_malloc.c:869
    20fa:	68f8      	ldr	r0, [r7, #12]
    20fc:	f7ff fafa 	bl	16f4 <malloc_lock>
    2100:	61f8      	str	r0, [r7, #28]
/home/qemu-sgx/devel/optee/optee_os/lib/libutils/isoc/bget_malloc.c:871
    2102:	68f8      	ldr	r0, [r7, #12]
    2104:	f7ff fbb4 	bl	1870 <raw_malloc_validate_pools>
/home/qemu-sgx/devel/optee/optee_os/lib/libutils/isoc/bget_malloc.c:873
    2108:	f04f 0300 	mov.w	r3, #0
    210c:	62fb      	str	r3, [r7, #44]	; 0x2c
    210e:	e02f      	b.n	2170 <gen_malloc_buffer_overlaps_heap+0x98>
/home/qemu-sgx/devel/optee/optee_os/lib/libutils/isoc/bget_malloc.c:874
    2110:	68fb      	ldr	r3, [r7, #12]
    2112:	69da      	ldr	r2, [r3, #28]
    2114:	6afb      	ldr	r3, [r7, #44]	; 0x2c
    2116:	ea4f 03c3 	mov.w	r3, r3, lsl #3
    211a:	4413      	add	r3, r2
    211c:	681b      	ldr	r3, [r3, #0]
    211e:	61bb      	str	r3, [r7, #24]
/home/qemu-sgx/devel/optee/optee_os/lib/libutils/isoc/bget_malloc.c:875
    2120:	68fb      	ldr	r3, [r7, #12]
    2122:	69da      	ldr	r2, [r3, #28]
    2124:	6afb      	ldr	r3, [r7, #44]	; 0x2c
    2126:	ea4f 03c3 	mov.w	r3, r3, lsl #3
    212a:	4413      	add	r3, r2
    212c:	685b      	ldr	r3, [r3, #4]
    212e:	69ba      	ldr	r2, [r7, #24]
    2130:	4413      	add	r3, r2
    2132:	617b      	str	r3, [r7, #20]
/home/qemu-sgx/devel/optee/optee_os/lib/libutils/isoc/bget_malloc.c:877
    2134:	6a7a      	ldr	r2, [r7, #36]	; 0x24
    2136:	6a3b      	ldr	r3, [r7, #32]
    2138:	429a      	cmp	r2, r3
    213a:	d803      	bhi.n	2144 <gen_malloc_buffer_overlaps_heap+0x6c>
/home/qemu-sgx/devel/optee/optee_os/lib/libutils/isoc/bget_malloc.c:877 (discriminator 1)
    213c:	69ba      	ldr	r2, [r7, #24]
    213e:	697b      	ldr	r3, [r7, #20]
    2140:	429a      	cmp	r2, r3
    2142:	d904      	bls.n	214e <gen_malloc_buffer_overlaps_heap+0x76>
/home/qemu-sgx/devel/optee/optee_os/lib/libutils/isoc/bget_malloc.c:878
    2144:	f04f 0301 	mov.w	r3, #1
    2148:	f887 302b 	strb.w	r3, [r7, #43]	; 0x2b
/home/qemu-sgx/devel/optee/optee_os/lib/libutils/isoc/bget_malloc.c:879
    214c:	e016      	b.n	217c <gen_malloc_buffer_overlaps_heap+0xa4>
/home/qemu-sgx/devel/optee/optee_os/lib/libutils/isoc/bget_malloc.c:882
    214e:	6a3a      	ldr	r2, [r7, #32]
    2150:	69bb      	ldr	r3, [r7, #24]
    2152:	429a      	cmp	r2, r3
    2154:	d803      	bhi.n	215e <gen_malloc_buffer_overlaps_heap+0x86>
/home/qemu-sgx/devel/optee/optee_os/lib/libutils/isoc/bget_malloc.c:882 (discriminator 1)
    2156:	6a7a      	ldr	r2, [r7, #36]	; 0x24
    2158:	697b      	ldr	r3, [r7, #20]
    215a:	429a      	cmp	r2, r3
    215c:	d204      	bcs.n	2168 <gen_malloc_buffer_overlaps_heap+0x90>
/home/qemu-sgx/devel/optee/optee_os/lib/libutils/isoc/bget_malloc.c:883
    215e:	f04f 0301 	mov.w	r3, #1
    2162:	f887 302b 	strb.w	r3, [r7, #43]	; 0x2b
/home/qemu-sgx/devel/optee/optee_os/lib/libutils/isoc/bget_malloc.c:884
    2166:	e009      	b.n	217c <gen_malloc_buffer_overlaps_heap+0xa4>
/home/qemu-sgx/devel/optee/optee_os/lib/libutils/isoc/bget_malloc.c:873 (discriminator 2)
    2168:	6afb      	ldr	r3, [r7, #44]	; 0x2c
    216a:	f103 0301 	add.w	r3, r3, #1
    216e:	62fb      	str	r3, [r7, #44]	; 0x2c
/home/qemu-sgx/devel/optee/optee_os/lib/libutils/isoc/bget_malloc.c:873 (discriminator 1)
    2170:	68fb      	ldr	r3, [r7, #12]
    2172:	6a1b      	ldr	r3, [r3, #32]
    2174:	6afa      	ldr	r2, [r7, #44]	; 0x2c
    2176:	429a      	cmp	r2, r3
    2178:	d3ca      	bcc.n	2110 <gen_malloc_buffer_overlaps_heap+0x38>
/home/qemu-sgx/devel/optee/optee_os/lib/libutils/isoc/bget_malloc.c:888
    217a:	bf00      	nop
/home/qemu-sgx/devel/optee/optee_os/lib/libutils/isoc/bget_malloc.c:889
    217c:	69f9      	ldr	r1, [r7, #28]
    217e:	68f8      	ldr	r0, [r7, #12]
    2180:	f7ff fac6 	bl	1710 <malloc_unlock>
/home/qemu-sgx/devel/optee/optee_os/lib/libutils/isoc/bget_malloc.c:890
    2184:	f897 302b 	ldrb.w	r3, [r7, #43]	; 0x2b
/home/qemu-sgx/devel/optee/optee_os/lib/libutils/isoc/bget_malloc.c:891
    2188:	4618      	mov	r0, r3
    218a:	f107 0730 	add.w	r7, r7, #48	; 0x30
    218e:	46bd      	mov	sp, r7
    2190:	bd80      	pop	{r7, pc}

00002192 <malloc_add_pool>:
malloc_add_pool():
/home/qemu-sgx/devel/optee/optee_os/lib/libutils/isoc/bget_malloc.c:894
    2192:	e96d 7e02 	strd	r7, lr, [sp, #-8]!
    2196:	b082      	sub	sp, #8
    2198:	af00      	add	r7, sp, #0
    219a:	6078      	str	r0, [r7, #4]
    219c:	6039      	str	r1, [r7, #0]
/home/qemu-sgx/devel/optee/optee_os/lib/libutils/isoc/bget_malloc.c:895
    219e:	683a      	ldr	r2, [r7, #0]
    21a0:	6879      	ldr	r1, [r7, #4]
    21a2:	4b05      	ldr	r3, [pc, #20]	; (21b8 <malloc_add_pool+0x26>)
    21a4:	447b      	add	r3, pc
    21a6:	4618      	mov	r0, r3
    21a8:	f7ff fea3 	bl	1ef2 <gen_malloc_add_pool>
/home/qemu-sgx/devel/optee/optee_os/lib/libutils/isoc/bget_malloc.c:896
    21ac:	bf00      	nop
    21ae:	f107 0708 	add.w	r7, r7, #8
    21b2:	46bd      	mov	sp, r7
    21b4:	bd80      	pop	{r7, pc}
    21b6:	bf00      	nop
    21b8:	00016148 	.word	0x00016148

000021bc <malloc_buffer_is_within_alloced>:
malloc_buffer_is_within_alloced():
/home/qemu-sgx/devel/optee/optee_os/lib/libutils/isoc/bget_malloc.c:899
    21bc:	e96d 7e02 	strd	r7, lr, [sp, #-8]!
    21c0:	b082      	sub	sp, #8
    21c2:	af00      	add	r7, sp, #0
    21c4:	6078      	str	r0, [r7, #4]
    21c6:	6039      	str	r1, [r7, #0]
/home/qemu-sgx/devel/optee/optee_os/lib/libutils/isoc/bget_malloc.c:900
    21c8:	683a      	ldr	r2, [r7, #0]
    21ca:	6879      	ldr	r1, [r7, #4]
    21cc:	4b05      	ldr	r3, [pc, #20]	; (21e4 <malloc_buffer_is_within_alloced+0x28>)
    21ce:	447b      	add	r3, pc
    21d0:	4618      	mov	r0, r3
    21d2:	f7ff ff2d 	bl	2030 <gen_malloc_buffer_is_within_alloced>
    21d6:	4603      	mov	r3, r0
/home/qemu-sgx/devel/optee/optee_os/lib/libutils/isoc/bget_malloc.c:901
    21d8:	4618      	mov	r0, r3
    21da:	f107 0708 	add.w	r7, r7, #8
    21de:	46bd      	mov	sp, r7
    21e0:	bd80      	pop	{r7, pc}
    21e2:	bf00      	nop
    21e4:	0001611e 	.word	0x0001611e

000021e8 <malloc_buffer_overlaps_heap>:
malloc_buffer_overlaps_heap():
/home/qemu-sgx/devel/optee/optee_os/lib/libutils/isoc/bget_malloc.c:904
    21e8:	e96d 7e02 	strd	r7, lr, [sp, #-8]!
    21ec:	b082      	sub	sp, #8
    21ee:	af00      	add	r7, sp, #0
    21f0:	6078      	str	r0, [r7, #4]
    21f2:	6039      	str	r1, [r7, #0]
/home/qemu-sgx/devel/optee/optee_os/lib/libutils/isoc/bget_malloc.c:905
    21f4:	683a      	ldr	r2, [r7, #0]
    21f6:	6879      	ldr	r1, [r7, #4]
    21f8:	4b05      	ldr	r3, [pc, #20]	; (2210 <malloc_buffer_overlaps_heap+0x28>)
    21fa:	447b      	add	r3, pc
    21fc:	4618      	mov	r0, r3
    21fe:	f7ff ff6b 	bl	20d8 <gen_malloc_buffer_overlaps_heap>
    2202:	4603      	mov	r3, r0
/home/qemu-sgx/devel/optee/optee_os/lib/libutils/isoc/bget_malloc.c:906
    2204:	4618      	mov	r0, r3
    2206:	f107 0708 	add.w	r7, r7, #8
    220a:	46bd      	mov	sp, r7
    220c:	bd80      	pop	{r7, pc}
    220e:	bf00      	nop
    2210:	000160f2 	.word	0x000160f2

00002214 <trace_set_level>:
trace_set_level():
/home/qemu-sgx/devel/optee/optee_os/lib/libutils/ext/trace.c:25
    2214:	f84d 7d04 	str.w	r7, [sp, #-4]!
    2218:	b083      	sub	sp, #12
    221a:	af00      	add	r7, sp, #0
    221c:	6078      	str	r0, [r7, #4]
    221e:	4b0d      	ldr	r3, [pc, #52]	; (2254 <trace_set_level+0x40>)
    2220:	447b      	add	r3, pc
/home/qemu-sgx/devel/optee/optee_os/lib/libutils/ext/trace.c:26
    2222:	687a      	ldr	r2, [r7, #4]
    2224:	2a00      	cmp	r2, #0
    2226:	db07      	blt.n	2238 <trace_set_level+0x24>
/home/qemu-sgx/devel/optee/optee_os/lib/libutils/ext/trace.c:26 (discriminator 1)
    2228:	687a      	ldr	r2, [r7, #4]
    222a:	2a04      	cmp	r2, #4
    222c:	dc04      	bgt.n	2238 <trace_set_level+0x24>
/home/qemu-sgx/devel/optee/optee_os/lib/libutils/ext/trace.c:27
    222e:	4a0a      	ldr	r2, [pc, #40]	; (2258 <trace_set_level+0x44>)
    2230:	589b      	ldr	r3, [r3, r2]
    2232:	687a      	ldr	r2, [r7, #4]
    2234:	601a      	str	r2, [r3, #0]
    2236:	e005      	b.n	2244 <trace_set_level+0x30>
/home/qemu-sgx/devel/optee/optee_os/lib/libutils/ext/trace.c:29
    2238:	4a07      	ldr	r2, [pc, #28]	; (2258 <trace_set_level+0x44>)
    223a:	589b      	ldr	r3, [r3, r2]
    223c:	f04f 0204 	mov.w	r2, #4
    2240:	601a      	str	r2, [r3, #0]
/home/qemu-sgx/devel/optee/optee_os/lib/libutils/ext/trace.c:30
    2242:	bf00      	nop
    2244:	bf00      	nop
    2246:	f107 070c 	add.w	r7, r7, #12
    224a:	46bd      	mov	sp, r7
    224c:	f85d 7b04 	ldr.w	r7, [sp], #4
    2250:	4770      	bx	lr
    2252:	bf00      	nop
    2254:	00015e64 	.word	0x00015e64
    2258:	00000010 	.word	0x00000010

0000225c <trace_get_level>:
trace_get_level():
/home/qemu-sgx/devel/optee/optee_os/lib/libutils/ext/trace.c:33
    225c:	f84d 7d04 	str.w	r7, [sp, #-4]!
    2260:	af00      	add	r7, sp, #0
    2262:	4a05      	ldr	r2, [pc, #20]	; (2278 <trace_get_level+0x1c>)
    2264:	447a      	add	r2, pc
/home/qemu-sgx/devel/optee/optee_os/lib/libutils/ext/trace.c:34
    2266:	4b05      	ldr	r3, [pc, #20]	; (227c <trace_get_level+0x20>)
    2268:	58d3      	ldr	r3, [r2, r3]
    226a:	681b      	ldr	r3, [r3, #0]
/home/qemu-sgx/devel/optee/optee_os/lib/libutils/ext/trace.c:35
    226c:	4618      	mov	r0, r3
    226e:	46bd      	mov	sp, r7
    2270:	f85d 7b04 	ldr.w	r7, [sp], #4
    2274:	4770      	bx	lr
    2276:	bf00      	nop
    2278:	00015e20 	.word	0x00015e20
    227c:	00000010 	.word	0x00000010

00002280 <trace_level_to_string>:
trace_level_to_string():
/home/qemu-sgx/devel/optee/optee_os/lib/libutils/ext/trace.c:38
    2280:	f84d 7d04 	str.w	r7, [sp, #-4]!
    2284:	b085      	sub	sp, #20
    2286:	af00      	add	r7, sp, #0
    2288:	6078      	str	r0, [r7, #4]
    228a:	460b      	mov	r3, r1
    228c:	70fb      	strb	r3, [r7, #3]
/home/qemu-sgx/devel/optee/optee_os/lib/libutils/ext/trace.c:47
    228e:	f04f 0300 	mov.w	r3, #0
    2292:	60fb      	str	r3, [r7, #12]
/home/qemu-sgx/devel/optee/optee_os/lib/libutils/ext/trace.c:49
    2294:	78fb      	ldrb	r3, [r7, #3]
    2296:	f083 0301 	eor.w	r3, r3, #1
    229a:	b2db      	uxtb	r3, r3
    229c:	2b00      	cmp	r3, #0
    229e:	d002      	beq.n	22a6 <trace_level_to_string+0x26>
/home/qemu-sgx/devel/optee/optee_os/lib/libutils/ext/trace.c:50
    22a0:	f04f 034d 	mov.w	r3, #77	; 0x4d
    22a4:	e00c      	b.n	22c0 <trace_level_to_string+0x40>
/home/qemu-sgx/devel/optee/optee_os/lib/libutils/ext/trace.c:52
    22a6:	687b      	ldr	r3, [r7, #4]
    22a8:	2b00      	cmp	r3, #0
    22aa:	db04      	blt.n	22b6 <trace_level_to_string+0x36>
/home/qemu-sgx/devel/optee/optee_os/lib/libutils/ext/trace.c:52 (discriminator 1)
    22ac:	687b      	ldr	r3, [r7, #4]
    22ae:	2b04      	cmp	r3, #4
    22b0:	dc01      	bgt.n	22b6 <trace_level_to_string+0x36>
/home/qemu-sgx/devel/optee/optee_os/lib/libutils/ext/trace.c:53
    22b2:	687b      	ldr	r3, [r7, #4]
    22b4:	60fb      	str	r3, [r7, #12]
/home/qemu-sgx/devel/optee/optee_os/lib/libutils/ext/trace.c:55
    22b6:	4a06      	ldr	r2, [pc, #24]	; (22d0 <trace_level_to_string+0x50>)
    22b8:	447a      	add	r2, pc
    22ba:	68fb      	ldr	r3, [r7, #12]
    22bc:	4413      	add	r3, r2
    22be:	781b      	ldrb	r3, [r3, #0]
/home/qemu-sgx/devel/optee/optee_os/lib/libutils/ext/trace.c:56
    22c0:	4618      	mov	r0, r3
    22c2:	f107 0714 	add.w	r7, r7, #20
    22c6:	46bd      	mov	sp, r7
    22c8:	f85d 7b04 	ldr.w	r7, [sp], #4
    22cc:	4770      	bx	lr
    22ce:	bf00      	nop
    22d0:	00012458 	.word	0x00012458

000022d4 <print_thread_id>:
print_thread_id():
/home/qemu-sgx/devel/optee/optee_os/lib/libutils/ext/trace.c:59
    22d4:	e96d 7e02 	strd	r7, lr, [sp, #-8]!
    22d8:	b086      	sub	sp, #24
    22da:	af02      	add	r7, sp, #8
    22dc:	6078      	str	r0, [r7, #4]
    22de:	6039      	str	r1, [r7, #0]
/home/qemu-sgx/devel/optee/optee_os/lib/libutils/ext/trace.c:63
    22e0:	f04f 0301 	mov.w	r3, #1
    22e4:	60fb      	str	r3, [r7, #12]
/home/qemu-sgx/devel/optee/optee_os/lib/libutils/ext/trace.c:65
    22e6:	f001 fb01 	bl	38ec <trace_ext_get_thread_id>
    22ea:	60b8      	str	r0, [r7, #8]
/home/qemu-sgx/devel/optee/optee_os/lib/libutils/ext/trace.c:67
    22ec:	68bb      	ldr	r3, [r7, #8]
    22ee:	2b00      	cmp	r3, #0
    22f0:	db0a      	blt.n	2308 <print_thread_id+0x34>
/home/qemu-sgx/devel/optee/optee_os/lib/libutils/ext/trace.c:68
    22f2:	68bb      	ldr	r3, [r7, #8]
    22f4:	9300      	str	r3, [sp, #0]
    22f6:	68fb      	ldr	r3, [r7, #12]
    22f8:	4a0b      	ldr	r2, [pc, #44]	; (2328 <print_thread_id+0x54>)
    22fa:	447a      	add	r2, pc
    22fc:	6839      	ldr	r1, [r7, #0]
    22fe:	6878      	ldr	r0, [r7, #4]
    2300:	f000 f9d8 	bl	26b4 <snprintk>
    2304:	4603      	mov	r3, r0
    2306:	e00a      	b.n	231e <print_thread_id+0x4a>
/home/qemu-sgx/devel/optee/optee_os/lib/libutils/ext/trace.c:70
    2308:	4b08      	ldr	r3, [pc, #32]	; (232c <print_thread_id+0x58>)
    230a:	447b      	add	r3, pc
    230c:	9300      	str	r3, [sp, #0]
    230e:	68fb      	ldr	r3, [r7, #12]
    2310:	4a07      	ldr	r2, [pc, #28]	; (2330 <print_thread_id+0x5c>)
    2312:	447a      	add	r2, pc
    2314:	6839      	ldr	r1, [r7, #0]
    2316:	6878      	ldr	r0, [r7, #4]
    2318:	f000 f9cc 	bl	26b4 <snprintk>
    231c:	4603      	mov	r3, r0
/home/qemu-sgx/devel/optee/optee_os/lib/libutils/ext/trace.c:71
    231e:	4618      	mov	r0, r3
    2320:	f107 0710 	add.w	r7, r7, #16
    2324:	46bd      	mov	sp, r7
    2326:	bd80      	pop	{r7, pc}
    2328:	000123f2 	.word	0x000123f2
    232c:	000123f2 	.word	0x000123f2
    2330:	000123e2 	.word	0x000123e2

00002334 <print_core_id>:
print_core_id():
/home/qemu-sgx/devel/optee/optee_os/lib/libutils/ext/trace.c:89
    2334:	f84d 7d04 	str.w	r7, [sp, #-4]!
    2338:	b083      	sub	sp, #12
    233a:	af00      	add	r7, sp, #0
    233c:	6078      	str	r0, [r7, #4]
    233e:	6039      	str	r1, [r7, #0]
/home/qemu-sgx/devel/optee/optee_os/lib/libutils/ext/trace.c:90
    2340:	f04f 0300 	mov.w	r3, #0
/home/qemu-sgx/devel/optee/optee_os/lib/libutils/ext/trace.c:91
    2344:	4618      	mov	r0, r3
    2346:	f107 070c 	add.w	r7, r7, #12
    234a:	46bd      	mov	sp, r7
    234c:	f85d 7b04 	ldr.w	r7, [sp], #4
    2350:	4770      	bx	lr

00002352 <trace_printf>:
trace_printf():
/home/qemu-sgx/devel/optee/optee_os/lib/libutils/ext/trace.c:97
    2352:	e96d 7e02 	strd	r7, lr, [sp, #-8]!
    2356:	b088      	sub	sp, #32
    2358:	af02      	add	r7, sp, #8
    235a:	60f8      	str	r0, [r7, #12]
    235c:	60b9      	str	r1, [r7, #8]
    235e:	607a      	str	r2, [r7, #4]
    2360:	70fb      	strb	r3, [r7, #3]
/home/qemu-sgx/devel/optee/optee_os/lib/libutils/ext/trace.c:100
    2362:	f107 0324 	add.w	r3, r7, #36	; 0x24
    2366:	617b      	str	r3, [r7, #20]
/home/qemu-sgx/devel/optee/optee_os/lib/libutils/ext/trace.c:101
    2368:	78fa      	ldrb	r2, [r7, #3]
    236a:	697b      	ldr	r3, [r7, #20]
    236c:	9301      	str	r3, [sp, #4]
    236e:	6a3b      	ldr	r3, [r7, #32]
    2370:	9300      	str	r3, [sp, #0]
    2372:	4613      	mov	r3, r2
    2374:	687a      	ldr	r2, [r7, #4]
    2376:	68b9      	ldr	r1, [r7, #8]
    2378:	68f8      	ldr	r0, [r7, #12]
    237a:	f000 f805 	bl	2388 <trace_vprintf>
/home/qemu-sgx/devel/optee/optee_os/lib/libutils/ext/trace.c:103
    237e:	bf00      	nop
    2380:	f107 0718 	add.w	r7, r7, #24
    2384:	46bd      	mov	sp, r7
    2386:	bd80      	pop	{r7, pc}

00002388 <trace_vprintf>:
trace_vprintf():
/home/qemu-sgx/devel/optee/optee_os/lib/libutils/ext/trace.c:106
    2388:	f84d 4d0c 	str.w	r4, [sp, #-12]!
    238c:	e9cd 7e01 	strd	r7, lr, [sp, #4]
    2390:	b0c9      	sub	sp, #292	; 0x124
    2392:	af02      	add	r7, sp, #8
    2394:	f507 748c 	add.w	r4, r7, #280	; 0x118
    2398:	f5a4 7486 	sub.w	r4, r4, #268	; 0x10c
    239c:	6020      	str	r0, [r4, #0]
    239e:	f507 708c 	add.w	r0, r7, #280	; 0x118
    23a2:	f5a0 7088 	sub.w	r0, r0, #272	; 0x110
    23a6:	6001      	str	r1, [r0, #0]
    23a8:	f507 718c 	add.w	r1, r7, #280	; 0x118
    23ac:	f5a1 718a 	sub.w	r1, r1, #276	; 0x114
    23b0:	600a      	str	r2, [r1, #0]
    23b2:	461a      	mov	r2, r3
    23b4:	f507 738c 	add.w	r3, r7, #280	; 0x118
    23b8:	f2a3 1315 	subw	r3, r3, #277	; 0x115
    23bc:	701a      	strb	r2, [r3, #0]
    23be:	4caf      	ldr	r4, [pc, #700]	; (267c <trace_vprintf+0x2f4>)
    23c0:	447c      	add	r4, pc
/home/qemu-sgx/devel/optee/optee_os/lib/libutils/ext/trace.c:108
    23c2:	f04f 0300 	mov.w	r3, #0
    23c6:	f8c7 3114 	str.w	r3, [r7, #276]	; 0x114
/home/qemu-sgx/devel/optee/optee_os/lib/libutils/ext/trace.c:111
    23ca:	f507 738c 	add.w	r3, r7, #280	; 0x118
    23ce:	f2a3 1315 	subw	r3, r3, #277	; 0x115
    23d2:	781b      	ldrb	r3, [r3, #0]
    23d4:	2b00      	cmp	r3, #0
    23d6:	d00a      	beq.n	23ee <trace_vprintf+0x66>
/home/qemu-sgx/devel/optee/optee_os/lib/libutils/ext/trace.c:111 (discriminator 1)
    23d8:	4ba9      	ldr	r3, [pc, #676]	; (2680 <trace_vprintf+0x2f8>)
    23da:	58e3      	ldr	r3, [r4, r3]
    23dc:	681b      	ldr	r3, [r3, #0]
    23de:	f507 728c 	add.w	r2, r7, #280	; 0x118
    23e2:	f5a2 728a 	sub.w	r2, r2, #276	; 0x114
    23e6:	6812      	ldr	r2, [r2, #0]
    23e8:	429a      	cmp	r2, r3
    23ea:	f300 8131 	bgt.w	2650 <trace_vprintf+0x2c8>
/home/qemu-sgx/devel/optee/optee_os/lib/libutils/ext/trace.c:116
    23ee:	f507 738c 	add.w	r3, r7, #280	; 0x118
    23f2:	f2a3 1315 	subw	r3, r3, #277	; 0x115
    23f6:	781a      	ldrb	r2, [r3, #0]
    23f8:	f507 738c 	add.w	r3, r7, #280	; 0x118
    23fc:	f5a3 738a 	sub.w	r3, r3, #276	; 0x114
    2400:	4611      	mov	r1, r2
    2402:	6818      	ldr	r0, [r3, #0]
    2404:	f7ff ff3c 	bl	2280 <trace_level_to_string>
    2408:	4603      	mov	r3, r0
/home/qemu-sgx/devel/optee/optee_os/lib/libutils/ext/trace.c:115
    240a:	f107 0010 	add.w	r0, r7, #16
    240e:	4a9d      	ldr	r2, [pc, #628]	; (2684 <trace_vprintf+0x2fc>)
    2410:	447a      	add	r2, pc
    2412:	f44f 7180 	mov.w	r1, #256	; 0x100
    2416:	f000 f94d 	bl	26b4 <snprintk>
    241a:	f8c7 0110 	str.w	r0, [r7, #272]	; 0x110
/home/qemu-sgx/devel/optee/optee_os/lib/libutils/ext/trace.c:117
    241e:	f8d7 3110 	ldr.w	r3, [r7, #272]	; 0x110
    2422:	2b00      	cmp	r3, #0
    2424:	f2c0 8116 	blt.w	2654 <trace_vprintf+0x2cc>
/home/qemu-sgx/devel/optee/optee_os/lib/libutils/ext/trace.c:119
    2428:	f8d7 3110 	ldr.w	r3, [r7, #272]	; 0x110
    242c:	f8d7 2114 	ldr.w	r2, [r7, #276]	; 0x114
    2430:	4413      	add	r3, r2
    2432:	f8c7 3114 	str.w	r3, [r7, #276]	; 0x114
/home/qemu-sgx/devel/optee/optee_os/lib/libutils/ext/trace.c:122
    2436:	f107 0210 	add.w	r2, r7, #16
    243a:	f8d7 3114 	ldr.w	r3, [r7, #276]	; 0x114
    243e:	eb02 0003 	add.w	r0, r2, r3
    2442:	f8d7 3114 	ldr.w	r3, [r7, #276]	; 0x114
    2446:	f5c3 7180 	rsb	r1, r3, #256	; 0x100
    244a:	4b8f      	ldr	r3, [pc, #572]	; (2688 <trace_vprintf+0x300>)
    244c:	58e3      	ldr	r3, [r4, r3]
    244e:	4a8f      	ldr	r2, [pc, #572]	; (268c <trace_vprintf+0x304>)
    2450:	447a      	add	r2, pc
    2452:	f000 f92f 	bl	26b4 <snprintk>
    2456:	f8c7 0110 	str.w	r0, [r7, #272]	; 0x110
/home/qemu-sgx/devel/optee/optee_os/lib/libutils/ext/trace.c:124
    245a:	f8d7 3110 	ldr.w	r3, [r7, #272]	; 0x110
    245e:	2b00      	cmp	r3, #0
    2460:	f2c0 80fa 	blt.w	2658 <trace_vprintf+0x2d0>
/home/qemu-sgx/devel/optee/optee_os/lib/libutils/ext/trace.c:126
    2464:	f8d7 3110 	ldr.w	r3, [r7, #272]	; 0x110
    2468:	f8d7 2114 	ldr.w	r2, [r7, #276]	; 0x114
    246c:	4413      	add	r3, r2
    246e:	f8c7 3114 	str.w	r3, [r7, #276]	; 0x114
/home/qemu-sgx/devel/optee/optee_os/lib/libutils/ext/trace.c:128
    2472:	f507 738c 	add.w	r3, r7, #280	; 0x118
    2476:	f2a3 1315 	subw	r3, r3, #277	; 0x115
    247a:	781b      	ldrb	r3, [r3, #0]
    247c:	2b00      	cmp	r3, #0
    247e:	d071      	beq.n	2564 <trace_vprintf+0x1dc>
/home/qemu-sgx/devel/optee/optee_os/lib/libutils/ext/trace.c:128 (discriminator 1)
    2480:	f507 738c 	add.w	r3, r7, #280	; 0x118
    2484:	f5a3 738a 	sub.w	r3, r3, #276	; 0x114
    2488:	f04f 021a 	mov.w	r2, #26
    248c:	681b      	ldr	r3, [r3, #0]
    248e:	fa22 f303 	lsr.w	r3, r2, r3
    2492:	f003 0301 	and.w	r3, r3, #1
    2496:	2b00      	cmp	r3, #0
    2498:	d064      	beq.n	2564 <trace_vprintf+0x1dc>
/home/qemu-sgx/devel/optee/optee_os/lib/libutils/ext/trace.c:130
    249a:	f107 0210 	add.w	r2, r7, #16
    249e:	f8d7 3114 	ldr.w	r3, [r7, #276]	; 0x114
    24a2:	441a      	add	r2, r3
    24a4:	f8d7 3114 	ldr.w	r3, [r7, #276]	; 0x114
    24a8:	f5c3 7380 	rsb	r3, r3, #256	; 0x100
    24ac:	4619      	mov	r1, r3
    24ae:	4610      	mov	r0, r2
    24b0:	f7ff ff40 	bl	2334 <print_core_id>
    24b4:	f8c7 0110 	str.w	r0, [r7, #272]	; 0x110
/home/qemu-sgx/devel/optee/optee_os/lib/libutils/ext/trace.c:131
    24b8:	f8d7 3110 	ldr.w	r3, [r7, #272]	; 0x110
    24bc:	2b00      	cmp	r3, #0
    24be:	f2c0 80cd 	blt.w	265c <trace_vprintf+0x2d4>
/home/qemu-sgx/devel/optee/optee_os/lib/libutils/ext/trace.c:133
    24c2:	f8d7 3110 	ldr.w	r3, [r7, #272]	; 0x110
    24c6:	f8d7 2114 	ldr.w	r2, [r7, #276]	; 0x114
    24ca:	4413      	add	r3, r2
    24cc:	f8c7 3114 	str.w	r3, [r7, #276]	; 0x114
/home/qemu-sgx/devel/optee/optee_os/lib/libutils/ext/trace.c:136
    24d0:	f107 0210 	add.w	r2, r7, #16
    24d4:	f8d7 3114 	ldr.w	r3, [r7, #276]	; 0x114
    24d8:	441a      	add	r2, r3
    24da:	f8d7 3114 	ldr.w	r3, [r7, #276]	; 0x114
    24de:	f5c3 7380 	rsb	r3, r3, #256	; 0x100
    24e2:	4619      	mov	r1, r3
    24e4:	4610      	mov	r0, r2
    24e6:	f7ff fef5 	bl	22d4 <print_thread_id>
    24ea:	f8c7 0110 	str.w	r0, [r7, #272]	; 0x110
/home/qemu-sgx/devel/optee/optee_os/lib/libutils/ext/trace.c:137
    24ee:	f8d7 3110 	ldr.w	r3, [r7, #272]	; 0x110
    24f2:	2b00      	cmp	r3, #0
    24f4:	f2c0 80b4 	blt.w	2660 <trace_vprintf+0x2d8>
/home/qemu-sgx/devel/optee/optee_os/lib/libutils/ext/trace.c:139
    24f8:	f8d7 3110 	ldr.w	r3, [r7, #272]	; 0x110
    24fc:	f8d7 2114 	ldr.w	r2, [r7, #276]	; 0x114
    2500:	4413      	add	r3, r2
    2502:	f8c7 3114 	str.w	r3, [r7, #276]	; 0x114
/home/qemu-sgx/devel/optee/optee_os/lib/libutils/ext/trace.c:141
    2506:	f507 738c 	add.w	r3, r7, #280	; 0x118
    250a:	f5a3 7386 	sub.w	r3, r3, #268	; 0x10c
    250e:	681b      	ldr	r3, [r3, #0]
    2510:	2b00      	cmp	r3, #0
    2512:	d042      	beq.n	259a <trace_vprintf+0x212>
/home/qemu-sgx/devel/optee/optee_os/lib/libutils/ext/trace.c:142
    2514:	f107 0210 	add.w	r2, r7, #16
    2518:	f8d7 3114 	ldr.w	r3, [r7, #276]	; 0x114
    251c:	eb02 0003 	add.w	r0, r2, r3
    2520:	f8d7 3114 	ldr.w	r3, [r7, #276]	; 0x114
    2524:	f5c3 7180 	rsb	r1, r3, #256	; 0x100
    2528:	f507 738c 	add.w	r3, r7, #280	; 0x118
    252c:	f5a3 7386 	sub.w	r3, r3, #268	; 0x10c
    2530:	f507 728c 	add.w	r2, r7, #280	; 0x118
    2534:	f5a2 7288 	sub.w	r2, r2, #272	; 0x110
    2538:	6812      	ldr	r2, [r2, #0]
    253a:	9200      	str	r2, [sp, #0]
    253c:	681b      	ldr	r3, [r3, #0]
    253e:	4a54      	ldr	r2, [pc, #336]	; (2690 <trace_vprintf+0x308>)
    2540:	447a      	add	r2, pc
    2542:	f000 f8b7 	bl	26b4 <snprintk>
    2546:	f8c7 0110 	str.w	r0, [r7, #272]	; 0x110
/home/qemu-sgx/devel/optee/optee_os/lib/libutils/ext/trace.c:144
    254a:	f8d7 3110 	ldr.w	r3, [r7, #272]	; 0x110
    254e:	2b00      	cmp	r3, #0
    2550:	f2c0 8088 	blt.w	2664 <trace_vprintf+0x2dc>
/home/qemu-sgx/devel/optee/optee_os/lib/libutils/ext/trace.c:146
    2554:	f8d7 3110 	ldr.w	r3, [r7, #272]	; 0x110
    2558:	f8d7 2114 	ldr.w	r2, [r7, #276]	; 0x114
    255c:	4413      	add	r3, r2
    255e:	f8c7 3114 	str.w	r3, [r7, #276]	; 0x114
/home/qemu-sgx/devel/optee/optee_os/lib/libutils/ext/trace.c:141
    2562:	e01a      	b.n	259a <trace_vprintf+0x212>
/home/qemu-sgx/devel/optee/optee_os/lib/libutils/ext/trace.c:150
    2564:	f8d7 3114 	ldr.w	r3, [r7, #276]	; 0x114
    2568:	2bfe      	cmp	r3, #254	; 0xfe
    256a:	d87d      	bhi.n	2668 <trace_vprintf+0x2e0>
/home/qemu-sgx/devel/optee/optee_os/lib/libutils/ext/trace.c:152
    256c:	f8d7 3114 	ldr.w	r3, [r7, #276]	; 0x114
    2570:	f103 0201 	add.w	r2, r3, #1
    2574:	f8c7 2114 	str.w	r2, [r7, #276]	; 0x114
    2578:	f507 728c 	add.w	r2, r7, #280	; 0x118
    257c:	f5a2 7284 	sub.w	r2, r2, #264	; 0x108
    2580:	f04f 0120 	mov.w	r1, #32
    2584:	54d1      	strb	r1, [r2, r3]
/home/qemu-sgx/devel/optee/optee_os/lib/libutils/ext/trace.c:153
    2586:	f507 738c 	add.w	r3, r7, #280	; 0x118
    258a:	f5a3 7284 	sub.w	r2, r3, #264	; 0x108
    258e:	f8d7 3114 	ldr.w	r3, [r7, #276]	; 0x114
    2592:	4413      	add	r3, r2
    2594:	f04f 0200 	mov.w	r2, #0
    2598:	701a      	strb	r2, [r3, #0]
/home/qemu-sgx/devel/optee/optee_os/lib/libutils/ext/trace.c:156
    259a:	f107 0210 	add.w	r2, r7, #16
    259e:	f8d7 3114 	ldr.w	r3, [r7, #276]	; 0x114
    25a2:	eb02 0003 	add.w	r0, r2, r3
    25a6:	f8d7 3114 	ldr.w	r3, [r7, #276]	; 0x114
    25aa:	f5c3 7180 	rsb	r1, r3, #256	; 0x100
    25ae:	f8d7 312c 	ldr.w	r3, [r7, #300]	; 0x12c
    25b2:	f8d7 2128 	ldr.w	r2, [r7, #296]	; 0x128
    25b6:	f000 f898 	bl	26ea <vsnprintk>
    25ba:	f8c7 0110 	str.w	r0, [r7, #272]	; 0x110
/home/qemu-sgx/devel/optee/optee_os/lib/libutils/ext/trace.c:157
    25be:	f8d7 3110 	ldr.w	r3, [r7, #272]	; 0x110
    25c2:	2b00      	cmp	r3, #0
    25c4:	dd06      	ble.n	25d4 <trace_vprintf+0x24c>
/home/qemu-sgx/devel/optee/optee_os/lib/libutils/ext/trace.c:158
    25c6:	f8d7 3110 	ldr.w	r3, [r7, #272]	; 0x110
    25ca:	f8d7 2114 	ldr.w	r2, [r7, #276]	; 0x114
    25ce:	4413      	add	r3, r2
    25d0:	f8c7 3114 	str.w	r3, [r7, #276]	; 0x114
/home/qemu-sgx/devel/optee/optee_os/lib/libutils/ext/trace.c:160
    25d4:	f8d7 3114 	ldr.w	r3, [r7, #276]	; 0x114
    25d8:	2bfe      	cmp	r3, #254	; 0xfe
    25da:	d903      	bls.n	25e4 <trace_vprintf+0x25c>
/home/qemu-sgx/devel/optee/optee_os/lib/libutils/ext/trace.c:161
    25dc:	f04f 03fe 	mov.w	r3, #254	; 0xfe
    25e0:	f8c7 3114 	str.w	r3, [r7, #276]	; 0x114
/home/qemu-sgx/devel/optee/optee_os/lib/libutils/ext/trace.c:163
    25e4:	f507 738c 	add.w	r3, r7, #280	; 0x118
    25e8:	f5a3 7284 	sub.w	r2, r3, #264	; 0x108
    25ec:	f8d7 3114 	ldr.w	r3, [r7, #276]	; 0x114
    25f0:	4413      	add	r3, r2
    25f2:	f04f 020a 	mov.w	r2, #10
    25f6:	701a      	strb	r2, [r3, #0]
/home/qemu-sgx/devel/optee/optee_os/lib/libutils/ext/trace.c:164
    25f8:	e005      	b.n	2606 <trace_vprintf+0x27e>
/home/qemu-sgx/devel/optee/optee_os/lib/libutils/ext/trace.c:165
    25fa:	f8d7 3114 	ldr.w	r3, [r7, #276]	; 0x114
    25fe:	f103 33ff 	add.w	r3, r3, #4294967295	; 0xffffffff
    2602:	f8c7 3114 	str.w	r3, [r7, #276]	; 0x114
/home/qemu-sgx/devel/optee/optee_os/lib/libutils/ext/trace.c:164
    2606:	f8d7 3114 	ldr.w	r3, [r7, #276]	; 0x114
    260a:	2b00      	cmp	r3, #0
    260c:	d009      	beq.n	2622 <trace_vprintf+0x29a>
/home/qemu-sgx/devel/optee/optee_os/lib/libutils/ext/trace.c:164 (discriminator 1)
    260e:	f507 738c 	add.w	r3, r7, #280	; 0x118
    2612:	f5a3 7284 	sub.w	r2, r3, #264	; 0x108
    2616:	f8d7 3114 	ldr.w	r3, [r7, #276]	; 0x114
    261a:	4413      	add	r3, r2
    261c:	781b      	ldrb	r3, [r3, #0]
    261e:	2b0a      	cmp	r3, #10
    2620:	d0eb      	beq.n	25fa <trace_vprintf+0x272>
/home/qemu-sgx/devel/optee/optee_os/lib/libutils/ext/trace.c:166
    2622:	f8d7 3114 	ldr.w	r3, [r7, #276]	; 0x114
    2626:	f103 0301 	add.w	r3, r3, #1
    262a:	f8c7 3114 	str.w	r3, [r7, #276]	; 0x114
/home/qemu-sgx/devel/optee/optee_os/lib/libutils/ext/trace.c:167
    262e:	f8d7 3114 	ldr.w	r3, [r7, #276]	; 0x114
    2632:	f103 0301 	add.w	r3, r3, #1
    2636:	f507 728c 	add.w	r2, r7, #280	; 0x118
    263a:	f5a2 7284 	sub.w	r2, r2, #264	; 0x108
    263e:	f04f 0100 	mov.w	r1, #0
    2642:	54d1      	strb	r1, [r2, r3]
/home/qemu-sgx/devel/optee/optee_os/lib/libutils/ext/trace.c:169
    2644:	f107 0310 	add.w	r3, r7, #16
    2648:	4618      	mov	r0, r3
    264a:	f001 f93d 	bl	38c8 <trace_ext_puts>
    264e:	e00c      	b.n	266a <trace_vprintf+0x2e2>
/home/qemu-sgx/devel/optee/optee_os/lib/libutils/ext/trace.c:112
    2650:	bf00      	nop
    2652:	e00a      	b.n	266a <trace_vprintf+0x2e2>
/home/qemu-sgx/devel/optee/optee_os/lib/libutils/ext/trace.c:118
    2654:	bf00      	nop
    2656:	e008      	b.n	266a <trace_vprintf+0x2e2>
/home/qemu-sgx/devel/optee/optee_os/lib/libutils/ext/trace.c:125
    2658:	bf00      	nop
    265a:	e006      	b.n	266a <trace_vprintf+0x2e2>
/home/qemu-sgx/devel/optee/optee_os/lib/libutils/ext/trace.c:132
    265c:	bf00      	nop
    265e:	e004      	b.n	266a <trace_vprintf+0x2e2>
/home/qemu-sgx/devel/optee/optee_os/lib/libutils/ext/trace.c:138
    2660:	bf00      	nop
    2662:	e002      	b.n	266a <trace_vprintf+0x2e2>
/home/qemu-sgx/devel/optee/optee_os/lib/libutils/ext/trace.c:145
    2664:	bf00      	nop
    2666:	e000      	b.n	266a <trace_vprintf+0x2e2>
/home/qemu-sgx/devel/optee/optee_os/lib/libutils/ext/trace.c:151
    2668:	bf00      	nop
/home/qemu-sgx/devel/optee/optee_os/lib/libutils/ext/trace.c:170
    266a:	f507 778e 	add.w	r7, r7, #284	; 0x11c
    266e:	46bd      	mov	sp, r7
    2670:	e9dd 4700 	ldrd	r4, r7, [sp]
    2674:	b002      	add	sp, #8
    2676:	f85d fb04 	ldr.w	pc, [sp], #4
    267a:	bf00      	nop
    267c:	00015cc4 	.word	0x00015cc4
    2680:	00000010 	.word	0x00000010
    2684:	000122f0 	.word	0x000122f0
    2688:	00000014 	.word	0x00000014
    268c:	000122b4 	.word	0x000122b4
    2690:	000121c8 	.word	0x000121c8

00002694 <dhex_dump>:
dhex_dump():
/home/qemu-sgx/devel/optee/optee_os/lib/libutils/ext/trace.c:279
    2694:	f84d 7d04 	str.w	r7, [sp, #-4]!
    2698:	b085      	sub	sp, #20
    269a:	af00      	add	r7, sp, #0
    269c:	60f8      	str	r0, [r7, #12]
    269e:	60b9      	str	r1, [r7, #8]
    26a0:	607a      	str	r2, [r7, #4]
    26a2:	603b      	str	r3, [r7, #0]
/home/qemu-sgx/devel/optee/optee_os/lib/libutils/ext/trace.c:280
    26a4:	bf00      	nop
    26a6:	f107 0714 	add.w	r7, r7, #20
    26aa:	46bd      	mov	sp, r7
    26ac:	f85d 7b04 	ldr.w	r7, [sp], #4
    26b0:	4770      	bx	lr
    26b2:	bf00      	nop

000026b4 <snprintk>:
snprintk():
/home/qemu-sgx/devel/optee/optee_os/lib/libutils/ext/snprintk.c:113
    26b4:	b40c      	push	{r2, r3}
    26b6:	e96d 7e02 	strd	r7, lr, [sp, #-8]!
    26ba:	b084      	sub	sp, #16
    26bc:	af00      	add	r7, sp, #0
    26be:	6078      	str	r0, [r7, #4]
    26c0:	6039      	str	r1, [r7, #0]
/home/qemu-sgx/devel/optee/optee_os/lib/libutils/ext/snprintk.c:117
    26c2:	f107 031c 	add.w	r3, r7, #28
    26c6:	60bb      	str	r3, [r7, #8]
/home/qemu-sgx/devel/optee/optee_os/lib/libutils/ext/snprintk.c:118
    26c8:	68bb      	ldr	r3, [r7, #8]
    26ca:	69ba      	ldr	r2, [r7, #24]
    26cc:	6839      	ldr	r1, [r7, #0]
    26ce:	6878      	ldr	r0, [r7, #4]
    26d0:	f000 f80b 	bl	26ea <vsnprintk>
    26d4:	60f8      	str	r0, [r7, #12]
/home/qemu-sgx/devel/optee/optee_os/lib/libutils/ext/snprintk.c:121
    26d6:	68fb      	ldr	r3, [r7, #12]
/home/qemu-sgx/devel/optee/optee_os/lib/libutils/ext/snprintk.c:122
    26d8:	4618      	mov	r0, r3
    26da:	f107 0710 	add.w	r7, r7, #16
    26de:	46bd      	mov	sp, r7
    26e0:	e9dd 7e00 	ldrd	r7, lr, [sp]
    26e4:	b002      	add	sp, #8
    26e6:	b002      	add	sp, #8
    26e8:	4770      	bx	lr

000026ea <vsnprintk>:
vsnprintk():
/home/qemu-sgx/devel/optee/optee_os/lib/libutils/ext/snprintk.c:130
    26ea:	e96d 7e02 	strd	r7, lr, [sp, #-8]!
    26ee:	b086      	sub	sp, #24
    26f0:	af02      	add	r7, sp, #8
    26f2:	60f8      	str	r0, [r7, #12]
    26f4:	60b9      	str	r1, [r7, #8]
    26f6:	607a      	str	r2, [r7, #4]
    26f8:	603b      	str	r3, [r7, #0]
/home/qemu-sgx/devel/optee/optee_os/lib/libutils/ext/snprintk.c:131
    26fa:	f04f 0301 	mov.w	r3, #1
    26fe:	9300      	str	r3, [sp, #0]
    2700:	683b      	ldr	r3, [r7, #0]
    2702:	687a      	ldr	r2, [r7, #4]
    2704:	68b9      	ldr	r1, [r7, #8]
    2706:	68f8      	ldr	r0, [r7, #12]
    2708:	f000 f806 	bl	2718 <__vsnprintf>
    270c:	4603      	mov	r3, r0
/home/qemu-sgx/devel/optee/optee_os/lib/libutils/ext/snprintk.c:132
    270e:	4618      	mov	r0, r3
    2710:	f107 0710 	add.w	r7, r7, #16
    2714:	46bd      	mov	sp, r7
    2716:	bd80      	pop	{r7, pc}

00002718 <__vsnprintf>:
__vsnprintf():
/home/qemu-sgx/devel/optee/optee_os/lib/libutils/ext/snprintk.c:138
    2718:	e96d 7e02 	strd	r7, lr, [sp, #-8]!
    271c:	b088      	sub	sp, #32
    271e:	af02      	add	r7, sp, #8
    2720:	60f8      	str	r0, [r7, #12]
    2722:	60b9      	str	r1, [r7, #8]
    2724:	607a      	str	r2, [r7, #4]
    2726:	603b      	str	r3, [r7, #0]
/home/qemu-sgx/devel/optee/optee_os/lib/libutils/ext/snprintk.c:142
    2728:	68fa      	ldr	r2, [r7, #12]
    272a:	68bb      	ldr	r3, [r7, #8]
    272c:	4413      	add	r3, r2
    272e:	613b      	str	r3, [r7, #16]
/home/qemu-sgx/devel/optee/optee_os/lib/libutils/ext/snprintk.c:143
    2730:	f107 0210 	add.w	r2, r7, #16
    2734:	f897 3020 	ldrb.w	r3, [r7, #32]
    2738:	9301      	str	r3, [sp, #4]
    273a:	683b      	ldr	r3, [r7, #0]
