
out/380231ac-fb99-47ad-a689-9e017eb6e78a.elf:     file format elf32-littlearm
out/380231ac-fb99-47ad-a689-9e017eb6e78a.elf
architecture: armv7, flags 0x00000150:
HAS_SYMS, DYNAMIC, D_PAGED
start address 0x0000041c

Program Header:
0x70000001 off    0x000168e4 vaddr 0x000158e4 paddr 0x000158e4 align 2**2
         filesz 0x00000b00 memsz 0x00000b00 flags r--
    LOAD off    0x00001000 vaddr 0x00000000 paddr 0x00000000 align 2**12
         filesz 0x000164a0 memsz 0x000164a0 flags r-x
    LOAD off    0x00018000 vaddr 0x00017000 paddr 0x00017000 align 2**12
         filesz 0x000002d8 memsz 0x0000b338 flags rw-
 DYNAMIC off    0x00018000 vaddr 0x00017000 paddr 0x00017000 align 2**2
         filesz 0x00000088 memsz 0x00000088 flags rw-
   STACK off    0x00000000 vaddr 0x00000000 paddr 0x00000000 align 2**4
         filesz 0x00000000 memsz 0x00000000 flags rwx

Dynamic Section:
  HASH                 0x00016474
  GNU_HASH             0x00014984
  STRTAB               0x00016444
  SYMTAB               0x000163e4
  STRSZ                0x0000002e
  SYMENT               0x00000010
  DEBUG                0x00000000
  REL                  0x000170d0
  RELSZ                0x00000120
  RELENT               0x00000008
  FLAGS_1              0x08000000
  RELCOUNT             0x00000015
private flags = 5000400: [Version5 EABI] [hard-float ABI]

Sections:
Idx Name          Size      VMA       LMA       File off  Algn
  0 .ta_head      00000020  00000000  00000000  00001000  2**3
                  CONTENTS, ALLOC, LOAD, READONLY, DATA
  1 .text         0001371c  00000020  00000020  00001020  2**2
                  CONTENTS, ALLOC, LOAD, READONLY, CODE
  2 .rodata       00001246  0001373c  0001373c  0001473c  2**2
                  CONTENTS, ALLOC, LOAD, READONLY, DATA
  3 .gnu.hash     0000002c  00014984  00014984  00015984  2**2
                  CONTENTS, ALLOC, LOAD, READONLY, DATA
  4 .ARM.extab    00000f34  000149b0  000149b0  000159b0  2**2
                  CONTENTS, ALLOC, LOAD, READONLY, DATA
  5 .ARM.exidx    00000b00  000158e4  000158e4  000168e4  2**2
                  CONTENTS, ALLOC, LOAD, READONLY, DATA
  6 .dynsym       00000060  000163e4  000163e4  000173e4  2**2
                  CONTENTS, ALLOC, LOAD, READONLY, DATA
  7 .dynstr       0000002e  00016444  00016444  00017444  2**0
                  CONTENTS, ALLOC, LOAD, READONLY, DATA
  8 .hash         0000002c  00016474  00016474  00017474  2**2
                  CONTENTS, ALLOC, LOAD, READONLY, DATA
  9 .dynamic      00000088  00017000  00017000  00018000  2**2
                  CONTENTS, ALLOC, LOAD, DATA
 10 .got          00000048  00017088  00017088  00018088  2**2
                  CONTENTS, ALLOC, LOAD, DATA
 11 .rel.got      00000078  00017178  00017178  00018178  2**2
                  CONTENTS, ALLOC, LOAD, READONLY, DATA
 12 .data         000000e8  000171f0  000171f0  000181f0  2**2
                  CONTENTS, ALLOC, LOAD, DATA
 13 .bss          0000b060  000172d8  000172d8  000182d8  2**2
                  ALLOC
 14 .debug_info   0000cb33  00000000  00000000  000182d8  2**0
                  CONTENTS, READONLY, DEBUGGING, OCTETS
 15 .debug_abbrev 0000286b  00000000  00000000  00024e0b  2**0
                  CONTENTS, READONLY, DEBUGGING, OCTETS
 16 .debug_aranges 000005a8  00000000  00000000  00027678  2**3
                  CONTENTS, READONLY, DEBUGGING, OCTETS
 17 .debug_macro  00018309  00000000  00000000  00027c20  2**0
                  CONTENTS, READONLY, DEBUGGING, OCTETS
 18 .debug_line   0000a433  00000000  00000000  0003ff29  2**0
                  CONTENTS, READONLY, DEBUGGING, OCTETS
 19 .debug_str    00017eea  00000000  00000000  0004a35c  2**0
                  CONTENTS, READONLY, DEBUGGING, OCTETS
 20 .comment      0000005d  00000000  00000000  00062246  2**0
                  CONTENTS, READONLY
 21 .ARM.attributes 00000033  00000000  00000000  000622a3  2**0
                  CONTENTS, READONLY
 22 .debug_frame  00003790  00000000  00000000  000622d8  2**2
                  CONTENTS, READONLY, DEBUGGING, OCTETS
 23 .rel.dyn      000000a8  000170d0  000170d0  000180d0  2**2
                  CONTENTS, ALLOC, LOAD, READONLY, DATA
 24 .debug_ranges 00000240  00000000  00000000  00065a68  2**3
                  CONTENTS, READONLY, DEBUGGING, OCTETS
SYMBOL TABLE:
00000000 l    d  .ta_head	00000000 .ta_head
00000020 l    d  .text	00000000 .text
0001373c l    d  .rodata	00000000 .rodata
00014984 l    d  .gnu.hash	00000000 .gnu.hash
000149b0 l    d  .ARM.extab	00000000 .ARM.extab
000158e4 l    d  .ARM.exidx	00000000 .ARM.exidx
000163e4 l    d  .dynsym	00000000 .dynsym
00016444 l    d  .dynstr	00000000 .dynstr
00016474 l    d  .hash	00000000 .hash
00017000 l    d  .dynamic	00000000 .dynamic
00017088 l    d  .got	00000000 .got
00017178 l    d  .rel.got	00000000 .rel.got
000171f0 l    d  .data	00000000 .data
000172d8 l    d  .bss	00000000 .bss
00000000 l    d  .debug_info	00000000 .debug_info
00000000 l    d  .debug_abbrev	00000000 .debug_abbrev
00000000 l    d  .debug_aranges	00000000 .debug_aranges
00000000 l    d  .debug_macro	00000000 .debug_macro
00000000 l    d  .debug_line	00000000 .debug_line
00000000 l    d  .debug_str	00000000 .debug_str
00000000 l    d  .comment	00000000 .comment
00000000 l    d  .ARM.attributes	00000000 .ARM.attributes
00000000 l    d  .debug_frame	00000000 .debug_frame
000170d0 l    d  .rel.dyn	00000000 .rel.dyn
00000000 l    d  .debug_ranges	00000000 .debug_ranges
00000000 l    df *ABS*	00000000 user_ta_header.c
00013754 l     O .rodata	00000001 __compound_literal.0
00013755 l     O .rodata	00000001 __compound_literal.1
00013756 l     O .rodata	00000001 __compound_literal.2
00013758 l     O .rodata	00000004 __compound_literal.3
0001375c l     O .rodata	00000004 __compound_literal.4
00000000 l    df *ABS*	00000000 ta_entry.c
0001373c l     O .rodata	00000010 uuid
0000009c l     F .text	0000008c pass_values
00000128 l     F .text	0000007c write_array
000001a4 l     F .text	00000074 get_array
00000218 l     F .text	0000005c bad_input_uuid
00000274 l     F .text	0000003c bad_input_data
000002b0 l     F .text	0000005c bad_input_inlen
0000030c l     F .text	0000006c call_unknown_plugin
00000000 l    df *ABS*	00000000 out/ta_entry_a32.o
00000000 l    df *ABS*	00000000 tee_system_pta.c
00000420 l     F .text	00000064 reg_pair_to_64
00000484 l     F .text	0000003a reg_pair_from_64
000004be l     F .text	0000007e invoke_system_pta
0001f2d8 l     O .bss	00000004 sess.3
00013878 l     O .rodata	00000010 uuid.2
00013888 l     O .rodata	0000000a __func__.1
00013894 l     O .rodata	00000017 __func__.0
00000000 l    df *ABS*	00000000 utee_syscalls_a32.o
00000000 l    df *ABS*	00000000 user_ta_entry.c
00000c00 l     F .text	00000010 __utee_gprof_init
00000c10 l     F .text	00000010 __utee_gprof_fini
00017248 l     O .data	00000008 ta_sessions
0001f30c l     O .bss	00000001 init_done
00017250 l     O .data	00000008 __phdr_info_head
0001f310 l     O .bss	00000004 _num_mod_init
00000c20 l     F .text	000000cc _init_iterate_phdr_cb
000138c8 l     O .rodata	00000016 __func__.0
00000cec l     F .text	000000fc _get_fn_array
00000f34 l     F .text	00000074 _fini_iterate_phdr_cb
00000fc8 l     F .text	0000005c init_instance
00001024 l     F .text	00000018 uninit_instance
0000103c l     F .text	00000058 ta_header_save_params
00001094 l     F .text	00000044 ta_header_get_session
000010d8 l     F .text	000000c0 ta_header_add_session
00001198 l     F .text	000000d4 ta_header_remove_session
0000126c l     F .text	00000182 to_utee_params
000013ee l     F .text	000000e2 from_utee_params
000014d0 l     F .text	0000008e entry_open_session
0000155e l     F .text	00000040 entry_close_session
0000159e l     F .text	00000070 entry_invoke_command
00000000 l    df *ABS*	00000000 abort.c
00000000 l    df *ABS*	00000000 trace_ext.c
00000000 l    df *ABS*	00000000 tee_api.c
0001f314 l     O .bss	00000004 tee_api_instance_data
000017c0 l     F .text	000002fe copy_param
00001abe l     F .text	00000110 update_out_param
00013900 l     O .rodata	0000000b __func__.0
00000000 l    df *ABS*	00000000 tee_api_arith_mpi.c
00002240 l     F .text	00000030 api_panic
00002270 l     F .text	00000030 mpi_panic
0001f318 l     O .bss	00003000 data.17
000139d0 l     O .rodata	00000012 __func__.16
00002308 l     F .text	00000090 copy_mpi_to_bigint
00002398 l     F .text	000000a0 get_mpi
000139e4 l     O .rodata	00000008 __func__.15
000139ec l     O .rodata	0000000f __func__.14
000139fc l     O .rodata	0000001f __func__.13
00013a1c l     O .rodata	00000019 __func__.12
00013a38 l     O .rodata	00000015 __func__.11
000029c2 l     F .text	000000fe bigint_binary
00013a50 l     O .rodata	0000000e __func__.10
00002ac0 l     F .text	00000184 bigint_binary_mod
00013a60 l     O .rodata	00000012 __func__.9
00013a74 l     O .rodata	0000000e __func__.8
00013a84 l     O .rodata	0000000e __func__.7
00013a94 l     O .rodata	0000000e __func__.6
00013aa4 l     O .rodata	00000011 __func__.5
00013ab8 l     O .rodata	00000018 __func__.4
000032d4 l     F .text	0000002a mpi_is_odd
000032fe l     F .text	00000032 mpi_is_even
00003330 l     F .text	00000794 mpi_egcd
00013ad0 l     O .rodata	00000009 __func__.3
00013adc l     O .rodata	0000001d __func__.2
00003d54 l     F .text	00000030 rng_read
00013afc l     O .rodata	00000019 __func__.1
00013b18 l     O .rodata	00000015 __func__.0
00000000 l    df *ABS*	00000000 tee_api_panic.c
0000403e l     F .text	00000024 check_res
00004062 l     F .text	00000040 check_access
00000000 l    df *ABS*	00000000 tcb.c
00022318 l     O .bss	00000004 _tcb
0002231c l     O .bss	00000004 _tls_size
00013c34 l     O .rodata	00000010 __func__.1
00013c44 l     O .rodata	00000010 __func__.0
00000000 l    df *ABS*	00000000 assert.c
00000000 l    df *ABS*	00000000 bignum.c
000046e8 l     F .text	00000024 mbedtls_mpi_zeroize
0000470c l     F .text	0000003a mpi_init
00004a88 l     F .text	00000064 mbedtls_mpi_resize_clear
00004c26 l     F .text	00000056 mpi_safe_cond_select_sign
00004c7c l     F .text	00000078 mpi_safe_cond_assign
00005116 l     F .text	0000004e mbedtls_clz
00005200 l     F .text	00000082 mpi_get_digit
00005480 l     F .text	000000da mpi_write_hlp
00005754 l     F .text	0000005a mpi_uint_bigendian_to_host_c
000057ae l     F .text	0000001c mpi_uint_bigendian_to_host
000057ca l     F .text	00000072 mpi_bigendian_to_host
000060a8 l     F .text	00000052 ct_lt_mpi_uint
00006410 l     F .text	000000aa mpi_sub_hlp
00006822 l     F .text	00001a20 mpi_mul_hlp
000084b0 l     F .text	000000d6 mbedtls_int_div_int
00008ddc l     F .text	0000006e mpi_montg_init
00008e68 l     F .text	0000013a mpi_montmul
00008fcc l     F .text	00000044 mpi_montred
00009036 l     F .text	00000040 mbedtls_mpi_cf_bool_eq
00009076 l     F .text	0000007e mpi_select
00009a1a l     F .text	000000ba mpi_fill_random_internal
00013c90 l     O .rodata	000002a0 small_prime
0000a16e l     F .text	000000a6 mpi_check_small_factors
0000a214 l     F .text	000002d2 mpi_miller_rabin
00013f30 l     O .rodata	00000024 gcd_pairs
00000000 l    df *ABS*	00000000 platform_util.c
00017258 l     O .data	00000004 memset_func
00000000 l    df *ABS*	00000000 bget_malloc.c
0000ae1c l     F .text	0000001a tag_asan_free
0000ae36 l     F .text	0000001a tag_asan_alloced
0000ae50 l     F .text	00000024 memset_unchecked
0000ae74 l     F .text	00000024 memcpy_unchecked
0000ae98 l     F .text	00000090 buf_get_pos
000147c0 l     O .rodata	00000005 __func__.9
000147c8 l     O .rodata	00000006 __func__.8
000147d0 l     O .rodata	00000006 __func__.7
000147d8 l     O .rodata	00000005 __func__.6
000147e0 l     O .rodata	00000006 __func__.5
000147e8 l     O .rodata	00000007 __func__.4
00022324 l     O .bss	00000004 bchain
00022328 l     O .bss	00000004 bp
0001725c l     O .data	00000004 next
0002232c l     O .bss	00000004 mymalloc
00022330 l     O .bss	00000004 myfree
00017260 l     O .data	0000001c mypoolset
0000b900 l     F .text	0000004c myrand
0000b94c l     F .text	00000024 mysrand
0000b970 l     F .text	00000064 stats
0000b9d4 l     F .text	0000003e blimit
000147f0 l     O .rodata	0000000f __func__.3
0000be28 l     F .text	0000001c malloc_lock
0000be44 l     F .text	0000001a malloc_unlock
0001727c l     O .data	0000005c malloc_ctx
0000be5e l     F .text	0000001a print_oom
0000be78 l     F .text	00000064 raw_malloc_return_hook
0000bedc l     F .text	00000044 gen_malloc_reset_stats
0000bf3c l     F .text	00000042 gen_malloc_get_stats
0000bfa4 l     F .text	00000018 raw_malloc_validate_pools
0000bfbc l     F .text	0000002c bpool_foreach_iterator_init
0000bfe8 l     F .text	000000d8 bpool_foreach_pool
00014800 l     O .rodata	00000013 __func__.2
0000c0c0 l     F .text	00000076 bpool_foreach
0000c136 l     F .text	0000009c raw_memalign
0000c1d2 l     F .text	0000002e raw_malloc
0000c200 l     F .text	00000032 raw_free
0000c232 l     F .text	000000ca raw_calloc
0000c2fc l     F .text	000000ac raw_realloc
0000c3a8 l     F .text	0000005c bget_buf_size
00014814 l     O .rodata	0000000e __func__.1
0000c454 l     F .text	0000004c free_helper
0000c4f4 l     F .text	0000002e realloc_unlocked
0000c5c4 l     F .text	00000026 get_payload_start_size
0000c626 l     F .text	0000013e gen_malloc_add_pool
00014824 l     O .rodata	00000014 __func__.0
0000c764 l     F .text	000000a8 gen_malloc_buffer_is_within_alloced
0000c80c l     F .text	000000ba gen_malloc_buffer_overlaps_heap
00000000 l    df *ABS*	00000000 arm32_aeabi_ldivmod_a32.o
00000000 l    df *ABS*	00000000 snprintk.c
00014838 l     O .rodata	00000011 hexdigits
0001484c l     O .rodata	00000011 HEXDIGITS
0000cb20 l     F .text	00000fe0 kprintf
0000ca82 l     F .text	0000009e uuid2str
00000000 l    df *ABS*	00000000 trace.c
0000db6c l     F .text	00000054 trace_level_to_string
000148dc l     O .rodata	00000005 lvl_strs.0
0000dbc0 l     F .text	00000060 print_thread_id
0000dc20 l     F .text	0000001e print_core_id
00000000 l    df *ABS*	00000000 mempool.c
0000dfa0 l     F .text	00000018 get_pool
0000dfb8 l     F .text	00000018 put_pool
00014960 l     O .rodata	00000013 __func__.1
00014974 l     O .rodata	0000000e __func__.0
00000000 l    df *ABS*	00000000 tee_api_operations.c
0000e230 l     F .text	0000006e __tee_alg_get_class
0000e29e l     F .text	00000046 __tee_alg_get_main_alg
0000e2e4 l     F .text	00000036 __tee_alg_get_key_type
0000e31a l     F .text	0000022e __tee_alg_get_digest_size
0000fb08 l     F .text	00000048 init_hash_operation
0000fd02 l     F .text	00000330 tee_buffer_update
00000000 l    df *ABS*	00000000 aeabi_unwind.c
00000000 l    df *ABS*	00000000 snprintf.c
00000000 l    df *ABS*	00000000 memcpy.c
00000000 l    df *ABS*	00000000 memmove.c
00000000 l    df *ABS*	00000000 memset.c
00000000 l    df *ABS*	00000000 strlen.c
00000000 l    df *ABS*	00000000 arm32_aeabi_ldivmod.c
000121bc l     F .text	0000012a division_lqr
000122e6 l     F .text	0000007c ul_div_qr
00000000 l    df *ABS*	00000000 consttime_memcmp.c
00000000 l    df *ABS*	00000000 memchr.c
00000000 l    df *ABS*	00000000 tee_api_objects.c
00000000 l    df *ABS*	00000000 
00017000 l     O *ABS*	00000000 _DYNAMIC
00017088 l     O *ABS*	00000000 _GLOBAL_OFFSET_TABLE_
00001788 g     F .text	00000038 putchar
00012c56 g     F .text	00000164 TEE_PopulateTransientObject
00003e54 g     F .text	00000024 TEE_BigIntConvertToFMM
000030dc g     F .text	00000024 TEE_BigIntSquareMod
0000278a g     F .text	000001ba TEE_BigIntShiftRight
00000684 g     F .text	000000cc tee_invoke_supp_plugin
0000482c g     F .text	00000108 mbedtls_mpi_grow
000123c4 g     F .text	000000e0 __l_divmod
0000fb50 g     F .text	0000005c TEE_DigestUpdate
0000216c g     F .text	00000046 TEE_Realloc
0000f792 g     F .text	00000232 TEE_SetOperationKey2
0000420c g     F .text	00000034 __utee_check_inout_annotation
000016dc g     F .text	00000074 printf
00012dba g     F .text	00000048 TEE_InitRefAttribute
00000778 g     F .text	00000014 _utee_log
00001cec g     F .text	00000126 TEE_InvokeTACommand
000040a2 g     F .text	0000005a __utee_check_outbuf_annotation
00004764 g     F .text	0000003c mbedtls_mpi_init_mempool
00000a14 g     F .text	00000014 _utee_cryp_random_number_generate
00005a38 g     F .text	000000e4 mbedtls_mpi_write_binary
00010a88 g     F .text	00000224 TEE_AEEncryptFinal
0000c9ae g     F .text	0000002e vsnprintk
000067d2 g     F .text	00000050 mbedtls_mpi_sub_int
00011ed8 g     F .text	0000013e memmove
00011d7c g     F .text	0000003c snprintf
0000274e g     F .text	0000003c TEE_BigIntCmpS32
00012e02 g     F .text	00000048 TEE_InitValueAttribute
00004934 g     F .text	00000154 mbedtls_mpi_shrink
00011d4c g     F .text	00000010 __aeabi_unwind_cpp_pr0
00002c44 g     F .text	00000034 TEE_BigIntAdd
00000974 g     F .text	00000014 _utee_cryp_obj_restrict_usage
00013750 g     O .rodata	00000004 ta_heap_size
00012bf6 g     F .text	00000060 TEE_ResetTransientObject
00000a9c g     F .text	00000018 _utee_asymm_operate
00005282 g     F .text	000001fe mbedtls_mpi_read_string
0000fc6a g     F .text	00000098 TEE_CipherInit
00002cac g     F .text	000000b0 TEE_BigIntNeg
00000b38 g     F .text	00000014 _utee_storage_free_enum
00000020 g       .text	00000000 __text_start
000133b0 g     F .text	0000005a TEE_StartPersistentObjectEnumerator
00005c9e g     F .text	0000016a mbedtls_mpi_shift_r
0000c91c g     F .text	0000002c malloc_buffer_overlaps_heap
000008dc g     F .text	00000014 _utee_hash_init
0000306c g     F .text	00000038 TEE_BigIntSubMod
0000a5ba g     F .text	00000314 mbedtls_mpi_gen_prime
00004f80 g     F .text	0000004e mbedtls_mpi_get_bit
000058da g     F .text	00000088 mbedtls_mpi_read_binary
0001077a g     F .text	000000ee TEE_AEInit
0000dc3e g     F .text	00000036 trace_printf
00008fa2 g     F .text	0000002a mbedtls_mpi_montmul
00000bec g     F .text	00000014 _utee_cache_operation
00011de6 g     F .text	000000f2 memcpy
00003e78 g     F .text	0000009c TEE_BigIntConvertFromFMM
00004024 g     F .text	0000001a TEE_Panic
0000c960 g     F .text	00000018 __aeabi_uldivmod
0000f9c4 g     F .text	00000144 TEE_CopyOperation
00001750 g     F .text	00000038 puts
00003f14 g     F .text	00000110 TEE_BigIntComputeFMM
0000bf7e g     F .text	00000026 malloc_get_stats
000020cc g     F .text	0000002c TEE_GetREETime
000132f2 g     F .text	0000005a TEE_AllocatePersistentObjectEnumerator
000171f4 g     O .data	00000054 ta_props
00010e8c g     F .text	000001c2 TEE_AsymmetricEncrypt
000040fc g     F .text	00000040 __utee_check_instring_annotation
0000c404 g     F .text	00000050 malloc
00011d14 g     F .text	00000024 __ta_entry_c
00012f4e g     F .text	00000126 TEE_GenerateKey
00011db8 g     F .text	0000002e vsnprintf
000171f0 g     O .data	00000004 trace_level
000026f8 g     F .text	00000056 TEE_BigIntCmp
0001381c g     O .rodata	00000004 ta_num_props
0000b35c g     F .text	000000c8 bgetr
00000acc g     F .text	00000018 _utee_storage_obj_open
0000e1b4 g     F .text	0000007c mempool_free
00010032 g     F .text	000001b6 TEE_CipherUpdate
000008f0 g     F .text	00000014 _utee_hash_update
0000251e g     F .text	00000086 TEE_BigIntConvertToOctetString
0000f3fc g     F .text	000001cc TEE_GetOperationInfoMultiple
00005164 g     F .text	00000078 mbedtls_mpi_bitlen
00002944 g     F .text	00000046 TEE_BigIntGetBit
0001374c g     O .rodata	00000003 trace_ext_prefix
00000b74 g     F .text	00000014 _utee_storage_next_enum
0000b2b4 g     F .text	000000a8 bgetz
00001f14 g     F .text	0000001c TEE_GetInstanceData
00001fca g     F .text	00000038 TEE_Wait
00008242 g     F .text	000001c2 mbedtls_mpi_mul_mpi
00011d6c g     F .text	00000010 __aeabi_unwind_cpp_pr2
000021f6 g     F .text	00000024 TEE_CacheFlush
0000dc74 g     F .text	0000030c trace_vprintf
00000034 g     F .text	00000010 TA_DestroyEntryPoint
00004746 g     F .text	0000001e mbedtls_mpi_init
00000afc g     F .text	00000014 _utee_storage_obj_del
0000509c g     F .text	0000007a mbedtls_mpi_lsb
0000468c g     F .text	00000048 _assert_log
000008b4 g     F .text	00000014 _utee_cryp_state_copy
00003e38 g     F .text	0000001c TEE_BigIntFMMContextSizeInU32
000005d4 g     F .text	000000b0 tee_unmap
00010688 g     F .text	000000f2 TEE_MACCompareFinal
00013282 g     F .text	00000070 TEE_RenamePersistentObject
0000fbac g     F .text	000000be TEE_DigestDoFinal
000022a0 g     F .text	00000068 _TEE_MathAPI_Init
00004240 g     F .text	0000030c __utee_tcb_init
0000662a g     F .text	000000ac mbedtls_mpi_add_mpi
00001684 g     F .text	00000020 abort
00009b3e g     F .text	00000164 mbedtls_mpi_random
00004194 g     F .text	00000034 __utee_check_out_annotation
000172d8 g     O .bss	00008000 ta_heap
00003100 g     F .text	0000010c TEE_BigIntInvMod
00000de8 g     F .text	0000014c __utee_call_elf_init_fn
00000084 g     F .text	00000018 TA_CloseSessionEntryPoint
000007e4 g     F .text	00000014 _utee_close_ta_session
0001104e g     F .text	000001c2 TEE_AsymmetricDecrypt
00013074 g     F .text	000000be TEE_OpenPersistentObject
000066d6 g     F .text	000000ac mbedtls_mpi_sub_mpi
000124a4 g     F .text	000000b4 consttime_memcmp
00000764 g     F .text	00000014 _utee_return
0000078c g     F .text	00000014 __utee_panic
0000454c g     F .text	00000038 __tls_get_addr
00000378 g     F .text	000000a2 TA_InvokeCommandEntryPoint
00000fa8 g     F .text	00000020 __utee_call_elf_fini_fn
0000c608 g     F .text	0000001e free_wipe
0000e044 g     F .text	000000f4 mempool_alloc
00000750 g     F .text	00000014 _utee_panic
0000e138 g     F .text	0000007c mempool_calloc
00000bd8 g     F .text	00000014 _utee_cryp_obj_generate_key
00012e4a g     F .text	0000004c TEE_CopyObjectAttributes
00000bb0 g     F .text	00000014 _utee_storage_obj_trunc
00000838 g     F .text	00000014 _utee_unmask_cancellation
0000c4a0 g     F .text	00000054 calloc
000020f8 g     F .text	00000074 TEE_Malloc
00001eae g     F .text	00000042 TEE_CheckMemoryAccessRights
00012362 g     F .text	00000062 __ul_divmod
000007a0 g     F .text	00000018 _utee_get_property
00004f12 g     F .text	0000006e mbedtls_mpi_lset
000134cc g     F .text	00000092 TEE_ReadObjectData
0001293c g     F .text	000000cc TEE_GetObjectBufferAttribute
00000044 g     F .text	00000040 TA_OpenSessionEntryPoint
0000f344 g     F .text	0000004a TEE_FreeOperation
00004584 g     F .text	00000108 dl_iterate_phdr
00022338 g       .bss	00000000 __ftrace_buf_end
0001f2dc g     O .bss	00000004 ta_param_types
00008bd2 g     F .text	00000052 mbedtls_mpi_div_int
0001266c g     F .text	0000017e __utee_from_attr
0000a4e6 g     F .text	000000ac mbedtls_mpi_is_prime_ext
00003d84 g     F .text	00000054 TEE_BigIntIsProbablePrime
00008404 g     F .text	000000ac mbedtls_mpi_mul_int
0001323c g     F .text	00000046 TEE_CloseAndDeletePersistentObject1
000090f4 g     F .text	00000748 mbedtls_mpi_exp_mod
00004cf4 g     F .text	000000ca mbedtls_mpi_safe_cond_assign
000060fa g     F .text	0000013e mbedtls_mpi_lt_mpi_ct
00010cac g     F .text	000001e0 TEE_AEDecryptFinal
00002438 g     F .text	0000006c TEE_BigIntInit
0000413c g     F .text	00000058 __utee_check_outstring_annotation
00001f30 g     F .text	00000024 TEE_MemMove
0000adec g     F .text	00000030 mbedtls_platform_zeroize
000024a4 g     F .text	0000007a TEE_BigIntConvertFromOctetString
00000a84 g     F .text	00000018 _utee_authenc_dec_final
00005e08 g     F .text	0000012e mbedtls_mpi_cmp_abs
00000b88 g     F .text	00000014 _utee_storage_obj_read
000104a0 g     F .text	00000072 TEE_MACInit
00011210 g     F .text	000001b4 TEE_AsymmetricSignDigest
00012558 g     F .text	00000114 memchr
00001e46 g     F .text	00000034 TEE_UnmaskCancellation
000127ea g     F .text	0000006e TEE_GetObjectInfo
0000a8ce g     F .text	0000051e mbedtls_mpi_self_test
00000bc4 g     F .text	00000014 _utee_storage_obj_seek
000108e2 g     F .text	000001a6 TEE_AEUpdate
00012b96 g     F .text	00000060 TEE_FreeTransientObject
00000824 g     F .text	00000014 _utee_check_access_rights
00006238 g     F .text	0000004c mbedtls_mpi_cmp_int
00000b4c g     F .text	00000014 _utee_storage_reset_enum
0000ba12 g     F .text	00000416 bget_main_test
00011740 g     F .text	00000026 rand
000041c8 g     F .text	00000044 __utee_check_attr_in_annotation
00000a54 g     F .text	00000018 _utee_authenc_update_payload
0000f38e g     F .text	0000006e TEE_GetOperationInfo
00002fc8 g     F .text	0000006c TEE_BigIntMod
00008cc2 g     F .text	0000011a mbedtls_mpi_mod_int
0000583c g     F .text	0000009e mbedtls_mpi_read_binary_le
00002e5c g     F .text	0000016c TEE_BigIntDiv
0000099c g     F .text	00000014 _utee_cryp_obj_alloc
00022338 g       .bss	00000000 __ftrace_buf_start
00004aec g     F .text	000000f8 mbedtls_mpi_copy
00011766 g     F .text	000005ae TEE_IsAlgorithmSupported
0000bf20 g     F .text	0000001c malloc_reset_stats
0000ca4e g     F .text	00000034 __vsprintf
00000888 g     F .text	00000014 _utee_set_ta_time
000007f8 g     F .text	00000018 _utee_invoke_ta_command
000128f0 g     F .text	0000004c TEE_RestrictObjectUsage1
0000c522 g     F .text	0000004e realloc
00004be4 g     F .text	00000042 mbedtls_mpi_swap
0000dfd0 g     F .text	00000074 mempool_alloc_pool
00002d5c g     F .text	000000e0 TEE_BigIntMul
0000f5c8 g     F .text	00000080 TEE_ResetOperation
00005b1c g     F .text	00000182 mbedtls_mpi_shift_l
00005f36 g     F .text	00000172 mbedtls_mpi_cmp_mpi
00001f78 g     F .text	00000026 TEE_MemFill
0000c8c6 g     F .text	0000002a malloc_add_pool
00010512 g     F .text	00000082 TEE_MACUpdate
0000db48 g     F .text	00000024 trace_get_level
00006284 g     F .text	0000018c mbedtls_mpi_add_abs
000128a4 g     F .text	0000004c TEE_RestrictObjectUsage
00003e12 g     F .text	00000026 TEE_BigIntFMMSizeInU32
00003dd8 g     F .text	0000001e TEE_BigIntInitFMM
00012afa g     F .text	00000032 TEE_CloseObject
0000091c g     F .text	00000014 _utee_cipher_init
0000160e g     F .text	00000076 __utee_entry
0001373c g       .text	00000000 __text_end
0000320c g     F .text	000000c8 TEE_BigIntRelativePrime
00008c24 g     F .text	0000009e mbedtls_mpi_mod_mpi
00000960 g     F .text	00000014 _utee_cryp_obj_get_info
0000b75c g     F .text	000000fc bpool
0000089c g     F .text	00000018 _utee_cryp_state_alloc
00001e12 g     F .text	00000034 TEE_GetCancellationFlag
0000983c g     F .text	000001de mbedtls_mpi_gcd
00002086 g     F .text	00000046 TEE_SetTAPersistentTime
00005962 g     F .text	000000d6 mbedtls_mpi_write_binary_le
00012016 g     F .text	0000011c memset
00002002 g     F .text	00000084 TEE_GetTAPersistentTime
0000df80 g     F .text	0000001e dhex_dump
00013132 g     F .text	000000d8 TEE_CreatePersistentObject
00001e7a g     F .text	00000034 TEE_MaskCancellation
00010868 g     F .text	0000007a TEE_AEUpdateAAD
000135dc g     F .text	0000006c TEE_TruncateObjectData
00000988 g     F .text	00000014 _utee_cryp_obj_get_attr
00012858 g     F .text	0000004c TEE_GetObjectInfo1
0000db00 g     F .text	00000048 trace_set_level
00000948 g     F .text	00000018 _utee_cipher_final
00012a08 g     F .text	000000f2 TEE_GetObjectValueAttribute
0000f648 g     F .text	0000014a TEE_SetOperationKey
000008c8 g     F .text	00000014 _utee_cryp_state_free
000007cc g     F .text	00000018 _utee_open_ta_session
00002624 g     F .text	000000d4 TEE_BigIntConvertToS32
00002c78 g     F .text	00000034 TEE_BigIntSub
00011d38 g     F .text	00000014 tahead_get_trace_level
00000b60 g     F .text	00000014 _utee_storage_start_enum
00013648 g     F .text	000000f4 TEE_SeekObjectData
0000053c g     F .text	00000098 tee_map_zi
00009010 g     F .text	00000026 mbedtls_mpi_montred
0000c570 g     F .text	00000054 memalign
000101e8 g     F .text	000002b8 TEE_CipherDoFinal
000025a4 g     F .text	00000080 TEE_BigIntConvertFromS32
00006782 g     F .text	00000050 mbedtls_mpi_add_int
00000a6c g     F .text	00000018 _utee_authenc_enc_final
0000c8f0 g     F .text	0000002c malloc_buffer_is_within_alloced
000009b0 g     F .text	00000014 _utee_cryp_obj_close
00003df6 g     F .text	0000001c TEE_BigIntInitFMMContext
0000084c g     F .text	00000014 _utee_mask_cancellation
00000b10 g     F .text	00000014 _utee_storage_obj_rename
0001355e g     F .text	0000007e TEE_WriteObjectData
0001337e g     F .text	00000032 TEE_ResetPersistentObjectEnumerator
00002e3c g     F .text	00000020 TEE_BigIntSquare
00000b9c g     F .text	00000014 _utee_storage_obj_write
00000020 g     F .text	00000014 TA_CreateEntryPoint
0000041c g     F .text	00000004 __ta_entry
00000a40 g     F .text	00000014 _utee_authenc_update_aad
0000c978 g     F .text	00000036 snprintk
00008e4a g     F .text	0000001e mbedtls_mpi_montg_init
0000298a g     F .text	00000038 TEE_BigIntGetBitCount
000009ec g     F .text	00000014 _utee_cryp_obj_copy
000030a4 g     F .text	00000038 TEE_BigIntMulMod
00009ca2 g     F .text	000004cc mbedtls_mpi_inv_mod
0001154e g     F .text	000001c6 TEE_DeriveKey
0001f2e0 g     O .bss	00000020 ta_params
00008586 g     F .text	0000064c mbedtls_mpi_div_mpi
000051dc g     F .text	00000024 mbedtls_mpi_size
0000af28 g     F .text	0000038c bget
00012b2c g     F .text	0000006a TEE_AllocateTransientObject
00000860 g     F .text	00000014 _utee_wait
00004fce g     F .text	000000ce mbedtls_mpi_set_bit
000021b2 g     F .text	00000020 TEE_Free
0000a592 g     F .text	00000028 mbedtls_mpi_is_prime
0000221a g     F .text	00000024 TEE_CacheInvalidate
000046d4 g     F .text	00000014 _assert_break
00003034 g     F .text	00000038 TEE_BigIntAddMod
00000874 g     F .text	00000014 _utee_get_time
0000e548 g     F .text	00000dfc TEE_AllocateOperation
000009d8 g     F .text	00000014 _utee_cryp_obj_populate
00011714 g     F .text	0000002c TEE_GenerateRandom
00001f54 g     F .text	00000024 TEE_MemCompare
00000930 g     F .text	00000018 _utee_cipher_update
0000c9dc g     F .text	00000072 __vsnprintf
0001f300 g     O .bss	0000000c __elf_phdr_info
0001334c g     F .text	00000032 TEE_FreePersistentObjectEnumerator
00001bce g     F .text	000000ee TEE_OpenTASession
000016a4 g     F .text	00000024 trace_ext_puts
000016c8 g     F .text	00000014 trace_ext_get_thread_id
0001320a g     F .text	00000032 TEE_CloseAndDeletePersistentObject
00000a00 g     F .text	00000014 _utee_cryp_derive_key
000047a0 g     F .text	0000008c mbedtls_mpi_free
000009c4 g     F .text	00000014 _utee_cryp_obj_reset
000021d2 g     F .text	00000024 TEE_CacheClean
000007b8 g     F .text	00000014 _utee_get_property_name_to_index
00004dbe g     F .text	00000154 mbedtls_mpi_safe_cond_swap
00000a28 g     F .text	00000018 _utee_authenc_init
00012e96 g     F .text	000000b8 TEE_CopyObjectAttributes1
00012132 g     F .text	0000008a strlen
00003ac4 g     F .text	00000290 TEE_BigIntComputeExtendedGcd
00011d5c g     F .text	00000010 __aeabi_unwind_cpp_pr1
00000b24 g     F .text	00000014 _utee_storage_alloc_enum
00001f9e g     F .text	0000002c TEE_GetSystemTime
00000ab4 g     F .text	00000018 _utee_asymm_verify
00000000 g     O .ta_head	00000020 ta_head
0000b424 g     F .text	00000338 brel
000064ba g     F .text	00000170 mbedtls_mpi_sub_abs
00009ad4 g     F .text	0000006a mbedtls_mpi_fill_random
00001ef0 g     F .text	00000024 TEE_SetInstanceData
00000810 g     F .text	00000014 _utee_get_cancellation_flag
0000c948 g     F .text	00000018 __aeabi_ldivmod
0000555a g     F .text	000001fa mbedtls_mpi_write_string
0001340a g     F .text	000000c2 TEE_GetNextPersistentObject
00001cbc g     F .text	00000030 TEE_CloseTASession
000113c4 g     F .text	0000018a TEE_AsymmetricVerifyDigest
00000ae4 g     F .text	00000018 _utee_storage_obj_create
0000c5ea g     F .text	0000001e free
0000b858 g     F .text	000000a8 bstats
00010594 g     F .text	000000f4 TEE_MACComputeFinal
00022320 g     O .bss	00000004 mbedtls_mpi_mempool
00000904 g     F .text	00000018 _utee_hash_final



Disassembly of section .text:

00000020 <TA_CreateEntryPoint>:
TA_CreateEntryPoint():
/home/qemu-sgx/devel/optee/out-br/build/optee_test_ext-1.0/ta/supp_plugin/ta_entry.c:19
      20:	f84d 7d04 	str.w	r7, [sp, #-4]!
      24:	af00      	add	r7, sp, #0
/home/qemu-sgx/devel/optee/out-br/build/optee_test_ext-1.0/ta/supp_plugin/ta_entry.c:20
      26:	f04f 0300 	mov.w	r3, #0
/home/qemu-sgx/devel/optee/out-br/build/optee_test_ext-1.0/ta/supp_plugin/ta_entry.c:21
      2a:	4618      	mov	r0, r3
      2c:	46bd      	mov	sp, r7
      2e:	f85d 7b04 	ldr.w	r7, [sp], #4
      32:	4770      	bx	lr

00000034 <TA_DestroyEntryPoint>:
TA_DestroyEntryPoint():
/home/qemu-sgx/devel/optee/out-br/build/optee_test_ext-1.0/ta/supp_plugin/ta_entry.c:24
      34:	f84d 7d04 	str.w	r7, [sp, #-4]!
      38:	af00      	add	r7, sp, #0
/home/qemu-sgx/devel/optee/out-br/build/optee_test_ext-1.0/ta/supp_plugin/ta_entry.c:25
      3a:	bf00      	nop
      3c:	46bd      	mov	sp, r7
      3e:	f85d 7b04 	ldr.w	r7, [sp], #4
      42:	4770      	bx	lr

00000044 <TA_OpenSessionEntryPoint>:
TA_OpenSessionEntryPoint():
/home/qemu-sgx/devel/optee/out-br/build/optee_test_ext-1.0/ta/supp_plugin/ta_entry.c:30
      44:	e96d 7e02 	strd	r7, lr, [sp, #-8]!
      48:	b086      	sub	sp, #24
      4a:	af02      	add	r7, sp, #8
      4c:	60f8      	str	r0, [r7, #12]
      4e:	60b9      	str	r1, [r7, #8]
      50:	607a      	str	r2, [r7, #4]
/home/qemu-sgx/devel/optee/out-br/build/optee_test_ext-1.0/ta/supp_plugin/ta_entry.c:32
      52:	f04f 0300 	mov.w	r3, #0
      56:	9301      	str	r3, [sp, #4]
      58:	f04f 0300 	mov.w	r3, #0
      5c:	9300      	str	r3, [sp, #0]
      5e:	f04f 0300 	mov.w	r3, #0
      62:	f04f 0200 	mov.w	r2, #0
      66:	f04f 0100 	mov.w	r1, #0
      6a:	4805      	ldr	r0, [pc, #20]	; (80 <TA_OpenSessionEntryPoint+0x3c>)
      6c:	4478      	add	r0, pc
      6e:	f000 fb09 	bl	684 <tee_invoke_supp_plugin>
      72:	4603      	mov	r3, r0
/home/qemu-sgx/devel/optee/out-br/build/optee_test_ext-1.0/ta/supp_plugin/ta_entry.c:34
      74:	4618      	mov	r0, r3
      76:	f107 0710 	add.w	r7, r7, #16
      7a:	46bd      	mov	sp, r7
      7c:	bd80      	pop	{r7, pc}
      7e:	bf00      	nop
      80:	000136cc 	.word	0x000136cc

00000084 <TA_CloseSessionEntryPoint>:
TA_CloseSessionEntryPoint():
/home/qemu-sgx/devel/optee/out-br/build/optee_test_ext-1.0/ta/supp_plugin/ta_entry.c:37
      84:	f84d 7d04 	str.w	r7, [sp, #-4]!
      88:	b083      	sub	sp, #12
      8a:	af00      	add	r7, sp, #0
      8c:	6078      	str	r0, [r7, #4]
/home/qemu-sgx/devel/optee/out-br/build/optee_test_ext-1.0/ta/supp_plugin/ta_entry.c:38
      8e:	bf00      	nop
      90:	f107 070c 	add.w	r7, r7, #12
      94:	46bd      	mov	sp, r7
      96:	f85d 7b04 	ldr.w	r7, [sp], #4
      9a:	4770      	bx	lr

0000009c <pass_values>:
pass_values():
/home/qemu-sgx/devel/optee/out-br/build/optee_test_ext-1.0/ta/supp_plugin/ta_entry.c:42
      9c:	e96d 7e02 	strd	r7, lr, [sp, #-8]!
      a0:	b08a      	sub	sp, #40	; 0x28
      a2:	af02      	add	r7, sp, #8
      a4:	6078      	str	r0, [r7, #4]
      a6:	6039      	str	r1, [r7, #0]
/home/qemu-sgx/devel/optee/out-br/build/optee_test_ext-1.0/ta/supp_plugin/ta_entry.c:43
      a8:	f04f 0313 	mov.w	r3, #19
      ac:	61fb      	str	r3, [r7, #28]
/home/qemu-sgx/devel/optee/out-br/build/optee_test_ext-1.0/ta/supp_plugin/ta_entry.c:47
      ae:	f04f 0300 	mov.w	r3, #0
      b2:	f6cf 73ff 	movt	r3, #65535	; 0xffff
      b6:	61bb      	str	r3, [r7, #24]
/home/qemu-sgx/devel/optee/out-br/build/optee_test_ext-1.0/ta/supp_plugin/ta_entry.c:48
      b8:	f04f 0300 	mov.w	r3, #0
      bc:	617b      	str	r3, [r7, #20]
/home/qemu-sgx/devel/optee/out-br/build/optee_test_ext-1.0/ta/supp_plugin/ta_entry.c:52
      be:	f107 030c 	add.w	r3, r7, #12
      c2:	efc0 0010 	vmov.i32	d16, #0	; 0x00000000
      c6:	edc3 0b00 	vstr	d16, [r3]
/home/qemu-sgx/devel/optee/out-br/build/optee_test_ext-1.0/ta/supp_plugin/ta_entry.c:54
      ca:	69fa      	ldr	r2, [r7, #28]
      cc:	687b      	ldr	r3, [r7, #4]
      ce:	429a      	cmp	r2, r3
      d0:	d004      	beq.n	dc <pass_values+0x40>
/home/qemu-sgx/devel/optee/out-br/build/optee_test_ext-1.0/ta/supp_plugin/ta_entry.c:55
      d2:	f04f 0306 	mov.w	r3, #6
      d6:	f6cf 73ff 	movt	r3, #65535	; 0xffff
      da:	e01d      	b.n	118 <pass_values+0x7c>
/home/qemu-sgx/devel/optee/out-br/build/optee_test_ext-1.0/ta/supp_plugin/ta_entry.c:57
      dc:	683b      	ldr	r3, [r7, #0]
      de:	681b      	ldr	r3, [r3, #0]
      e0:	60fb      	str	r3, [r7, #12]
/home/qemu-sgx/devel/optee/out-br/build/optee_test_ext-1.0/ta/supp_plugin/ta_entry.c:58
      e2:	683b      	ldr	r3, [r7, #0]
      e4:	685b      	ldr	r3, [r3, #4]
      e6:	613b      	str	r3, [r7, #16]
/home/qemu-sgx/devel/optee/out-br/build/optee_test_ext-1.0/ta/supp_plugin/ta_entry.c:61
      e8:	683b      	ldr	r3, [r7, #0]
      ea:	f103 0308 	add.w	r3, r3, #8
/home/qemu-sgx/devel/optee/out-br/build/optee_test_ext-1.0/ta/supp_plugin/ta_entry.c:60
      ee:	681a      	ldr	r2, [r3, #0]
      f0:	f107 010c 	add.w	r1, r7, #12
      f4:	f107 0314 	add.w	r3, r7, #20
      f8:	9301      	str	r3, [sp, #4]
      fa:	f04f 0308 	mov.w	r3, #8
      fe:	9300      	str	r3, [sp, #0]
     100:	460b      	mov	r3, r1
     102:	f04f 0101 	mov.w	r1, #1
     106:	4807      	ldr	r0, [pc, #28]	; (124 <pass_values+0x88>)
     108:	4478      	add	r0, pc
     10a:	f000 fabb 	bl	684 <tee_invoke_supp_plugin>
     10e:	61b8      	str	r0, [r7, #24]
/home/qemu-sgx/devel/optee/out-br/build/optee_test_ext-1.0/ta/supp_plugin/ta_entry.c:63
     110:	68fa      	ldr	r2, [r7, #12]
     112:	683b      	ldr	r3, [r7, #0]
     114:	601a      	str	r2, [r3, #0]
/home/qemu-sgx/devel/optee/out-br/build/optee_test_ext-1.0/ta/supp_plugin/ta_entry.c:65
     116:	69bb      	ldr	r3, [r7, #24]
/home/qemu-sgx/devel/optee/out-br/build/optee_test_ext-1.0/ta/supp_plugin/ta_entry.c:66 (discriminator 1)
     118:	4618      	mov	r0, r3
     11a:	f107 0720 	add.w	r7, r7, #32
     11e:	46bd      	mov	sp, r7
     120:	bd80      	pop	{r7, pc}
     122:	bf00      	nop
     124:	00013630 	.word	0x00013630

00000128 <write_array>:
write_array():
/home/qemu-sgx/devel/optee/out-br/build/optee_test_ext-1.0/ta/supp_plugin/ta_entry.c:70
     128:	e96d 7e02 	strd	r7, lr, [sp, #-8]!
     12c:	b088      	sub	sp, #32
     12e:	af02      	add	r7, sp, #8
     130:	6078      	str	r0, [r7, #4]
     132:	6039      	str	r1, [r7, #0]
/home/qemu-sgx/devel/optee/out-br/build/optee_test_ext-1.0/ta/supp_plugin/ta_entry.c:71
     134:	f04f 0325 	mov.w	r3, #37	; 0x25
     138:	617b      	str	r3, [r7, #20]
/home/qemu-sgx/devel/optee/out-br/build/optee_test_ext-1.0/ta/supp_plugin/ta_entry.c:75
     13a:	f04f 0300 	mov.w	r3, #0
     13e:	f6cf 73ff 	movt	r3, #65535	; 0xffff
     142:	613b      	str	r3, [r7, #16]
/home/qemu-sgx/devel/optee/out-br/build/optee_test_ext-1.0/ta/supp_plugin/ta_entry.c:76
     144:	f04f 0300 	mov.w	r3, #0
     148:	60bb      	str	r3, [r7, #8]
/home/qemu-sgx/devel/optee/out-br/build/optee_test_ext-1.0/ta/supp_plugin/ta_entry.c:77
     14a:	683b      	ldr	r3, [r7, #0]
     14c:	681b      	ldr	r3, [r3, #0]
     14e:	60fb      	str	r3, [r7, #12]
/home/qemu-sgx/devel/optee/out-br/build/optee_test_ext-1.0/ta/supp_plugin/ta_entry.c:79
     150:	697a      	ldr	r2, [r7, #20]
     152:	687b      	ldr	r3, [r7, #4]
     154:	429a      	cmp	r2, r3
     156:	d004      	beq.n	162 <write_array+0x3a>
/home/qemu-sgx/devel/optee/out-br/build/optee_test_ext-1.0/ta/supp_plugin/ta_entry.c:80
     158:	f04f 0306 	mov.w	r3, #6
     15c:	f6cf 73ff 	movt	r3, #65535	; 0xffff
     160:	e018      	b.n	194 <write_array+0x6c>
/home/qemu-sgx/devel/optee/out-br/build/optee_test_ext-1.0/ta/supp_plugin/ta_entry.c:82
     162:	683b      	ldr	r3, [r7, #0]
     164:	6819      	ldr	r1, [r3, #0]
     166:	683b      	ldr	r3, [r7, #0]
     168:	685b      	ldr	r3, [r3, #4]
     16a:	f107 0208 	add.w	r2, r7, #8
     16e:	9201      	str	r2, [sp, #4]
     170:	9300      	str	r3, [sp, #0]
     172:	460b      	mov	r3, r1
     174:	f04f 0200 	mov.w	r2, #0
     178:	f04f 0102 	mov.w	r1, #2
     17c:	4808      	ldr	r0, [pc, #32]	; (1a0 <write_array+0x78>)
     17e:	4478      	add	r0, pc
     180:	f000 fa80 	bl	684 <tee_invoke_supp_plugin>
     184:	6138      	str	r0, [r7, #16]
/home/qemu-sgx/devel/optee/out-br/build/optee_test_ext-1.0/ta/supp_plugin/ta_entry.c:85
     186:	68fb      	ldr	r3, [r7, #12]
     188:	781a      	ldrb	r2, [r3, #0]
     18a:	683b      	ldr	r3, [r7, #0]
     18c:	f103 0308 	add.w	r3, r3, #8
     190:	601a      	str	r2, [r3, #0]
/home/qemu-sgx/devel/optee/out-br/build/optee_test_ext-1.0/ta/supp_plugin/ta_entry.c:87
     192:	693b      	ldr	r3, [r7, #16]
/home/qemu-sgx/devel/optee/out-br/build/optee_test_ext-1.0/ta/supp_plugin/ta_entry.c:88 (discriminator 1)
     194:	4618      	mov	r0, r3
     196:	f107 0718 	add.w	r7, r7, #24
     19a:	46bd      	mov	sp, r7
     19c:	bd80      	pop	{r7, pc}
     19e:	bf00      	nop
     1a0:	000135ba 	.word	0x000135ba

000001a4 <get_array>:
get_array():
/home/qemu-sgx/devel/optee/out-br/build/optee_test_ext-1.0/ta/supp_plugin/ta_entry.c:92
     1a4:	e96d 7e02 	strd	r7, lr, [sp, #-8]!
     1a8:	b088      	sub	sp, #32
     1aa:	af02      	add	r7, sp, #8
     1ac:	6078      	str	r0, [r7, #4]
     1ae:	6039      	str	r1, [r7, #0]
/home/qemu-sgx/devel/optee/out-br/build/optee_test_ext-1.0/ta/supp_plugin/ta_entry.c:93
     1b0:	f04f 0326 	mov.w	r3, #38	; 0x26
     1b4:	617b      	str	r3, [r7, #20]
/home/qemu-sgx/devel/optee/out-br/build/optee_test_ext-1.0/ta/supp_plugin/ta_entry.c:97
     1b6:	f04f 0300 	mov.w	r3, #0
     1ba:	f6cf 73ff 	movt	r3, #65535	; 0xffff
     1be:	613b      	str	r3, [r7, #16]
/home/qemu-sgx/devel/optee/out-br/build/optee_test_ext-1.0/ta/supp_plugin/ta_entry.c:98
     1c0:	f04f 0300 	mov.w	r3, #0
     1c4:	60fb      	str	r3, [r7, #12]
/home/qemu-sgx/devel/optee/out-br/build/optee_test_ext-1.0/ta/supp_plugin/ta_entry.c:100
     1c6:	697a      	ldr	r2, [r7, #20]
     1c8:	687b      	ldr	r3, [r7, #4]
     1ca:	429a      	cmp	r2, r3
     1cc:	d004      	beq.n	1d8 <get_array+0x34>
/home/qemu-sgx/devel/optee/out-br/build/optee_test_ext-1.0/ta/supp_plugin/ta_entry.c:101
     1ce:	f04f 0306 	mov.w	r3, #6
     1d2:	f6cf 73ff 	movt	r3, #65535	; 0xffff
     1d6:	e017      	b.n	208 <get_array+0x64>
/home/qemu-sgx/devel/optee/out-br/build/optee_test_ext-1.0/ta/supp_plugin/ta_entry.c:103
     1d8:	683b      	ldr	r3, [r7, #0]
     1da:	6819      	ldr	r1, [r3, #0]
     1dc:	683b      	ldr	r3, [r7, #0]
     1de:	685b      	ldr	r3, [r3, #4]
     1e0:	f107 020c 	add.w	r2, r7, #12
     1e4:	9201      	str	r2, [sp, #4]
     1e6:	9300      	str	r3, [sp, #0]
     1e8:	460b      	mov	r3, r1
     1ea:	f04f 0200 	mov.w	r2, #0
     1ee:	f04f 0103 	mov.w	r1, #3
     1f2:	4808      	ldr	r0, [pc, #32]	; (214 <get_array+0x70>)
     1f4:	4478      	add	r0, pc
     1f6:	f000 fa45 	bl	684 <tee_invoke_supp_plugin>
     1fa:	6138      	str	r0, [r7, #16]
/home/qemu-sgx/devel/optee/out-br/build/optee_test_ext-1.0/ta/supp_plugin/ta_entry.c:107
     1fc:	683b      	ldr	r3, [r7, #0]
     1fe:	f103 0308 	add.w	r3, r3, #8
     202:	68fa      	ldr	r2, [r7, #12]
     204:	601a      	str	r2, [r3, #0]
/home/qemu-sgx/devel/optee/out-br/build/optee_test_ext-1.0/ta/supp_plugin/ta_entry.c:109
     206:	693b      	ldr	r3, [r7, #16]
/home/qemu-sgx/devel/optee/out-br/build/optee_test_ext-1.0/ta/supp_plugin/ta_entry.c:110 (discriminator 1)
     208:	4618      	mov	r0, r3
     20a:	f107 0718 	add.w	r7, r7, #24
     20e:	46bd      	mov	sp, r7
     210:	bd80      	pop	{r7, pc}
     212:	bf00      	nop
     214:	00013544 	.word	0x00013544

00000218 <bad_input_uuid>:
bad_input_uuid():
/home/qemu-sgx/devel/optee/out-br/build/optee_test_ext-1.0/ta/supp_plugin/ta_entry.c:114
     218:	e96d 7e02 	strd	r7, lr, [sp, #-8]!
     21c:	b08e      	sub	sp, #56	; 0x38
     21e:	af02      	add	r7, sp, #8
     220:	6078      	str	r0, [r7, #4]
     222:	6039      	str	r1, [r7, #0]
/home/qemu-sgx/devel/optee/out-br/build/optee_test_ext-1.0/ta/supp_plugin/ta_entry.c:115
     224:	f04f 0300 	mov.w	r3, #0
     228:	60fb      	str	r3, [r7, #12]
     22a:	f107 0310 	add.w	r3, r7, #16
     22e:	efc0 0010 	vmov.i32	d16, #0	; 0x00000000
     232:	edc3 0b00 	vstr	d16, [r3]
     236:	edc3 0b02 	vstr	d16, [r3, #8]
     23a:	edc3 0b04 	vstr	d16, [r3, #16]
     23e:	edc3 0b05 	vstr	d16, [r3, #20]
/home/qemu-sgx/devel/optee/out-br/build/optee_test_ext-1.0/ta/supp_plugin/ta_entry.c:116
     242:	f04f 0320 	mov.w	r3, #32
     246:	62fb      	str	r3, [r7, #44]	; 0x2c
/home/qemu-sgx/devel/optee/out-br/build/optee_test_ext-1.0/ta/supp_plugin/ta_entry.c:118
     248:	f107 020c 	add.w	r2, r7, #12
     24c:	f04f 0300 	mov.w	r3, #0
     250:	9301      	str	r3, [sp, #4]
     252:	6afb      	ldr	r3, [r7, #44]	; 0x2c
     254:	9300      	str	r3, [sp, #0]
     256:	4613      	mov	r3, r2
     258:	f04f 0200 	mov.w	r2, #0
     25c:	f04f 0100 	mov.w	r1, #0
     260:	f04f 0000 	mov.w	r0, #0
     264:	f000 fa0e 	bl	684 <tee_invoke_supp_plugin>
     268:	4603      	mov	r3, r0
/home/qemu-sgx/devel/optee/out-br/build/optee_test_ext-1.0/ta/supp_plugin/ta_entry.c:119
     26a:	4618      	mov	r0, r3
     26c:	f107 0730 	add.w	r7, r7, #48	; 0x30
     270:	46bd      	mov	sp, r7
     272:	bd80      	pop	{r7, pc}

00000274 <bad_input_data>:
bad_input_data():
/home/qemu-sgx/devel/optee/out-br/build/optee_test_ext-1.0/ta/supp_plugin/ta_entry.c:123
     274:	e96d 7e02 	strd	r7, lr, [sp, #-8]!
     278:	b084      	sub	sp, #16
     27a:	af02      	add	r7, sp, #8
     27c:	6078      	str	r0, [r7, #4]
     27e:	6039      	str	r1, [r7, #0]
/home/qemu-sgx/devel/optee/out-br/build/optee_test_ext-1.0/ta/supp_plugin/ta_entry.c:124
     280:	f04f 0300 	mov.w	r3, #0
     284:	9301      	str	r3, [sp, #4]
     286:	f04f 030a 	mov.w	r3, #10
     28a:	9300      	str	r3, [sp, #0]
     28c:	f04f 0300 	mov.w	r3, #0
     290:	f04f 0200 	mov.w	r2, #0
     294:	f04f 0100 	mov.w	r1, #0
     298:	4804      	ldr	r0, [pc, #16]	; (2ac <bad_input_data+0x38>)
     29a:	4478      	add	r0, pc
     29c:	f000 f9f2 	bl	684 <tee_invoke_supp_plugin>
     2a0:	4603      	mov	r3, r0
/home/qemu-sgx/devel/optee/out-br/build/optee_test_ext-1.0/ta/supp_plugin/ta_entry.c:125
     2a2:	4618      	mov	r0, r3
     2a4:	f107 0708 	add.w	r7, r7, #8
     2a8:	46bd      	mov	sp, r7
     2aa:	bd80      	pop	{r7, pc}
     2ac:	0001349e 	.word	0x0001349e

000002b0 <bad_input_inlen>:
bad_input_inlen():
/home/qemu-sgx/devel/optee/out-br/build/optee_test_ext-1.0/ta/supp_plugin/ta_entry.c:129
     2b0:	e96d 7e02 	strd	r7, lr, [sp, #-8]!
     2b4:	b08c      	sub	sp, #48	; 0x30
     2b6:	af02      	add	r7, sp, #8
     2b8:	6078      	str	r0, [r7, #4]
     2ba:	6039      	str	r1, [r7, #0]
/home/qemu-sgx/devel/optee/out-br/build/optee_test_ext-1.0/ta/supp_plugin/ta_entry.c:130
     2bc:	f04f 0300 	mov.w	r3, #0
     2c0:	60bb      	str	r3, [r7, #8]
     2c2:	f107 030c 	add.w	r3, r7, #12
     2c6:	efc0 0010 	vmov.i32	d16, #0	; 0x00000000
     2ca:	edc3 0b00 	vstr	d16, [r3]
     2ce:	edc3 0b02 	vstr	d16, [r3, #8]
     2d2:	edc3 0b04 	vstr	d16, [r3, #16]
     2d6:	edc3 0b05 	vstr	d16, [r3, #20]
/home/qemu-sgx/devel/optee/out-br/build/optee_test_ext-1.0/ta/supp_plugin/ta_entry.c:132
     2da:	f107 0308 	add.w	r3, r7, #8
     2de:	f04f 0200 	mov.w	r2, #0
     2e2:	9201      	str	r2, [sp, #4]
     2e4:	f04f 0200 	mov.w	r2, #0
     2e8:	9200      	str	r2, [sp, #0]
     2ea:	f04f 0200 	mov.w	r2, #0
     2ee:	f04f 0100 	mov.w	r1, #0
     2f2:	4805      	ldr	r0, [pc, #20]	; (308 <bad_input_inlen+0x58>)
     2f4:	4478      	add	r0, pc
     2f6:	f000 f9c5 	bl	684 <tee_invoke_supp_plugin>
     2fa:	4603      	mov	r3, r0
/home/qemu-sgx/devel/optee/out-br/build/optee_test_ext-1.0/ta/supp_plugin/ta_entry.c:133
     2fc:	4618      	mov	r0, r3
     2fe:	f107 0728 	add.w	r7, r7, #40	; 0x28
     302:	46bd      	mov	sp, r7
     304:	bd80      	pop	{r7, pc}
     306:	bf00      	nop
     308:	00013444 	.word	0x00013444

0000030c <call_unknown_plugin>:
call_unknown_plugin():
/home/qemu-sgx/devel/optee/out-br/build/optee_test_ext-1.0/ta/supp_plugin/ta_entry.c:138
     30c:	e96d 7e02 	strd	r7, lr, [sp, #-8]!
     310:	b092      	sub	sp, #72	; 0x48
     312:	af02      	add	r7, sp, #8
     314:	6078      	str	r0, [r7, #4]
     316:	6039      	str	r1, [r7, #0]
/home/qemu-sgx/devel/optee/out-br/build/optee_test_ext-1.0/ta/supp_plugin/ta_entry.c:139
     318:	f107 032c 	add.w	r3, r7, #44	; 0x2c
     31c:	efc0 0010 	vmov.i32	d16, #0	; 0x00000000
     320:	edc3 0b00 	vstr	d16, [r3]
     324:	edc3 0b02 	vstr	d16, [r3, #8]
/home/qemu-sgx/devel/optee/out-br/build/optee_test_ext-1.0/ta/supp_plugin/ta_entry.c:140
     328:	f04f 0300 	mov.w	r3, #0
     32c:	60fb      	str	r3, [r7, #12]
     32e:	f107 0310 	add.w	r3, r7, #16
     332:	efc0 0010 	vmov.i32	d16, #0	; 0x00000000
     336:	edc3 0b00 	vstr	d16, [r3]
     33a:	edc3 0b02 	vstr	d16, [r3, #8]
     33e:	edc3 0b04 	vstr	d16, [r3, #16]
     342:	edc3 0b05 	vstr	d16, [r3, #20]
/home/qemu-sgx/devel/optee/out-br/build/optee_test_ext-1.0/ta/supp_plugin/ta_entry.c:141
     346:	f04f 0320 	mov.w	r3, #32
     34a:	63fb      	str	r3, [r7, #60]	; 0x3c
/home/qemu-sgx/devel/optee/out-br/build/optee_test_ext-1.0/ta/supp_plugin/ta_entry.c:143
     34c:	f107 020c 	add.w	r2, r7, #12
     350:	f107 002c 	add.w	r0, r7, #44	; 0x2c
     354:	f04f 0300 	mov.w	r3, #0
     358:	9301      	str	r3, [sp, #4]
     35a:	6bfb      	ldr	r3, [r7, #60]	; 0x3c
     35c:	9300      	str	r3, [sp, #0]
     35e:	4613      	mov	r3, r2
     360:	f04f 0200 	mov.w	r2, #0
     364:	f04f 0100 	mov.w	r1, #0
     368:	f000 f98c 	bl	684 <tee_invoke_supp_plugin>
     36c:	4603      	mov	r3, r0
/home/qemu-sgx/devel/optee/out-br/build/optee_test_ext-1.0/ta/supp_plugin/ta_entry.c:144
     36e:	4618      	mov	r0, r3
     370:	f107 0740 	add.w	r7, r7, #64	; 0x40
     374:	46bd      	mov	sp, r7
     376:	bd80      	pop	{r7, pc}

00000378 <TA_InvokeCommandEntryPoint>:
TA_InvokeCommandEntryPoint():
/home/qemu-sgx/devel/optee/out-br/build/optee_test_ext-1.0/ta/supp_plugin/ta_entry.c:150
     378:	e96d 7e02 	strd	r7, lr, [sp, #-8]!
     37c:	b084      	sub	sp, #16
     37e:	af00      	add	r7, sp, #0
     380:	60f8      	str	r0, [r7, #12]
     382:	60b9      	str	r1, [r7, #8]
     384:	607a      	str	r2, [r7, #4]
     386:	603b      	str	r3, [r7, #0]
     388:	68bb      	ldr	r3, [r7, #8]
     38a:	2b06      	cmp	r3, #6
     38c:	d83c      	bhi.n	408 <TA_InvokeCommandEntryPoint+0x90>
     38e:	a202      	add	r2, pc, #8	; (adr r2, 398 <TA_InvokeCommandEntryPoint+0x20>)
     390:	f852 3023 	ldr.w	r3, [r2, r3, lsl #2]
     394:	441a      	add	r2, r3
     396:	4710      	bx	r2
     398:	0000001d 	.word	0x0000001d
     39c:	00000029 	.word	0x00000029
     3a0:	00000035 	.word	0x00000035
     3a4:	00000041 	.word	0x00000041
     3a8:	0000004d 	.word	0x0000004d
     3ac:	00000059 	.word	0x00000059
     3b0:	00000065 	.word	0x00000065
/home/qemu-sgx/devel/optee/out-br/build/optee_test_ext-1.0/ta/supp_plugin/ta_entry.c:153
     3b4:	6839      	ldr	r1, [r7, #0]
     3b6:	6878      	ldr	r0, [r7, #4]
     3b8:	f7ff fe70 	bl	9c <pass_values>
     3bc:	4603      	mov	r3, r0
     3be:	e027      	b.n	410 <TA_InvokeCommandEntryPoint+0x98>
/home/qemu-sgx/devel/optee/out-br/build/optee_test_ext-1.0/ta/supp_plugin/ta_entry.c:155
     3c0:	6839      	ldr	r1, [r7, #0]
     3c2:	6878      	ldr	r0, [r7, #4]
     3c4:	f7ff feb0 	bl	128 <write_array>
     3c8:	4603      	mov	r3, r0
     3ca:	e021      	b.n	410 <TA_InvokeCommandEntryPoint+0x98>
/home/qemu-sgx/devel/optee/out-br/build/optee_test_ext-1.0/ta/supp_plugin/ta_entry.c:157
     3cc:	6839      	ldr	r1, [r7, #0]
     3ce:	6878      	ldr	r0, [r7, #4]
     3d0:	f7ff fee8 	bl	1a4 <get_array>
     3d4:	4603      	mov	r3, r0
     3d6:	e01b      	b.n	410 <TA_InvokeCommandEntryPoint+0x98>
/home/qemu-sgx/devel/optee/out-br/build/optee_test_ext-1.0/ta/supp_plugin/ta_entry.c:159
     3d8:	6839      	ldr	r1, [r7, #0]
     3da:	6878      	ldr	r0, [r7, #4]
     3dc:	f7ff ff1c 	bl	218 <bad_input_uuid>
     3e0:	4603      	mov	r3, r0
     3e2:	e015      	b.n	410 <TA_InvokeCommandEntryPoint+0x98>
/home/qemu-sgx/devel/optee/out-br/build/optee_test_ext-1.0/ta/supp_plugin/ta_entry.c:161
     3e4:	6839      	ldr	r1, [r7, #0]
     3e6:	6878      	ldr	r0, [r7, #4]
     3e8:	f7ff ff44 	bl	274 <bad_input_data>
     3ec:	4603      	mov	r3, r0
     3ee:	e00f      	b.n	410 <TA_InvokeCommandEntryPoint+0x98>
/home/qemu-sgx/devel/optee/out-br/build/optee_test_ext-1.0/ta/supp_plugin/ta_entry.c:163
     3f0:	6839      	ldr	r1, [r7, #0]
     3f2:	6878      	ldr	r0, [r7, #4]
     3f4:	f7ff ff5c 	bl	2b0 <bad_input_inlen>
     3f8:	4603      	mov	r3, r0
     3fa:	e009      	b.n	410 <TA_InvokeCommandEntryPoint+0x98>
/home/qemu-sgx/devel/optee/out-br/build/optee_test_ext-1.0/ta/supp_plugin/ta_entry.c:165
     3fc:	6839      	ldr	r1, [r7, #0]
     3fe:	6878      	ldr	r0, [r7, #4]
     400:	f7ff ff84 	bl	30c <call_unknown_plugin>
     404:	4603      	mov	r3, r0
     406:	e003      	b.n	410 <TA_InvokeCommandEntryPoint+0x98>
/home/qemu-sgx/devel/optee/out-br/build/optee_test_ext-1.0/ta/supp_plugin/ta_entry.c:167
     408:	f04f 030a 	mov.w	r3, #10
     40c:	f6cf 73ff 	movt	r3, #65535	; 0xffff
/home/qemu-sgx/devel/optee/out-br/build/optee_test_ext-1.0/ta/supp_plugin/ta_entry.c:169
     410:	4618      	mov	r0, r3
     412:	f107 0710 	add.w	r7, r7, #16
     416:	46bd      	mov	sp, r7
     418:	bd80      	pop	{r7, pc}
     41a:	bf00      	nop

0000041c <__ta_entry>:
__ta_entry():
/home/qemu-sgx/devel/optee/optee_os/out/arm/export-ta_arm32/src/ta_entry_a32.S:20
     41c:	fa00463c 	blx	11d14 <__ta_entry_c>

00000420 <reg_pair_to_64>:
reg_pair_to_64():
/home/qemu-sgx/devel/optee/optee_os/lib/libutils/ext/include/util.h:159
     420:	f84d 4d1c 	str.w	r4, [sp, #-28]!
     424:	e9cd 5701 	strd	r5, r7, [sp, #4]
     428:	e9cd 8903 	strd	r8, r9, [sp, #12]
     42c:	e9cd ab05 	strd	sl, fp, [sp, #20]
     430:	b083      	sub	sp, #12
     432:	af00      	add	r7, sp, #0
     434:	6078      	str	r0, [r7, #4]
     436:	6039      	str	r1, [r7, #0]
/home/qemu-sgx/devel/optee/optee_os/lib/libutils/ext/include/util.h:160
     438:	687b      	ldr	r3, [r7, #4]
     43a:	f04f 0200 	mov.w	r2, #0
     43e:	469a      	mov	sl, r3
     440:	4693      	mov	fp, r2
     442:	f04f 0200 	mov.w	r2, #0
     446:	f04f 0300 	mov.w	r3, #0
     44a:	4653      	mov	r3, sl
     44c:	f04f 0200 	mov.w	r2, #0
     450:	6839      	ldr	r1, [r7, #0]
     452:	f04f 0000 	mov.w	r0, #0
     456:	460c      	mov	r4, r1
     458:	4605      	mov	r5, r0
     45a:	ea42 0804 	orr.w	r8, r2, r4
     45e:	ea43 0905 	orr.w	r9, r3, r5
     462:	4642      	mov	r2, r8
     464:	464b      	mov	r3, r9
/home/qemu-sgx/devel/optee/optee_os/lib/libutils/ext/include/util.h:161
     466:	4610      	mov	r0, r2
     468:	4619      	mov	r1, r3
     46a:	f107 070c 	add.w	r7, r7, #12
     46e:	46bd      	mov	sp, r7
     470:	e9dd 4500 	ldrd	r4, r5, [sp]
     474:	e9dd 7802 	ldrd	r7, r8, [sp, #8]
     478:	e9dd 9a04 	ldrd	r9, sl, [sp, #16]
     47c:	b006      	add	sp, #24
     47e:	f85d bb04 	ldr.w	fp, [sp], #4
     482:	4770      	bx	lr

00000484 <reg_pair_from_64>:
reg_pair_from_64():
/home/qemu-sgx/devel/optee/optee_os/lib/libutils/ext/include/util.h:165
     484:	f84d 7d04 	str.w	r7, [sp, #-4]!
     488:	b085      	sub	sp, #20
     48a:	af00      	add	r7, sp, #0
     48c:	e9c7 0102 	strd	r0, r1, [r7, #8]
     490:	607a      	str	r2, [r7, #4]
     492:	603b      	str	r3, [r7, #0]
/home/qemu-sgx/devel/optee/optee_os/lib/libutils/ext/include/util.h:166
     494:	e9d7 0102 	ldrd	r0, r1, [r7, #8]
     498:	f04f 0200 	mov.w	r2, #0
     49c:	f04f 0300 	mov.w	r3, #0
     4a0:	460a      	mov	r2, r1
     4a2:	f04f 0300 	mov.w	r3, #0
     4a6:	687b      	ldr	r3, [r7, #4]
     4a8:	601a      	str	r2, [r3, #0]
/home/qemu-sgx/devel/optee/optee_os/lib/libutils/ext/include/util.h:167
     4aa:	68ba      	ldr	r2, [r7, #8]
     4ac:	683b      	ldr	r3, [r7, #0]
     4ae:	601a      	str	r2, [r3, #0]
/home/qemu-sgx/devel/optee/optee_os/lib/libutils/ext/include/util.h:168
     4b0:	bf00      	nop
     4b2:	f107 0714 	add.w	r7, r7, #20
     4b6:	46bd      	mov	sp, r7
     4b8:	f85d 7b04 	ldr.w	r7, [sp], #4
     4bc:	4770      	bx	lr

000004be <invoke_system_pta>:
invoke_system_pta():
/home/qemu-sgx/devel/optee/optee_os/lib/libutee/tee_system_pta.c:16
     4be:	e96d 7e02 	strd	r7, lr, [sp, #-8]!
     4c2:	b088      	sub	sp, #32
     4c4:	af02      	add	r7, sp, #8
     4c6:	60f8      	str	r0, [r7, #12]
     4c8:	60b9      	str	r1, [r7, #8]
     4ca:	607a      	str	r2, [r7, #4]
/home/qemu-sgx/devel/optee/optee_os/lib/libutee/tee_system_pta.c:20
     4cc:	4b17      	ldr	r3, [pc, #92]	; (52c <invoke_system_pta+0x6e>)
     4ce:	447b      	add	r3, pc
     4d0:	681b      	ldr	r3, [r3, #0]
     4d2:	2b00      	cmp	r3, #0
     4d4:	d115      	bne.n	502 <invoke_system_pta+0x44>
/home/qemu-sgx/devel/optee/optee_os/lib/libutee/tee_system_pta.c:21
     4d6:	f04f 0300 	mov.w	r3, #0
     4da:	9301      	str	r3, [sp, #4]
     4dc:	4b14      	ldr	r3, [pc, #80]	; (530 <invoke_system_pta+0x72>)
     4de:	447b      	add	r3, pc
     4e0:	9300      	str	r3, [sp, #0]
     4e2:	f04f 0300 	mov.w	r3, #0
     4e6:	f04f 0200 	mov.w	r2, #0
     4ea:	f04f 31ff 	mov.w	r1, #4294967295	; 0xffffffff
     4ee:	4811      	ldr	r0, [pc, #68]	; (534 <invoke_system_pta+0x76>)
     4f0:	4478      	add	r0, pc
     4f2:	f001 fb6c 	bl	1bce <TEE_OpenTASession>
     4f6:	6178      	str	r0, [r7, #20]
/home/qemu-sgx/devel/optee/optee_os/lib/libutee/tee_system_pta.c:24
     4f8:	697b      	ldr	r3, [r7, #20]
     4fa:	2b00      	cmp	r3, #0
     4fc:	d001      	beq.n	502 <invoke_system_pta+0x44>
/home/qemu-sgx/devel/optee/optee_os/lib/libutee/tee_system_pta.c:25
     4fe:	697b      	ldr	r3, [r7, #20]
     500:	e00e      	b.n	520 <invoke_system_pta+0x62>
/home/qemu-sgx/devel/optee/optee_os/lib/libutee/tee_system_pta.c:28
     502:	4b0d      	ldr	r3, [pc, #52]	; (538 <invoke_system_pta+0x7a>)
     504:	447b      	add	r3, pc
     506:	6818      	ldr	r0, [r3, #0]
     508:	f04f 0300 	mov.w	r3, #0
     50c:	9301      	str	r3, [sp, #4]
     50e:	687b      	ldr	r3, [r7, #4]
     510:	9300      	str	r3, [sp, #0]
     512:	68bb      	ldr	r3, [r7, #8]
     514:	68fa      	ldr	r2, [r7, #12]
     516:	f04f 31ff 	mov.w	r1, #4294967295	; 0xffffffff
     51a:	f001 fbe7 	bl	1cec <TEE_InvokeTACommand>
     51e:	4603      	mov	r3, r0
/home/qemu-sgx/devel/optee/optee_os/lib/libutee/tee_system_pta.c:30
     520:	4618      	mov	r0, r3
     522:	f107 0718 	add.w	r7, r7, #24
     526:	46bd      	mov	sp, r7
     528:	bd80      	pop	{r7, pc}
     52a:	bf00      	nop
     52c:	0001ee06 	.word	0x0001ee06
     530:	0001edf6 	.word	0x0001edf6
     534:	00013384 	.word	0x00013384
     538:	0001edd0 	.word	0x0001edd0

0000053c <tee_map_zi>:
tee_map_zi():
/home/qemu-sgx/devel/optee/optee_os/lib/libutee/tee_system_pta.c:33
     53c:	e96d 7e02 	strd	r7, lr, [sp, #-8]!
     540:	b08c      	sub	sp, #48	; 0x30
     542:	af00      	add	r7, sp, #0
     544:	6078      	str	r0, [r7, #4]
     546:	6039      	str	r1, [r7, #0]
/home/qemu-sgx/devel/optee/optee_os/lib/libutee/tee_system_pta.c:34
     548:	f240 1331 	movw	r3, #305	; 0x131
     54c:	62fb      	str	r3, [r7, #44]	; 0x2c
/home/qemu-sgx/devel/optee/optee_os/lib/libutee/tee_system_pta.c:38
     54e:	f107 0308 	add.w	r3, r7, #8
     552:	efc0 0010 	vmov.i32	d16, #0	; 0x00000000
     556:	edc3 0b00 	vstr	d16, [r3]
     55a:	edc3 0b02 	vstr	d16, [r3, #8]
     55e:	edc3 0b04 	vstr	d16, [r3, #16]
     562:	edc3 0b06 	vstr	d16, [r3, #24]
/home/qemu-sgx/devel/optee/optee_os/lib/libutee/tee_system_pta.c:39
     566:	f04f 0300 	mov.w	r3, #0
     56a:	62bb      	str	r3, [r7, #40]	; 0x28
/home/qemu-sgx/devel/optee/optee_os/lib/libutee/tee_system_pta.c:41
     56c:	687b      	ldr	r3, [r7, #4]
     56e:	60bb      	str	r3, [r7, #8]
/home/qemu-sgx/devel/optee/optee_os/lib/libutee/tee_system_pta.c:42
     570:	68bb      	ldr	r3, [r7, #8]
     572:	687a      	ldr	r2, [r7, #4]
     574:	429a      	cmp	r2, r3
     576:	d002      	beq.n	57e <tee_map_zi+0x42>
/home/qemu-sgx/devel/optee/optee_os/lib/libutee/tee_system_pta.c:43
     578:	f04f 0300 	mov.w	r3, #0
     57c:	e025      	b.n	5ca <tee_map_zi+0x8e>
/home/qemu-sgx/devel/optee/optee_os/lib/libutee/tee_system_pta.c:44
     57e:	683b      	ldr	r3, [r7, #0]
     580:	2b00      	cmp	r3, #0
     582:	d009      	beq.n	598 <tee_map_zi+0x5c>
     584:	683b      	ldr	r3, [r7, #0]
     586:	2b04      	cmp	r3, #4
     588:	d103      	bne.n	592 <tee_map_zi+0x56>
/home/qemu-sgx/devel/optee/optee_os/lib/libutee/tee_system_pta.c:48
     58a:	f04f 0301 	mov.w	r3, #1
     58e:	60fb      	str	r3, [r7, #12]
/home/qemu-sgx/devel/optee/optee_os/lib/libutee/tee_system_pta.c:49
     590:	e003      	b.n	59a <tee_map_zi+0x5e>
/home/qemu-sgx/devel/optee/optee_os/lib/libutee/tee_system_pta.c:51
     592:	f04f 0300 	mov.w	r3, #0
     596:	e018      	b.n	5ca <tee_map_zi+0x8e>
/home/qemu-sgx/devel/optee/optee_os/lib/libutee/tee_system_pta.c:46
     598:	bf00      	nop
/home/qemu-sgx/devel/optee/optee_os/lib/libutee/tee_system_pta.c:54
     59a:	f107 0308 	add.w	r3, r7, #8
     59e:	461a      	mov	r2, r3
     5a0:	6af9      	ldr	r1, [r7, #44]	; 0x2c
     5a2:	f04f 0002 	mov.w	r0, #2
     5a6:	f7ff ff8a 	bl	4be <invoke_system_pta>
     5aa:	62b8      	str	r0, [r7, #40]	; 0x28
/home/qemu-sgx/devel/optee/optee_os/lib/libutee/tee_system_pta.c:55
     5ac:	6abb      	ldr	r3, [r7, #40]	; 0x28
     5ae:	2b00      	cmp	r3, #0
     5b0:	d002      	beq.n	5b8 <tee_map_zi+0x7c>
/home/qemu-sgx/devel/optee/optee_os/lib/libutee/tee_system_pta.c:56
     5b2:	f04f 0300 	mov.w	r3, #0
     5b6:	e008      	b.n	5ca <tee_map_zi+0x8e>
/home/qemu-sgx/devel/optee/optee_os/lib/libutee/tee_system_pta.c:58
     5b8:	693b      	ldr	r3, [r7, #16]
     5ba:	697a      	ldr	r2, [r7, #20]
     5bc:	4611      	mov	r1, r2
     5be:	4618      	mov	r0, r3
     5c0:	f7ff ff2e 	bl	420 <reg_pair_to_64>
     5c4:	4602      	mov	r2, r0
     5c6:	460b      	mov	r3, r1
     5c8:	4613      	mov	r3, r2
/home/qemu-sgx/devel/optee/optee_os/lib/libutee/tee_system_pta.c:60 (discriminator 1)
     5ca:	4618      	mov	r0, r3
     5cc:	f107 0730 	add.w	r7, r7, #48	; 0x30
     5d0:	46bd      	mov	sp, r7
     5d2:	bd80      	pop	{r7, pc}

000005d4 <tee_unmap>:
tee_unmap():
/home/qemu-sgx/devel/optee/optee_os/lib/libutee/tee_system_pta.c:63
     5d4:	e96d 4504 	strd	r4, r5, [sp, #-16]!
     5d8:	e9cd 7e02 	strd	r7, lr, [sp, #8]
     5dc:	b090      	sub	sp, #64	; 0x40
     5de:	af04      	add	r7, sp, #16
     5e0:	6078      	str	r0, [r7, #4]
     5e2:	6039      	str	r1, [r7, #0]
/home/qemu-sgx/devel/optee/optee_os/lib/libutee/tee_system_pta.c:64
     5e4:	f04f 0300 	mov.w	r3, #0
     5e8:	62fb      	str	r3, [r7, #44]	; 0x2c
/home/qemu-sgx/devel/optee/optee_os/lib/libutee/tee_system_pta.c:65
     5ea:	f04f 0311 	mov.w	r3, #17
     5ee:	62bb      	str	r3, [r7, #40]	; 0x28
/home/qemu-sgx/devel/optee/optee_os/lib/libutee/tee_system_pta.c:69
     5f0:	f107 0308 	add.w	r3, r7, #8
     5f4:	efc0 0010 	vmov.i32	d16, #0	; 0x00000000
     5f8:	edc3 0b00 	vstr	d16, [r3]
     5fc:	edc3 0b02 	vstr	d16, [r3, #8]
     600:	edc3 0b04 	vstr	d16, [r3, #16]
     604:	edc3 0b06 	vstr	d16, [r3, #24]
/home/qemu-sgx/devel/optee/optee_os/lib/libutee/tee_system_pta.c:71
     608:	683b      	ldr	r3, [r7, #0]
     60a:	60bb      	str	r3, [r7, #8]
/home/qemu-sgx/devel/optee/optee_os/lib/libutee/tee_system_pta.c:72
     60c:	687b      	ldr	r3, [r7, #4]
     60e:	f04f 0200 	mov.w	r2, #0
     612:	461c      	mov	r4, r3
     614:	4615      	mov	r5, r2
     616:	f107 0308 	add.w	r3, r7, #8
     61a:	f103 010c 	add.w	r1, r3, #12
     61e:	f107 0308 	add.w	r3, r7, #8
     622:	f103 0208 	add.w	r2, r3, #8
     626:	460b      	mov	r3, r1
     628:	4620      	mov	r0, r4
     62a:	4629      	mov	r1, r5
     62c:	f7ff ff2a 	bl	484 <reg_pair_from_64>
/home/qemu-sgx/devel/optee/optee_os/lib/libutee/tee_system_pta.c:74
     630:	f107 0308 	add.w	r3, r7, #8
     634:	461a      	mov	r2, r3
     636:	6ab9      	ldr	r1, [r7, #40]	; 0x28
     638:	f04f 0003 	mov.w	r0, #3
     63c:	f7ff ff3f 	bl	4be <invoke_system_pta>
     640:	62f8      	str	r0, [r7, #44]	; 0x2c
/home/qemu-sgx/devel/optee/optee_os/lib/libutee/tee_system_pta.c:75
     642:	6afb      	ldr	r3, [r7, #44]	; 0x2c
     644:	2b00      	cmp	r3, #0
     646:	d010      	beq.n	66a <tee_unmap+0x96>
/home/qemu-sgx/devel/optee/optee_os/lib/libutee/tee_system_pta.c:76
     648:	683b      	ldr	r3, [r7, #0]
     64a:	9302      	str	r3, [sp, #8]
     64c:	687b      	ldr	r3, [r7, #4]
     64e:	9301      	str	r3, [sp, #4]
     650:	4b0a      	ldr	r3, [pc, #40]	; (67c <tee_unmap+0xa8>)
     652:	447b      	add	r3, pc
     654:	9300      	str	r3, [sp, #0]
     656:	f04f 0301 	mov.w	r3, #1
     65a:	f04f 0201 	mov.w	r2, #1
     65e:	f04f 014c 	mov.w	r1, #76	; 0x4c
     662:	4807      	ldr	r0, [pc, #28]	; (680 <tee_unmap+0xac>)
     664:	4478      	add	r0, pc
     666:	f00d faea 	bl	dc3e <trace_printf>
/home/qemu-sgx/devel/optee/optee_os/lib/libutee/tee_system_pta.c:78
     66a:	6afb      	ldr	r3, [r7, #44]	; 0x2c
/home/qemu-sgx/devel/optee/optee_os/lib/libutee/tee_system_pta.c:79
     66c:	4618      	mov	r0, r3
     66e:	f107 0730 	add.w	r7, r7, #48	; 0x30
     672:	46bd      	mov	sp, r7
     674:	e9dd 4500 	ldrd	r4, r5, [sp]
     678:	b002      	add	sp, #8
     67a:	bd80      	pop	{r7, pc}
     67c:	000131ca 	.word	0x000131ca
     680:	00013220 	.word	0x00013220

00000684 <tee_invoke_supp_plugin>:
tee_invoke_supp_plugin():
/home/qemu-sgx/devel/optee/optee_os/lib/libutee/tee_system_pta.c:84
     684:	e96d 7e02 	strd	r7, lr, [sp, #-8]!
     688:	b090      	sub	sp, #64	; 0x40
     68a:	af02      	add	r7, sp, #8
     68c:	60f8      	str	r0, [r7, #12]
     68e:	60b9      	str	r1, [r7, #8]
     690:	607a      	str	r2, [r7, #4]
     692:	603b      	str	r3, [r7, #0]
/home/qemu-sgx/devel/optee/optee_os/lib/libutee/tee_system_pta.c:85
     694:	f04f 0300 	mov.w	r3, #0
     698:	637b      	str	r3, [r7, #52]	; 0x34
/home/qemu-sgx/devel/optee/optee_os/lib/libutee/tee_system_pta.c:86
     69a:	f242 7315 	movw	r3, #10005	; 0x2715
     69e:	633b      	str	r3, [r7, #48]	; 0x30
/home/qemu-sgx/devel/optee/optee_os/lib/libutee/tee_system_pta.c:90
     6a0:	f107 0310 	add.w	r3, r7, #16
     6a4:	efc0 0010 	vmov.i32	d16, #0	; 0x00000000
     6a8:	edc3 0b00 	vstr	d16, [r3]
     6ac:	edc3 0b02 	vstr	d16, [r3, #8]
     6b0:	edc3 0b04 	vstr	d16, [r3, #16]
     6b4:	edc3 0b06 	vstr	d16, [r3, #24]
/home/qemu-sgx/devel/optee/optee_os/lib/libutee/tee_system_pta.c:92
     6b8:	68fb      	ldr	r3, [r7, #12]
     6ba:	2b00      	cmp	r3, #0
     6bc:	d00b      	beq.n	6d6 <tee_invoke_supp_plugin+0x52>
/home/qemu-sgx/devel/optee/optee_os/lib/libutee/tee_system_pta.c:92 (discriminator 1)
     6be:	6c3b      	ldr	r3, [r7, #64]	; 0x40
     6c0:	2b00      	cmp	r3, #0
     6c2:	d002      	beq.n	6ca <tee_invoke_supp_plugin+0x46>
/home/qemu-sgx/devel/optee/optee_os/lib/libutee/tee_system_pta.c:92 (discriminator 2)
     6c4:	683b      	ldr	r3, [r7, #0]
     6c6:	2b00      	cmp	r3, #0
     6c8:	d005      	beq.n	6d6 <tee_invoke_supp_plugin+0x52>
/home/qemu-sgx/devel/optee/optee_os/lib/libutee/tee_system_pta.c:92 (discriminator 4)
     6ca:	6c3b      	ldr	r3, [r7, #64]	; 0x40
     6cc:	2b00      	cmp	r3, #0
     6ce:	d107      	bne.n	6e0 <tee_invoke_supp_plugin+0x5c>
/home/qemu-sgx/devel/optee/optee_os/lib/libutee/tee_system_pta.c:92 (discriminator 5)
     6d0:	683b      	ldr	r3, [r7, #0]
     6d2:	2b00      	cmp	r3, #0
     6d4:	d004      	beq.n	6e0 <tee_invoke_supp_plugin+0x5c>
/home/qemu-sgx/devel/optee/optee_os/lib/libutee/tee_system_pta.c:93
     6d6:	f04f 0306 	mov.w	r3, #6
     6da:	f6cf 73ff 	movt	r3, #65535	; 0xffff
     6de:	e02e      	b.n	73e <tee_invoke_supp_plugin+0xba>
/home/qemu-sgx/devel/optee/optee_os/lib/libutee/tee_system_pta.c:95
     6e0:	68fb      	ldr	r3, [r7, #12]
     6e2:	613b      	str	r3, [r7, #16]
/home/qemu-sgx/devel/optee/optee_os/lib/libutee/tee_system_pta.c:96
     6e4:	f04f 0310 	mov.w	r3, #16
     6e8:	617b      	str	r3, [r7, #20]
/home/qemu-sgx/devel/optee/optee_os/lib/libutee/tee_system_pta.c:97
     6ea:	68bb      	ldr	r3, [r7, #8]
     6ec:	61bb      	str	r3, [r7, #24]
/home/qemu-sgx/devel/optee/optee_os/lib/libutee/tee_system_pta.c:98
     6ee:	687b      	ldr	r3, [r7, #4]
     6f0:	61fb      	str	r3, [r7, #28]
/home/qemu-sgx/devel/optee/optee_os/lib/libutee/tee_system_pta.c:99
     6f2:	683b      	ldr	r3, [r7, #0]
     6f4:	623b      	str	r3, [r7, #32]
/home/qemu-sgx/devel/optee/optee_os/lib/libutee/tee_system_pta.c:100
     6f6:	6c3b      	ldr	r3, [r7, #64]	; 0x40
     6f8:	627b      	str	r3, [r7, #36]	; 0x24
/home/qemu-sgx/devel/optee/optee_os/lib/libutee/tee_system_pta.c:102
     6fa:	f107 0310 	add.w	r3, r7, #16
     6fe:	461a      	mov	r2, r3
     700:	6b39      	ldr	r1, [r7, #48]	; 0x30
     702:	f04f 000d 	mov.w	r0, #13
     706:	f7ff feda 	bl	4be <invoke_system_pta>
     70a:	6378      	str	r0, [r7, #52]	; 0x34
/home/qemu-sgx/devel/optee/optee_os/lib/libutee/tee_system_pta.c:104
     70c:	6b7b      	ldr	r3, [r7, #52]	; 0x34
     70e:	2b00      	cmp	r3, #0
     710:	d00e      	beq.n	730 <tee_invoke_supp_plugin+0xac>
/home/qemu-sgx/devel/optee/optee_os/lib/libutee/tee_system_pta.c:105
     712:	6b7b      	ldr	r3, [r7, #52]	; 0x34
     714:	9301      	str	r3, [sp, #4]
     716:	4b0c      	ldr	r3, [pc, #48]	; (748 <tee_invoke_supp_plugin+0xc4>)
     718:	447b      	add	r3, pc
     71a:	9300      	str	r3, [sp, #0]
     71c:	f04f 0301 	mov.w	r3, #1
     720:	f04f 0201 	mov.w	r2, #1
     724:	f04f 0169 	mov.w	r1, #105	; 0x69
     728:	4808      	ldr	r0, [pc, #32]	; (74c <tee_invoke_supp_plugin+0xc8>)
     72a:	4478      	add	r0, pc
     72c:	f00d fa87 	bl	dc3e <trace_printf>
/home/qemu-sgx/devel/optee/optee_os/lib/libutee/tee_system_pta.c:107
     730:	6c7b      	ldr	r3, [r7, #68]	; 0x44
     732:	2b00      	cmp	r3, #0
     734:	d002      	beq.n	73c <tee_invoke_supp_plugin+0xb8>
/home/qemu-sgx/devel/optee/optee_os/lib/libutee/tee_system_pta.c:108
     736:	6aba      	ldr	r2, [r7, #40]	; 0x28
     738:	6c7b      	ldr	r3, [r7, #68]	; 0x44
     73a:	601a      	str	r2, [r3, #0]
/home/qemu-sgx/devel/optee/optee_os/lib/libutee/tee_system_pta.c:110
     73c:	6b7b      	ldr	r3, [r7, #52]	; 0x34
/home/qemu-sgx/devel/optee/optee_os/lib/libutee/tee_system_pta.c:111 (discriminator 1)
     73e:	4618      	mov	r0, r3
     740:	f107 0738 	add.w	r7, r7, #56	; 0x38
     744:	46bd      	mov	sp, r7
     746:	bd80      	pop	{r7, pc}
     748:	00013130 	.word	0x00013130
     74c:	00013166 	.word	0x00013166

00000750 <_utee_panic>:
_utee_panic():
/home/qemu-sgx/devel/optee/optee_os/lib/libutee/arch/arm/utee_syscalls_a32.S:48
     750:	e92d4fff 	push	{r0, r1, r2, r3, r4, r5, r6, r7, r8, r9, sl, fp, lr}
/home/qemu-sgx/devel/optee/optee_os/lib/libutee/arch/arm/utee_syscalls_a32.S:50
     754:	e1a0e00f 	mov	lr, pc
/home/qemu-sgx/devel/optee/optee_os/lib/libutee/arch/arm/utee_syscalls_a32.S:51
     758:	e52de004 	push	{lr}		; (str lr, [sp, #-4]!)
/home/qemu-sgx/devel/optee/optee_os/lib/libutee/arch/arm/utee_syscalls_a32.S:53
     75c:	e1a0100d 	mov	r1, sp
/home/qemu-sgx/devel/optee/optee_os/lib/libutee/arch/arm/utee_syscalls_a32.S:54
     760:	eb000009 	bl	78c <__utee_panic>

00000764 <_utee_return>:
_utee_return():
/home/qemu-sgx/devel/optee/optee_os/lib/libutee/arch/arm/utee_syscalls_asm.S:8
     764:	e92d40e0 	push	{r5, r6, r7, lr}
     768:	e3a07000 	mov	r7, #0
     76c:	e3a06000 	mov	r6, #0
     770:	ef000000 	svc	0x00000000
     774:	e8bd80e0 	pop	{r5, r6, r7, pc}

00000778 <_utee_log>:
_utee_log():
/home/qemu-sgx/devel/optee/optee_os/lib/libutee/arch/arm/utee_syscalls_asm.S:10
     778:	e92d40e0 	push	{r5, r6, r7, lr}
     77c:	e3a07001 	mov	r7, #1
     780:	e3a06000 	mov	r6, #0
     784:	ef000000 	svc	0x00000000
     788:	e8bd80e0 	pop	{r5, r6, r7, pc}

0000078c <__utee_panic>:
__utee_panic():
/home/qemu-sgx/devel/optee/optee_os/lib/libutee/arch/arm/utee_syscalls_asm.S:12
     78c:	e92d40e0 	push	{r5, r6, r7, lr}
     790:	e3a07002 	mov	r7, #2
     794:	e3a06000 	mov	r6, #0
     798:	ef000000 	svc	0x00000000
     79c:	e8bd80e0 	pop	{r5, r6, r7, pc}

000007a0 <_utee_get_property>:
_utee_get_property():
/home/qemu-sgx/devel/optee/optee_os/lib/libutee/arch/arm/utee_syscalls_asm.S:14
     7a0:	e92d40e0 	push	{r5, r6, r7, lr}
     7a4:	e3a07003 	mov	r7, #3
     7a8:	e3a06003 	mov	r6, #3
     7ac:	e28d5010 	add	r5, sp, #16
     7b0:	ef000000 	svc	0x00000000
     7b4:	e8bd80e0 	pop	{r5, r6, r7, pc}

000007b8 <_utee_get_property_name_to_index>:
_utee_get_property_name_to_index():
/home/qemu-sgx/devel/optee/optee_os/lib/libutee/arch/arm/utee_syscalls_asm.S:16
     7b8:	e92d40e0 	push	{r5, r6, r7, lr}
     7bc:	e3a07004 	mov	r7, #4
     7c0:	e3a06000 	mov	r6, #0
     7c4:	ef000000 	svc	0x00000000
     7c8:	e8bd80e0 	pop	{r5, r6, r7, pc}

000007cc <_utee_open_ta_session>:
_utee_open_ta_session():
/home/qemu-sgx/devel/optee/optee_os/lib/libutee/arch/arm/utee_syscalls_asm.S:19
     7cc:	e92d40e0 	push	{r5, r6, r7, lr}
     7d0:	e3a07005 	mov	r7, #5
     7d4:	e3a06001 	mov	r6, #1
     7d8:	e28d5010 	add	r5, sp, #16
     7dc:	ef000000 	svc	0x00000000
     7e0:	e8bd80e0 	pop	{r5, r6, r7, pc}

000007e4 <_utee_close_ta_session>:
_utee_close_ta_session():
/home/qemu-sgx/devel/optee/optee_os/lib/libutee/arch/arm/utee_syscalls_asm.S:21
     7e4:	e92d40e0 	push	{r5, r6, r7, lr}
     7e8:	e3a07006 	mov	r7, #6
     7ec:	e3a06000 	mov	r6, #0
     7f0:	ef000000 	svc	0x00000000
     7f4:	e8bd80e0 	pop	{r5, r6, r7, pc}

000007f8 <_utee_invoke_ta_command>:
_utee_invoke_ta_command():
/home/qemu-sgx/devel/optee/optee_os/lib/libutee/arch/arm/utee_syscalls_asm.S:23
     7f8:	e92d40e0 	push	{r5, r6, r7, lr}
     7fc:	e3a07007 	mov	r7, #7
     800:	e3a06001 	mov	r6, #1
     804:	e28d5010 	add	r5, sp, #16
     808:	ef000000 	svc	0x00000000
     80c:	e8bd80e0 	pop	{r5, r6, r7, pc}

00000810 <_utee_get_cancellation_flag>:
_utee_get_cancellation_flag():
/home/qemu-sgx/devel/optee/optee_os/lib/libutee/arch/arm/utee_syscalls_asm.S:25
     810:	e92d40e0 	push	{r5, r6, r7, lr}
     814:	e3a07009 	mov	r7, #9
     818:	e3a06000 	mov	r6, #0
     81c:	ef000000 	svc	0x00000000
     820:	e8bd80e0 	pop	{r5, r6, r7, pc}

00000824 <_utee_check_access_rights>:
_utee_check_access_rights():
/home/qemu-sgx/devel/optee/optee_os/lib/libutee/arch/arm/utee_syscalls_asm.S:28
     824:	e92d40e0 	push	{r5, r6, r7, lr}
     828:	e3a07008 	mov	r7, #8
     82c:	e3a06000 	mov	r6, #0
     830:	ef000000 	svc	0x00000000
     834:	e8bd80e0 	pop	{r5, r6, r7, pc}

00000838 <_utee_unmask_cancellation>:
_utee_unmask_cancellation():
/home/qemu-sgx/devel/optee/optee_os/lib/libutee/arch/arm/utee_syscalls_asm.S:30
     838:	e92d40e0 	push	{r5, r6, r7, lr}
     83c:	e3a0700a 	mov	r7, #10
     840:	e3a06000 	mov	r6, #0
     844:	ef000000 	svc	0x00000000
     848:	e8bd80e0 	pop	{r5, r6, r7, pc}

0000084c <_utee_mask_cancellation>:
_utee_mask_cancellation():
/home/qemu-sgx/devel/optee/optee_os/lib/libutee/arch/arm/utee_syscalls_asm.S:32
     84c:	e92d40e0 	push	{r5, r6, r7, lr}
     850:	e3a0700b 	mov	r7, #11
     854:	e3a06000 	mov	r6, #0
     858:	ef000000 	svc	0x00000000
     85c:	e8bd80e0 	pop	{r5, r6, r7, pc}

00000860 <_utee_wait>:
_utee_wait():
/home/qemu-sgx/devel/optee/optee_os/lib/libutee/arch/arm/utee_syscalls_asm.S:34
     860:	e92d40e0 	push	{r5, r6, r7, lr}
     864:	e3a0700c 	mov	r7, #12
     868:	e3a06000 	mov	r6, #0
     86c:	ef000000 	svc	0x00000000
     870:	e8bd80e0 	pop	{r5, r6, r7, pc}

00000874 <_utee_get_time>:
_utee_get_time():
/home/qemu-sgx/devel/optee/optee_os/lib/libutee/arch/arm/utee_syscalls_asm.S:36
     874:	e92d40e0 	push	{r5, r6, r7, lr}
     878:	e3a0700d 	mov	r7, #13
     87c:	e3a06000 	mov	r6, #0
     880:	ef000000 	svc	0x00000000
     884:	e8bd80e0 	pop	{r5, r6, r7, pc}

00000888 <_utee_set_ta_time>:
_utee_set_ta_time():
/home/qemu-sgx/devel/optee/optee_os/lib/libutee/arch/arm/utee_syscalls_asm.S:38
     888:	e92d40e0 	push	{r5, r6, r7, lr}
     88c:	e3a0700e 	mov	r7, #14
     890:	e3a06000 	mov	r6, #0
     894:	ef000000 	svc	0x00000000
     898:	e8bd80e0 	pop	{r5, r6, r7, pc}

0000089c <_utee_cryp_state_alloc>:
_utee_cryp_state_alloc():
/home/qemu-sgx/devel/optee/optee_os/lib/libutee/arch/arm/utee_syscalls_asm.S:40
     89c:	e92d40e0 	push	{r5, r6, r7, lr}
     8a0:	e3a0700f 	mov	r7, #15
     8a4:	e3a06001 	mov	r6, #1
     8a8:	e28d5010 	add	r5, sp, #16
     8ac:	ef000000 	svc	0x00000000
     8b0:	e8bd80e0 	pop	{r5, r6, r7, pc}

000008b4 <_utee_cryp_state_copy>:
_utee_cryp_state_copy():
/home/qemu-sgx/devel/optee/optee_os/lib/libutee/arch/arm/utee_syscalls_asm.S:42
     8b4:	e92d40e0 	push	{r5, r6, r7, lr}
     8b8:	e3a07010 	mov	r7, #16
     8bc:	e3a06000 	mov	r6, #0
     8c0:	ef000000 	svc	0x00000000
     8c4:	e8bd80e0 	pop	{r5, r6, r7, pc}

000008c8 <_utee_cryp_state_free>:
_utee_cryp_state_free():
/home/qemu-sgx/devel/optee/optee_os/lib/libutee/arch/arm/utee_syscalls_asm.S:44
     8c8:	e92d40e0 	push	{r5, r6, r7, lr}
     8cc:	e3a07011 	mov	r7, #17
     8d0:	e3a06000 	mov	r6, #0
     8d4:	ef000000 	svc	0x00000000
     8d8:	e8bd80e0 	pop	{r5, r6, r7, pc}

000008dc <_utee_hash_init>:
_utee_hash_init():
/home/qemu-sgx/devel/optee/optee_os/lib/libutee/arch/arm/utee_syscalls_asm.S:46
     8dc:	e92d40e0 	push	{r5, r6, r7, lr}
     8e0:	e3a07012 	mov	r7, #18
     8e4:	e3a06000 	mov	r6, #0
     8e8:	ef000000 	svc	0x00000000
     8ec:	e8bd80e0 	pop	{r5, r6, r7, pc}

000008f0 <_utee_hash_update>:
_utee_hash_update():
/home/qemu-sgx/devel/optee/optee_os/lib/libutee/arch/arm/utee_syscalls_asm.S:48
     8f0:	e92d40e0 	push	{r5, r6, r7, lr}
     8f4:	e3a07013 	mov	r7, #19
     8f8:	e3a06000 	mov	r6, #0
     8fc:	ef000000 	svc	0x00000000
     900:	e8bd80e0 	pop	{r5, r6, r7, pc}

00000904 <_utee_hash_final>:
_utee_hash_final():
/home/qemu-sgx/devel/optee/optee_os/lib/libutee/arch/arm/utee_syscalls_asm.S:50
     904:	e92d40e0 	push	{r5, r6, r7, lr}
     908:	e3a07014 	mov	r7, #20
     90c:	e3a06001 	mov	r6, #1
     910:	e28d5010 	add	r5, sp, #16
     914:	ef000000 	svc	0x00000000
     918:	e8bd80e0 	pop	{r5, r6, r7, pc}

0000091c <_utee_cipher_init>:
_utee_cipher_init():
/home/qemu-sgx/devel/optee/optee_os/lib/libutee/arch/arm/utee_syscalls_asm.S:52
     91c:	e92d40e0 	push	{r5, r6, r7, lr}
     920:	e3a07015 	mov	r7, #21
     924:	e3a06000 	mov	r6, #0
     928:	ef000000 	svc	0x00000000
     92c:	e8bd80e0 	pop	{r5, r6, r7, pc}

00000930 <_utee_cipher_update>:
_utee_cipher_update():
/home/qemu-sgx/devel/optee/optee_os/lib/libutee/arch/arm/utee_syscalls_asm.S:54
     930:	e92d40e0 	push	{r5, r6, r7, lr}
     934:	e3a07016 	mov	r7, #22
     938:	e3a06001 	mov	r6, #1
     93c:	e28d5010 	add	r5, sp, #16
     940:	ef000000 	svc	0x00000000
     944:	e8bd80e0 	pop	{r5, r6, r7, pc}

00000948 <_utee_cipher_final>:
_utee_cipher_final():
/home/qemu-sgx/devel/optee/optee_os/lib/libutee/arch/arm/utee_syscalls_asm.S:56
     948:	e92d40e0 	push	{r5, r6, r7, lr}
     94c:	e3a07017 	mov	r7, #23
     950:	e3a06001 	mov	r6, #1
     954:	e28d5010 	add	r5, sp, #16
     958:	ef000000 	svc	0x00000000
     95c:	e8bd80e0 	pop	{r5, r6, r7, pc}

00000960 <_utee_cryp_obj_get_info>:
_utee_cryp_obj_get_info():
/home/qemu-sgx/devel/optee/optee_os/lib/libutee/arch/arm/utee_syscalls_asm.S:58
     960:	e92d40e0 	push	{r5, r6, r7, lr}
     964:	e3a07018 	mov	r7, #24
     968:	e3a06000 	mov	r6, #0
     96c:	ef000000 	svc	0x00000000
     970:	e8bd80e0 	pop	{r5, r6, r7, pc}

00000974 <_utee_cryp_obj_restrict_usage>:
_utee_cryp_obj_restrict_usage():
/home/qemu-sgx/devel/optee/optee_os/lib/libutee/arch/arm/utee_syscalls_asm.S:60
     974:	e92d40e0 	push	{r5, r6, r7, lr}
     978:	e3a07019 	mov	r7, #25
     97c:	e3a06000 	mov	r6, #0
     980:	ef000000 	svc	0x00000000
     984:	e8bd80e0 	pop	{r5, r6, r7, pc}

00000988 <_utee_cryp_obj_get_attr>:
_utee_cryp_obj_get_attr():
/home/qemu-sgx/devel/optee/optee_os/lib/libutee/arch/arm/utee_syscalls_asm.S:63
     988:	e92d40e0 	push	{r5, r6, r7, lr}
     98c:	e3a0701a 	mov	r7, #26
     990:	e3a06000 	mov	r6, #0
     994:	ef000000 	svc	0x00000000
     998:	e8bd80e0 	pop	{r5, r6, r7, pc}

0000099c <_utee_cryp_obj_alloc>:
_utee_cryp_obj_alloc():
/home/qemu-sgx/devel/optee/optee_os/lib/libutee/arch/arm/utee_syscalls_asm.S:65
     99c:	e92d40e0 	push	{r5, r6, r7, lr}
     9a0:	e3a0701b 	mov	r7, #27
     9a4:	e3a06000 	mov	r6, #0
     9a8:	ef000000 	svc	0x00000000
     9ac:	e8bd80e0 	pop	{r5, r6, r7, pc}

000009b0 <_utee_cryp_obj_close>:
_utee_cryp_obj_close():
/home/qemu-sgx/devel/optee/optee_os/lib/libutee/arch/arm/utee_syscalls_asm.S:67
     9b0:	e92d40e0 	push	{r5, r6, r7, lr}
     9b4:	e3a0701c 	mov	r7, #28
     9b8:	e3a06000 	mov	r6, #0
     9bc:	ef000000 	svc	0x00000000
     9c0:	e8bd80e0 	pop	{r5, r6, r7, pc}

000009c4 <_utee_cryp_obj_reset>:
_utee_cryp_obj_reset():
/home/qemu-sgx/devel/optee/optee_os/lib/libutee/arch/arm/utee_syscalls_asm.S:69
     9c4:	e92d40e0 	push	{r5, r6, r7, lr}
     9c8:	e3a0701d 	mov	r7, #29
     9cc:	e3a06000 	mov	r6, #0
     9d0:	ef000000 	svc	0x00000000
     9d4:	e8bd80e0 	pop	{r5, r6, r7, pc}

000009d8 <_utee_cryp_obj_populate>:
_utee_cryp_obj_populate():
/home/qemu-sgx/devel/optee/optee_os/lib/libutee/arch/arm/utee_syscalls_asm.S:71
     9d8:	e92d40e0 	push	{r5, r6, r7, lr}
     9dc:	e3a0701e 	mov	r7, #30
     9e0:	e3a06000 	mov	r6, #0
     9e4:	ef000000 	svc	0x00000000
     9e8:	e8bd80e0 	pop	{r5, r6, r7, pc}

000009ec <_utee_cryp_obj_copy>:
_utee_cryp_obj_copy():
/home/qemu-sgx/devel/optee/optee_os/lib/libutee/arch/arm/utee_syscalls_asm.S:73
     9ec:	e92d40e0 	push	{r5, r6, r7, lr}
     9f0:	e3a0701f 	mov	r7, #31
     9f4:	e3a06000 	mov	r6, #0
     9f8:	ef000000 	svc	0x00000000
     9fc:	e8bd80e0 	pop	{r5, r6, r7, pc}

00000a00 <_utee_cryp_derive_key>:
_utee_cryp_derive_key():
/home/qemu-sgx/devel/optee/optee_os/lib/libutee/arch/arm/utee_syscalls_asm.S:75
     a00:	e92d40e0 	push	{r5, r6, r7, lr}
     a04:	e3a07020 	mov	r7, #32
     a08:	e3a06000 	mov	r6, #0
     a0c:	ef000000 	svc	0x00000000
     a10:	e8bd80e0 	pop	{r5, r6, r7, pc}

00000a14 <_utee_cryp_random_number_generate>:
_utee_cryp_random_number_generate():
/home/qemu-sgx/devel/optee/optee_os/lib/libutee/arch/arm/utee_syscalls_asm.S:77
     a14:	e92d40e0 	push	{r5, r6, r7, lr}
     a18:	e3a07021 	mov	r7, #33	; 0x21
     a1c:	e3a06000 	mov	r6, #0
     a20:	ef000000 	svc	0x00000000
     a24:	e8bd80e0 	pop	{r5, r6, r7, pc}

00000a28 <_utee_authenc_init>:
_utee_authenc_init():
/home/qemu-sgx/devel/optee/optee_os/lib/libutee/arch/arm/utee_syscalls_asm.S:80
     a28:	e92d40e0 	push	{r5, r6, r7, lr}
     a2c:	e3a07022 	mov	r7, #34	; 0x22
     a30:	e3a06002 	mov	r6, #2
     a34:	e28d5010 	add	r5, sp, #16
     a38:	ef000000 	svc	0x00000000
     a3c:	e8bd80e0 	pop	{r5, r6, r7, pc}

00000a40 <_utee_authenc_update_aad>:
_utee_authenc_update_aad():
/home/qemu-sgx/devel/optee/optee_os/lib/libutee/arch/arm/utee_syscalls_asm.S:82
     a40:	e92d40e0 	push	{r5, r6, r7, lr}
     a44:	e3a07023 	mov	r7, #35	; 0x23
     a48:	e3a06000 	mov	r6, #0
     a4c:	ef000000 	svc	0x00000000
     a50:	e8bd80e0 	pop	{r5, r6, r7, pc}

00000a54 <_utee_authenc_update_payload>:
_utee_authenc_update_payload():
/home/qemu-sgx/devel/optee/optee_os/lib/libutee/arch/arm/utee_syscalls_asm.S:84
     a54:	e92d40e0 	push	{r5, r6, r7, lr}
     a58:	e3a07024 	mov	r7, #36	; 0x24
     a5c:	e3a06001 	mov	r6, #1
     a60:	e28d5010 	add	r5, sp, #16
     a64:	ef000000 	svc	0x00000000
     a68:	e8bd80e0 	pop	{r5, r6, r7, pc}

00000a6c <_utee_authenc_enc_final>:
_utee_authenc_enc_final():
/home/qemu-sgx/devel/optee/optee_os/lib/libutee/arch/arm/utee_syscalls_asm.S:87
     a6c:	e92d40e0 	push	{r5, r6, r7, lr}
     a70:	e3a07025 	mov	r7, #37	; 0x25
     a74:	e3a06003 	mov	r6, #3
     a78:	e28d5010 	add	r5, sp, #16
     a7c:	ef000000 	svc	0x00000000
     a80:	e8bd80e0 	pop	{r5, r6, r7, pc}

00000a84 <_utee_authenc_dec_final>:
_utee_authenc_dec_final():
/home/qemu-sgx/devel/optee/optee_os/lib/libutee/arch/arm/utee_syscalls_asm.S:89
     a84:	e92d40e0 	push	{r5, r6, r7, lr}
     a88:	e3a07026 	mov	r7, #38	; 0x26
     a8c:	e3a06003 	mov	r6, #3
     a90:	e28d5010 	add	r5, sp, #16
     a94:	ef000000 	svc	0x00000000
     a98:	e8bd80e0 	pop	{r5, r6, r7, pc}

00000a9c <_utee_asymm_operate>:
_utee_asymm_operate():
/home/qemu-sgx/devel/optee/optee_os/lib/libutee/arch/arm/utee_syscalls_asm.S:91
     a9c:	e92d40e0 	push	{r5, r6, r7, lr}
     aa0:	e3a07027 	mov	r7, #39	; 0x27
     aa4:	e3a06003 	mov	r6, #3
     aa8:	e28d5010 	add	r5, sp, #16
     aac:	ef000000 	svc	0x00000000
     ab0:	e8bd80e0 	pop	{r5, r6, r7, pc}

00000ab4 <_utee_asymm_verify>:
_utee_asymm_verify():
/home/qemu-sgx/devel/optee/optee_os/lib/libutee/arch/arm/utee_syscalls_asm.S:93
     ab4:	e92d40e0 	push	{r5, r6, r7, lr}
     ab8:	e3a07028 	mov	r7, #40	; 0x28
     abc:	e3a06003 	mov	r6, #3
     ac0:	e28d5010 	add	r5, sp, #16
     ac4:	ef000000 	svc	0x00000000
     ac8:	e8bd80e0 	pop	{r5, r6, r7, pc}

00000acc <_utee_storage_obj_open>:
_utee_storage_obj_open():
/home/qemu-sgx/devel/optee/optee_os/lib/libutee/arch/arm/utee_syscalls_asm.S:95
     acc:	e92d40e0 	push	{r5, r6, r7, lr}
     ad0:	e3a07029 	mov	r7, #41	; 0x29
     ad4:	e3a06001 	mov	r6, #1
     ad8:	e28d5010 	add	r5, sp, #16
     adc:	ef000000 	svc	0x00000000
     ae0:	e8bd80e0 	pop	{r5, r6, r7, pc}

00000ae4 <_utee_storage_obj_create>:
_utee_storage_obj_create():
/home/qemu-sgx/devel/optee/optee_os/lib/libutee/arch/arm/utee_syscalls_asm.S:97
     ae4:	e92d40e0 	push	{r5, r6, r7, lr}
     ae8:	e3a0702a 	mov	r7, #42	; 0x2a
     aec:	e3a06004 	mov	r6, #4
     af0:	e28d5010 	add	r5, sp, #16
     af4:	ef000000 	svc	0x00000000
     af8:	e8bd80e0 	pop	{r5, r6, r7, pc}

00000afc <_utee_storage_obj_del>:
_utee_storage_obj_del():
/home/qemu-sgx/devel/optee/optee_os/lib/libutee/arch/arm/utee_syscalls_asm.S:99
     afc:	e92d40e0 	push	{r5, r6, r7, lr}
     b00:	e3a0702b 	mov	r7, #43	; 0x2b
     b04:	e3a06000 	mov	r6, #0
     b08:	ef000000 	svc	0x00000000
     b0c:	e8bd80e0 	pop	{r5, r6, r7, pc}

00000b10 <_utee_storage_obj_rename>:
_utee_storage_obj_rename():
/home/qemu-sgx/devel/optee/optee_os/lib/libutee/arch/arm/utee_syscalls_asm.S:101
     b10:	e92d40e0 	push	{r5, r6, r7, lr}
     b14:	e3a0702c 	mov	r7, #44	; 0x2c
     b18:	e3a06000 	mov	r6, #0
     b1c:	ef000000 	svc	0x00000000
     b20:	e8bd80e0 	pop	{r5, r6, r7, pc}

00000b24 <_utee_storage_alloc_enum>:
_utee_storage_alloc_enum():
/home/qemu-sgx/devel/optee/optee_os/lib/libutee/arch/arm/utee_syscalls_asm.S:103
     b24:	e92d40e0 	push	{r5, r6, r7, lr}
     b28:	e3a0702d 	mov	r7, #45	; 0x2d
     b2c:	e3a06000 	mov	r6, #0
     b30:	ef000000 	svc	0x00000000
     b34:	e8bd80e0 	pop	{r5, r6, r7, pc}

00000b38 <_utee_storage_free_enum>:
_utee_storage_free_enum():
/home/qemu-sgx/devel/optee/optee_os/lib/libutee/arch/arm/utee_syscalls_asm.S:105
     b38:	e92d40e0 	push	{r5, r6, r7, lr}
     b3c:	e3a0702e 	mov	r7, #46	; 0x2e
     b40:	e3a06000 	mov	r6, #0
     b44:	ef000000 	svc	0x00000000
     b48:	e8bd80e0 	pop	{r5, r6, r7, pc}

00000b4c <_utee_storage_reset_enum>:
_utee_storage_reset_enum():
/home/qemu-sgx/devel/optee/optee_os/lib/libutee/arch/arm/utee_syscalls_asm.S:107
     b4c:	e92d40e0 	push	{r5, r6, r7, lr}
     b50:	e3a0702f 	mov	r7, #47	; 0x2f
     b54:	e3a06000 	mov	r6, #0
     b58:	ef000000 	svc	0x00000000
     b5c:	e8bd80e0 	pop	{r5, r6, r7, pc}

00000b60 <_utee_storage_start_enum>:
_utee_storage_start_enum():
/home/qemu-sgx/devel/optee/optee_os/lib/libutee/arch/arm/utee_syscalls_asm.S:109
     b60:	e92d40e0 	push	{r5, r6, r7, lr}
     b64:	e3a07030 	mov	r7, #48	; 0x30
     b68:	e3a06000 	mov	r6, #0
     b6c:	ef000000 	svc	0x00000000
     b70:	e8bd80e0 	pop	{r5, r6, r7, pc}

00000b74 <_utee_storage_next_enum>:
_utee_storage_next_enum():
/home/qemu-sgx/devel/optee/optee_os/lib/libutee/arch/arm/utee_syscalls_asm.S:111
     b74:	e92d40e0 	push	{r5, r6, r7, lr}
     b78:	e3a07031 	mov	r7, #49	; 0x31
     b7c:	e3a06000 	mov	r6, #0
     b80:	ef000000 	svc	0x00000000
     b84:	e8bd80e0 	pop	{r5, r6, r7, pc}

00000b88 <_utee_storage_obj_read>:
_utee_storage_obj_read():
/home/qemu-sgx/devel/optee/optee_os/lib/libutee/arch/arm/utee_syscalls_asm.S:113
     b88:	e92d40e0 	push	{r5, r6, r7, lr}
     b8c:	e3a07032 	mov	r7, #50	; 0x32
     b90:	e3a06000 	mov	r6, #0
     b94:	ef000000 	svc	0x00000000
     b98:	e8bd80e0 	pop	{r5, r6, r7, pc}

00000b9c <_utee_storage_obj_write>:
_utee_storage_obj_write():
/home/qemu-sgx/devel/optee/optee_os/lib/libutee/arch/arm/utee_syscalls_asm.S:115
     b9c:	e92d40e0 	push	{r5, r6, r7, lr}
     ba0:	e3a07033 	mov	r7, #51	; 0x33
     ba4:	e3a06000 	mov	r6, #0
     ba8:	ef000000 	svc	0x00000000
     bac:	e8bd80e0 	pop	{r5, r6, r7, pc}

00000bb0 <_utee_storage_obj_trunc>:
_utee_storage_obj_trunc():
/home/qemu-sgx/devel/optee/optee_os/lib/libutee/arch/arm/utee_syscalls_asm.S:117
     bb0:	e92d40e0 	push	{r5, r6, r7, lr}
     bb4:	e3a07034 	mov	r7, #52	; 0x34
     bb8:	e3a06000 	mov	r6, #0
     bbc:	ef000000 	svc	0x00000000
     bc0:	e8bd80e0 	pop	{r5, r6, r7, pc}

00000bc4 <_utee_storage_obj_seek>:
_utee_storage_obj_seek():
/home/qemu-sgx/devel/optee/optee_os/lib/libutee/arch/arm/utee_syscalls_asm.S:119
     bc4:	e92d40e0 	push	{r5, r6, r7, lr}
     bc8:	e3a07035 	mov	r7, #53	; 0x35
     bcc:	e3a06000 	mov	r6, #0
     bd0:	ef000000 	svc	0x00000000
     bd4:	e8bd80e0 	pop	{r5, r6, r7, pc}

00000bd8 <_utee_cryp_obj_generate_key>:
_utee_cryp_obj_generate_key():
/home/qemu-sgx/devel/optee/optee_os/lib/libutee/arch/arm/utee_syscalls_asm.S:121
     bd8:	e92d40e0 	push	{r5, r6, r7, lr}
     bdc:	e3a07036 	mov	r7, #54	; 0x36
     be0:	e3a06000 	mov	r6, #0
     be4:	ef000000 	svc	0x00000000
     be8:	e8bd80e0 	pop	{r5, r6, r7, pc}

00000bec <_utee_cache_operation>:
_utee_cache_operation():
/home/qemu-sgx/devel/optee/optee_os/lib/libutee/arch/arm/utee_syscalls_asm.S:124
     bec:	e92d40e0 	push	{r5, r6, r7, lr}
     bf0:	e3a07046 	mov	r7, #70	; 0x46
     bf4:	e3a06000 	mov	r6, #0
     bf8:	ef000000 	svc	0x00000000
     bfc:	e8bd80e0 	pop	{r5, r6, r7, pc}

00000c00 <__utee_gprof_init>:
__utee_gprof_init():
/home/qemu-sgx/devel/optee/optee_os/lib/libutee/arch/arm/../../tee_api_private.h:23
     c00:	f84d 7d04 	str.w	r7, [sp, #-4]!
     c04:	af00      	add	r7, sp, #0
     c06:	bf00      	nop
     c08:	46bd      	mov	sp, r7
     c0a:	f85d 7b04 	ldr.w	r7, [sp], #4
     c0e:	4770      	bx	lr

00000c10 <__utee_gprof_fini>:
__utee_gprof_fini():
/home/qemu-sgx/devel/optee/optee_os/lib/libutee/arch/arm/../../tee_api_private.h:24
     c10:	f84d 7d04 	str.w	r7, [sp, #-4]!
     c14:	af00      	add	r7, sp, #0
     c16:	bf00      	nop
     c18:	46bd      	mov	sp, r7
     c1a:	f85d 7b04 	ldr.w	r7, [sp], #4
     c1e:	4770      	bx	lr

00000c20 <_init_iterate_phdr_cb>:
_init_iterate_phdr_cb():
/home/qemu-sgx/devel/optee/optee_os/lib/libutee/arch/arm/user_ta_entry.c:55
     c20:	e96d 7e02 	strd	r7, lr, [sp, #-8]!
     c24:	b088      	sub	sp, #32
     c26:	af02      	add	r7, sp, #8
     c28:	60f8      	str	r0, [r7, #12]
     c2a:	60b9      	str	r1, [r7, #8]
     c2c:	607a      	str	r2, [r7, #4]
/home/qemu-sgx/devel/optee/optee_os/lib/libutee/arch/arm/user_ta_entry.c:56
     c2e:	f04f 0300 	mov.w	r3, #0
     c32:	617b      	str	r3, [r7, #20]
/home/qemu-sgx/devel/optee/optee_os/lib/libutee/arch/arm/user_ta_entry.c:57
     c34:	687b      	ldr	r3, [r7, #4]
     c36:	613b      	str	r3, [r7, #16]
/home/qemu-sgx/devel/optee/optee_os/lib/libutee/arch/arm/user_ta_entry.c:59
     c38:	f04f 0030 	mov.w	r0, #48	; 0x30
     c3c:	f00b fbe2 	bl	c404 <malloc>
     c40:	4603      	mov	r3, r0
     c42:	617b      	str	r3, [r7, #20]
/home/qemu-sgx/devel/optee/optee_os/lib/libutee/arch/arm/user_ta_entry.c:60
     c44:	697b      	ldr	r3, [r7, #20]
     c46:	2b00      	cmp	r3, #0
     c48:	d10e      	bne.n	c68 <_init_iterate_phdr_cb+0x48>
/home/qemu-sgx/devel/optee/optee_os/lib/libutee/arch/arm/user_ta_entry.c:61
     c4a:	4b23      	ldr	r3, [pc, #140]	; (cd8 <_init_iterate_phdr_cb+0xb8>)
     c4c:	447b      	add	r3, pc
     c4e:	9300      	str	r3, [sp, #0]
     c50:	f04f 0301 	mov.w	r3, #1
     c54:	f04f 0201 	mov.w	r2, #1
     c58:	f04f 013d 	mov.w	r1, #61	; 0x3d
     c5c:	481f      	ldr	r0, [pc, #124]	; (cdc <_init_iterate_phdr_cb+0xbc>)
     c5e:	4478      	add	r0, pc
     c60:	f00c ffed 	bl	dc3e <trace_printf>
/home/qemu-sgx/devel/optee/optee_os/lib/libutee/arch/arm/user_ta_entry.c:62
     c64:	f000 fd0e 	bl	1684 <abort>
/home/qemu-sgx/devel/optee/optee_os/lib/libutee/arch/arm/user_ta_entry.c:64
     c68:	697b      	ldr	r3, [r7, #20]
     c6a:	68fa      	ldr	r2, [r7, #12]
     c6c:	e9d2 0100 	ldrd	r0, r1, [r2]
     c70:	e9c3 0100 	strd	r0, r1, [r3]
     c74:	e9d2 0102 	ldrd	r0, r1, [r2, #8]
     c78:	e9c3 0102 	strd	r0, r1, [r3, #8]
     c7c:	e9d2 0104 	ldrd	r0, r1, [r2, #16]
     c80:	e9c3 0104 	strd	r0, r1, [r3, #16]
     c84:	e9d2 0106 	ldrd	r0, r1, [r2, #24]
     c88:	e9c3 0106 	strd	r0, r1, [r3, #24]
     c8c:	e9d2 0108 	ldrd	r0, r1, [r2, #32]
     c90:	e9c3 0108 	strd	r0, r1, [r3, #32]
/home/qemu-sgx/devel/optee/optee_os/lib/libutee/arch/arm/user_ta_entry.c:65
     c94:	697b      	ldr	r3, [r7, #20]
     c96:	f04f 0200 	mov.w	r2, #0
     c9a:	629a      	str	r2, [r3, #40]	; 0x28
     c9c:	4b10      	ldr	r3, [pc, #64]	; (ce0 <_init_iterate_phdr_cb+0xc0>)
     c9e:	447b      	add	r3, pc
     ca0:	685a      	ldr	r2, [r3, #4]
     ca2:	697b      	ldr	r3, [r7, #20]
     ca4:	62da      	str	r2, [r3, #44]	; 0x2c
     ca6:	4b0f      	ldr	r3, [pc, #60]	; (ce4 <_init_iterate_phdr_cb+0xc4>)
     ca8:	447b      	add	r3, pc
     caa:	685b      	ldr	r3, [r3, #4]
     cac:	697a      	ldr	r2, [r7, #20]
     cae:	601a      	str	r2, [r3, #0]
     cb0:	697b      	ldr	r3, [r7, #20]
     cb2:	f103 0228 	add.w	r2, r3, #40	; 0x28
     cb6:	4b0c      	ldr	r3, [pc, #48]	; (ce8 <_init_iterate_phdr_cb+0xc8>)
     cb8:	447b      	add	r3, pc
     cba:	605a      	str	r2, [r3, #4]
/home/qemu-sgx/devel/optee/optee_os/lib/libutee/arch/arm/user_ta_entry.c:66
     cbc:	693b      	ldr	r3, [r7, #16]
     cbe:	681b      	ldr	r3, [r3, #0]
     cc0:	f103 0201 	add.w	r2, r3, #1
     cc4:	693b      	ldr	r3, [r7, #16]
     cc6:	601a      	str	r2, [r3, #0]
/home/qemu-sgx/devel/optee/optee_os/lib/libutee/arch/arm/user_ta_entry.c:67
     cc8:	f04f 0300 	mov.w	r3, #0
/home/qemu-sgx/devel/optee/optee_os/lib/libutee/arch/arm/user_ta_entry.c:68
     ccc:	4618      	mov	r0, r3
     cce:	f107 0718 	add.w	r7, r7, #24
     cd2:	46bd      	mov	sp, r7
     cd4:	bd80      	pop	{r7, pc}
     cd6:	bf00      	nop
     cd8:	00012c5c 	.word	0x00012c5c
     cdc:	00012c66 	.word	0x00012c66
     ce0:	000165ae 	.word	0x000165ae
     ce4:	000165a4 	.word	0x000165a4
     ce8:	00016594 	.word	0x00016594

00000cec <_get_fn_array>:
_get_fn_array():
/home/qemu-sgx/devel/optee/optee_os/lib/libutee/arch/arm/user_ta_entry.c:72
     cec:	f84d 7d04 	str.w	r7, [sp, #-4]!
     cf0:	b08b      	sub	sp, #44	; 0x2c
     cf2:	af00      	add	r7, sp, #0
     cf4:	60f8      	str	r0, [r7, #12]
     cf6:	60b9      	str	r1, [r7, #8]
     cf8:	607a      	str	r2, [r7, #4]
     cfa:	603b      	str	r3, [r7, #0]
/home/qemu-sgx/devel/optee/optee_os/lib/libutee/arch/arm/user_ta_entry.c:73
     cfc:	f04f 0300 	mov.w	r3, #0
     d00:	61bb      	str	r3, [r7, #24]
/home/qemu-sgx/devel/optee/optee_os/lib/libutee/arch/arm/user_ta_entry.c:74
     d02:	f04f 0300 	mov.w	r3, #0
     d06:	627b      	str	r3, [r7, #36]	; 0x24
/home/qemu-sgx/devel/optee/optee_os/lib/libutee/arch/arm/user_ta_entry.c:75
     d08:	f04f 0300 	mov.w	r3, #0
     d0c:	617b      	str	r3, [r7, #20]
/home/qemu-sgx/devel/optee/optee_os/lib/libutee/arch/arm/user_ta_entry.c:76
     d0e:	f04f 0300 	mov.w	r3, #0
     d12:	623b      	str	r3, [r7, #32]
/home/qemu-sgx/devel/optee/optee_os/lib/libutee/arch/arm/user_ta_entry.c:77
     d14:	f04f 0300 	mov.w	r3, #0
     d18:	61fb      	str	r3, [r7, #28]
/home/qemu-sgx/devel/optee/optee_os/lib/libutee/arch/arm/user_ta_entry.c:79
     d1a:	f04f 0300 	mov.w	r3, #0
     d1e:	623b      	str	r3, [r7, #32]
     d20:	e054      	b.n	dcc <_get_fn_array+0xe0>
/home/qemu-sgx/devel/optee/optee_os/lib/libutee/arch/arm/user_ta_entry.c:80
     d22:	68fb      	ldr	r3, [r7, #12]
     d24:	689a      	ldr	r2, [r3, #8]
     d26:	6a3b      	ldr	r3, [r7, #32]
     d28:	ea4f 1343 	mov.w	r3, r3, lsl #5
     d2c:	4413      	add	r3, r2
     d2e:	61bb      	str	r3, [r7, #24]
/home/qemu-sgx/devel/optee/optee_os/lib/libutee/arch/arm/user_ta_entry.c:81
     d30:	69bb      	ldr	r3, [r7, #24]
     d32:	681b      	ldr	r3, [r3, #0]
     d34:	2b02      	cmp	r3, #2
     d36:	d140      	bne.n	dba <_get_fn_array+0xce>
/home/qemu-sgx/devel/optee/optee_os/lib/libutee/arch/arm/user_ta_entry.c:83
     d38:	69bb      	ldr	r3, [r7, #24]
     d3a:	695b      	ldr	r3, [r3, #20]
     d3c:	ea4f 03d3 	mov.w	r3, r3, lsr #3
     d40:	617b      	str	r3, [r7, #20]
/home/qemu-sgx/devel/optee/optee_os/lib/libutee/arch/arm/user_ta_entry.c:84
     d42:	69bb      	ldr	r3, [r7, #24]
     d44:	689a      	ldr	r2, [r3, #8]
     d46:	68fb      	ldr	r3, [r7, #12]
     d48:	681b      	ldr	r3, [r3, #0]
     d4a:	4413      	add	r3, r2
     d4c:	627b      	str	r3, [r7, #36]	; 0x24
/home/qemu-sgx/devel/optee/optee_os/lib/libutee/arch/arm/user_ta_entry.c:85
     d4e:	f04f 0300 	mov.w	r3, #0
     d52:	61fb      	str	r3, [r7, #28]
     d54:	e02c      	b.n	db0 <_get_fn_array+0xc4>
/home/qemu-sgx/devel/optee/optee_os/lib/libutee/arch/arm/user_ta_entry.c:86
     d56:	683b      	ldr	r3, [r7, #0]
     d58:	681b      	ldr	r3, [r3, #0]
     d5a:	2b00      	cmp	r3, #0
     d5c:	d003      	beq.n	d66 <_get_fn_array+0x7a>
/home/qemu-sgx/devel/optee/optee_os/lib/libutee/arch/arm/user_ta_entry.c:86 (discriminator 1)
     d5e:	6b3b      	ldr	r3, [r7, #48]	; 0x30
     d60:	681b      	ldr	r3, [r3, #0]
     d62:	2b00      	cmp	r3, #0
     d64:	d12b      	bne.n	dbe <_get_fn_array+0xd2>
/home/qemu-sgx/devel/optee/optee_os/lib/libutee/arch/arm/user_ta_entry.c:88
     d66:	6a7b      	ldr	r3, [r7, #36]	; 0x24
     d68:	681b      	ldr	r3, [r3, #0]
     d6a:	2b00      	cmp	r3, #0
     d6c:	d029      	beq.n	dc2 <_get_fn_array+0xd6>
/home/qemu-sgx/devel/optee/optee_os/lib/libutee/arch/arm/user_ta_entry.c:90
     d6e:	6a7b      	ldr	r3, [r7, #36]	; 0x24
     d70:	681b      	ldr	r3, [r3, #0]
     d72:	68ba      	ldr	r2, [r7, #8]
     d74:	429a      	cmp	r2, r3
     d76:	d108      	bne.n	d8a <_get_fn_array+0x9e>
/home/qemu-sgx/devel/optee/optee_os/lib/libutee/arch/arm/user_ta_entry.c:91
     d78:	6a7b      	ldr	r3, [r7, #36]	; 0x24
     d7a:	685a      	ldr	r2, [r3, #4]
/home/qemu-sgx/devel/optee/optee_os/lib/libutee/arch/arm/user_ta_entry.c:92
     d7c:	68fb      	ldr	r3, [r7, #12]
     d7e:	681b      	ldr	r3, [r3, #0]
/home/qemu-sgx/devel/optee/optee_os/lib/libutee/arch/arm/user_ta_entry.c:91
     d80:	4413      	add	r3, r2
     d82:	461a      	mov	r2, r3
     d84:	683b      	ldr	r3, [r7, #0]
     d86:	601a      	str	r2, [r3, #0]
     d88:	e00a      	b.n	da0 <_get_fn_array+0xb4>
/home/qemu-sgx/devel/optee/optee_os/lib/libutee/arch/arm/user_ta_entry.c:93
     d8a:	6a7b      	ldr	r3, [r7, #36]	; 0x24
     d8c:	681b      	ldr	r3, [r3, #0]
     d8e:	687a      	ldr	r2, [r7, #4]
     d90:	429a      	cmp	r2, r3
     d92:	d105      	bne.n	da0 <_get_fn_array+0xb4>
/home/qemu-sgx/devel/optee/optee_os/lib/libutee/arch/arm/user_ta_entry.c:94
     d94:	6a7b      	ldr	r3, [r7, #36]	; 0x24
     d96:	685b      	ldr	r3, [r3, #4]
     d98:	ea4f 0293 	mov.w	r2, r3, lsr #2
     d9c:	6b3b      	ldr	r3, [r7, #48]	; 0x30
     d9e:	601a      	str	r2, [r3, #0]
/home/qemu-sgx/devel/optee/optee_os/lib/libutee/arch/arm/user_ta_entry.c:96 (discriminator 2)
     da0:	6a7b      	ldr	r3, [r7, #36]	; 0x24
     da2:	f103 0308 	add.w	r3, r3, #8
     da6:	627b      	str	r3, [r7, #36]	; 0x24
/home/qemu-sgx/devel/optee/optee_os/lib/libutee/arch/arm/user_ta_entry.c:85 (discriminator 2)
     da8:	69fb      	ldr	r3, [r7, #28]
     daa:	f103 0301 	add.w	r3, r3, #1
     dae:	61fb      	str	r3, [r7, #28]
/home/qemu-sgx/devel/optee/optee_os/lib/libutee/arch/arm/user_ta_entry.c:85 (discriminator 1)
     db0:	69fa      	ldr	r2, [r7, #28]
     db2:	697b      	ldr	r3, [r7, #20]
     db4:	429a      	cmp	r2, r3
     db6:	d3ce      	bcc.n	d56 <_get_fn_array+0x6a>
     db8:	e004      	b.n	dc4 <_get_fn_array+0xd8>
/home/qemu-sgx/devel/optee/optee_os/lib/libutee/arch/arm/user_ta_entry.c:82
     dba:	bf00      	nop
     dbc:	e002      	b.n	dc4 <_get_fn_array+0xd8>
/home/qemu-sgx/devel/optee/optee_os/lib/libutee/arch/arm/user_ta_entry.c:87
     dbe:	bf00      	nop
     dc0:	e000      	b.n	dc4 <_get_fn_array+0xd8>
/home/qemu-sgx/devel/optee/optee_os/lib/libutee/arch/arm/user_ta_entry.c:89
     dc2:	bf00      	nop
/home/qemu-sgx/devel/optee/optee_os/lib/libutee/arch/arm/user_ta_entry.c:79 (discriminator 2)
     dc4:	6a3b      	ldr	r3, [r7, #32]
     dc6:	f103 0301 	add.w	r3, r3, #1
     dca:	623b      	str	r3, [r7, #32]
/home/qemu-sgx/devel/optee/optee_os/lib/libutee/arch/arm/user_ta_entry.c:79 (discriminator 1)
     dcc:	68fb      	ldr	r3, [r7, #12]
     dce:	899b      	ldrh	r3, [r3, #12]
     dd0:	461a      	mov	r2, r3
     dd2:	6a3b      	ldr	r3, [r7, #32]
     dd4:	4293      	cmp	r3, r2
     dd6:	d3a4      	bcc.n	d22 <_get_fn_array+0x36>
/home/qemu-sgx/devel/optee/optee_os/lib/libutee/arch/arm/user_ta_entry.c:99
     dd8:	bf00      	nop
     dda:	bf00      	nop
     ddc:	f107 072c 	add.w	r7, r7, #44	; 0x2c
     de0:	46bd      	mov	sp, r7
     de2:	f85d 7b04 	ldr.w	r7, [sp], #4
     de6:	4770      	bx	lr

00000de8 <__utee_call_elf_init_fn>:
__utee_call_elf_init_fn():
/home/qemu-sgx/devel/optee/optee_os/lib/libutee/arch/arm/user_ta_entry.c:102
     de8:	e96d 7e02 	strd	r7, lr, [sp, #-8]!
     dec:	b08a      	sub	sp, #40	; 0x28
     dee:	af02      	add	r7, sp, #8
/home/qemu-sgx/devel/optee/optee_os/lib/libutee/arch/arm/user_ta_entry.c:103
     df0:	f04f 0300 	mov.w	r3, #0
     df4:	60fb      	str	r3, [r7, #12]
/home/qemu-sgx/devel/optee/optee_os/lib/libutee/arch/arm/user_ta_entry.c:104
     df6:	f04f 0300 	mov.w	r3, #0
     dfa:	60bb      	str	r3, [r7, #8]
/home/qemu-sgx/devel/optee/optee_os/lib/libutee/arch/arm/user_ta_entry.c:105
     dfc:	f04f 0300 	mov.w	r3, #0
     e00:	607b      	str	r3, [r7, #4]
/home/qemu-sgx/devel/optee/optee_os/lib/libutee/arch/arm/user_ta_entry.c:106
     e02:	f04f 0300 	mov.w	r3, #0
     e06:	61fb      	str	r3, [r7, #28]
/home/qemu-sgx/devel/optee/optee_os/lib/libutee/arch/arm/user_ta_entry.c:107
     e08:	f04f 0300 	mov.w	r3, #0
     e0c:	61bb      	str	r3, [r7, #24]
/home/qemu-sgx/devel/optee/optee_os/lib/libutee/arch/arm/user_ta_entry.c:108
     e0e:	f04f 0300 	mov.w	r3, #0
     e12:	617b      	str	r3, [r7, #20]
/home/qemu-sgx/devel/optee/optee_os/lib/libutee/arch/arm/user_ta_entry.c:109
     e14:	f04f 0300 	mov.w	r3, #0
     e18:	613b      	str	r3, [r7, #16]
/home/qemu-sgx/devel/optee/optee_os/lib/libutee/arch/arm/user_ta_entry.c:111
     e1a:	f107 0308 	add.w	r3, r7, #8
     e1e:	4619      	mov	r1, r3
     e20:	4b3d      	ldr	r3, [pc, #244]	; (f18 <__utee_call_elf_init_fn+0x130>)
     e22:	447b      	add	r3, pc
     e24:	4618      	mov	r0, r3
     e26:	f003 fbad 	bl	4584 <dl_iterate_phdr>
/home/qemu-sgx/devel/optee/optee_os/lib/libutee/arch/arm/user_ta_entry.c:114
     e2a:	4b3c      	ldr	r3, [pc, #240]	; (f1c <__utee_call_elf_init_fn+0x134>)
     e2c:	447b      	add	r3, pc
     e2e:	685b      	ldr	r3, [r3, #4]
     e30:	685b      	ldr	r3, [r3, #4]
     e32:	681b      	ldr	r3, [r3, #0]
     e34:	617b      	str	r3, [r7, #20]
     e36:	e037      	b.n	ea8 <__utee_call_elf_init_fn+0xc0>
/home/qemu-sgx/devel/optee/optee_os/lib/libutee/arch/arm/user_ta_entry.c:115
     e38:	68ba      	ldr	r2, [r7, #8]
     e3a:	4b39      	ldr	r3, [pc, #228]	; (f20 <__utee_call_elf_init_fn+0x138>)
     e3c:	447b      	add	r3, pc
     e3e:	681b      	ldr	r3, [r3, #0]
     e40:	eba2 0303 	sub.w	r3, r2, r3
     e44:	69fa      	ldr	r2, [r7, #28]
     e46:	429a      	cmp	r2, r3
     e48:	d032      	beq.n	eb0 <__utee_call_elf_init_fn+0xc8>
/home/qemu-sgx/devel/optee/optee_os/lib/libutee/arch/arm/user_ta_entry.c:117
     e4a:	6978      	ldr	r0, [r7, #20]
     e4c:	f107 020c 	add.w	r2, r7, #12
     e50:	f107 0304 	add.w	r3, r7, #4
     e54:	9300      	str	r3, [sp, #0]
     e56:	4613      	mov	r3, r2
     e58:	f04f 021b 	mov.w	r2, #27
     e5c:	f04f 0119 	mov.w	r1, #25
     e60:	f7ff ff44 	bl	cec <_get_fn_array>
/home/qemu-sgx/devel/optee/optee_os/lib/libutee/arch/arm/user_ta_entry.c:119
     e64:	f04f 0300 	mov.w	r3, #0
     e68:	61bb      	str	r3, [r7, #24]
     e6a:	e00a      	b.n	e82 <__utee_call_elf_init_fn+0x9a>
/home/qemu-sgx/devel/optee/optee_os/lib/libutee/arch/arm/user_ta_entry.c:120 (discriminator 3)
     e6c:	68fa      	ldr	r2, [r7, #12]
     e6e:	69bb      	ldr	r3, [r7, #24]
     e70:	ea4f 0383 	mov.w	r3, r3, lsl #2
     e74:	4413      	add	r3, r2
     e76:	681b      	ldr	r3, [r3, #0]
     e78:	4798      	blx	r3
/home/qemu-sgx/devel/optee/optee_os/lib/libutee/arch/arm/user_ta_entry.c:119 (discriminator 3)
     e7a:	69bb      	ldr	r3, [r7, #24]
     e7c:	f103 0301 	add.w	r3, r3, #1
     e80:	61bb      	str	r3, [r7, #24]
/home/qemu-sgx/devel/optee/optee_os/lib/libutee/arch/arm/user_ta_entry.c:119 (discriminator 1)
     e82:	687b      	ldr	r3, [r7, #4]
     e84:	69ba      	ldr	r2, [r7, #24]
     e86:	429a      	cmp	r2, r3
     e88:	d3f0      	bcc.n	e6c <__utee_call_elf_init_fn+0x84>
/home/qemu-sgx/devel/optee/optee_os/lib/libutee/arch/arm/user_ta_entry.c:121 (discriminator 2)
     e8a:	f04f 0300 	mov.w	r3, #0
     e8e:	60fb      	str	r3, [r7, #12]
/home/qemu-sgx/devel/optee/optee_os/lib/libutee/arch/arm/user_ta_entry.c:122 (discriminator 2)
     e90:	f04f 0300 	mov.w	r3, #0
     e94:	607b      	str	r3, [r7, #4]
/home/qemu-sgx/devel/optee/optee_os/lib/libutee/arch/arm/user_ta_entry.c:123 (discriminator 2)
     e96:	69fb      	ldr	r3, [r7, #28]
     e98:	f103 0301 	add.w	r3, r3, #1
     e9c:	61fb      	str	r3, [r7, #28]
/home/qemu-sgx/devel/optee/optee_os/lib/libutee/arch/arm/user_ta_entry.c:114 (discriminator 2)
     e9e:	697b      	ldr	r3, [r7, #20]
     ea0:	6adb      	ldr	r3, [r3, #44]	; 0x2c
     ea2:	685b      	ldr	r3, [r3, #4]
     ea4:	681b      	ldr	r3, [r3, #0]
     ea6:	617b      	str	r3, [r7, #20]
/home/qemu-sgx/devel/optee/optee_os/lib/libutee/arch/arm/user_ta_entry.c:114 (discriminator 1)
     ea8:	697b      	ldr	r3, [r7, #20]
     eaa:	2b00      	cmp	r3, #0
     eac:	d1c4      	bne.n	e38 <__utee_call_elf_init_fn+0x50>
     eae:	e000      	b.n	eb2 <__utee_call_elf_init_fn+0xca>
/home/qemu-sgx/devel/optee/optee_os/lib/libutee/arch/arm/user_ta_entry.c:116
     eb0:	bf00      	nop
/home/qemu-sgx/devel/optee/optee_os/lib/libutee/arch/arm/user_ta_entry.c:125
     eb2:	4b1c      	ldr	r3, [pc, #112]	; (f24 <__utee_call_elf_init_fn+0x13c>)
     eb4:	447b      	add	r3, pc
     eb6:	681a      	ldr	r2, [r3, #0]
     eb8:	69fb      	ldr	r3, [r7, #28]
     eba:	441a      	add	r2, r3
     ebc:	4b1a      	ldr	r3, [pc, #104]	; (f28 <__utee_call_elf_init_fn+0x140>)
     ebe:	447b      	add	r3, pc
     ec0:	601a      	str	r2, [r3, #0]
/home/qemu-sgx/devel/optee/optee_os/lib/libutee/arch/arm/user_ta_entry.c:127
     ec2:	4b1a      	ldr	r3, [pc, #104]	; (f2c <__utee_call_elf_init_fn+0x144>)
     ec4:	447b      	add	r3, pc
     ec6:	681b      	ldr	r3, [r3, #0]
     ec8:	617b      	str	r3, [r7, #20]
     eca:	e014      	b.n	ef6 <__utee_call_elf_init_fn+0x10e>
/home/qemu-sgx/devel/optee/optee_os/lib/libutee/arch/arm/user_ta_entry.c:128 (discriminator 1)
     ecc:	697b      	ldr	r3, [r7, #20]
     ece:	6a9b      	ldr	r3, [r3, #40]	; 0x28
     ed0:	697a      	ldr	r2, [r7, #20]
     ed2:	6ad2      	ldr	r2, [r2, #44]	; 0x2c
     ed4:	62da      	str	r2, [r3, #44]	; 0x2c
     ed6:	e004      	b.n	ee2 <__utee_call_elf_init_fn+0xfa>
/home/qemu-sgx/devel/optee/optee_os/lib/libutee/arch/arm/user_ta_entry.c:128 (discriminator 2)
     ed8:	697b      	ldr	r3, [r7, #20]
     eda:	6ada      	ldr	r2, [r3, #44]	; 0x2c
     edc:	4b14      	ldr	r3, [pc, #80]	; (f30 <__utee_call_elf_init_fn+0x148>)
     ede:	447b      	add	r3, pc
     ee0:	605a      	str	r2, [r3, #4]
/home/qemu-sgx/devel/optee/optee_os/lib/libutee/arch/arm/user_ta_entry.c:128 (discriminator 4)
     ee2:	697b      	ldr	r3, [r7, #20]
     ee4:	6adb      	ldr	r3, [r3, #44]	; 0x2c
     ee6:	697a      	ldr	r2, [r7, #20]
     ee8:	6a92      	ldr	r2, [r2, #40]	; 0x28
     eea:	601a      	str	r2, [r3, #0]
/home/qemu-sgx/devel/optee/optee_os/lib/libutee/arch/arm/user_ta_entry.c:129 (discriminator 4)
     eec:	6978      	ldr	r0, [r7, #20]
     eee:	f00b fb7c 	bl	c5ea <free>
/home/qemu-sgx/devel/optee/optee_os/lib/libutee/arch/arm/user_ta_entry.c:127 (discriminator 4)
     ef2:	693b      	ldr	r3, [r7, #16]
     ef4:	617b      	str	r3, [r7, #20]
/home/qemu-sgx/devel/optee/optee_os/lib/libutee/arch/arm/user_ta_entry.c:127 (discriminator 2)
     ef6:	697b      	ldr	r3, [r7, #20]
     ef8:	2b00      	cmp	r3, #0
     efa:	d007      	beq.n	f0c <__utee_call_elf_init_fn+0x124>
/home/qemu-sgx/devel/optee/optee_os/lib/libutee/arch/arm/user_ta_entry.c:127 (discriminator 3)
     efc:	697b      	ldr	r3, [r7, #20]
     efe:	6a9b      	ldr	r3, [r3, #40]	; 0x28
     f00:	613b      	str	r3, [r7, #16]
/home/qemu-sgx/devel/optee/optee_os/lib/libutee/arch/arm/user_ta_entry.c:128 (discriminator 3)
     f02:	697b      	ldr	r3, [r7, #20]
     f04:	6a9b      	ldr	r3, [r3, #40]	; 0x28
     f06:	2b00      	cmp	r3, #0
     f08:	d0e6      	beq.n	ed8 <__utee_call_elf_init_fn+0xf0>
     f0a:	e7df      	b.n	ecc <__utee_call_elf_init_fn+0xe4>
/home/qemu-sgx/devel/optee/optee_os/lib/libutee/arch/arm/user_ta_entry.c:131
     f0c:	bf00      	nop
     f0e:	f107 0720 	add.w	r7, r7, #32
     f12:	46bd      	mov	sp, r7
     f14:	bd80      	pop	{r7, pc}
     f16:	bf00      	nop
     f18:	fffffdfb 	.word	0xfffffdfb
     f1c:	00016420 	.word	0x00016420
     f20:	0001e4d0 	.word	0x0001e4d0
     f24:	0001e458 	.word	0x0001e458
     f28:	0001e44e 	.word	0x0001e44e
     f2c:	00016388 	.word	0x00016388
     f30:	0001636e 	.word	0x0001636e

00000f34 <_fini_iterate_phdr_cb>:
_fini_iterate_phdr_cb():
/home/qemu-sgx/devel/optee/optee_os/lib/libutee/arch/arm/user_ta_entry.c:135
     f34:	e96d 7e02 	strd	r7, lr, [sp, #-8]!
     f38:	b08a      	sub	sp, #40	; 0x28
     f3a:	af02      	add	r7, sp, #8
     f3c:	60f8      	str	r0, [r7, #12]
     f3e:	60b9      	str	r1, [r7, #8]
     f40:	607a      	str	r2, [r7, #4]
/home/qemu-sgx/devel/optee/optee_os/lib/libutee/arch/arm/user_ta_entry.c:136
     f42:	f04f 0300 	mov.w	r3, #0
     f46:	61bb      	str	r3, [r7, #24]
/home/qemu-sgx/devel/optee/optee_os/lib/libutee/arch/arm/user_ta_entry.c:137
     f48:	f04f 0300 	mov.w	r3, #0
     f4c:	617b      	str	r3, [r7, #20]
/home/qemu-sgx/devel/optee/optee_os/lib/libutee/arch/arm/user_ta_entry.c:138
     f4e:	f04f 0300 	mov.w	r3, #0
     f52:	61fb      	str	r3, [r7, #28]
/home/qemu-sgx/devel/optee/optee_os/lib/libutee/arch/arm/user_ta_entry.c:140
     f54:	f107 0218 	add.w	r2, r7, #24
     f58:	f107 0314 	add.w	r3, r7, #20
     f5c:	9300      	str	r3, [sp, #0]
     f5e:	4613      	mov	r3, r2
     f60:	f04f 021c 	mov.w	r2, #28
     f64:	f04f 011a 	mov.w	r1, #26
     f68:	68f8      	ldr	r0, [r7, #12]
     f6a:	f7ff febf 	bl	cec <_get_fn_array>
/home/qemu-sgx/devel/optee/optee_os/lib/libutee/arch/arm/user_ta_entry.c:142
     f6e:	f04f 0301 	mov.w	r3, #1
     f72:	61fb      	str	r3, [r7, #28]
     f74:	e00d      	b.n	f92 <_fini_iterate_phdr_cb+0x5e>
/home/qemu-sgx/devel/optee/optee_os/lib/libutee/arch/arm/user_ta_entry.c:143 (discriminator 3)
     f76:	69ba      	ldr	r2, [r7, #24]
     f78:	6979      	ldr	r1, [r7, #20]
     f7a:	69fb      	ldr	r3, [r7, #28]
     f7c:	eba1 0303 	sub.w	r3, r1, r3
     f80:	ea4f 0383 	mov.w	r3, r3, lsl #2
     f84:	4413      	add	r3, r2
     f86:	681b      	ldr	r3, [r3, #0]
     f88:	4798      	blx	r3
/home/qemu-sgx/devel/optee/optee_os/lib/libutee/arch/arm/user_ta_entry.c:142 (discriminator 3)
     f8a:	69fb      	ldr	r3, [r7, #28]
     f8c:	f103 0301 	add.w	r3, r3, #1
     f90:	61fb      	str	r3, [r7, #28]
/home/qemu-sgx/devel/optee/optee_os/lib/libutee/arch/arm/user_ta_entry.c:142 (discriminator 1)
     f92:	697b      	ldr	r3, [r7, #20]
     f94:	69fa      	ldr	r2, [r7, #28]
     f96:	429a      	cmp	r2, r3
     f98:	d9ed      	bls.n	f76 <_fini_iterate_phdr_cb+0x42>
/home/qemu-sgx/devel/optee/optee_os/lib/libutee/arch/arm/user_ta_entry.c:145
     f9a:	f04f 0300 	mov.w	r3, #0
/home/qemu-sgx/devel/optee/optee_os/lib/libutee/arch/arm/user_ta_entry.c:146
     f9e:	4618      	mov	r0, r3
     fa0:	f107 0720 	add.w	r7, r7, #32
     fa4:	46bd      	mov	sp, r7
     fa6:	bd80      	pop	{r7, pc}

00000fa8 <__utee_call_elf_fini_fn>:
__utee_call_elf_fini_fn():
/home/qemu-sgx/devel/optee/optee_os/lib/libutee/arch/arm/user_ta_entry.c:149
     fa8:	e96d 7e02 	strd	r7, lr, [sp, #-8]!
     fac:	af00      	add	r7, sp, #0
/home/qemu-sgx/devel/optee/optee_os/lib/libutee/arch/arm/user_ta_entry.c:150
     fae:	f04f 0100 	mov.w	r1, #0
     fb2:	4b04      	ldr	r3, [pc, #16]	; (fc4 <__utee_call_elf_fini_fn+0x1c>)
     fb4:	447b      	add	r3, pc
     fb6:	4618      	mov	r0, r3
     fb8:	f003 fae4 	bl	4584 <dl_iterate_phdr>
/home/qemu-sgx/devel/optee/optee_os/lib/libutee/arch/arm/user_ta_entry.c:151
     fbc:	bf00      	nop
     fbe:	46bd      	mov	sp, r7
     fc0:	bd80      	pop	{r7, pc}
     fc2:	bf00      	nop
     fc4:	ffffff7d 	.word	0xffffff7d

00000fc8 <init_instance>:
init_instance():
/home/qemu-sgx/devel/optee/optee_os/lib/libutee/arch/arm/user_ta_entry.c:154
     fc8:	e96d 3404 	strd	r3, r4, [sp, #-16]!
     fcc:	e9cd 7e02 	strd	r7, lr, [sp, #8]
     fd0:	af00      	add	r7, sp, #0
     fd2:	4c11      	ldr	r4, [pc, #68]	; (1018 <init_instance+0x50>)
     fd4:	447c      	add	r4, pc
/home/qemu-sgx/devel/optee/optee_os/lib/libutee/arch/arm/user_ta_entry.c:155
     fd6:	f010 feaf 	bl	11d38 <tahead_get_trace_level>
     fda:	4603      	mov	r3, r0
     fdc:	4618      	mov	r0, r3
     fde:	f00c fd8f 	bl	db00 <trace_set_level>
/home/qemu-sgx/devel/optee/optee_os/lib/libutee/arch/arm/user_ta_entry.c:156
     fe2:	f7ff fe0d 	bl	c00 <__utee_gprof_init>
/home/qemu-sgx/devel/optee/optee_os/lib/libutee/arch/arm/user_ta_entry.c:157
     fe6:	4b0d      	ldr	r3, [pc, #52]	; (101c <init_instance+0x54>)
     fe8:	58e3      	ldr	r3, [r4, r3]
     fea:	681b      	ldr	r3, [r3, #0]
     fec:	4619      	mov	r1, r3
     fee:	4b0c      	ldr	r3, [pc, #48]	; (1020 <init_instance+0x58>)
     ff0:	58e3      	ldr	r3, [r4, r3]
     ff2:	4618      	mov	r0, r3
     ff4:	f00b fc67 	bl	c8c6 <malloc_add_pool>
/home/qemu-sgx/devel/optee/optee_os/lib/libutee/arch/arm/user_ta_entry.c:158
     ff8:	f001 f952 	bl	22a0 <_TEE_MathAPI_Init>
/home/qemu-sgx/devel/optee/optee_os/lib/libutee/arch/arm/user_ta_entry.c:159
     ffc:	f003 f920 	bl	4240 <__utee_tcb_init>
/home/qemu-sgx/devel/optee/optee_os/lib/libutee/arch/arm/user_ta_entry.c:160
    1000:	f7ff fef2 	bl	de8 <__utee_call_elf_init_fn>
/home/qemu-sgx/devel/optee/optee_os/lib/libutee/arch/arm/user_ta_entry.c:161
    1004:	f7ff f80c 	bl	20 <TA_CreateEntryPoint>
    1008:	4603      	mov	r3, r0
/home/qemu-sgx/devel/optee/optee_os/lib/libutee/arch/arm/user_ta_entry.c:162
    100a:	4618      	mov	r0, r3
    100c:	46bd      	mov	sp, r7
    100e:	e9dd 3400 	ldrd	r3, r4, [sp]
    1012:	b002      	add	sp, #8
    1014:	bd80      	pop	{r7, pc}
    1016:	bf00      	nop
    1018:	000160b0 	.word	0x000160b0
    101c:	0000000c 	.word	0x0000000c
    1020:	00000020 	.word	0x00000020

00001024 <uninit_instance>:
uninit_instance():
/home/qemu-sgx/devel/optee/optee_os/lib/libutee/arch/arm/user_ta_entry.c:165
    1024:	e96d 7e02 	strd	r7, lr, [sp, #-8]!
    1028:	af00      	add	r7, sp, #0
/home/qemu-sgx/devel/optee/optee_os/lib/libutee/arch/arm/user_ta_entry.c:166
    102a:	f7ff fdf1 	bl	c10 <__utee_gprof_fini>
/home/qemu-sgx/devel/optee/optee_os/lib/libutee/arch/arm/user_ta_entry.c:167
    102e:	f7ff f801 	bl	34 <TA_DestroyEntryPoint>
/home/qemu-sgx/devel/optee/optee_os/lib/libutee/arch/arm/user_ta_entry.c:168
    1032:	f7ff ffb9 	bl	fa8 <__utee_call_elf_fini_fn>
/home/qemu-sgx/devel/optee/optee_os/lib/libutee/arch/arm/user_ta_entry.c:169
    1036:	bf00      	nop
    1038:	46bd      	mov	sp, r7
    103a:	bd80      	pop	{r7, pc}

0000103c <ta_header_save_params>:
ta_header_save_params():
/home/qemu-sgx/devel/optee/optee_os/lib/libutee/arch/arm/user_ta_entry.c:173
    103c:	e96d 7e02 	strd	r7, lr, [sp, #-8]!
    1040:	b082      	sub	sp, #8
    1042:	af00      	add	r7, sp, #0
    1044:	6078      	str	r0, [r7, #4]
    1046:	6039      	str	r1, [r7, #0]
    1048:	4b0f      	ldr	r3, [pc, #60]	; (1088 <ta_header_save_params+0x4c>)
    104a:	447b      	add	r3, pc
/home/qemu-sgx/devel/optee/optee_os/lib/libutee/arch/arm/user_ta_entry.c:174
    104c:	4a0f      	ldr	r2, [pc, #60]	; (108c <ta_header_save_params+0x50>)
    104e:	589a      	ldr	r2, [r3, r2]
    1050:	6879      	ldr	r1, [r7, #4]
    1052:	6011      	str	r1, [r2, #0]
/home/qemu-sgx/devel/optee/optee_os/lib/libutee/arch/arm/user_ta_entry.c:176
    1054:	683a      	ldr	r2, [r7, #0]
    1056:	2a00      	cmp	r2, #0
    1058:	d008      	beq.n	106c <ta_header_save_params+0x30>
/home/qemu-sgx/devel/optee/optee_os/lib/libutee/arch/arm/user_ta_entry.c:177
    105a:	f04f 0220 	mov.w	r2, #32
    105e:	6839      	ldr	r1, [r7, #0]
    1060:	480b      	ldr	r0, [pc, #44]	; (1090 <ta_header_save_params+0x54>)
    1062:	581b      	ldr	r3, [r3, r0]
    1064:	4618      	mov	r0, r3
    1066:	f010 febe 	bl	11de6 <memcpy>
/home/qemu-sgx/devel/optee/optee_os/lib/libutee/arch/arm/user_ta_entry.c:180
    106a:	e008      	b.n	107e <ta_header_save_params+0x42>
/home/qemu-sgx/devel/optee/optee_os/lib/libutee/arch/arm/user_ta_entry.c:179
    106c:	f04f 0220 	mov.w	r2, #32
    1070:	f04f 0100 	mov.w	r1, #0
    1074:	4806      	ldr	r0, [pc, #24]	; (1090 <ta_header_save_params+0x54>)
    1076:	581b      	ldr	r3, [r3, r0]
    1078:	4618      	mov	r0, r3
    107a:	f010 ffcc 	bl	12016 <memset>
/home/qemu-sgx/devel/optee/optee_os/lib/libutee/arch/arm/user_ta_entry.c:180
    107e:	bf00      	nop
    1080:	f107 0708 	add.w	r7, r7, #8
    1084:	46bd      	mov	sp, r7
    1086:	bd80      	pop	{r7, pc}
    1088:	0001603a 	.word	0x0001603a
    108c:	00000028 	.word	0x00000028
    1090:	00000034 	.word	0x00000034

00001094 <ta_header_get_session>:
ta_header_get_session():
/home/qemu-sgx/devel/optee/optee_os/lib/libutee/arch/arm/user_ta_entry.c:183
    1094:	f84d 7d04 	str.w	r7, [sp, #-4]!
    1098:	b085      	sub	sp, #20
    109a:	af00      	add	r7, sp, #0
    109c:	6078      	str	r0, [r7, #4]
/home/qemu-sgx/devel/optee/optee_os/lib/libutee/arch/arm/user_ta_entry.c:186
    109e:	4b0d      	ldr	r3, [pc, #52]	; (10d4 <ta_header_get_session+0x40>)
    10a0:	447b      	add	r3, pc
    10a2:	681b      	ldr	r3, [r3, #0]
    10a4:	60fb      	str	r3, [r7, #12]
    10a6:	e009      	b.n	10bc <ta_header_get_session+0x28>
/home/qemu-sgx/devel/optee/optee_os/lib/libutee/arch/arm/user_ta_entry.c:187
    10a8:	68fb      	ldr	r3, [r7, #12]
    10aa:	681b      	ldr	r3, [r3, #0]
    10ac:	687a      	ldr	r2, [r7, #4]
    10ae:	429a      	cmp	r2, r3
    10b0:	d101      	bne.n	10b6 <ta_header_get_session+0x22>
/home/qemu-sgx/devel/optee/optee_os/lib/libutee/arch/arm/user_ta_entry.c:188
    10b2:	68fb      	ldr	r3, [r7, #12]
    10b4:	e007      	b.n	10c6 <ta_header_get_session+0x32>
/home/qemu-sgx/devel/optee/optee_os/lib/libutee/arch/arm/user_ta_entry.c:186 (discriminator 2)
    10b6:	68fb      	ldr	r3, [r7, #12]
    10b8:	689b      	ldr	r3, [r3, #8]
    10ba:	60fb      	str	r3, [r7, #12]
/home/qemu-sgx/devel/optee/optee_os/lib/libutee/arch/arm/user_ta_entry.c:186 (discriminator 1)
    10bc:	68fb      	ldr	r3, [r7, #12]
    10be:	2b00      	cmp	r3, #0
    10c0:	d1f2      	bne.n	10a8 <ta_header_get_session+0x14>
/home/qemu-sgx/devel/optee/optee_os/lib/libutee/arch/arm/user_ta_entry.c:190
    10c2:	f04f 0300 	mov.w	r3, #0
/home/qemu-sgx/devel/optee/optee_os/lib/libutee/arch/arm/user_ta_entry.c:191
    10c6:	4618      	mov	r0, r3
    10c8:	f107 0714 	add.w	r7, r7, #20
    10cc:	46bd      	mov	sp, r7
    10ce:	f85d 7b04 	ldr.w	r7, [sp], #4
    10d2:	4770      	bx	lr
    10d4:	000161a4 	.word	0x000161a4

000010d8 <ta_header_add_session>:
ta_header_add_session():
/home/qemu-sgx/devel/optee/optee_os/lib/libutee/arch/arm/user_ta_entry.c:194
    10d8:	e96d 7e02 	strd	r7, lr, [sp, #-8]!
    10dc:	b084      	sub	sp, #16
    10de:	af00      	add	r7, sp, #0
    10e0:	6078      	str	r0, [r7, #4]
/home/qemu-sgx/devel/optee/optee_os/lib/libutee/arch/arm/user_ta_entry.c:195
    10e2:	6878      	ldr	r0, [r7, #4]
    10e4:	f7ff ffd6 	bl	1094 <ta_header_get_session>
    10e8:	60f8      	str	r0, [r7, #12]
/home/qemu-sgx/devel/optee/optee_os/lib/libutee/arch/arm/user_ta_entry.c:198
    10ea:	68fb      	ldr	r3, [r7, #12]
    10ec:	2b00      	cmp	r3, #0
    10ee:	d002      	beq.n	10f6 <ta_header_add_session+0x1e>
/home/qemu-sgx/devel/optee/optee_os/lib/libutee/arch/arm/user_ta_entry.c:199
    10f0:	f04f 0300 	mov.w	r3, #0
    10f4:	e040      	b.n	1178 <ta_header_add_session+0xa0>
/home/qemu-sgx/devel/optee/optee_os/lib/libutee/arch/arm/user_ta_entry.c:201
    10f6:	4b23      	ldr	r3, [pc, #140]	; (1184 <ta_header_add_session+0xac>)
    10f8:	447b      	add	r3, pc
    10fa:	781b      	ldrb	r3, [r3, #0]
    10fc:	f083 0301 	eor.w	r3, r3, #1
    1100:	b2db      	uxtb	r3, r3
    1102:	2b00      	cmp	r3, #0
    1104:	d00c      	beq.n	1120 <ta_header_add_session+0x48>
/home/qemu-sgx/devel/optee/optee_os/lib/libutee/arch/arm/user_ta_entry.c:202
    1106:	4b20      	ldr	r3, [pc, #128]	; (1188 <ta_header_add_session+0xb0>)
    1108:	447b      	add	r3, pc
    110a:	f04f 0201 	mov.w	r2, #1
    110e:	701a      	strb	r2, [r3, #0]
/home/qemu-sgx/devel/optee/optee_os/lib/libutee/arch/arm/user_ta_entry.c:203
    1110:	f7ff ff5a 	bl	fc8 <init_instance>
    1114:	60b8      	str	r0, [r7, #8]
/home/qemu-sgx/devel/optee/optee_os/lib/libutee/arch/arm/user_ta_entry.c:204
    1116:	68bb      	ldr	r3, [r7, #8]
    1118:	2b00      	cmp	r3, #0
    111a:	d001      	beq.n	1120 <ta_header_add_session+0x48>
/home/qemu-sgx/devel/optee/optee_os/lib/libutee/arch/arm/user_ta_entry.c:205
    111c:	68bb      	ldr	r3, [r7, #8]
    111e:	e02b      	b.n	1178 <ta_header_add_session+0xa0>
/home/qemu-sgx/devel/optee/optee_os/lib/libutee/arch/arm/user_ta_entry.c:208
    1120:	f04f 4100 	mov.w	r1, #2147483648	; 0x80000000
    1124:	f04f 0010 	mov.w	r0, #16
    1128:	f000 ffe6 	bl	20f8 <TEE_Malloc>
    112c:	60f8      	str	r0, [r7, #12]
/home/qemu-sgx/devel/optee/optee_os/lib/libutee/arch/arm/user_ta_entry.c:210
    112e:	68fb      	ldr	r3, [r7, #12]
    1130:	2b00      	cmp	r3, #0
    1132:	d104      	bne.n	113e <ta_header_add_session+0x66>
/home/qemu-sgx/devel/optee/optee_os/lib/libutee/arch/arm/user_ta_entry.c:211
    1134:	f04f 030c 	mov.w	r3, #12
    1138:	f6cf 73ff 	movt	r3, #65535	; 0xffff
    113c:	e01c      	b.n	1178 <ta_header_add_session+0xa0>
/home/qemu-sgx/devel/optee/optee_os/lib/libutee/arch/arm/user_ta_entry.c:212
    113e:	68fb      	ldr	r3, [r7, #12]
    1140:	687a      	ldr	r2, [r7, #4]
    1142:	601a      	str	r2, [r3, #0]
/home/qemu-sgx/devel/optee/optee_os/lib/libutee/arch/arm/user_ta_entry.c:213
    1144:	68fb      	ldr	r3, [r7, #12]
    1146:	f04f 0200 	mov.w	r2, #0
    114a:	605a      	str	r2, [r3, #4]
/home/qemu-sgx/devel/optee/optee_os/lib/libutee/arch/arm/user_ta_entry.c:214
    114c:	68fb      	ldr	r3, [r7, #12]
    114e:	f04f 0200 	mov.w	r2, #0
    1152:	609a      	str	r2, [r3, #8]
    1154:	4b0d      	ldr	r3, [pc, #52]	; (118c <ta_header_add_session+0xb4>)
    1156:	447b      	add	r3, pc
    1158:	685a      	ldr	r2, [r3, #4]
    115a:	68fb      	ldr	r3, [r7, #12]
    115c:	60da      	str	r2, [r3, #12]
    115e:	4b0c      	ldr	r3, [pc, #48]	; (1190 <ta_header_add_session+0xb8>)
    1160:	447b      	add	r3, pc
    1162:	685b      	ldr	r3, [r3, #4]
    1164:	68fa      	ldr	r2, [r7, #12]
    1166:	601a      	str	r2, [r3, #0]
    1168:	68fb      	ldr	r3, [r7, #12]
    116a:	f103 0208 	add.w	r2, r3, #8
    116e:	4b09      	ldr	r3, [pc, #36]	; (1194 <ta_header_add_session+0xbc>)
    1170:	447b      	add	r3, pc
    1172:	605a      	str	r2, [r3, #4]
/home/qemu-sgx/devel/optee/optee_os/lib/libutee/arch/arm/user_ta_entry.c:216
    1174:	f04f 0300 	mov.w	r3, #0
/home/qemu-sgx/devel/optee/optee_os/lib/libutee/arch/arm/user_ta_entry.c:217
    1178:	4618      	mov	r0, r3
    117a:	f107 0710 	add.w	r7, r7, #16
    117e:	46bd      	mov	sp, r7
    1180:	bd80      	pop	{r7, pc}
    1182:	bf00      	nop
    1184:	0001e210 	.word	0x0001e210
    1188:	0001e200 	.word	0x0001e200
    118c:	000160ee 	.word	0x000160ee
    1190:	000160e4 	.word	0x000160e4
    1194:	000160d4 	.word	0x000160d4

00001198 <ta_header_remove_session>:
ta_header_remove_session():
/home/qemu-sgx/devel/optee/optee_os/lib/libutee/arch/arm/user_ta_entry.c:220
    1198:	f84d 4d0c 	str.w	r4, [sp, #-12]!
    119c:	e9cd 7e01 	strd	r7, lr, [sp, #4]
    11a0:	b085      	sub	sp, #20
    11a2:	af00      	add	r7, sp, #0
    11a4:	6078      	str	r0, [r7, #4]
    11a6:	4c2c      	ldr	r4, [pc, #176]	; (1258 <ta_header_remove_session+0xc0>)
    11a8:	447c      	add	r4, pc
/home/qemu-sgx/devel/optee/optee_os/lib/libutee/arch/arm/user_ta_entry.c:224
    11aa:	4b2c      	ldr	r3, [pc, #176]	; (125c <ta_header_remove_session+0xc4>)
    11ac:	447b      	add	r3, pc
    11ae:	681b      	ldr	r3, [r3, #0]
    11b0:	60fb      	str	r3, [r7, #12]
    11b2:	e044      	b.n	123e <ta_header_remove_session+0xa6>
/home/qemu-sgx/devel/optee/optee_os/lib/libutee/arch/arm/user_ta_entry.c:225
    11b4:	68fb      	ldr	r3, [r7, #12]
    11b6:	681b      	ldr	r3, [r3, #0]
    11b8:	687a      	ldr	r2, [r7, #4]
    11ba:	429a      	cmp	r2, r3
    11bc:	d13c      	bne.n	1238 <ta_header_remove_session+0xa0>
/home/qemu-sgx/devel/optee/optee_os/lib/libutee/arch/arm/user_ta_entry.c:226
    11be:	68fb      	ldr	r3, [r7, #12]
    11c0:	689b      	ldr	r3, [r3, #8]
    11c2:	2b00      	cmp	r3, #0
    11c4:	d005      	beq.n	11d2 <ta_header_remove_session+0x3a>
/home/qemu-sgx/devel/optee/optee_os/lib/libutee/arch/arm/user_ta_entry.c:226 (discriminator 1)
    11c6:	68fb      	ldr	r3, [r7, #12]
    11c8:	689b      	ldr	r3, [r3, #8]
    11ca:	68fa      	ldr	r2, [r7, #12]
    11cc:	68d2      	ldr	r2, [r2, #12]
    11ce:	60da      	str	r2, [r3, #12]
    11d0:	e004      	b.n	11dc <ta_header_remove_session+0x44>
/home/qemu-sgx/devel/optee/optee_os/lib/libutee/arch/arm/user_ta_entry.c:226 (discriminator 2)
    11d2:	68fb      	ldr	r3, [r7, #12]
    11d4:	68da      	ldr	r2, [r3, #12]
    11d6:	4b22      	ldr	r3, [pc, #136]	; (1260 <ta_header_remove_session+0xc8>)
    11d8:	447b      	add	r3, pc
    11da:	605a      	str	r2, [r3, #4]
/home/qemu-sgx/devel/optee/optee_os/lib/libutee/arch/arm/user_ta_entry.c:226 (discriminator 4)
    11dc:	68fb      	ldr	r3, [r7, #12]
    11de:	68db      	ldr	r3, [r3, #12]
    11e0:	68fa      	ldr	r2, [r7, #12]
    11e2:	6892      	ldr	r2, [r2, #8]
    11e4:	601a      	str	r2, [r3, #0]
/home/qemu-sgx/devel/optee/optee_os/lib/libutee/arch/arm/user_ta_entry.c:227 (discriminator 4)
    11e6:	68f8      	ldr	r0, [r7, #12]
    11e8:	f000 ffe3 	bl	21b2 <TEE_Free>
/home/qemu-sgx/devel/optee/optee_os/lib/libutee/arch/arm/user_ta_entry.c:230 (discriminator 4)
    11ec:	4b1d      	ldr	r3, [pc, #116]	; (1264 <ta_header_remove_session+0xcc>)
    11ee:	58e3      	ldr	r3, [r4, r3]
    11f0:	695b      	ldr	r3, [r3, #20]
    11f2:	f003 0304 	and.w	r3, r3, #4
    11f6:	2b00      	cmp	r3, #0
    11f8:	d009      	beq.n	120e <ta_header_remove_session+0x76>
/home/qemu-sgx/devel/optee/optee_os/lib/libutee/arch/arm/user_ta_entry.c:231 (discriminator 1)
    11fa:	4b1a      	ldr	r3, [pc, #104]	; (1264 <ta_header_remove_session+0xcc>)
    11fc:	58e3      	ldr	r3, [r4, r3]
    11fe:	695b      	ldr	r3, [r3, #20]
    1200:	f003 0310 	and.w	r3, r3, #16
/home/qemu-sgx/devel/optee/optee_os/lib/libutee/arch/arm/user_ta_entry.c:230 (discriminator 1)
    1204:	2b00      	cmp	r3, #0
    1206:	d002      	beq.n	120e <ta_header_remove_session+0x76>
/home/qemu-sgx/devel/optee/optee_os/lib/libutee/arch/arm/user_ta_entry.c:230 (discriminator 3)
    1208:	f04f 0301 	mov.w	r3, #1
    120c:	e001      	b.n	1212 <ta_header_remove_session+0x7a>
/home/qemu-sgx/devel/optee/optee_os/lib/libutee/arch/arm/user_ta_entry.c:230 (discriminator 4)
    120e:	f04f 0300 	mov.w	r3, #0
/home/qemu-sgx/devel/optee/optee_os/lib/libutee/arch/arm/user_ta_entry.c:229
    1212:	72fb      	strb	r3, [r7, #11]
    1214:	7afb      	ldrb	r3, [r7, #11]
    1216:	f003 0301 	and.w	r3, r3, #1
    121a:	72fb      	strb	r3, [r7, #11]
/home/qemu-sgx/devel/optee/optee_os/lib/libutee/arch/arm/user_ta_entry.c:232
    121c:	4b12      	ldr	r3, [pc, #72]	; (1268 <ta_header_remove_session+0xd0>)
    121e:	447b      	add	r3, pc
    1220:	681b      	ldr	r3, [r3, #0]
    1222:	2b00      	cmp	r3, #0
    1224:	d10f      	bne.n	1246 <ta_header_remove_session+0xae>
/home/qemu-sgx/devel/optee/optee_os/lib/libutee/arch/arm/user_ta_entry.c:232 (discriminator 1)
    1226:	7afb      	ldrb	r3, [r7, #11]
    1228:	f083 0301 	eor.w	r3, r3, #1
    122c:	b2db      	uxtb	r3, r3
    122e:	2b00      	cmp	r3, #0
    1230:	d009      	beq.n	1246 <ta_header_remove_session+0xae>
/home/qemu-sgx/devel/optee/optee_os/lib/libutee/arch/arm/user_ta_entry.c:233
    1232:	f7ff fef7 	bl	1024 <uninit_instance>
/home/qemu-sgx/devel/optee/optee_os/lib/libutee/arch/arm/user_ta_entry.c:235
    1236:	e006      	b.n	1246 <ta_header_remove_session+0xae>
/home/qemu-sgx/devel/optee/optee_os/lib/libutee/arch/arm/user_ta_entry.c:224 (discriminator 2)
    1238:	68fb      	ldr	r3, [r7, #12]
    123a:	689b      	ldr	r3, [r3, #8]
    123c:	60fb      	str	r3, [r7, #12]
/home/qemu-sgx/devel/optee/optee_os/lib/libutee/arch/arm/user_ta_entry.c:224 (discriminator 1)
    123e:	68fb      	ldr	r3, [r7, #12]
    1240:	2b00      	cmp	r3, #0
    1242:	d1b7      	bne.n	11b4 <ta_header_remove_session+0x1c>
    1244:	e000      	b.n	1248 <ta_header_remove_session+0xb0>
/home/qemu-sgx/devel/optee/optee_os/lib/libutee/arch/arm/user_ta_entry.c:235
    1246:	bf00      	nop
/home/qemu-sgx/devel/optee/optee_os/lib/libutee/arch/arm/user_ta_entry.c:238
    1248:	f107 0714 	add.w	r7, r7, #20
    124c:	46bd      	mov	sp, r7
    124e:	e9dd 4700 	ldrd	r4, r7, [sp]
    1252:	b002      	add	sp, #8
    1254:	f85d fb04 	ldr.w	pc, [sp], #4
    1258:	00015edc 	.word	0x00015edc
    125c:	00016098 	.word	0x00016098
    1260:	0001606c 	.word	0x0001606c
    1264:	00000040 	.word	0x00000040
    1268:	00016026 	.word	0x00016026

0000126c <to_utee_params>:
to_utee_params():
/home/qemu-sgx/devel/optee/optee_os/lib/libutee/arch/arm/user_ta_entry.c:242
    126c:	f84d 4d1c 	str.w	r4, [sp, #-28]!
    1270:	e9cd 5701 	strd	r5, r7, [sp, #4]
    1274:	e9cd 8903 	strd	r8, r9, [sp, #12]
    1278:	e9cd ab05 	strd	sl, fp, [sp, #20]
    127c:	b08b      	sub	sp, #44	; 0x2c
    127e:	af00      	add	r7, sp, #0
    1280:	61f8      	str	r0, [r7, #28]
    1282:	61b9      	str	r1, [r7, #24]
    1284:	617a      	str	r2, [r7, #20]
/home/qemu-sgx/devel/optee/optee_os/lib/libutee/arch/arm/user_ta_entry.c:243
    1286:	f04f 0300 	mov.w	r3, #0
    128a:	627b      	str	r3, [r7, #36]	; 0x24
/home/qemu-sgx/devel/optee/optee_os/lib/libutee/arch/arm/user_ta_entry.c:245
    128c:	69bb      	ldr	r3, [r7, #24]
    128e:	f04f 0200 	mov.w	r2, #0
    1292:	60bb      	str	r3, [r7, #8]
    1294:	60fa      	str	r2, [r7, #12]
    1296:	69fb      	ldr	r3, [r7, #28]
    1298:	e9d7 1202 	ldrd	r1, r2, [r7, #8]
    129c:	e9c3 1200 	strd	r1, r2, [r3]
/home/qemu-sgx/devel/optee/optee_os/lib/libutee/arch/arm/user_ta_entry.c:246
    12a0:	f04f 0300 	mov.w	r3, #0
    12a4:	627b      	str	r3, [r7, #36]	; 0x24
    12a6:	e08f      	b.n	13c8 <to_utee_params+0x15c>
/home/qemu-sgx/devel/optee/optee_os/lib/libutee/arch/arm/user_ta_entry.c:247
    12a8:	6a7b      	ldr	r3, [r7, #36]	; 0x24
    12aa:	ea4f 0383 	mov.w	r3, r3, lsl #2
    12ae:	69ba      	ldr	r2, [r7, #24]
    12b0:	fa22 f303 	lsr.w	r3, r2, r3
    12b4:	f003 030f 	and.w	r3, r3, #15
    12b8:	2b03      	cmp	r3, #3
    12ba:	d802      	bhi.n	12c2 <to_utee_params+0x56>
    12bc:	2b00      	cmp	r3, #0
    12be:	d105      	bne.n	12cc <to_utee_params+0x60>
    12c0:	e061      	b.n	1386 <to_utee_params+0x11a>
    12c2:	f1a3 0305 	sub.w	r3, r3, #5
    12c6:	2b02      	cmp	r3, #2
    12c8:	d85d      	bhi.n	1386 <to_utee_params+0x11a>
    12ca:	e02c      	b.n	1326 <to_utee_params+0xba>
/home/qemu-sgx/devel/optee/optee_os/lib/libutee/arch/arm/user_ta_entry.c:251
    12cc:	6a7b      	ldr	r3, [r7, #36]	; 0x24
    12ce:	ea4f 03c3 	mov.w	r3, r3, lsl #3
    12d2:	697a      	ldr	r2, [r7, #20]
    12d4:	4413      	add	r3, r2
    12d6:	681a      	ldr	r2, [r3, #0]
    12d8:	6a7b      	ldr	r3, [r7, #36]	; 0x24
    12da:	ea4f 0343 	mov.w	r3, r3, lsl #1
    12de:	f04f 0100 	mov.w	r1, #0
    12e2:	4614      	mov	r4, r2
    12e4:	460d      	mov	r5, r1
    12e6:	69fa      	ldr	r2, [r7, #28]
    12e8:	f103 0301 	add.w	r3, r3, #1
    12ec:	ea4f 03c3 	mov.w	r3, r3, lsl #3
    12f0:	4413      	add	r3, r2
    12f2:	e9c3 4500 	strd	r4, r5, [r3]
/home/qemu-sgx/devel/optee/optee_os/lib/libutee/arch/arm/user_ta_entry.c:252
    12f6:	6a7b      	ldr	r3, [r7, #36]	; 0x24
    12f8:	ea4f 03c3 	mov.w	r3, r3, lsl #3
    12fc:	697a      	ldr	r2, [r7, #20]
    12fe:	4413      	add	r3, r2
    1300:	685a      	ldr	r2, [r3, #4]
    1302:	6a7b      	ldr	r3, [r7, #36]	; 0x24
    1304:	ea4f 0343 	mov.w	r3, r3, lsl #1
    1308:	f103 0301 	add.w	r3, r3, #1
    130c:	f04f 0100 	mov.w	r1, #0
    1310:	4690      	mov	r8, r2
    1312:	4689      	mov	r9, r1
    1314:	69fa      	ldr	r2, [r7, #28]
    1316:	f103 0301 	add.w	r3, r3, #1
    131a:	ea4f 03c3 	mov.w	r3, r3, lsl #3
    131e:	4413      	add	r3, r2
    1320:	e9c3 8900 	strd	r8, r9, [r3]
/home/qemu-sgx/devel/optee/optee_os/lib/libutee/arch/arm/user_ta_entry.c:253
    1324:	e04c      	b.n	13c0 <to_utee_params+0x154>
/home/qemu-sgx/devel/optee/optee_os/lib/libutee/arch/arm/user_ta_entry.c:257
    1326:	6a7b      	ldr	r3, [r7, #36]	; 0x24
    1328:	ea4f 03c3 	mov.w	r3, r3, lsl #3
    132c:	697a      	ldr	r2, [r7, #20]
    132e:	4413      	add	r3, r2
    1330:	681b      	ldr	r3, [r3, #0]
    1332:	4619      	mov	r1, r3
    1334:	6a7b      	ldr	r3, [r7, #36]	; 0x24
    1336:	ea4f 0343 	mov.w	r3, r3, lsl #1
    133a:	f04f 0200 	mov.w	r2, #0
    133e:	468a      	mov	sl, r1
    1340:	4693      	mov	fp, r2
    1342:	69fa      	ldr	r2, [r7, #28]
    1344:	f103 0301 	add.w	r3, r3, #1
    1348:	ea4f 03c3 	mov.w	r3, r3, lsl #3
    134c:	4413      	add	r3, r2
    134e:	e9c3 ab00 	strd	sl, fp, [r3]
/home/qemu-sgx/devel/optee/optee_os/lib/libutee/arch/arm/user_ta_entry.c:258
    1352:	6a7b      	ldr	r3, [r7, #36]	; 0x24
    1354:	ea4f 03c3 	mov.w	r3, r3, lsl #3
    1358:	697a      	ldr	r2, [r7, #20]
    135a:	4413      	add	r3, r2
    135c:	685a      	ldr	r2, [r3, #4]
    135e:	6a7b      	ldr	r3, [r7, #36]	; 0x24
    1360:	ea4f 0343 	mov.w	r3, r3, lsl #1
    1364:	f103 0301 	add.w	r3, r3, #1
    1368:	f04f 0100 	mov.w	r1, #0
    136c:	603a      	str	r2, [r7, #0]
    136e:	6079      	str	r1, [r7, #4]
    1370:	69fa      	ldr	r2, [r7, #28]
    1372:	f103 0301 	add.w	r3, r3, #1
    1376:	ea4f 03c3 	mov.w	r3, r3, lsl #3
    137a:	4413      	add	r3, r2
    137c:	e9d7 1200 	ldrd	r1, r2, [r7]
    1380:	e9c3 1200 	strd	r1, r2, [r3]
/home/qemu-sgx/devel/optee/optee_os/lib/libutee/arch/arm/user_ta_entry.c:259
    1384:	e01c      	b.n	13c0 <to_utee_params+0x154>
/home/qemu-sgx/devel/optee/optee_os/lib/libutee/arch/arm/user_ta_entry.c:261
    1386:	6a7b      	ldr	r3, [r7, #36]	; 0x24
    1388:	ea4f 0343 	mov.w	r3, r3, lsl #1
    138c:	69fa      	ldr	r2, [r7, #28]
    138e:	f103 0301 	add.w	r3, r3, #1
    1392:	ea4f 03c3 	mov.w	r3, r3, lsl #3
    1396:	4413      	add	r3, r2
    1398:	efc0 0010 	vmov.i32	d16, #0	; 0x00000000
    139c:	edc3 0b00 	vstr	d16, [r3]
/home/qemu-sgx/devel/optee/optee_os/lib/libutee/arch/arm/user_ta_entry.c:262
    13a0:	6a7b      	ldr	r3, [r7, #36]	; 0x24
    13a2:	ea4f 0343 	mov.w	r3, r3, lsl #1
    13a6:	f103 0301 	add.w	r3, r3, #1
    13aa:	69fa      	ldr	r2, [r7, #28]
    13ac:	f103 0301 	add.w	r3, r3, #1
    13b0:	ea4f 03c3 	mov.w	r3, r3, lsl #3
    13b4:	4413      	add	r3, r2
    13b6:	efc0 0010 	vmov.i32	d16, #0	; 0x00000000
    13ba:	edc3 0b00 	vstr	d16, [r3]
/home/qemu-sgx/devel/optee/optee_os/lib/libutee/arch/arm/user_ta_entry.c:263
    13be:	bf00      	nop
/home/qemu-sgx/devel/optee/optee_os/lib/libutee/arch/arm/user_ta_entry.c:246 (discriminator 2)
    13c0:	6a7b      	ldr	r3, [r7, #36]	; 0x24
    13c2:	f103 0301 	add.w	r3, r3, #1
    13c6:	627b      	str	r3, [r7, #36]	; 0x24
/home/qemu-sgx/devel/optee/optee_os/lib/libutee/arch/arm/user_ta_entry.c:246 (discriminator 1)
    13c8:	6a7b      	ldr	r3, [r7, #36]	; 0x24
    13ca:	2b03      	cmp	r3, #3
    13cc:	f67f af6c 	bls.w	12a8 <to_utee_params+0x3c>
/home/qemu-sgx/devel/optee/optee_os/lib/libutee/arch/arm/user_ta_entry.c:266
    13d0:	bf00      	nop
    13d2:	bf00      	nop
    13d4:	f107 072c 	add.w	r7, r7, #44	; 0x2c
    13d8:	46bd      	mov	sp, r7
    13da:	e9dd 4500 	ldrd	r4, r5, [sp]
    13de:	e9dd 7802 	ldrd	r7, r8, [sp, #8]
    13e2:	e9dd 9a04 	ldrd	r9, sl, [sp, #16]
    13e6:	b006      	add	sp, #24
    13e8:	f85d bb04 	ldr.w	fp, [sp], #4
    13ec:	4770      	bx	lr

000013ee <from_utee_params>:
from_utee_params():
/home/qemu-sgx/devel/optee/optee_os/lib/libutee/arch/arm/user_ta_entry.c:271
    13ee:	f84d 7d04 	str.w	r7, [sp, #-4]!
    13f2:	b089      	sub	sp, #36	; 0x24
    13f4:	af00      	add	r7, sp, #0
    13f6:	60f8      	str	r0, [r7, #12]
    13f8:	60b9      	str	r1, [r7, #8]
    13fa:	607a      	str	r2, [r7, #4]
/home/qemu-sgx/devel/optee/optee_os/lib/libutee/arch/arm/user_ta_entry.c:273
    13fc:	687b      	ldr	r3, [r7, #4]
    13fe:	e9d3 2300 	ldrd	r2, r3, [r3]
    1402:	4613      	mov	r3, r2
    1404:	61bb      	str	r3, [r7, #24]
/home/qemu-sgx/devel/optee/optee_os/lib/libutee/arch/arm/user_ta_entry.c:275
    1406:	f04f 0300 	mov.w	r3, #0
    140a:	61fb      	str	r3, [r7, #28]
    140c:	e050      	b.n	14b0 <from_utee_params+0xc2>
/home/qemu-sgx/devel/optee/optee_os/lib/libutee/arch/arm/user_ta_entry.c:276
    140e:	69fb      	ldr	r3, [r7, #28]
    1410:	ea4f 0343 	mov.w	r3, r3, lsl #1
    1414:	687a      	ldr	r2, [r7, #4]
    1416:	f103 0301 	add.w	r3, r3, #1
    141a:	ea4f 03c3 	mov.w	r3, r3, lsl #3
    141e:	4413      	add	r3, r2
    1420:	e9d3 2300 	ldrd	r2, r3, [r3]
    1424:	4613      	mov	r3, r2
    1426:	617b      	str	r3, [r7, #20]
/home/qemu-sgx/devel/optee/optee_os/lib/libutee/arch/arm/user_ta_entry.c:277
    1428:	69fb      	ldr	r3, [r7, #28]
    142a:	ea4f 0343 	mov.w	r3, r3, lsl #1
    142e:	f103 0301 	add.w	r3, r3, #1
    1432:	687a      	ldr	r2, [r7, #4]
    1434:	f103 0301 	add.w	r3, r3, #1
    1438:	ea4f 03c3 	mov.w	r3, r3, lsl #3
    143c:	4413      	add	r3, r2
    143e:	e9d3 2300 	ldrd	r2, r3, [r3]
    1442:	4613      	mov	r3, r2
    1444:	613b      	str	r3, [r7, #16]
/home/qemu-sgx/devel/optee/optee_os/lib/libutee/arch/arm/user_ta_entry.c:279
    1446:	69fb      	ldr	r3, [r7, #28]
    1448:	ea4f 0383 	mov.w	r3, r3, lsl #2
    144c:	69ba      	ldr	r2, [r7, #24]
    144e:	fa22 f303 	lsr.w	r3, r2, r3
    1452:	f003 030f 	and.w	r3, r3, #15
    1456:	2b03      	cmp	r3, #3
    1458:	d802      	bhi.n	1460 <from_utee_params+0x72>
    145a:	2b00      	cmp	r3, #0
    145c:	d105      	bne.n	146a <from_utee_params+0x7c>
/home/qemu-sgx/devel/optee/optee_os/lib/libutee/arch/arm/user_ta_entry.c:293
    145e:	e022      	b.n	14a6 <from_utee_params+0xb8>
    1460:	f1a3 0305 	sub.w	r3, r3, #5
/home/qemu-sgx/devel/optee/optee_os/lib/libutee/arch/arm/user_ta_entry.c:279
    1464:	2b02      	cmp	r3, #2
    1466:	d81e      	bhi.n	14a6 <from_utee_params+0xb8>
    1468:	e00e      	b.n	1488 <from_utee_params+0x9a>
/home/qemu-sgx/devel/optee/optee_os/lib/libutee/arch/arm/user_ta_entry.c:283
    146a:	69fb      	ldr	r3, [r7, #28]
    146c:	ea4f 03c3 	mov.w	r3, r3, lsl #3
    1470:	68fa      	ldr	r2, [r7, #12]
    1472:	4413      	add	r3, r2
    1474:	697a      	ldr	r2, [r7, #20]
    1476:	601a      	str	r2, [r3, #0]
/home/qemu-sgx/devel/optee/optee_os/lib/libutee/arch/arm/user_ta_entry.c:284
    1478:	69fb      	ldr	r3, [r7, #28]
    147a:	ea4f 03c3 	mov.w	r3, r3, lsl #3
    147e:	68fa      	ldr	r2, [r7, #12]
    1480:	4413      	add	r3, r2
    1482:	693a      	ldr	r2, [r7, #16]
    1484:	605a      	str	r2, [r3, #4]
/home/qemu-sgx/devel/optee/optee_os/lib/libutee/arch/arm/user_ta_entry.c:285
    1486:	e00f      	b.n	14a8 <from_utee_params+0xba>
/home/qemu-sgx/devel/optee/optee_os/lib/libutee/arch/arm/user_ta_entry.c:289
    1488:	69fb      	ldr	r3, [r7, #28]
    148a:	ea4f 03c3 	mov.w	r3, r3, lsl #3
    148e:	68fa      	ldr	r2, [r7, #12]
    1490:	4413      	add	r3, r2
    1492:	697a      	ldr	r2, [r7, #20]
    1494:	601a      	str	r2, [r3, #0]
/home/qemu-sgx/devel/optee/optee_os/lib/libutee/arch/arm/user_ta_entry.c:290
    1496:	69fb      	ldr	r3, [r7, #28]
    1498:	ea4f 03c3 	mov.w	r3, r3, lsl #3
    149c:	68fa      	ldr	r2, [r7, #12]
    149e:	4413      	add	r3, r2
    14a0:	693a      	ldr	r2, [r7, #16]
    14a2:	605a      	str	r2, [r3, #4]
/home/qemu-sgx/devel/optee/optee_os/lib/libutee/arch/arm/user_ta_entry.c:291
    14a4:	e000      	b.n	14a8 <from_utee_params+0xba>
/home/qemu-sgx/devel/optee/optee_os/lib/libutee/arch/arm/user_ta_entry.c:293
    14a6:	bf00      	nop
/home/qemu-sgx/devel/optee/optee_os/lib/libutee/arch/arm/user_ta_entry.c:275 (discriminator 2)
    14a8:	69fb      	ldr	r3, [r7, #28]
    14aa:	f103 0301 	add.w	r3, r3, #1
    14ae:	61fb      	str	r3, [r7, #28]
/home/qemu-sgx/devel/optee/optee_os/lib/libutee/arch/arm/user_ta_entry.c:275 (discriminator 1)
    14b0:	69fb      	ldr	r3, [r7, #28]
    14b2:	2b03      	cmp	r3, #3
    14b4:	d9ab      	bls.n	140e <from_utee_params+0x20>
/home/qemu-sgx/devel/optee/optee_os/lib/libutee/arch/arm/user_ta_entry.c:297
    14b6:	68bb      	ldr	r3, [r7, #8]
    14b8:	2b00      	cmp	r3, #0
    14ba:	d002      	beq.n	14c2 <from_utee_params+0xd4>
/home/qemu-sgx/devel/optee/optee_os/lib/libutee/arch/arm/user_ta_entry.c:298
    14bc:	68bb      	ldr	r3, [r7, #8]
    14be:	69ba      	ldr	r2, [r7, #24]
    14c0:	601a      	str	r2, [r3, #0]
/home/qemu-sgx/devel/optee/optee_os/lib/libutee/arch/arm/user_ta_entry.c:299
    14c2:	bf00      	nop
    14c4:	f107 0724 	add.w	r7, r7, #36	; 0x24
    14c8:	46bd      	mov	sp, r7
    14ca:	f85d 7b04 	ldr.w	r7, [sp], #4
    14ce:	4770      	bx	lr

000014d0 <entry_open_session>:
entry_open_session():
/home/qemu-sgx/devel/optee/optee_os/lib/libutee/arch/arm/user_ta_entry.c:303
    14d0:	e96d 7e02 	strd	r7, lr, [sp, #-8]!
    14d4:	b08e      	sub	sp, #56	; 0x38
    14d6:	af00      	add	r7, sp, #0
    14d8:	6078      	str	r0, [r7, #4]
    14da:	6039      	str	r1, [r7, #0]
/home/qemu-sgx/devel/optee/optee_os/lib/libutee/arch/arm/user_ta_entry.c:309
    14dc:	6878      	ldr	r0, [r7, #4]
    14de:	f7ff fdfb 	bl	10d8 <ta_header_add_session>
    14e2:	6378      	str	r0, [r7, #52]	; 0x34
/home/qemu-sgx/devel/optee/optee_os/lib/libutee/arch/arm/user_ta_entry.c:310
    14e4:	6b7b      	ldr	r3, [r7, #52]	; 0x34
    14e6:	2b00      	cmp	r3, #0
    14e8:	d001      	beq.n	14ee <entry_open_session+0x1e>
/home/qemu-sgx/devel/optee/optee_os/lib/libutee/arch/arm/user_ta_entry.c:311
    14ea:	6b7b      	ldr	r3, [r7, #52]	; 0x34
    14ec:	e032      	b.n	1554 <entry_open_session+0x84>
/home/qemu-sgx/devel/optee/optee_os/lib/libutee/arch/arm/user_ta_entry.c:313
    14ee:	6878      	ldr	r0, [r7, #4]
    14f0:	f7ff fdd0 	bl	1094 <ta_header_get_session>
    14f4:	6338      	str	r0, [r7, #48]	; 0x30
/home/qemu-sgx/devel/optee/optee_os/lib/libutee/arch/arm/user_ta_entry.c:314
    14f6:	6b3b      	ldr	r3, [r7, #48]	; 0x30
    14f8:	2b00      	cmp	r3, #0
    14fa:	d104      	bne.n	1506 <entry_open_session+0x36>
/home/qemu-sgx/devel/optee/optee_os/lib/libutee/arch/arm/user_ta_entry.c:315
    14fc:	f04f 0307 	mov.w	r3, #7
    1500:	f6cf 73ff 	movt	r3, #65535	; 0xffff
    1504:	e026      	b.n	1554 <entry_open_session+0x84>
/home/qemu-sgx/devel/optee/optee_os/lib/libutee/arch/arm/user_ta_entry.c:317
    1506:	f107 012c 	add.w	r1, r7, #44	; 0x2c
    150a:	f107 030c 	add.w	r3, r7, #12
    150e:	683a      	ldr	r2, [r7, #0]
    1510:	4618      	mov	r0, r3
    1512:	f7ff ff6c 	bl	13ee <from_utee_params>
/home/qemu-sgx/devel/optee/optee_os/lib/libutee/arch/arm/user_ta_entry.c:318
    1516:	6afb      	ldr	r3, [r7, #44]	; 0x2c
    1518:	f107 020c 	add.w	r2, r7, #12
    151c:	4611      	mov	r1, r2
    151e:	4618      	mov	r0, r3
    1520:	f7ff fd8c 	bl	103c <ta_header_save_params>
/home/qemu-sgx/devel/optee/optee_os/lib/libutee/arch/arm/user_ta_entry.c:320
    1524:	6af8      	ldr	r0, [r7, #44]	; 0x2c
    1526:	6b3b      	ldr	r3, [r7, #48]	; 0x30
    1528:	f103 0204 	add.w	r2, r3, #4
    152c:	f107 030c 	add.w	r3, r7, #12
    1530:	4619      	mov	r1, r3
    1532:	f7fe fd87 	bl	44 <TA_OpenSessionEntryPoint>
    1536:	6378      	str	r0, [r7, #52]	; 0x34
/home/qemu-sgx/devel/optee/optee_os/lib/libutee/arch/arm/user_ta_entry.c:323
    1538:	6afb      	ldr	r3, [r7, #44]	; 0x2c
    153a:	f107 020c 	add.w	r2, r7, #12
    153e:	4619      	mov	r1, r3
    1540:	6838      	ldr	r0, [r7, #0]
    1542:	f7ff fe93 	bl	126c <to_utee_params>
/home/qemu-sgx/devel/optee/optee_os/lib/libutee/arch/arm/user_ta_entry.c:325
    1546:	6b7b      	ldr	r3, [r7, #52]	; 0x34
    1548:	2b00      	cmp	r3, #0
    154a:	d002      	beq.n	1552 <entry_open_session+0x82>
/home/qemu-sgx/devel/optee/optee_os/lib/libutee/arch/arm/user_ta_entry.c:326
    154c:	6878      	ldr	r0, [r7, #4]
    154e:	f7ff fe23 	bl	1198 <ta_header_remove_session>
/home/qemu-sgx/devel/optee/optee_os/lib/libutee/arch/arm/user_ta_entry.c:327
    1552:	6b7b      	ldr	r3, [r7, #52]	; 0x34
/home/qemu-sgx/devel/optee/optee_os/lib/libutee/arch/arm/user_ta_entry.c:328 (discriminator 1)
    1554:	4618      	mov	r0, r3
    1556:	f107 0738 	add.w	r7, r7, #56	; 0x38
    155a:	46bd      	mov	sp, r7
    155c:	bd80      	pop	{r7, pc}

0000155e <entry_close_session>:
entry_close_session():
/home/qemu-sgx/devel/optee/optee_os/lib/libutee/arch/arm/user_ta_entry.c:331
    155e:	e96d 7e02 	strd	r7, lr, [sp, #-8]!
    1562:	b084      	sub	sp, #16
    1564:	af00      	add	r7, sp, #0
    1566:	6078      	str	r0, [r7, #4]
/home/qemu-sgx/devel/optee/optee_os/lib/libutee/arch/arm/user_ta_entry.c:332
    1568:	6878      	ldr	r0, [r7, #4]
    156a:	f7ff fd93 	bl	1094 <ta_header_get_session>
    156e:	60f8      	str	r0, [r7, #12]
/home/qemu-sgx/devel/optee/optee_os/lib/libutee/arch/arm/user_ta_entry.c:334
    1570:	68fb      	ldr	r3, [r7, #12]
    1572:	2b00      	cmp	r3, #0
    1574:	d104      	bne.n	1580 <entry_close_session+0x22>
/home/qemu-sgx/devel/optee/optee_os/lib/libutee/arch/arm/user_ta_entry.c:335
    1576:	f04f 0307 	mov.w	r3, #7
    157a:	f6cf 73ff 	movt	r3, #65535	; 0xffff
    157e:	e009      	b.n	1594 <entry_close_session+0x36>
/home/qemu-sgx/devel/optee/optee_os/lib/libutee/arch/arm/user_ta_entry.c:337
    1580:	68fb      	ldr	r3, [r7, #12]
    1582:	685b      	ldr	r3, [r3, #4]
    1584:	4618      	mov	r0, r3
    1586:	f7fe fd7d 	bl	84 <TA_CloseSessionEntryPoint>
/home/qemu-sgx/devel/optee/optee_os/lib/libutee/arch/arm/user_ta_entry.c:339
    158a:	6878      	ldr	r0, [r7, #4]
    158c:	f7ff fe04 	bl	1198 <ta_header_remove_session>
/home/qemu-sgx/devel/optee/optee_os/lib/libutee/arch/arm/user_ta_entry.c:340
    1590:	f04f 0300 	mov.w	r3, #0
/home/qemu-sgx/devel/optee/optee_os/lib/libutee/arch/arm/user_ta_entry.c:341
    1594:	4618      	mov	r0, r3
    1596:	f107 0710 	add.w	r7, r7, #16
    159a:	46bd      	mov	sp, r7
    159c:	bd80      	pop	{r7, pc}

0000159e <entry_invoke_command>:
entry_invoke_command():
/home/qemu-sgx/devel/optee/optee_os/lib/libutee/arch/arm/user_ta_entry.c:345
    159e:	e96d 7e02 	strd	r7, lr, [sp, #-8]!
    15a2:	b090      	sub	sp, #64	; 0x40
    15a4:	af00      	add	r7, sp, #0
    15a6:	60f8      	str	r0, [r7, #12]
    15a8:	60b9      	str	r1, [r7, #8]
    15aa:	607a      	str	r2, [r7, #4]
/home/qemu-sgx/devel/optee/optee_os/lib/libutee/arch/arm/user_ta_entry.c:349
    15ac:	68f8      	ldr	r0, [r7, #12]
    15ae:	f7ff fd71 	bl	1094 <ta_header_get_session>
    15b2:	63f8      	str	r0, [r7, #60]	; 0x3c
/home/qemu-sgx/devel/optee/optee_os/lib/libutee/arch/arm/user_ta_entry.c:351
    15b4:	6bfb      	ldr	r3, [r7, #60]	; 0x3c
    15b6:	2b00      	cmp	r3, #0
    15b8:	d104      	bne.n	15c4 <entry_invoke_command+0x26>
/home/qemu-sgx/devel/optee/optee_os/lib/libutee/arch/arm/user_ta_entry.c:352
    15ba:	f04f 0307 	mov.w	r3, #7
    15be:	f6cf 73ff 	movt	r3, #65535	; 0xffff
    15c2:	e01f      	b.n	1604 <entry_invoke_command+0x66>
/home/qemu-sgx/devel/optee/optee_os/lib/libutee/arch/arm/user_ta_entry.c:354
    15c4:	f107 0134 	add.w	r1, r7, #52	; 0x34
    15c8:	f107 0314 	add.w	r3, r7, #20
    15cc:	68ba      	ldr	r2, [r7, #8]
    15ce:	4618      	mov	r0, r3
    15d0:	f7ff ff0d 	bl	13ee <from_utee_params>
/home/qemu-sgx/devel/optee/optee_os/lib/libutee/arch/arm/user_ta_entry.c:355
    15d4:	6b7b      	ldr	r3, [r7, #52]	; 0x34
    15d6:	f107 0214 	add.w	r2, r7, #20
    15da:	4611      	mov	r1, r2
    15dc:	4618      	mov	r0, r3
    15de:	f7ff fd2d 	bl	103c <ta_header_save_params>
/home/qemu-sgx/devel/optee/optee_os/lib/libutee/arch/arm/user_ta_entry.c:357
    15e2:	6bfb      	ldr	r3, [r7, #60]	; 0x3c
    15e4:	6858      	ldr	r0, [r3, #4]
    15e6:	6b7a      	ldr	r2, [r7, #52]	; 0x34
    15e8:	f107 0314 	add.w	r3, r7, #20
    15ec:	6879      	ldr	r1, [r7, #4]
    15ee:	f7fe fec3 	bl	378 <TA_InvokeCommandEntryPoint>
    15f2:	63b8      	str	r0, [r7, #56]	; 0x38
/home/qemu-sgx/devel/optee/optee_os/lib/libutee/arch/arm/user_ta_entry.c:360
    15f4:	6b7b      	ldr	r3, [r7, #52]	; 0x34
    15f6:	f107 0214 	add.w	r2, r7, #20
    15fa:	4619      	mov	r1, r3
    15fc:	68b8      	ldr	r0, [r7, #8]
    15fe:	f7ff fe35 	bl	126c <to_utee_params>
/home/qemu-sgx/devel/optee/optee_os/lib/libutee/arch/arm/user_ta_entry.c:361
    1602:	6bbb      	ldr	r3, [r7, #56]	; 0x38
/home/qemu-sgx/devel/optee/optee_os/lib/libutee/arch/arm/user_ta_entry.c:362 (discriminator 1)
    1604:	4618      	mov	r0, r3
    1606:	f107 0740 	add.w	r7, r7, #64	; 0x40
    160a:	46bd      	mov	sp, r7
    160c:	bd80      	pop	{r7, pc}

0000160e <__utee_entry>:
__utee_entry():
/home/qemu-sgx/devel/optee/optee_os/lib/libutee/arch/arm/user_ta_entry.c:366
    160e:	e96d 7e02 	strd	r7, lr, [sp, #-8]!
    1612:	b086      	sub	sp, #24
    1614:	af00      	add	r7, sp, #0
    1616:	60f8      	str	r0, [r7, #12]
    1618:	60b9      	str	r1, [r7, #8]
    161a:	607a      	str	r2, [r7, #4]
    161c:	603b      	str	r3, [r7, #0]
/home/qemu-sgx/devel/optee/optee_os/lib/libutee/arch/arm/user_ta_entry.c:369
    161e:	68fb      	ldr	r3, [r7, #12]
    1620:	2b02      	cmp	r3, #2
    1622:	d014      	beq.n	164e <__utee_entry+0x40>
    1624:	68fb      	ldr	r3, [r7, #12]
    1626:	2b02      	cmp	r3, #2
    1628:	d818      	bhi.n	165c <__utee_entry+0x4e>
    162a:	68fb      	ldr	r3, [r7, #12]
    162c:	2b00      	cmp	r3, #0
    162e:	d003      	beq.n	1638 <__utee_entry+0x2a>
    1630:	68fb      	ldr	r3, [r7, #12]
    1632:	2b01      	cmp	r3, #1
    1634:	d006      	beq.n	1644 <__utee_entry+0x36>
    1636:	e011      	b.n	165c <__utee_entry+0x4e>
/home/qemu-sgx/devel/optee/optee_os/lib/libutee/arch/arm/user_ta_entry.c:371
    1638:	6879      	ldr	r1, [r7, #4]
    163a:	68b8      	ldr	r0, [r7, #8]
    163c:	f7ff ff48 	bl	14d0 <entry_open_session>
    1640:	6178      	str	r0, [r7, #20]
/home/qemu-sgx/devel/optee/optee_os/lib/libutee/arch/arm/user_ta_entry.c:372
    1642:	e013      	b.n	166c <__utee_entry+0x5e>
/home/qemu-sgx/devel/optee/optee_os/lib/libutee/arch/arm/user_ta_entry.c:374
    1644:	68b8      	ldr	r0, [r7, #8]
    1646:	f7ff ff8a 	bl	155e <entry_close_session>
    164a:	6178      	str	r0, [r7, #20]
/home/qemu-sgx/devel/optee/optee_os/lib/libutee/arch/arm/user_ta_entry.c:375
    164c:	e00e      	b.n	166c <__utee_entry+0x5e>
/home/qemu-sgx/devel/optee/optee_os/lib/libutee/arch/arm/user_ta_entry.c:377
    164e:	683a      	ldr	r2, [r7, #0]
    1650:	6879      	ldr	r1, [r7, #4]
    1652:	68b8      	ldr	r0, [r7, #8]
    1654:	f7ff ffa3 	bl	159e <entry_invoke_command>
    1658:	6178      	str	r0, [r7, #20]
/home/qemu-sgx/devel/optee/optee_os/lib/libutee/arch/arm/user_ta_entry.c:378
    165a:	e007      	b.n	166c <__utee_entry+0x5e>
/home/qemu-sgx/devel/optee/optee_os/lib/libutee/arch/arm/user_ta_entry.c:380
    165c:	f04f 33ff 	mov.w	r3, #4294967295	; 0xffffffff
    1660:	617b      	str	r3, [r7, #20]
/home/qemu-sgx/devel/optee/optee_os/lib/libutee/arch/arm/user_ta_entry.c:381
    1662:	f04f 0000 	mov.w	r0, #0
    1666:	f002 fcdd 	bl	4024 <TEE_Panic>
/home/qemu-sgx/devel/optee/optee_os/lib/libutee/arch/arm/user_ta_entry.c:382
    166a:	bf00      	nop
/home/qemu-sgx/devel/optee/optee_os/lib/libutee/arch/arm/user_ta_entry.c:384
    166c:	f04f 0100 	mov.w	r1, #0
    1670:	f04f 0000 	mov.w	r0, #0
    1674:	f7ff fce2 	bl	103c <ta_header_save_params>
/home/qemu-sgx/devel/optee/optee_os/lib/libutee/arch/arm/user_ta_entry.c:386
    1678:	697b      	ldr	r3, [r7, #20]
/home/qemu-sgx/devel/optee/optee_os/lib/libutee/arch/arm/user_ta_entry.c:387
    167a:	4618      	mov	r0, r3
    167c:	f107 0718 	add.w	r7, r7, #24
    1680:	46bd      	mov	sp, r7
    1682:	bd80      	pop	{r7, pc}

00001684 <abort>:
abort():
/home/qemu-sgx/devel/optee/optee_os/lib/libutee/abort.c:12
    1684:	e96d 7e02 	strd	r7, lr, [sp, #-8]!
    1688:	af00      	add	r7, sp, #0
/home/qemu-sgx/devel/optee/optee_os/lib/libutee/abort.c:13
    168a:	4b05      	ldr	r3, [pc, #20]	; (16a0 <abort+0x1c>)
    168c:	447b      	add	r3, pc
    168e:	4618      	mov	r0, r3
    1690:	f000 f85e 	bl	1750 <puts>
/home/qemu-sgx/devel/optee/optee_os/lib/libutee/abort.c:14
    1694:	f04f 0000 	mov.w	r0, #0
    1698:	f7ff e85a 	blx	750 <_utee_panic>
/home/qemu-sgx/devel/optee/optee_os/lib/libutee/abort.c:16 (discriminator 1)
    169c:	e7fe      	b.n	169c <abort+0x18>
    169e:	bf00      	nop
    16a0:	00012250 	.word	0x00012250

000016a4 <trace_ext_puts>:
trace_ext_puts():
/home/qemu-sgx/devel/optee/optee_os/lib/libutee/trace_ext.c:22
    16a4:	e96d 7e02 	strd	r7, lr, [sp, #-8]!
    16a8:	b082      	sub	sp, #8
    16aa:	af00      	add	r7, sp, #0
    16ac:	6078      	str	r0, [r7, #4]
/home/qemu-sgx/devel/optee/optee_os/lib/libutee/trace_ext.c:26
    16ae:	6878      	ldr	r0, [r7, #4]
    16b0:	f010 fd3f 	bl	12132 <strlen>
    16b4:	4603      	mov	r3, r0
    16b6:	4619      	mov	r1, r3
    16b8:	6878      	ldr	r0, [r7, #4]
    16ba:	f7ff e85e 	blx	778 <_utee_log>
/home/qemu-sgx/devel/optee/optee_os/lib/libutee/trace_ext.c:28
    16be:	bf00      	nop
    16c0:	f107 0708 	add.w	r7, r7, #8
    16c4:	46bd      	mov	sp, r7
    16c6:	bd80      	pop	{r7, pc}

000016c8 <trace_ext_get_thread_id>:
trace_ext_get_thread_id():
/home/qemu-sgx/devel/optee/optee_os/lib/libutee/trace_ext.c:31
    16c8:	f84d 7d04 	str.w	r7, [sp, #-4]!
    16cc:	af00      	add	r7, sp, #0
/home/qemu-sgx/devel/optee/optee_os/lib/libutee/trace_ext.c:32
    16ce:	f04f 33ff 	mov.w	r3, #4294967295	; 0xffffffff
/home/qemu-sgx/devel/optee/optee_os/lib/libutee/trace_ext.c:33
    16d2:	4618      	mov	r0, r3
    16d4:	46bd      	mov	sp, r7
    16d6:	f85d 7b04 	ldr.w	r7, [sp], #4
    16da:	4770      	bx	lr

000016dc <printf>:
printf():
/home/qemu-sgx/devel/optee/optee_os/lib/libutee/trace_ext.c:41
    16dc:	b40f      	push	{r0, r1, r2, r3}
    16de:	e96d 7e02 	strd	r7, lr, [sp, #-8]!
    16e2:	b0c2      	sub	sp, #264	; 0x108
    16e4:	af00      	add	r7, sp, #0
/home/qemu-sgx/devel/optee/optee_os/lib/libutee/trace_ext.c:46
    16e6:	f00c fa2f 	bl	db48 <trace_get_level>
    16ea:	4603      	mov	r3, r0
    16ec:	2b00      	cmp	r3, #0
    16ee:	dc02      	bgt.n	16f6 <printf+0x1a>
/home/qemu-sgx/devel/optee/optee_os/lib/libutee/trace_ext.c:47
    16f0:	f04f 0300 	mov.w	r3, #0
    16f4:	e023      	b.n	173e <printf+0x62>
/home/qemu-sgx/devel/optee/optee_os/lib/libutee/trace_ext.c:49
    16f6:	f507 728a 	add.w	r2, r7, #276	; 0x114
    16fa:	f507 7384 	add.w	r3, r7, #264	; 0x108
    16fe:	f5a3 7384 	sub.w	r3, r3, #264	; 0x108
    1702:	601a      	str	r2, [r3, #0]
/home/qemu-sgx/devel/optee/optee_os/lib/libutee/trace_ext.c:50
    1704:	f507 7384 	add.w	r3, r7, #264	; 0x108
    1708:	f5a3 7384 	sub.w	r3, r3, #264	; 0x108
    170c:	f107 0004 	add.w	r0, r7, #4
    1710:	681b      	ldr	r3, [r3, #0]
    1712:	f8d7 2110 	ldr.w	r2, [r7, #272]	; 0x110
    1716:	f44f 7180 	mov.w	r1, #256	; 0x100
    171a:	f010 fb4d 	bl	11db8 <vsnprintf>
    171e:	f8c7 0104 	str.w	r0, [r7, #260]	; 0x104
/home/qemu-sgx/devel/optee/optee_os/lib/libutee/trace_ext.c:53
    1722:	f8d7 3104 	ldr.w	r3, [r7, #260]	; 0x104
    1726:	2b00      	cmp	r3, #0
    1728:	da02      	bge.n	1730 <printf+0x54>
/home/qemu-sgx/devel/optee/optee_os/lib/libutee/trace_ext.c:54
    172a:	f8d7 3104 	ldr.w	r3, [r7, #260]	; 0x104
    172e:	e006      	b.n	173e <printf+0x62>
/home/qemu-sgx/devel/optee/optee_os/lib/libutee/trace_ext.c:56
    1730:	f107 0304 	add.w	r3, r7, #4
    1734:	4618      	mov	r0, r3
    1736:	f7ff ffb5 	bl	16a4 <trace_ext_puts>
/home/qemu-sgx/devel/optee/optee_os/lib/libutee/trace_ext.c:58
    173a:	f8d7 3104 	ldr.w	r3, [r7, #260]	; 0x104
/home/qemu-sgx/devel/optee/optee_os/lib/libutee/trace_ext.c:59 (discriminator 1)
    173e:	4618      	mov	r0, r3
    1740:	f507 7784 	add.w	r7, r7, #264	; 0x108
    1744:	46bd      	mov	sp, r7
    1746:	e9dd 7e00 	ldrd	r7, lr, [sp]
    174a:	b002      	add	sp, #8
    174c:	b004      	add	sp, #16
    174e:	4770      	bx	lr

00001750 <puts>:
puts():
/home/qemu-sgx/devel/optee/optee_os/lib/libutee/trace_ext.c:62
    1750:	e96d 7e02 	strd	r7, lr, [sp, #-8]!
    1754:	b082      	sub	sp, #8
    1756:	af00      	add	r7, sp, #0
    1758:	6078      	str	r0, [r7, #4]
/home/qemu-sgx/devel/optee/optee_os/lib/libutee/trace_ext.c:63
    175a:	f00c f9f5 	bl	db48 <trace_get_level>
    175e:	4603      	mov	r3, r0
    1760:	2b00      	cmp	r3, #0
    1762:	dd07      	ble.n	1774 <puts+0x24>
/home/qemu-sgx/devel/optee/optee_os/lib/libutee/trace_ext.c:64
    1764:	6878      	ldr	r0, [r7, #4]
    1766:	f7ff ff9d 	bl	16a4 <trace_ext_puts>
/home/qemu-sgx/devel/optee/optee_os/lib/libutee/trace_ext.c:65
    176a:	4b06      	ldr	r3, [pc, #24]	; (1784 <puts+0x34>)
    176c:	447b      	add	r3, pc
    176e:	4618      	mov	r0, r3
    1770:	f7ff ff98 	bl	16a4 <trace_ext_puts>
/home/qemu-sgx/devel/optee/optee_os/lib/libutee/trace_ext.c:67
    1774:	f04f 0301 	mov.w	r3, #1
/home/qemu-sgx/devel/optee/optee_os/lib/libutee/trace_ext.c:68
    1778:	4618      	mov	r0, r3
    177a:	f107 0708 	add.w	r7, r7, #8
    177e:	46bd      	mov	sp, r7
    1780:	bd80      	pop	{r7, pc}
    1782:	bf00      	nop
    1784:	00012178 	.word	0x00012178

00001788 <putchar>:
putchar():
/home/qemu-sgx/devel/optee/optee_os/lib/libutee/trace_ext.c:71
    1788:	e96d 7e02 	strd	r7, lr, [sp, #-8]!
    178c:	b084      	sub	sp, #16
    178e:	af00      	add	r7, sp, #0
    1790:	6078      	str	r0, [r7, #4]
/home/qemu-sgx/devel/optee/optee_os/lib/libutee/trace_ext.c:72
    1792:	687b      	ldr	r3, [r7, #4]
    1794:	b2db      	uxtb	r3, r3
    1796:	733b      	strb	r3, [r7, #12]
    1798:	f04f 0300 	mov.w	r3, #0
    179c:	737b      	strb	r3, [r7, #13]
/home/qemu-sgx/devel/optee/optee_os/lib/libutee/trace_ext.c:74
    179e:	f00c f9d3 	bl	db48 <trace_get_level>
    17a2:	4603      	mov	r3, r0
    17a4:	2b00      	cmp	r3, #0
    17a6:	dd04      	ble.n	17b2 <putchar+0x2a>
/home/qemu-sgx/devel/optee/optee_os/lib/libutee/trace_ext.c:75
    17a8:	f107 030c 	add.w	r3, r7, #12
    17ac:	4618      	mov	r0, r3
    17ae:	f7ff ff79 	bl	16a4 <trace_ext_puts>
/home/qemu-sgx/devel/optee/optee_os/lib/libutee/trace_ext.c:81
    17b2:	687b      	ldr	r3, [r7, #4]
    17b4:	b2db      	uxtb	r3, r3
/home/qemu-sgx/devel/optee/optee_os/lib/libutee/trace_ext.c:82
    17b6:	4618      	mov	r0, r3
    17b8:	f107 0710 	add.w	r7, r7, #16
    17bc:	46bd      	mov	sp, r7
    17be:	bd80      	pop	{r7, pc}

000017c0 <copy_param>:
copy_param():
/home/qemu-sgx/devel/optee/optee_os/lib/libutee/tee_api.c:29
    17c0:	e96d 4508 	strd	r4, r5, [sp, #-32]!
    17c4:	e9cd 7802 	strd	r7, r8, [sp, #8]
    17c8:	e9cd 9a04 	strd	r9, sl, [sp, #16]
    17cc:	e9cd be06 	strd	fp, lr, [sp, #24]
    17d0:	b090      	sub	sp, #64	; 0x40
    17d2:	af00      	add	r7, sp, #0
    17d4:	61f8      	str	r0, [r7, #28]
    17d6:	61b9      	str	r1, [r7, #24]
    17d8:	617a      	str	r2, [r7, #20]
    17da:	613b      	str	r3, [r7, #16]
/home/qemu-sgx/devel/optee/optee_os/lib/libutee/tee_api.c:30
    17dc:	f04f 0300 	mov.w	r3, #0
    17e0:	63fb      	str	r3, [r7, #60]	; 0x3c
/home/qemu-sgx/devel/optee/optee_os/lib/libutee/tee_api.c:31
    17e2:	f04f 0300 	mov.w	r3, #0
    17e6:	63bb      	str	r3, [r7, #56]	; 0x38
/home/qemu-sgx/devel/optee/optee_os/lib/libutee/tee_api.c:32
    17e8:	f04f 0300 	mov.w	r3, #0
    17ec:	637b      	str	r3, [r7, #52]	; 0x34
/home/qemu-sgx/devel/optee/optee_os/lib/libutee/tee_api.c:33
    17ee:	f04f 0308 	mov.w	r3, #8
    17f2:	62fb      	str	r3, [r7, #44]	; 0x2c
/home/qemu-sgx/devel/optee/optee_os/lib/libutee/tee_api.c:34
    17f4:	f04f 0300 	mov.w	r3, #0
    17f8:	623b      	str	r3, [r7, #32]
/home/qemu-sgx/devel/optee/optee_os/lib/libutee/tee_api.c:35
    17fa:	f04f 0300 	mov.w	r3, #0
    17fe:	633b      	str	r3, [r7, #48]	; 0x30
/home/qemu-sgx/devel/optee/optee_os/lib/libutee/tee_api.c:36
    1800:	f04f 0300 	mov.w	r3, #0
    1804:	62bb      	str	r3, [r7, #40]	; 0x28
/home/qemu-sgx/devel/optee/optee_os/lib/libutee/tee_api.c:37
    1806:	f04f 0301 	mov.w	r3, #1
    180a:	627b      	str	r3, [r7, #36]	; 0x24
/home/qemu-sgx/devel/optee/optee_os/lib/libutee/tee_api.c:45
    180c:	693b      	ldr	r3, [r7, #16]
    180e:	f04f 0200 	mov.w	r2, #0
    1812:	601a      	str	r2, [r3, #0]
/home/qemu-sgx/devel/optee/optee_os/lib/libutee/tee_api.c:46
    1814:	6e3b      	ldr	r3, [r7, #96]	; 0x60
    1816:	f04f 0200 	mov.w	r2, #0
    181a:	601a      	str	r2, [r3, #0]
/home/qemu-sgx/devel/optee/optee_os/lib/libutee/tee_api.c:47
    181c:	f04f 0300 	mov.w	r3, #0
    1820:	63fb      	str	r3, [r7, #60]	; 0x3c
    1822:	e04b      	b.n	18bc <copy_param+0xfc>
/home/qemu-sgx/devel/optee/optee_os/lib/libutee/tee_api.c:48
    1824:	6bfb      	ldr	r3, [r7, #60]	; 0x3c
    1826:	ea4f 0383 	mov.w	r3, r3, lsl #2
    182a:	6e7a      	ldr	r2, [r7, #100]	; 0x64
    182c:	4413      	add	r3, r2
    182e:	f04f 0200 	mov.w	r2, #0
    1832:	601a      	str	r2, [r3, #0]
/home/qemu-sgx/devel/optee/optee_os/lib/libutee/tee_api.c:49
    1834:	6bfb      	ldr	r3, [r7, #60]	; 0x3c
    1836:	ea4f 0383 	mov.w	r3, r3, lsl #2
    183a:	69ba      	ldr	r2, [r7, #24]
    183c:	fa22 f303 	lsr.w	r3, r2, r3
    1840:	f003 030f 	and.w	r3, r3, #15
    1844:	f1a3 0305 	sub.w	r3, r3, #5
    1848:	2b02      	cmp	r3, #2
    184a:	d830      	bhi.n	18ae <copy_param+0xee>
/home/qemu-sgx/devel/optee/optee_os/lib/libutee/tee_api.c:53
    184c:	6bfb      	ldr	r3, [r7, #60]	; 0x3c
    184e:	ea4f 03c3 	mov.w	r3, r3, lsl #3
    1852:	697a      	ldr	r2, [r7, #20]
    1854:	4413      	add	r3, r2
    1856:	681b      	ldr	r3, [r3, #0]
    1858:	633b      	str	r3, [r7, #48]	; 0x30
/home/qemu-sgx/devel/optee/optee_os/lib/libutee/tee_api.c:54
    185a:	6bfb      	ldr	r3, [r7, #60]	; 0x3c
    185c:	ea4f 03c3 	mov.w	r3, r3, lsl #3
    1860:	697a      	ldr	r2, [r7, #20]
    1862:	4413      	add	r3, r2
    1864:	685b      	ldr	r3, [r3, #4]
    1866:	62bb      	str	r3, [r7, #40]	; 0x28
/home/qemu-sgx/devel/optee/optee_os/lib/libutee/tee_api.c:64
    1868:	6b3b      	ldr	r3, [r7, #48]	; 0x30
    186a:	2b00      	cmp	r3, #0
    186c:	d021      	beq.n	18b2 <copy_param+0xf2>
/home/qemu-sgx/devel/optee/optee_os/lib/libutee/tee_api.c:64 (discriminator 1)
    186e:	6abb      	ldr	r3, [r7, #40]	; 0x28
    1870:	2b00      	cmp	r3, #0
    1872:	d01e      	beq.n	18b2 <copy_param+0xf2>
/home/qemu-sgx/devel/optee/optee_os/lib/libutee/tee_api.c:65 (discriminator 2)
    1874:	6aba      	ldr	r2, [r7, #40]	; 0x28
    1876:	6b39      	ldr	r1, [r7, #48]	; 0x30
    1878:	6a78      	ldr	r0, [r7, #36]	; 0x24
    187a:	f000 fb18 	bl	1eae <TEE_CheckMemoryAccessRights>
    187e:	4603      	mov	r3, r0
/home/qemu-sgx/devel/optee/optee_os/lib/libutee/tee_api.c:64 (discriminator 2)
    1880:	2b00      	cmp	r3, #0
    1882:	d116      	bne.n	18b2 <copy_param+0xf2>
/home/qemu-sgx/devel/optee/optee_os/lib/libutee/tee_api.c:66
    1884:	f107 0220 	add.w	r2, r7, #32
    1888:	6bfb      	ldr	r3, [r7, #60]	; 0x3c
    188a:	4413      	add	r3, r2
    188c:	f04f 0201 	mov.w	r2, #1
    1890:	701a      	strb	r2, [r3, #0]
/home/qemu-sgx/devel/optee/optee_os/lib/libutee/tee_api.c:67
    1892:	6afa      	ldr	r2, [r7, #44]	; 0x2c
    1894:	6abb      	ldr	r3, [r7, #40]	; 0x28
    1896:	4413      	add	r3, r2
    1898:	f103 32ff 	add.w	r2, r3, #4294967295	; 0xffffffff
    189c:	6afb      	ldr	r3, [r7, #44]	; 0x2c
    189e:	f1c3 0300 	rsb	r3, r3, #0
    18a2:	ea03 0302 	and.w	r3, r3, r2
    18a6:	6b7a      	ldr	r2, [r7, #52]	; 0x34
    18a8:	4413      	add	r3, r2
    18aa:	637b      	str	r3, [r7, #52]	; 0x34
/home/qemu-sgx/devel/optee/optee_os/lib/libutee/tee_api.c:69
    18ac:	e001      	b.n	18b2 <copy_param+0xf2>
/home/qemu-sgx/devel/optee/optee_os/lib/libutee/tee_api.c:71
    18ae:	bf00      	nop
    18b0:	e000      	b.n	18b4 <copy_param+0xf4>
/home/qemu-sgx/devel/optee/optee_os/lib/libutee/tee_api.c:69
    18b2:	bf00      	nop
/home/qemu-sgx/devel/optee/optee_os/lib/libutee/tee_api.c:47 (discriminator 2)
    18b4:	6bfb      	ldr	r3, [r7, #60]	; 0x3c
    18b6:	f103 0301 	add.w	r3, r3, #1
    18ba:	63fb      	str	r3, [r7, #60]	; 0x3c
/home/qemu-sgx/devel/optee/optee_os/lib/libutee/tee_api.c:47 (discriminator 1)
    18bc:	6bfb      	ldr	r3, [r7, #60]	; 0x3c
    18be:	2b03      	cmp	r3, #3
    18c0:	d9b0      	bls.n	1824 <copy_param+0x64>
/home/qemu-sgx/devel/optee/optee_os/lib/libutee/tee_api.c:75
    18c2:	6b7b      	ldr	r3, [r7, #52]	; 0x34
    18c4:	2b00      	cmp	r3, #0
    18c6:	d013      	beq.n	18f0 <copy_param+0x130>
/home/qemu-sgx/devel/optee/optee_os/lib/libutee/tee_api.c:76
    18c8:	f04f 0104 	mov.w	r1, #4
    18cc:	6b78      	ldr	r0, [r7, #52]	; 0x34
    18ce:	f7fe fe35 	bl	53c <tee_map_zi>
    18d2:	63b8      	str	r0, [r7, #56]	; 0x38
/home/qemu-sgx/devel/optee/optee_os/lib/libutee/tee_api.c:77
    18d4:	6bbb      	ldr	r3, [r7, #56]	; 0x38
    18d6:	2b00      	cmp	r3, #0
    18d8:	d104      	bne.n	18e4 <copy_param+0x124>
/home/qemu-sgx/devel/optee/optee_os/lib/libutee/tee_api.c:78
    18da:	f04f 030c 	mov.w	r3, #12
    18de:	f6cf 73ff 	movt	r3, #65535	; 0xffff
    18e2:	e0df      	b.n	1aa4 <copy_param+0x2e4>
/home/qemu-sgx/devel/optee/optee_os/lib/libutee/tee_api.c:79
    18e4:	693b      	ldr	r3, [r7, #16]
    18e6:	6bba      	ldr	r2, [r7, #56]	; 0x38
    18e8:	601a      	str	r2, [r3, #0]
/home/qemu-sgx/devel/optee/optee_os/lib/libutee/tee_api.c:80
    18ea:	6e3b      	ldr	r3, [r7, #96]	; 0x60
    18ec:	6b7a      	ldr	r2, [r7, #52]	; 0x34
    18ee:	601a      	str	r2, [r3, #0]
/home/qemu-sgx/devel/optee/optee_os/lib/libutee/tee_api.c:83
    18f0:	69bb      	ldr	r3, [r7, #24]
    18f2:	f04f 0200 	mov.w	r2, #0
    18f6:	60bb      	str	r3, [r7, #8]
    18f8:	60fa      	str	r2, [r7, #12]
    18fa:	69fb      	ldr	r3, [r7, #28]
    18fc:	e9d7 1202 	ldrd	r1, r2, [r7, #8]
    1900:	e9c3 1200 	strd	r1, r2, [r3]
/home/qemu-sgx/devel/optee/optee_os/lib/libutee/tee_api.c:84
    1904:	f04f 0300 	mov.w	r3, #0
    1908:	63fb      	str	r3, [r7, #60]	; 0x3c
    190a:	e0c5      	b.n	1a98 <copy_param+0x2d8>
/home/qemu-sgx/devel/optee/optee_os/lib/libutee/tee_api.c:85
    190c:	6bfb      	ldr	r3, [r7, #60]	; 0x3c
    190e:	ea4f 0383 	mov.w	r3, r3, lsl #2
    1912:	69ba      	ldr	r2, [r7, #24]
    1914:	fa22 f303 	lsr.w	r3, r2, r3
    1918:	f003 030f 	and.w	r3, r3, #15
    191c:	2b07      	cmp	r3, #7
    191e:	f200 809a 	bhi.w	1a56 <copy_param+0x296>
    1922:	2b05      	cmp	r3, #5
    1924:	d231      	bcs.n	198a <copy_param+0x1ca>
    1926:	2b01      	cmp	r3, #1
    1928:	d002      	beq.n	1930 <copy_param+0x170>
    192a:	2b03      	cmp	r3, #3
    192c:	f040 8093 	bne.w	1a56 <copy_param+0x296>
/home/qemu-sgx/devel/optee/optee_os/lib/libutee/tee_api.c:88
    1930:	6bfb      	ldr	r3, [r7, #60]	; 0x3c
    1932:	ea4f 03c3 	mov.w	r3, r3, lsl #3
    1936:	697a      	ldr	r2, [r7, #20]
    1938:	4413      	add	r3, r2
    193a:	681a      	ldr	r2, [r3, #0]
    193c:	6bfb      	ldr	r3, [r7, #60]	; 0x3c
    193e:	ea4f 0343 	mov.w	r3, r3, lsl #1
    1942:	f04f 0100 	mov.w	r1, #0
    1946:	4614      	mov	r4, r2
    1948:	460d      	mov	r5, r1
    194a:	69fa      	ldr	r2, [r7, #28]
    194c:	f103 0301 	add.w	r3, r3, #1
    1950:	ea4f 03c3 	mov.w	r3, r3, lsl #3
    1954:	4413      	add	r3, r2
    1956:	e9c3 4500 	strd	r4, r5, [r3]
/home/qemu-sgx/devel/optee/optee_os/lib/libutee/tee_api.c:89
    195a:	6bfb      	ldr	r3, [r7, #60]	; 0x3c
    195c:	ea4f 03c3 	mov.w	r3, r3, lsl #3
    1960:	697a      	ldr	r2, [r7, #20]
    1962:	4413      	add	r3, r2
    1964:	685a      	ldr	r2, [r3, #4]
    1966:	6bfb      	ldr	r3, [r7, #60]	; 0x3c
    1968:	ea4f 0343 	mov.w	r3, r3, lsl #1
    196c:	f103 0301 	add.w	r3, r3, #1
    1970:	f04f 0100 	mov.w	r1, #0
    1974:	4690      	mov	r8, r2
    1976:	4689      	mov	r9, r1
    1978:	69fa      	ldr	r2, [r7, #28]
    197a:	f103 0301 	add.w	r3, r3, #1
    197e:	ea4f 03c3 	mov.w	r3, r3, lsl #3
    1982:	4413      	add	r3, r2
    1984:	e9c3 8900 	strd	r8, r9, [r3]
/home/qemu-sgx/devel/optee/optee_os/lib/libutee/tee_api.c:90
    1988:	e082      	b.n	1a90 <copy_param+0x2d0>
/home/qemu-sgx/devel/optee/optee_os/lib/libutee/tee_api.c:94
    198a:	6bfb      	ldr	r3, [r7, #60]	; 0x3c
    198c:	ea4f 03c3 	mov.w	r3, r3, lsl #3
    1990:	697a      	ldr	r2, [r7, #20]
    1992:	4413      	add	r3, r2
    1994:	685b      	ldr	r3, [r3, #4]
    1996:	62bb      	str	r3, [r7, #40]	; 0x28
/home/qemu-sgx/devel/optee/optee_os/lib/libutee/tee_api.c:95
    1998:	f107 0220 	add.w	r2, r7, #32
    199c:	6bfb      	ldr	r3, [r7, #60]	; 0x3c
    199e:	4413      	add	r3, r2
    19a0:	781b      	ldrb	r3, [r3, #0]
    19a2:	2b00      	cmp	r3, #0
    19a4:	d02b      	beq.n	19fe <copy_param+0x23e>
/home/qemu-sgx/devel/optee/optee_os/lib/libutee/tee_api.c:96
    19a6:	6bbb      	ldr	r3, [r7, #56]	; 0x38
    19a8:	633b      	str	r3, [r7, #48]	; 0x30
/home/qemu-sgx/devel/optee/optee_os/lib/libutee/tee_api.c:97
    19aa:	6bfb      	ldr	r3, [r7, #60]	; 0x3c
    19ac:	ea4f 0383 	mov.w	r3, r3, lsl #2
    19b0:	6e7a      	ldr	r2, [r7, #100]	; 0x64
    19b2:	4413      	add	r3, r2
    19b4:	6bba      	ldr	r2, [r7, #56]	; 0x38
    19b6:	601a      	str	r2, [r3, #0]
/home/qemu-sgx/devel/optee/optee_os/lib/libutee/tee_api.c:98
    19b8:	6afa      	ldr	r2, [r7, #44]	; 0x2c
    19ba:	6abb      	ldr	r3, [r7, #40]	; 0x28
    19bc:	4413      	add	r3, r2
    19be:	f103 32ff 	add.w	r2, r3, #4294967295	; 0xffffffff
    19c2:	6afb      	ldr	r3, [r7, #44]	; 0x2c
    19c4:	f1c3 0300 	rsb	r3, r3, #0
    19c8:	ea03 0302 	and.w	r3, r3, r2
    19cc:	6bba      	ldr	r2, [r7, #56]	; 0x38
    19ce:	4413      	add	r3, r2
    19d0:	63bb      	str	r3, [r7, #56]	; 0x38
/home/qemu-sgx/devel/optee/optee_os/lib/libutee/tee_api.c:99
    19d2:	6bfb      	ldr	r3, [r7, #60]	; 0x3c
    19d4:	ea4f 0383 	mov.w	r3, r3, lsl #2
    19d8:	69ba      	ldr	r2, [r7, #24]
    19da:	fa22 f303 	lsr.w	r3, r2, r3
    19de:	f003 030f 	and.w	r3, r3, #15
    19e2:	2b06      	cmp	r3, #6
    19e4:	d012      	beq.n	1a0c <copy_param+0x24c>
/home/qemu-sgx/devel/optee/optee_os/lib/libutee/tee_api.c:101
    19e6:	6bfb      	ldr	r3, [r7, #60]	; 0x3c
    19e8:	ea4f 03c3 	mov.w	r3, r3, lsl #3
    19ec:	697a      	ldr	r2, [r7, #20]
    19ee:	4413      	add	r3, r2
    19f0:	681b      	ldr	r3, [r3, #0]
    19f2:	6aba      	ldr	r2, [r7, #40]	; 0x28
    19f4:	4619      	mov	r1, r3
    19f6:	6b38      	ldr	r0, [r7, #48]	; 0x30
    19f8:	f010 f9f5 	bl	11de6 <memcpy>
    19fc:	e006      	b.n	1a0c <copy_param+0x24c>
/home/qemu-sgx/devel/optee/optee_os/lib/libutee/tee_api.c:103
    19fe:	6bfb      	ldr	r3, [r7, #60]	; 0x3c
    1a00:	ea4f 03c3 	mov.w	r3, r3, lsl #3
    1a04:	697a      	ldr	r2, [r7, #20]
    1a06:	4413      	add	r3, r2
    1a08:	681b      	ldr	r3, [r3, #0]
    1a0a:	633b      	str	r3, [r7, #48]	; 0x30
/home/qemu-sgx/devel/optee/optee_os/lib/libutee/tee_api.c:105
    1a0c:	6b3a      	ldr	r2, [r7, #48]	; 0x30
    1a0e:	6bfb      	ldr	r3, [r7, #60]	; 0x3c
    1a10:	ea4f 0343 	mov.w	r3, r3, lsl #1
    1a14:	f04f 0100 	mov.w	r1, #0
    1a18:	4692      	mov	sl, r2
    1a1a:	468b      	mov	fp, r1
    1a1c:	69fa      	ldr	r2, [r7, #28]
    1a1e:	f103 0301 	add.w	r3, r3, #1
    1a22:	ea4f 03c3 	mov.w	r3, r3, lsl #3
    1a26:	4413      	add	r3, r2
    1a28:	e9c3 ab00 	strd	sl, fp, [r3]
/home/qemu-sgx/devel/optee/optee_os/lib/libutee/tee_api.c:106
    1a2c:	6bfb      	ldr	r3, [r7, #60]	; 0x3c
    1a2e:	ea4f 0343 	mov.w	r3, r3, lsl #1
    1a32:	f103 0301 	add.w	r3, r3, #1
    1a36:	6aba      	ldr	r2, [r7, #40]	; 0x28
    1a38:	f04f 0100 	mov.w	r1, #0
    1a3c:	603a      	str	r2, [r7, #0]
    1a3e:	6079      	str	r1, [r7, #4]
    1a40:	69fa      	ldr	r2, [r7, #28]
    1a42:	f103 0301 	add.w	r3, r3, #1
    1a46:	ea4f 03c3 	mov.w	r3, r3, lsl #3
    1a4a:	4413      	add	r3, r2
    1a4c:	e9d7 1200 	ldrd	r1, r2, [r7]
    1a50:	e9c3 1200 	strd	r1, r2, [r3]
/home/qemu-sgx/devel/optee/optee_os/lib/libutee/tee_api.c:107
    1a54:	e01c      	b.n	1a90 <copy_param+0x2d0>
/home/qemu-sgx/devel/optee/optee_os/lib/libutee/tee_api.c:109
    1a56:	6bfb      	ldr	r3, [r7, #60]	; 0x3c
    1a58:	ea4f 0343 	mov.w	r3, r3, lsl #1
    1a5c:	69fa      	ldr	r2, [r7, #28]
    1a5e:	f103 0301 	add.w	r3, r3, #1
    1a62:	ea4f 03c3 	mov.w	r3, r3, lsl #3
    1a66:	4413      	add	r3, r2
    1a68:	efc0 0010 	vmov.i32	d16, #0	; 0x00000000
    1a6c:	edc3 0b00 	vstr	d16, [r3]
/home/qemu-sgx/devel/optee/optee_os/lib/libutee/tee_api.c:110
    1a70:	6bfb      	ldr	r3, [r7, #60]	; 0x3c
    1a72:	ea4f 0343 	mov.w	r3, r3, lsl #1
    1a76:	f103 0301 	add.w	r3, r3, #1
    1a7a:	69fa      	ldr	r2, [r7, #28]
    1a7c:	f103 0301 	add.w	r3, r3, #1
    1a80:	ea4f 03c3 	mov.w	r3, r3, lsl #3
    1a84:	4413      	add	r3, r2
    1a86:	efc0 0010 	vmov.i32	d16, #0	; 0x00000000
    1a8a:	edc3 0b00 	vstr	d16, [r3]
/home/qemu-sgx/devel/optee/optee_os/lib/libutee/tee_api.c:111
    1a8e:	bf00      	nop
/home/qemu-sgx/devel/optee/optee_os/lib/libutee/tee_api.c:84 (discriminator 2)
    1a90:	6bfb      	ldr	r3, [r7, #60]	; 0x3c
    1a92:	f103 0301 	add.w	r3, r3, #1
    1a96:	63fb      	str	r3, [r7, #60]	; 0x3c
/home/qemu-sgx/devel/optee/optee_os/lib/libutee/tee_api.c:84 (discriminator 1)
    1a98:	6bfb      	ldr	r3, [r7, #60]	; 0x3c
    1a9a:	2b03      	cmp	r3, #3
    1a9c:	f67f af36 	bls.w	190c <copy_param+0x14c>
/home/qemu-sgx/devel/optee/optee_os/lib/libutee/tee_api.c:115
    1aa0:	f04f 0300 	mov.w	r3, #0
/home/qemu-sgx/devel/optee/optee_os/lib/libutee/tee_api.c:116 (discriminator 1)
    1aa4:	4618      	mov	r0, r3
    1aa6:	f107 0740 	add.w	r7, r7, #64	; 0x40
    1aaa:	46bd      	mov	sp, r7
    1aac:	e9dd 4500 	ldrd	r4, r5, [sp]
    1ab0:	e9dd 7802 	ldrd	r7, r8, [sp, #8]
    1ab4:	e9dd 9a04 	ldrd	r9, sl, [sp, #16]
    1ab8:	b006      	add	sp, #24
    1aba:	e8bd 8800 	ldmia.w	sp!, {fp, pc}

00001abe <update_out_param>:
update_out_param():
/home/qemu-sgx/devel/optee/optee_os/lib/libutee/tee_api.c:121
    1abe:	e96d 7e02 	strd	r7, lr, [sp, #-8]!
    1ac2:	b08a      	sub	sp, #40	; 0x28
    1ac4:	af00      	add	r7, sp, #0
    1ac6:	60f8      	str	r0, [r7, #12]
    1ac8:	60b9      	str	r1, [r7, #8]
    1aca:	607a      	str	r2, [r7, #4]
/home/qemu-sgx/devel/optee/optee_os/lib/libutee/tee_api.c:123
    1acc:	687b      	ldr	r3, [r7, #4]
    1ace:	e9d3 2300 	ldrd	r2, r3, [r3]
    1ad2:	4613      	mov	r3, r2
    1ad4:	623b      	str	r3, [r7, #32]
/home/qemu-sgx/devel/optee/optee_os/lib/libutee/tee_api.c:125
    1ad6:	f04f 0300 	mov.w	r3, #0
    1ada:	627b      	str	r3, [r7, #36]	; 0x24
    1adc:	e06e      	b.n	1bbc <update_out_param+0xfe>
/home/qemu-sgx/devel/optee/optee_os/lib/libutee/tee_api.c:126
    1ade:	6a7b      	ldr	r3, [r7, #36]	; 0x24
    1ae0:	ea4f 0343 	mov.w	r3, r3, lsl #1
    1ae4:	687a      	ldr	r2, [r7, #4]
    1ae6:	f103 0301 	add.w	r3, r3, #1
    1aea:	ea4f 03c3 	mov.w	r3, r3, lsl #3
    1aee:	4413      	add	r3, r2
    1af0:	e9d3 2300 	ldrd	r2, r3, [r3]
    1af4:	4613      	mov	r3, r2
    1af6:	61fb      	str	r3, [r7, #28]
/home/qemu-sgx/devel/optee/optee_os/lib/libutee/tee_api.c:127
    1af8:	6a7b      	ldr	r3, [r7, #36]	; 0x24
    1afa:	ea4f 0343 	mov.w	r3, r3, lsl #1
    1afe:	f103 0301 	add.w	r3, r3, #1
    1b02:	687a      	ldr	r2, [r7, #4]
    1b04:	f103 0301 	add.w	r3, r3, #1
    1b08:	ea4f 03c3 	mov.w	r3, r3, lsl #3
    1b0c:	4413      	add	r3, r2
    1b0e:	e9d3 2300 	ldrd	r2, r3, [r3]
    1b12:	4613      	mov	r3, r2
    1b14:	61bb      	str	r3, [r7, #24]
/home/qemu-sgx/devel/optee/optee_os/lib/libutee/tee_api.c:129
    1b16:	6a7b      	ldr	r3, [r7, #36]	; 0x24
    1b18:	ea4f 0383 	mov.w	r3, r3, lsl #2
    1b1c:	6a3a      	ldr	r2, [r7, #32]
    1b1e:	fa22 f303 	lsr.w	r3, r2, r3
    1b22:	f003 030f 	and.w	r3, r3, #15
    1b26:	2b03      	cmp	r3, #3
    1b28:	d802      	bhi.n	1b30 <update_out_param+0x72>
    1b2a:	2b02      	cmp	r3, #2
    1b2c:	d205      	bcs.n	1b3a <update_out_param+0x7c>
/home/qemu-sgx/devel/optee/optee_os/lib/libutee/tee_api.c:143
    1b2e:	e040      	b.n	1bb2 <update_out_param+0xf4>
    1b30:	f1a3 0306 	sub.w	r3, r3, #6
/home/qemu-sgx/devel/optee/optee_os/lib/libutee/tee_api.c:129
    1b34:	2b01      	cmp	r3, #1
    1b36:	d83c      	bhi.n	1bb2 <update_out_param+0xf4>
    1b38:	e00e      	b.n	1b58 <update_out_param+0x9a>
/home/qemu-sgx/devel/optee/optee_os/lib/libutee/tee_api.c:132
    1b3a:	6a7b      	ldr	r3, [r7, #36]	; 0x24
    1b3c:	ea4f 03c3 	mov.w	r3, r3, lsl #3
    1b40:	68fa      	ldr	r2, [r7, #12]
    1b42:	4413      	add	r3, r2
    1b44:	69fa      	ldr	r2, [r7, #28]
    1b46:	601a      	str	r2, [r3, #0]
/home/qemu-sgx/devel/optee/optee_os/lib/libutee/tee_api.c:133
    1b48:	6a7b      	ldr	r3, [r7, #36]	; 0x24
    1b4a:	ea4f 03c3 	mov.w	r3, r3, lsl #3
    1b4e:	68fa      	ldr	r2, [r7, #12]
    1b50:	4413      	add	r3, r2
    1b52:	69ba      	ldr	r2, [r7, #24]
    1b54:	605a      	str	r2, [r3, #4]
/home/qemu-sgx/devel/optee/optee_os/lib/libutee/tee_api.c:134
    1b56:	e02d      	b.n	1bb4 <update_out_param+0xf6>
/home/qemu-sgx/devel/optee/optee_os/lib/libutee/tee_api.c:137
    1b58:	6a7b      	ldr	r3, [r7, #36]	; 0x24
    1b5a:	ea4f 0383 	mov.w	r3, r3, lsl #2
    1b5e:	68ba      	ldr	r2, [r7, #8]
    1b60:	4413      	add	r3, r2
    1b62:	681b      	ldr	r3, [r3, #0]
    1b64:	2b00      	cmp	r3, #0
    1b66:	d01c      	beq.n	1ba2 <update_out_param+0xe4>
/home/qemu-sgx/devel/optee/optee_os/lib/libutee/tee_api.c:138
    1b68:	6a7b      	ldr	r3, [r7, #36]	; 0x24
    1b6a:	ea4f 03c3 	mov.w	r3, r3, lsl #3
    1b6e:	68fa      	ldr	r2, [r7, #12]
    1b70:	4413      	add	r3, r2
    1b72:	6818      	ldr	r0, [r3, #0]
    1b74:	6a7b      	ldr	r3, [r7, #36]	; 0x24
    1b76:	ea4f 0383 	mov.w	r3, r3, lsl #2
    1b7a:	68ba      	ldr	r2, [r7, #8]
    1b7c:	4413      	add	r3, r2
    1b7e:	6819      	ldr	r1, [r3, #0]
/home/qemu-sgx/devel/optee/optee_os/lib/libutee/tee_api.c:139
    1b80:	69bb      	ldr	r3, [r7, #24]
    1b82:	617b      	str	r3, [r7, #20]
    1b84:	6a7b      	ldr	r3, [r7, #36]	; 0x24
    1b86:	ea4f 03c3 	mov.w	r3, r3, lsl #3
    1b8a:	68fa      	ldr	r2, [r7, #12]
    1b8c:	4413      	add	r3, r2
    1b8e:	685b      	ldr	r3, [r3, #4]
    1b90:	613b      	str	r3, [r7, #16]
    1b92:	693a      	ldr	r2, [r7, #16]
    1b94:	697b      	ldr	r3, [r7, #20]
    1b96:	4293      	cmp	r3, r2
    1b98:	bf28      	it	cs
    1b9a:	4613      	movcs	r3, r2
/home/qemu-sgx/devel/optee/optee_os/lib/libutee/tee_api.c:138
    1b9c:	461a      	mov	r2, r3
    1b9e:	f010 f922 	bl	11de6 <memcpy>
/home/qemu-sgx/devel/optee/optee_os/lib/libutee/tee_api.c:140
    1ba2:	6a7b      	ldr	r3, [r7, #36]	; 0x24
    1ba4:	ea4f 03c3 	mov.w	r3, r3, lsl #3
    1ba8:	68fa      	ldr	r2, [r7, #12]
    1baa:	4413      	add	r3, r2
    1bac:	69ba      	ldr	r2, [r7, #24]
    1bae:	605a      	str	r2, [r3, #4]
/home/qemu-sgx/devel/optee/optee_os/lib/libutee/tee_api.c:141
    1bb0:	e000      	b.n	1bb4 <update_out_param+0xf6>
/home/qemu-sgx/devel/optee/optee_os/lib/libutee/tee_api.c:143
    1bb2:	bf00      	nop
/home/qemu-sgx/devel/optee/optee_os/lib/libutee/tee_api.c:125 (discriminator 2)
    1bb4:	6a7b      	ldr	r3, [r7, #36]	; 0x24
    1bb6:	f103 0301 	add.w	r3, r3, #1
    1bba:	627b      	str	r3, [r7, #36]	; 0x24
/home/qemu-sgx/devel/optee/optee_os/lib/libutee/tee_api.c:125 (discriminator 1)
    1bbc:	6a7b      	ldr	r3, [r7, #36]	; 0x24
    1bbe:	2b03      	cmp	r3, #3
    1bc0:	d98d      	bls.n	1ade <update_out_param+0x20>
/home/qemu-sgx/devel/optee/optee_os/lib/libutee/tee_api.c:146
    1bc2:	bf00      	nop
    1bc4:	bf00      	nop
    1bc6:	f107 0728 	add.w	r7, r7, #40	; 0x28
    1bca:	46bd      	mov	sp, r7
    1bcc:	bd80      	pop	{r7, pc}

00001bce <TEE_OpenTASession>:
TEE_OpenTASession():
/home/qemu-sgx/devel/optee/optee_os/lib/libutee/tee_api.c:154
    1bce:	e96d 7e02 	strd	r7, lr, [sp, #-8]!
    1bd2:	b0a2      	sub	sp, #136	; 0x88
    1bd4:	af02      	add	r7, sp, #8
    1bd6:	60f8      	str	r0, [r7, #12]
    1bd8:	60b9      	str	r1, [r7, #8]
    1bda:	607a      	str	r2, [r7, #4]
    1bdc:	603b      	str	r3, [r7, #0]
/home/qemu-sgx/devel/optee/optee_os/lib/libutee/tee_api.c:155
    1bde:	f04f 0300 	mov.w	r3, #0
    1be2:	67fb      	str	r3, [r7, #124]	; 0x7c
/home/qemu-sgx/devel/optee/optee_os/lib/libutee/tee_api.c:157
    1be4:	f04f 0300 	mov.w	r3, #0
    1be8:	62fb      	str	r3, [r7, #44]	; 0x2c
/home/qemu-sgx/devel/optee/optee_os/lib/libutee/tee_api.c:158
    1bea:	f04f 0300 	mov.w	r3, #0
    1bee:	62bb      	str	r3, [r7, #40]	; 0x28
/home/qemu-sgx/devel/optee/optee_os/lib/libutee/tee_api.c:159
    1bf0:	f04f 0300 	mov.w	r3, #0
    1bf4:	627b      	str	r3, [r7, #36]	; 0x24
/home/qemu-sgx/devel/optee/optee_os/lib/libutee/tee_api.c:160
    1bf6:	f107 0314 	add.w	r3, r7, #20
    1bfa:	efc0 0010 	vmov.i32	d16, #0	; 0x00000000
    1bfe:	edc3 0b00 	vstr	d16, [r3]
    1c02:	edc3 0b02 	vstr	d16, [r3, #8]
/home/qemu-sgx/devel/optee/optee_os/lib/libutee/tee_api.c:162
    1c06:	687b      	ldr	r3, [r7, #4]
    1c08:	2b00      	cmp	r3, #0
    1c0a:	d004      	beq.n	1c16 <TEE_OpenTASession+0x48>
/home/qemu-sgx/devel/optee/optee_os/lib/libutee/tee_api.c:163
    1c0c:	f04f 0120 	mov.w	r1, #32
    1c10:	6838      	ldr	r0, [r7, #0]
    1c12:	f002 fafb 	bl	420c <__utee_check_inout_annotation>
/home/qemu-sgx/devel/optee/optee_os/lib/libutee/tee_api.c:166
    1c16:	f04f 0104 	mov.w	r1, #4
    1c1a:	f8d7 0088 	ldr.w	r0, [r7, #136]	; 0x88
    1c1e:	f002 fab9 	bl	4194 <__utee_check_out_annotation>
/home/qemu-sgx/devel/optee/optee_os/lib/libutee/tee_api.c:168
    1c22:	f107 0228 	add.w	r2, r7, #40	; 0x28
    1c26:	f107 0030 	add.w	r0, r7, #48	; 0x30
    1c2a:	f107 0314 	add.w	r3, r7, #20
    1c2e:	9301      	str	r3, [sp, #4]
    1c30:	f107 0324 	add.w	r3, r7, #36	; 0x24
    1c34:	9300      	str	r3, [sp, #0]
    1c36:	4613      	mov	r3, r2
    1c38:	683a      	ldr	r2, [r7, #0]
    1c3a:	6879      	ldr	r1, [r7, #4]
    1c3c:	f7ff fdc0 	bl	17c0 <copy_param>
    1c40:	67f8      	str	r0, [r7, #124]	; 0x7c
/home/qemu-sgx/devel/optee/optee_os/lib/libutee/tee_api.c:169
    1c42:	6ffb      	ldr	r3, [r7, #124]	; 0x7c
    1c44:	2b00      	cmp	r3, #0
    1c46:	d125      	bne.n	1c94 <TEE_OpenTASession+0xc6>
/home/qemu-sgx/devel/optee/optee_os/lib/libutee/tee_api.c:171
    1c48:	f107 012c 	add.w	r1, r7, #44	; 0x2c
    1c4c:	f107 0230 	add.w	r2, r7, #48	; 0x30
    1c50:	f8d7 308c 	ldr.w	r3, [r7, #140]	; 0x8c
    1c54:	9300      	str	r3, [sp, #0]
    1c56:	460b      	mov	r3, r1
    1c58:	68b9      	ldr	r1, [r7, #8]
    1c5a:	68f8      	ldr	r0, [r7, #12]
    1c5c:	f7fe edb6 	blx	7cc <_utee_open_ta_session>
    1c60:	67f8      	str	r0, [r7, #124]	; 0x7c
/home/qemu-sgx/devel/optee/optee_os/lib/libutee/tee_api.c:173
    1c62:	f107 0230 	add.w	r2, r7, #48	; 0x30
    1c66:	f107 0314 	add.w	r3, r7, #20
    1c6a:	4619      	mov	r1, r3
    1c6c:	6838      	ldr	r0, [r7, #0]
    1c6e:	f7ff ff26 	bl	1abe <update_out_param>
/home/qemu-sgx/devel/optee/optee_os/lib/libutee/tee_api.c:174
    1c72:	6abb      	ldr	r3, [r7, #40]	; 0x28
    1c74:	2b00      	cmp	r3, #0
    1c76:	d00f      	beq.n	1c98 <TEE_OpenTASession+0xca>
/home/qemu-sgx/devel/optee/optee_os/lib/libutee/tee_api.c:175
    1c78:	6abb      	ldr	r3, [r7, #40]	; 0x28
    1c7a:	6a7a      	ldr	r2, [r7, #36]	; 0x24
    1c7c:	4611      	mov	r1, r2
    1c7e:	4618      	mov	r0, r3
    1c80:	f7fe fca8 	bl	5d4 <tee_unmap>
    1c84:	67b8      	str	r0, [r7, #120]	; 0x78
/home/qemu-sgx/devel/optee/optee_os/lib/libutee/tee_api.c:177
    1c86:	6fbb      	ldr	r3, [r7, #120]	; 0x78
    1c88:	2b00      	cmp	r3, #0
    1c8a:	d005      	beq.n	1c98 <TEE_OpenTASession+0xca>
/home/qemu-sgx/devel/optee/optee_os/lib/libutee/tee_api.c:178
    1c8c:	6fb8      	ldr	r0, [r7, #120]	; 0x78
    1c8e:	f002 f9c9 	bl	4024 <TEE_Panic>
    1c92:	e002      	b.n	1c9a <TEE_OpenTASession+0xcc>
/home/qemu-sgx/devel/optee/optee_os/lib/libutee/tee_api.c:170
    1c94:	bf00      	nop
    1c96:	e000      	b.n	1c9a <TEE_OpenTASession+0xcc>
/home/qemu-sgx/devel/optee/optee_os/lib/libutee/tee_api.c:181
    1c98:	bf00      	nop
/home/qemu-sgx/devel/optee/optee_os/lib/libutee/tee_api.c:187
    1c9a:	6ffb      	ldr	r3, [r7, #124]	; 0x7c
    1c9c:	2b00      	cmp	r3, #0
    1c9e:	d002      	beq.n	1ca6 <TEE_OpenTASession+0xd8>
/home/qemu-sgx/devel/optee/optee_os/lib/libutee/tee_api.c:188
    1ca0:	f04f 0300 	mov.w	r3, #0
    1ca4:	62fb      	str	r3, [r7, #44]	; 0x2c
/home/qemu-sgx/devel/optee/optee_os/lib/libutee/tee_api.c:190
    1ca6:	6afb      	ldr	r3, [r7, #44]	; 0x2c
    1ca8:	461a      	mov	r2, r3
    1caa:	f8d7 3088 	ldr.w	r3, [r7, #136]	; 0x88
    1cae:	601a      	str	r2, [r3, #0]
/home/qemu-sgx/devel/optee/optee_os/lib/libutee/tee_api.c:191
    1cb0:	6ffb      	ldr	r3, [r7, #124]	; 0x7c
/home/qemu-sgx/devel/optee/optee_os/lib/libutee/tee_api.c:192
    1cb2:	4618      	mov	r0, r3
    1cb4:	f107 0780 	add.w	r7, r7, #128	; 0x80
    1cb8:	46bd      	mov	sp, r7
    1cba:	bd80      	pop	{r7, pc}

00001cbc <TEE_CloseTASession>:
TEE_CloseTASession():
/home/qemu-sgx/devel/optee/optee_os/lib/libutee/tee_api.c:195
    1cbc:	e96d 7e02 	strd	r7, lr, [sp, #-8]!
    1cc0:	b084      	sub	sp, #16
    1cc2:	af00      	add	r7, sp, #0
    1cc4:	6078      	str	r0, [r7, #4]
/home/qemu-sgx/devel/optee/optee_os/lib/libutee/tee_api.c:196
    1cc6:	687b      	ldr	r3, [r7, #4]
    1cc8:	2b00      	cmp	r3, #0
    1cca:	d00a      	beq.n	1ce2 <TEE_CloseTASession+0x26>
/home/qemu-sgx/devel/optee/optee_os/lib/libutee/tee_api.c:197
    1ccc:	687b      	ldr	r3, [r7, #4]
    1cce:	4618      	mov	r0, r3
    1cd0:	f7fe ed88 	blx	7e4 <_utee_close_ta_session>
    1cd4:	60f8      	str	r0, [r7, #12]
/home/qemu-sgx/devel/optee/optee_os/lib/libutee/tee_api.c:199
    1cd6:	68fb      	ldr	r3, [r7, #12]
    1cd8:	2b00      	cmp	r3, #0
    1cda:	d002      	beq.n	1ce2 <TEE_CloseTASession+0x26>
/home/qemu-sgx/devel/optee/optee_os/lib/libutee/tee_api.c:200
    1cdc:	68f8      	ldr	r0, [r7, #12]
    1cde:	f002 f9a1 	bl	4024 <TEE_Panic>
/home/qemu-sgx/devel/optee/optee_os/lib/libutee/tee_api.c:202
    1ce2:	bf00      	nop
    1ce4:	f107 0710 	add.w	r7, r7, #16
    1ce8:	46bd      	mov	sp, r7
    1cea:	bd80      	pop	{r7, pc}

00001cec <TEE_InvokeTACommand>:
TEE_InvokeTACommand():
/home/qemu-sgx/devel/optee/optee_os/lib/libutee/tee_api.c:209
    1cec:	e96d 7e02 	strd	r7, lr, [sp, #-8]!
    1cf0:	b0a2      	sub	sp, #136	; 0x88
    1cf2:	af02      	add	r7, sp, #8
    1cf4:	60f8      	str	r0, [r7, #12]
    1cf6:	60b9      	str	r1, [r7, #8]
    1cf8:	607a      	str	r2, [r7, #4]
    1cfa:	603b      	str	r3, [r7, #0]
/home/qemu-sgx/devel/optee/optee_os/lib/libutee/tee_api.c:210
    1cfc:	f04f 0300 	mov.w	r3, #0
    1d00:	67fb      	str	r3, [r7, #124]	; 0x7c
/home/qemu-sgx/devel/optee/optee_os/lib/libutee/tee_api.c:211
    1d02:	f04f 0303 	mov.w	r3, #3
    1d06:	677b      	str	r3, [r7, #116]	; 0x74
/home/qemu-sgx/devel/optee/optee_os/lib/libutee/tee_api.c:213
    1d08:	f04f 0300 	mov.w	r3, #0
    1d0c:	627b      	str	r3, [r7, #36]	; 0x24
/home/qemu-sgx/devel/optee/optee_os/lib/libutee/tee_api.c:214
    1d0e:	f04f 0300 	mov.w	r3, #0
    1d12:	623b      	str	r3, [r7, #32]
/home/qemu-sgx/devel/optee/optee_os/lib/libutee/tee_api.c:215
    1d14:	f107 0310 	add.w	r3, r7, #16
    1d18:	efc0 0010 	vmov.i32	d16, #0	; 0x00000000
    1d1c:	edc3 0b00 	vstr	d16, [r3]
    1d20:	edc3 0b02 	vstr	d16, [r3, #8]
/home/qemu-sgx/devel/optee/optee_os/lib/libutee/tee_api.c:217
    1d24:	683b      	ldr	r3, [r7, #0]
    1d26:	2b00      	cmp	r3, #0
    1d28:	d005      	beq.n	1d36 <TEE_InvokeTACommand+0x4a>
/home/qemu-sgx/devel/optee/optee_os/lib/libutee/tee_api.c:218
    1d2a:	f04f 0120 	mov.w	r1, #32
    1d2e:	f8d7 0088 	ldr.w	r0, [r7, #136]	; 0x88
    1d32:	f002 fa6b 	bl	420c <__utee_check_inout_annotation>
/home/qemu-sgx/devel/optee/optee_os/lib/libutee/tee_api.c:221
    1d36:	f8d7 308c 	ldr.w	r3, [r7, #140]	; 0x8c
    1d3a:	2b00      	cmp	r3, #0
    1d3c:	d005      	beq.n	1d4a <TEE_InvokeTACommand+0x5e>
/home/qemu-sgx/devel/optee/optee_os/lib/libutee/tee_api.c:222
    1d3e:	f04f 0104 	mov.w	r1, #4
    1d42:	f8d7 008c 	ldr.w	r0, [r7, #140]	; 0x8c
    1d46:	f002 fa25 	bl	4194 <__utee_check_out_annotation>
/home/qemu-sgx/devel/optee/optee_os/lib/libutee/tee_api.c:225
    1d4a:	f107 0224 	add.w	r2, r7, #36	; 0x24
    1d4e:	f107 0028 	add.w	r0, r7, #40	; 0x28
    1d52:	f107 0310 	add.w	r3, r7, #16
    1d56:	9301      	str	r3, [sp, #4]
    1d58:	f107 0320 	add.w	r3, r7, #32
    1d5c:	9300      	str	r3, [sp, #0]
    1d5e:	4613      	mov	r3, r2
    1d60:	f8d7 2088 	ldr.w	r2, [r7, #136]	; 0x88
    1d64:	6839      	ldr	r1, [r7, #0]
    1d66:	f7ff fd2b 	bl	17c0 <copy_param>
    1d6a:	67f8      	str	r0, [r7, #124]	; 0x7c
/home/qemu-sgx/devel/optee/optee_os/lib/libutee/tee_api.c:226
    1d6c:	6ffb      	ldr	r3, [r7, #124]	; 0x7c
    1d6e:	2b00      	cmp	r3, #0
    1d70:	d125      	bne.n	1dbe <TEE_InvokeTACommand+0xd2>
/home/qemu-sgx/devel/optee/optee_os/lib/libutee/tee_api.c:228
    1d72:	68f8      	ldr	r0, [r7, #12]
    1d74:	f107 0228 	add.w	r2, r7, #40	; 0x28
    1d78:	f107 0374 	add.w	r3, r7, #116	; 0x74
    1d7c:	9300      	str	r3, [sp, #0]
    1d7e:	4613      	mov	r3, r2
    1d80:	687a      	ldr	r2, [r7, #4]
    1d82:	68b9      	ldr	r1, [r7, #8]
    1d84:	f7fe ed38 	blx	7f8 <_utee_invoke_ta_command>
    1d88:	67f8      	str	r0, [r7, #124]	; 0x7c
/home/qemu-sgx/devel/optee/optee_os/lib/libutee/tee_api.c:231
    1d8a:	f107 0228 	add.w	r2, r7, #40	; 0x28
    1d8e:	f107 0310 	add.w	r3, r7, #16
    1d92:	4619      	mov	r1, r3
    1d94:	f8d7 0088 	ldr.w	r0, [r7, #136]	; 0x88
    1d98:	f7ff fe91 	bl	1abe <update_out_param>
/home/qemu-sgx/devel/optee/optee_os/lib/libutee/tee_api.c:232
    1d9c:	6a7b      	ldr	r3, [r7, #36]	; 0x24
    1d9e:	2b00      	cmp	r3, #0
    1da0:	d00f      	beq.n	1dc2 <TEE_InvokeTACommand+0xd6>
/home/qemu-sgx/devel/optee/optee_os/lib/libutee/tee_api.c:233
    1da2:	6a7b      	ldr	r3, [r7, #36]	; 0x24
    1da4:	6a3a      	ldr	r2, [r7, #32]
    1da6:	4611      	mov	r1, r2
    1da8:	4618      	mov	r0, r3
    1daa:	f7fe fc13 	bl	5d4 <tee_unmap>
    1dae:	67b8      	str	r0, [r7, #120]	; 0x78
/home/qemu-sgx/devel/optee/optee_os/lib/libutee/tee_api.c:235
    1db0:	6fbb      	ldr	r3, [r7, #120]	; 0x78
    1db2:	2b00      	cmp	r3, #0
    1db4:	d005      	beq.n	1dc2 <TEE_InvokeTACommand+0xd6>
/home/qemu-sgx/devel/optee/optee_os/lib/libutee/tee_api.c:236
    1db6:	6fb8      	ldr	r0, [r7, #120]	; 0x78
    1db8:	f002 f934 	bl	4024 <TEE_Panic>
    1dbc:	e002      	b.n	1dc4 <TEE_InvokeTACommand+0xd8>
/home/qemu-sgx/devel/optee/optee_os/lib/libutee/tee_api.c:227
    1dbe:	bf00      	nop
    1dc0:	e000      	b.n	1dc4 <TEE_InvokeTACommand+0xd8>
/home/qemu-sgx/devel/optee/optee_os/lib/libutee/tee_api.c:239
    1dc2:	bf00      	nop
/home/qemu-sgx/devel/optee/optee_os/lib/libutee/tee_api.c:240
    1dc4:	f8d7 308c 	ldr.w	r3, [r7, #140]	; 0x8c
    1dc8:	2b00      	cmp	r3, #0
    1dca:	d003      	beq.n	1dd4 <TEE_InvokeTACommand+0xe8>
/home/qemu-sgx/devel/optee/optee_os/lib/libutee/tee_api.c:241
    1dcc:	6f7a      	ldr	r2, [r7, #116]	; 0x74
    1dce:	f8d7 308c 	ldr.w	r3, [r7, #140]	; 0x8c
    1dd2:	601a      	str	r2, [r3, #0]
/home/qemu-sgx/devel/optee/optee_os/lib/libutee/tee_api.c:243
    1dd4:	6f7b      	ldr	r3, [r7, #116]	; 0x74
    1dd6:	2b04      	cmp	r3, #4
    1dd8:	d101      	bne.n	1dde <TEE_InvokeTACommand+0xf2>
/home/qemu-sgx/devel/optee/optee_os/lib/libutee/tee_api.c:244
    1dda:	6ffb      	ldr	r3, [r7, #124]	; 0x7c
    1ddc:	e014      	b.n	1e08 <TEE_InvokeTACommand+0x11c>
/home/qemu-sgx/devel/optee/optee_os/lib/libutee/tee_api.c:246
    1dde:	6ffb      	ldr	r3, [r7, #124]	; 0x7c
    1de0:	2b00      	cmp	r3, #0
    1de2:	d010      	beq.n	1e06 <TEE_InvokeTACommand+0x11a>
/home/qemu-sgx/devel/optee/optee_os/lib/libutee/tee_api.c:246 (discriminator 1)
    1de4:	6ffa      	ldr	r2, [r7, #124]	; 0x7c
    1de6:	f04f 030c 	mov.w	r3, #12
    1dea:	f6cf 73ff 	movt	r3, #65535	; 0xffff
    1dee:	429a      	cmp	r2, r3
    1df0:	d009      	beq.n	1e06 <TEE_InvokeTACommand+0x11a>
/home/qemu-sgx/devel/optee/optee_os/lib/libutee/tee_api.c:247
    1df2:	6ffa      	ldr	r2, [r7, #124]	; 0x7c
    1df4:	f243 0324 	movw	r3, #12324	; 0x3024
    1df8:	f6cf 73ff 	movt	r3, #65535	; 0xffff
    1dfc:	429a      	cmp	r2, r3
    1dfe:	d002      	beq.n	1e06 <TEE_InvokeTACommand+0x11a>
/home/qemu-sgx/devel/optee/optee_os/lib/libutee/tee_api.c:249
    1e00:	6ff8      	ldr	r0, [r7, #124]	; 0x7c
    1e02:	f002 f90f 	bl	4024 <TEE_Panic>
/home/qemu-sgx/devel/optee/optee_os/lib/libutee/tee_api.c:251
    1e06:	6ffb      	ldr	r3, [r7, #124]	; 0x7c
/home/qemu-sgx/devel/optee/optee_os/lib/libutee/tee_api.c:252 (discriminator 1)
    1e08:	4618      	mov	r0, r3
    1e0a:	f107 0780 	add.w	r7, r7, #128	; 0x80
    1e0e:	46bd      	mov	sp, r7
    1e10:	bd80      	pop	{r7, pc}

00001e12 <TEE_GetCancellationFlag>:
TEE_GetCancellationFlag():
/home/qemu-sgx/devel/optee/optee_os/lib/libutee/tee_api.c:257
    1e12:	e96d 7e02 	strd	r7, lr, [sp, #-8]!
    1e16:	b082      	sub	sp, #8
    1e18:	af00      	add	r7, sp, #0
/home/qemu-sgx/devel/optee/optee_os/lib/libutee/tee_api.c:259
    1e1a:	463b      	mov	r3, r7
    1e1c:	4618      	mov	r0, r3
    1e1e:	f7fe ecf8 	blx	810 <_utee_get_cancellation_flag>
    1e22:	6078      	str	r0, [r7, #4]
/home/qemu-sgx/devel/optee/optee_os/lib/libutee/tee_api.c:261
    1e24:	687b      	ldr	r3, [r7, #4]
    1e26:	2b00      	cmp	r3, #0
    1e28:	d002      	beq.n	1e30 <TEE_GetCancellationFlag+0x1e>
/home/qemu-sgx/devel/optee/optee_os/lib/libutee/tee_api.c:262
    1e2a:	f04f 0300 	mov.w	r3, #0
    1e2e:	603b      	str	r3, [r7, #0]
/home/qemu-sgx/devel/optee/optee_os/lib/libutee/tee_api.c:263
    1e30:	683b      	ldr	r3, [r7, #0]
    1e32:	2b00      	cmp	r3, #0
    1e34:	bf14      	ite	ne
    1e36:	2301      	movne	r3, #1
    1e38:	2300      	moveq	r3, #0
    1e3a:	b2db      	uxtb	r3, r3
/home/qemu-sgx/devel/optee/optee_os/lib/libutee/tee_api.c:264
    1e3c:	4618      	mov	r0, r3
    1e3e:	f107 0708 	add.w	r7, r7, #8
    1e42:	46bd      	mov	sp, r7
    1e44:	bd80      	pop	{r7, pc}

00001e46 <TEE_UnmaskCancellation>:
TEE_UnmaskCancellation():
/home/qemu-sgx/devel/optee/optee_os/lib/libutee/tee_api.c:267
    1e46:	e96d 7e02 	strd	r7, lr, [sp, #-8]!
    1e4a:	b082      	sub	sp, #8
    1e4c:	af00      	add	r7, sp, #0
/home/qemu-sgx/devel/optee/optee_os/lib/libutee/tee_api.c:269
    1e4e:	463b      	mov	r3, r7
    1e50:	4618      	mov	r0, r3
    1e52:	f7fe ecf2 	blx	838 <_utee_unmask_cancellation>
    1e56:	6078      	str	r0, [r7, #4]
/home/qemu-sgx/devel/optee/optee_os/lib/libutee/tee_api.c:271
    1e58:	687b      	ldr	r3, [r7, #4]
    1e5a:	2b00      	cmp	r3, #0
    1e5c:	d002      	beq.n	1e64 <TEE_UnmaskCancellation+0x1e>
/home/qemu-sgx/devel/optee/optee_os/lib/libutee/tee_api.c:272
    1e5e:	6878      	ldr	r0, [r7, #4]
    1e60:	f002 f8e0 	bl	4024 <TEE_Panic>
/home/qemu-sgx/devel/optee/optee_os/lib/libutee/tee_api.c:273
    1e64:	683b      	ldr	r3, [r7, #0]
    1e66:	2b00      	cmp	r3, #0
    1e68:	bf14      	ite	ne
    1e6a:	2301      	movne	r3, #1
    1e6c:	2300      	moveq	r3, #0
    1e6e:	b2db      	uxtb	r3, r3
/home/qemu-sgx/devel/optee/optee_os/lib/libutee/tee_api.c:274
    1e70:	4618      	mov	r0, r3
    1e72:	f107 0708 	add.w	r7, r7, #8
    1e76:	46bd      	mov	sp, r7
    1e78:	bd80      	pop	{r7, pc}

00001e7a <TEE_MaskCancellation>:
TEE_MaskCancellation():
/home/qemu-sgx/devel/optee/optee_os/lib/libutee/tee_api.c:277
    1e7a:	e96d 7e02 	strd	r7, lr, [sp, #-8]!
    1e7e:	b082      	sub	sp, #8
    1e80:	af00      	add	r7, sp, #0
/home/qemu-sgx/devel/optee/optee_os/lib/libutee/tee_api.c:279
    1e82:	463b      	mov	r3, r7
    1e84:	4618      	mov	r0, r3
    1e86:	f7fe ece2 	blx	84c <_utee_mask_cancellation>
    1e8a:	6078      	str	r0, [r7, #4]
/home/qemu-sgx/devel/optee/optee_os/lib/libutee/tee_api.c:281
    1e8c:	687b      	ldr	r3, [r7, #4]
    1e8e:	2b00      	cmp	r3, #0
    1e90:	d002      	beq.n	1e98 <TEE_MaskCancellation+0x1e>
/home/qemu-sgx/devel/optee/optee_os/lib/libutee/tee_api.c:282
    1e92:	6878      	ldr	r0, [r7, #4]
    1e94:	f002 f8c6 	bl	4024 <TEE_Panic>
/home/qemu-sgx/devel/optee/optee_os/lib/libutee/tee_api.c:283
    1e98:	683b      	ldr	r3, [r7, #0]
    1e9a:	2b00      	cmp	r3, #0
    1e9c:	bf14      	ite	ne
    1e9e:	2301      	movne	r3, #1
    1ea0:	2300      	moveq	r3, #0
    1ea2:	b2db      	uxtb	r3, r3
/home/qemu-sgx/devel/optee/optee_os/lib/libutee/tee_api.c:284
    1ea4:	4618      	mov	r0, r3
    1ea6:	f107 0708 	add.w	r7, r7, #8
    1eaa:	46bd      	mov	sp, r7
    1eac:	bd80      	pop	{r7, pc}

00001eae <TEE_CheckMemoryAccessRights>:
TEE_CheckMemoryAccessRights():
/home/qemu-sgx/devel/optee/optee_os/lib/libutee/tee_api.c:290
    1eae:	e96d 7e02 	strd	r7, lr, [sp, #-8]!
    1eb2:	b086      	sub	sp, #24
    1eb4:	af00      	add	r7, sp, #0
    1eb6:	60f8      	str	r0, [r7, #12]
    1eb8:	60b9      	str	r1, [r7, #8]
    1eba:	607a      	str	r2, [r7, #4]
/home/qemu-sgx/devel/optee/optee_os/lib/libutee/tee_api.c:293
    1ebc:	687b      	ldr	r3, [r7, #4]
    1ebe:	2b00      	cmp	r3, #0
    1ec0:	d102      	bne.n	1ec8 <TEE_CheckMemoryAccessRights+0x1a>
/home/qemu-sgx/devel/optee/optee_os/lib/libutee/tee_api.c:294
    1ec2:	f04f 0300 	mov.w	r3, #0
    1ec6:	e00e      	b.n	1ee6 <TEE_CheckMemoryAccessRights+0x38>
/home/qemu-sgx/devel/optee/optee_os/lib/libutee/tee_api.c:297
    1ec8:	687a      	ldr	r2, [r7, #4]
    1eca:	68b9      	ldr	r1, [r7, #8]
    1ecc:	68f8      	ldr	r0, [r7, #12]
    1ece:	f7fe ecaa 	blx	824 <_utee_check_access_rights>
    1ed2:	6178      	str	r0, [r7, #20]
/home/qemu-sgx/devel/optee/optee_os/lib/libutee/tee_api.c:298
    1ed4:	697b      	ldr	r3, [r7, #20]
    1ed6:	2b00      	cmp	r3, #0
    1ed8:	d103      	bne.n	1ee2 <TEE_CheckMemoryAccessRights+0x34>
/home/qemu-sgx/devel/optee/optee_os/lib/libutee/tee_api.c:306
    1eda:	f04f 0300 	mov.w	r3, #0
    1ede:	617b      	str	r3, [r7, #20]
    1ee0:	e000      	b.n	1ee4 <TEE_CheckMemoryAccessRights+0x36>
/home/qemu-sgx/devel/optee/optee_os/lib/libutee/tee_api.c:299
    1ee2:	bf00      	nop
/home/qemu-sgx/devel/optee/optee_os/lib/libutee/tee_api.c:308
    1ee4:	697b      	ldr	r3, [r7, #20]
/home/qemu-sgx/devel/optee/optee_os/lib/libutee/tee_api.c:309
    1ee6:	4618      	mov	r0, r3
    1ee8:	f107 0718 	add.w	r7, r7, #24
    1eec:	46bd      	mov	sp, r7
    1eee:	bd80      	pop	{r7, pc}

00001ef0 <TEE_SetInstanceData>:
TEE_SetInstanceData():
/home/qemu-sgx/devel/optee/optee_os/lib/libutee/tee_api.c:312
    1ef0:	f84d 7d04 	str.w	r7, [sp, #-4]!
    1ef4:	b083      	sub	sp, #12
    1ef6:	af00      	add	r7, sp, #0
    1ef8:	6078      	str	r0, [r7, #4]
/home/qemu-sgx/devel/optee/optee_os/lib/libutee/tee_api.c:313
    1efa:	4b05      	ldr	r3, [pc, #20]	; (1f10 <TEE_SetInstanceData+0x20>)
    1efc:	447b      	add	r3, pc
    1efe:	687a      	ldr	r2, [r7, #4]
    1f00:	601a      	str	r2, [r3, #0]
/home/qemu-sgx/devel/optee/optee_os/lib/libutee/tee_api.c:314
    1f02:	bf00      	nop
    1f04:	f107 070c 	add.w	r7, r7, #12
    1f08:	46bd      	mov	sp, r7
    1f0a:	f85d 7b04 	ldr.w	r7, [sp], #4
    1f0e:	4770      	bx	lr
    1f10:	0001d414 	.word	0x0001d414

00001f14 <TEE_GetInstanceData>:
TEE_GetInstanceData():
/home/qemu-sgx/devel/optee/optee_os/lib/libutee/tee_api.c:317
    1f14:	f84d 7d04 	str.w	r7, [sp, #-4]!
    1f18:	af00      	add	r7, sp, #0
/home/qemu-sgx/devel/optee/optee_os/lib/libutee/tee_api.c:318
    1f1a:	4b04      	ldr	r3, [pc, #16]	; (1f2c <TEE_GetInstanceData+0x18>)
    1f1c:	447b      	add	r3, pc
    1f1e:	681b      	ldr	r3, [r3, #0]
/home/qemu-sgx/devel/optee/optee_os/lib/libutee/tee_api.c:319
    1f20:	4618      	mov	r0, r3
    1f22:	46bd      	mov	sp, r7
    1f24:	f85d 7b04 	ldr.w	r7, [sp], #4
    1f28:	4770      	bx	lr
    1f2a:	bf00      	nop
    1f2c:	0001d3f4 	.word	0x0001d3f4

00001f30 <TEE_MemMove>:
TEE_MemMove():
/home/qemu-sgx/devel/optee/optee_os/lib/libutee/tee_api.c:322
    1f30:	e96d 7e02 	strd	r7, lr, [sp, #-8]!
    1f34:	b084      	sub	sp, #16
    1f36:	af00      	add	r7, sp, #0
    1f38:	60f8      	str	r0, [r7, #12]
    1f3a:	60b9      	str	r1, [r7, #8]
    1f3c:	607a      	str	r2, [r7, #4]
/home/qemu-sgx/devel/optee/optee_os/lib/libutee/tee_api.c:323
    1f3e:	687a      	ldr	r2, [r7, #4]
    1f40:	68b9      	ldr	r1, [r7, #8]
    1f42:	68f8      	ldr	r0, [r7, #12]
    1f44:	f00f ffc8 	bl	11ed8 <memmove>
    1f48:	4603      	mov	r3, r0
/home/qemu-sgx/devel/optee/optee_os/lib/libutee/tee_api.c:324
    1f4a:	4618      	mov	r0, r3
    1f4c:	f107 0710 	add.w	r7, r7, #16
    1f50:	46bd      	mov	sp, r7
    1f52:	bd80      	pop	{r7, pc}

00001f54 <TEE_MemCompare>:
TEE_MemCompare():
/home/qemu-sgx/devel/optee/optee_os/lib/libutee/tee_api.c:327
    1f54:	e96d 7e02 	strd	r7, lr, [sp, #-8]!
    1f58:	b084      	sub	sp, #16
    1f5a:	af00      	add	r7, sp, #0
    1f5c:	60f8      	str	r0, [r7, #12]
    1f5e:	60b9      	str	r1, [r7, #8]
    1f60:	607a      	str	r2, [r7, #4]
/home/qemu-sgx/devel/optee/optee_os/lib/libutee/tee_api.c:328
    1f62:	687a      	ldr	r2, [r7, #4]
    1f64:	68b9      	ldr	r1, [r7, #8]
    1f66:	68f8      	ldr	r0, [r7, #12]
    1f68:	f010 fa9c 	bl	124a4 <consttime_memcmp>
    1f6c:	4603      	mov	r3, r0
/home/qemu-sgx/devel/optee/optee_os/lib/libutee/tee_api.c:329
    1f6e:	4618      	mov	r0, r3
    1f70:	f107 0710 	add.w	r7, r7, #16
    1f74:	46bd      	mov	sp, r7
    1f76:	bd80      	pop	{r7, pc}

00001f78 <TEE_MemFill>:
TEE_MemFill():
/home/qemu-sgx/devel/optee/optee_os/lib/libutee/tee_api.c:332
    1f78:	e96d 7e02 	strd	r7, lr, [sp, #-8]!
    1f7c:	b084      	sub	sp, #16
    1f7e:	af00      	add	r7, sp, #0
    1f80:	60f8      	str	r0, [r7, #12]
    1f82:	60b9      	str	r1, [r7, #8]
    1f84:	607a      	str	r2, [r7, #4]
/home/qemu-sgx/devel/optee/optee_os/lib/libutee/tee_api.c:333
    1f86:	68bb      	ldr	r3, [r7, #8]
    1f88:	687a      	ldr	r2, [r7, #4]
    1f8a:	4619      	mov	r1, r3
    1f8c:	68f8      	ldr	r0, [r7, #12]
    1f8e:	f010 f842 	bl	12016 <memset>
    1f92:	4603      	mov	r3, r0
/home/qemu-sgx/devel/optee/optee_os/lib/libutee/tee_api.c:334
    1f94:	4618      	mov	r0, r3
    1f96:	f107 0710 	add.w	r7, r7, #16
    1f9a:	46bd      	mov	sp, r7
    1f9c:	bd80      	pop	{r7, pc}

00001f9e <TEE_GetSystemTime>:
TEE_GetSystemTime():
/home/qemu-sgx/devel/optee/optee_os/lib/libutee/tee_api.c:339
    1f9e:	e96d 7e02 	strd	r7, lr, [sp, #-8]!
    1fa2:	b084      	sub	sp, #16
    1fa4:	af00      	add	r7, sp, #0
    1fa6:	6078      	str	r0, [r7, #4]
/home/qemu-sgx/devel/optee/optee_os/lib/libutee/tee_api.c:340
    1fa8:	6879      	ldr	r1, [r7, #4]
    1faa:	f04f 0000 	mov.w	r0, #0
    1fae:	f7fe ec62 	blx	874 <_utee_get_time>
    1fb2:	60f8      	str	r0, [r7, #12]
/home/qemu-sgx/devel/optee/optee_os/lib/libutee/tee_api.c:342
    1fb4:	68fb      	ldr	r3, [r7, #12]
    1fb6:	2b00      	cmp	r3, #0
    1fb8:	d002      	beq.n	1fc0 <TEE_GetSystemTime+0x22>
/home/qemu-sgx/devel/optee/optee_os/lib/libutee/tee_api.c:343
    1fba:	68f8      	ldr	r0, [r7, #12]
    1fbc:	f002 f832 	bl	4024 <TEE_Panic>
/home/qemu-sgx/devel/optee/optee_os/lib/libutee/tee_api.c:344
    1fc0:	bf00      	nop
    1fc2:	f107 0710 	add.w	r7, r7, #16
    1fc6:	46bd      	mov	sp, r7
    1fc8:	bd80      	pop	{r7, pc}

00001fca <TEE_Wait>:
TEE_Wait():
/home/qemu-sgx/devel/optee/optee_os/lib/libutee/tee_api.c:347
    1fca:	e96d 7e02 	strd	r7, lr, [sp, #-8]!
    1fce:	b084      	sub	sp, #16
    1fd0:	af00      	add	r7, sp, #0
    1fd2:	6078      	str	r0, [r7, #4]
/home/qemu-sgx/devel/optee/optee_os/lib/libutee/tee_api.c:348
    1fd4:	6878      	ldr	r0, [r7, #4]
    1fd6:	f7fe ec44 	blx	860 <_utee_wait>
    1fda:	60f8      	str	r0, [r7, #12]
/home/qemu-sgx/devel/optee/optee_os/lib/libutee/tee_api.c:350
    1fdc:	68fb      	ldr	r3, [r7, #12]
    1fde:	2b00      	cmp	r3, #0
    1fe0:	d009      	beq.n	1ff6 <TEE_Wait+0x2c>
/home/qemu-sgx/devel/optee/optee_os/lib/libutee/tee_api.c:350 (discriminator 1)
    1fe2:	68fa      	ldr	r2, [r7, #12]
    1fe4:	f04f 0302 	mov.w	r3, #2
    1fe8:	f6cf 73ff 	movt	r3, #65535	; 0xffff
    1fec:	429a      	cmp	r2, r3
    1fee:	d002      	beq.n	1ff6 <TEE_Wait+0x2c>
/home/qemu-sgx/devel/optee/optee_os/lib/libutee/tee_api.c:351
    1ff0:	68f8      	ldr	r0, [r7, #12]
    1ff2:	f002 f817 	bl	4024 <TEE_Panic>
/home/qemu-sgx/devel/optee/optee_os/lib/libutee/tee_api.c:353
    1ff6:	68fb      	ldr	r3, [r7, #12]
/home/qemu-sgx/devel/optee/optee_os/lib/libutee/tee_api.c:354
    1ff8:	4618      	mov	r0, r3
    1ffa:	f107 0710 	add.w	r7, r7, #16
    1ffe:	46bd      	mov	sp, r7
    2000:	bd80      	pop	{r7, pc}

00002002 <TEE_GetTAPersistentTime>:
TEE_GetTAPersistentTime():
/home/qemu-sgx/devel/optee/optee_os/lib/libutee/tee_api.c:357
    2002:	e96d 7e02 	strd	r7, lr, [sp, #-8]!
    2006:	b084      	sub	sp, #16
    2008:	af00      	add	r7, sp, #0
    200a:	6078      	str	r0, [r7, #4]
/home/qemu-sgx/devel/optee/optee_os/lib/libutee/tee_api.c:360
    200c:	6879      	ldr	r1, [r7, #4]
    200e:	f04f 0001 	mov.w	r0, #1
    2012:	f7fe ec30 	blx	874 <_utee_get_time>
    2016:	60f8      	str	r0, [r7, #12]
/home/qemu-sgx/devel/optee/optee_os/lib/libutee/tee_api.c:362
    2018:	68fb      	ldr	r3, [r7, #12]
    201a:	2b00      	cmp	r3, #0
    201c:	d00e      	beq.n	203c <TEE_GetTAPersistentTime+0x3a>
/home/qemu-sgx/devel/optee/optee_os/lib/libutee/tee_api.c:362 (discriminator 1)
    201e:	68fa      	ldr	r2, [r7, #12]
    2020:	f243 030f 	movw	r3, #12303	; 0x300f
    2024:	f6cf 73ff 	movt	r3, #65535	; 0xffff
    2028:	429a      	cmp	r2, r3
    202a:	d007      	beq.n	203c <TEE_GetTAPersistentTime+0x3a>
/home/qemu-sgx/devel/optee/optee_os/lib/libutee/tee_api.c:363
    202c:	687b      	ldr	r3, [r7, #4]
    202e:	f04f 0200 	mov.w	r2, #0
    2032:	601a      	str	r2, [r3, #0]
/home/qemu-sgx/devel/optee/optee_os/lib/libutee/tee_api.c:364
    2034:	687b      	ldr	r3, [r7, #4]
    2036:	f04f 0200 	mov.w	r2, #0
    203a:	605a      	str	r2, [r3, #4]
/home/qemu-sgx/devel/optee/optee_os/lib/libutee/tee_api.c:367
    203c:	68fb      	ldr	r3, [r7, #12]
    203e:	2b00      	cmp	r3, #0
    2040:	d01b      	beq.n	207a <TEE_GetTAPersistentTime+0x78>
/home/qemu-sgx/devel/optee/optee_os/lib/libutee/tee_api.c:367 (discriminator 1)
    2042:	68fb      	ldr	r3, [r7, #12]
    2044:	f513 4f30 	cmn.w	r3, #45056	; 0xb000
    2048:	d017      	beq.n	207a <TEE_GetTAPersistentTime+0x78>
/home/qemu-sgx/devel/optee/optee_os/lib/libutee/tee_api.c:368
    204a:	68fa      	ldr	r2, [r7, #12]
    204c:	f245 0301 	movw	r3, #20481	; 0x5001
    2050:	f6cf 73ff 	movt	r3, #65535	; 0xffff
    2054:	429a      	cmp	r2, r3
    2056:	d010      	beq.n	207a <TEE_GetTAPersistentTime+0x78>
/home/qemu-sgx/devel/optee/optee_os/lib/libutee/tee_api.c:369
    2058:	68fa      	ldr	r2, [r7, #12]
    205a:	f243 030f 	movw	r3, #12303	; 0x300f
    205e:	f6cf 73ff 	movt	r3, #65535	; 0xffff
    2062:	429a      	cmp	r2, r3
    2064:	d009      	beq.n	207a <TEE_GetTAPersistentTime+0x78>
/home/qemu-sgx/devel/optee/optee_os/lib/libutee/tee_api.c:370
    2066:	68fa      	ldr	r2, [r7, #12]
    2068:	f04f 030c 	mov.w	r3, #12
    206c:	f6cf 73ff 	movt	r3, #65535	; 0xffff
    2070:	429a      	cmp	r2, r3
    2072:	d002      	beq.n	207a <TEE_GetTAPersistentTime+0x78>
/home/qemu-sgx/devel/optee/optee_os/lib/libutee/tee_api.c:372
    2074:	68f8      	ldr	r0, [r7, #12]
    2076:	f001 ffd5 	bl	4024 <TEE_Panic>
/home/qemu-sgx/devel/optee/optee_os/lib/libutee/tee_api.c:374
    207a:	68fb      	ldr	r3, [r7, #12]
/home/qemu-sgx/devel/optee/optee_os/lib/libutee/tee_api.c:375
    207c:	4618      	mov	r0, r3
    207e:	f107 0710 	add.w	r7, r7, #16
    2082:	46bd      	mov	sp, r7
    2084:	bd80      	pop	{r7, pc}

00002086 <TEE_SetTAPersistentTime>:
TEE_SetTAPersistentTime():
/home/qemu-sgx/devel/optee/optee_os/lib/libutee/tee_api.c:378
    2086:	e96d 7e02 	strd	r7, lr, [sp, #-8]!
    208a:	b084      	sub	sp, #16
    208c:	af00      	add	r7, sp, #0
    208e:	6078      	str	r0, [r7, #4]
/home/qemu-sgx/devel/optee/optee_os/lib/libutee/tee_api.c:381
    2090:	6878      	ldr	r0, [r7, #4]
    2092:	f7fe ebfa 	blx	888 <_utee_set_ta_time>
    2096:	60f8      	str	r0, [r7, #12]
/home/qemu-sgx/devel/optee/optee_os/lib/libutee/tee_api.c:383
    2098:	68fb      	ldr	r3, [r7, #12]
    209a:	2b00      	cmp	r3, #0
    209c:	d010      	beq.n	20c0 <TEE_SetTAPersistentTime+0x3a>
/home/qemu-sgx/devel/optee/optee_os/lib/libutee/tee_api.c:383 (discriminator 1)
    209e:	68fa      	ldr	r2, [r7, #12]
    20a0:	f04f 030c 	mov.w	r3, #12
    20a4:	f6cf 73ff 	movt	r3, #65535	; 0xffff
    20a8:	429a      	cmp	r2, r3
    20aa:	d009      	beq.n	20c0 <TEE_SetTAPersistentTime+0x3a>
/home/qemu-sgx/devel/optee/optee_os/lib/libutee/tee_api.c:384
    20ac:	68fa      	ldr	r2, [r7, #12]
    20ae:	f243 0341 	movw	r3, #12353	; 0x3041
    20b2:	f6cf 73ff 	movt	r3, #65535	; 0xffff
    20b6:	429a      	cmp	r2, r3
    20b8:	d002      	beq.n	20c0 <TEE_SetTAPersistentTime+0x3a>
/home/qemu-sgx/devel/optee/optee_os/lib/libutee/tee_api.c:386
    20ba:	68f8      	ldr	r0, [r7, #12]
    20bc:	f001 ffb2 	bl	4024 <TEE_Panic>
/home/qemu-sgx/devel/optee/optee_os/lib/libutee/tee_api.c:388
    20c0:	68fb      	ldr	r3, [r7, #12]
/home/qemu-sgx/devel/optee/optee_os/lib/libutee/tee_api.c:389
    20c2:	4618      	mov	r0, r3
    20c4:	f107 0710 	add.w	r7, r7, #16
    20c8:	46bd      	mov	sp, r7
    20ca:	bd80      	pop	{r7, pc}

000020cc <TEE_GetREETime>:
TEE_GetREETime():
/home/qemu-sgx/devel/optee/optee_os/lib/libutee/tee_api.c:392
    20cc:	e96d 7e02 	strd	r7, lr, [sp, #-8]!
    20d0:	b084      	sub	sp, #16
    20d2:	af00      	add	r7, sp, #0
    20d4:	6078      	str	r0, [r7, #4]
/home/qemu-sgx/devel/optee/optee_os/lib/libutee/tee_api.c:393
    20d6:	6879      	ldr	r1, [r7, #4]
    20d8:	f04f 0002 	mov.w	r0, #2
    20dc:	f7fe ebca 	blx	874 <_utee_get_time>
    20e0:	60f8      	str	r0, [r7, #12]
/home/qemu-sgx/devel/optee/optee_os/lib/libutee/tee_api.c:395
    20e2:	68fb      	ldr	r3, [r7, #12]
    20e4:	2b00      	cmp	r3, #0
    20e6:	d002      	beq.n	20ee <TEE_GetREETime+0x22>
/home/qemu-sgx/devel/optee/optee_os/lib/libutee/tee_api.c:396
    20e8:	68f8      	ldr	r0, [r7, #12]
    20ea:	f001 ff9b 	bl	4024 <TEE_Panic>
/home/qemu-sgx/devel/optee/optee_os/lib/libutee/tee_api.c:397
    20ee:	bf00      	nop
    20f0:	f107 0710 	add.w	r7, r7, #16
    20f4:	46bd      	mov	sp, r7
    20f6:	bd80      	pop	{r7, pc}

000020f8 <TEE_Malloc>:
TEE_Malloc():
/home/qemu-sgx/devel/optee/optee_os/lib/libutee/tee_api.c:400
    20f8:	e96d 7e02 	strd	r7, lr, [sp, #-8]!
    20fc:	b084      	sub	sp, #16
    20fe:	af02      	add	r7, sp, #8
    2100:	6078      	str	r0, [r7, #4]
    2102:	6039      	str	r1, [r7, #0]
/home/qemu-sgx/devel/optee/optee_os/lib/libutee/tee_api.c:401
    2104:	687b      	ldr	r3, [r7, #4]
    2106:	2b00      	cmp	r3, #0
    2108:	d102      	bne.n	2110 <TEE_Malloc+0x18>
/home/qemu-sgx/devel/optee/optee_os/lib/libutee/tee_api.c:402
    210a:	f04f 0301 	mov.w	r3, #1
    210e:	e023      	b.n	2158 <TEE_Malloc+0x60>
/home/qemu-sgx/devel/optee/optee_os/lib/libutee/tee_api.c:404
    2110:	683b      	ldr	r3, [r7, #0]
    2112:	2b00      	cmp	r3, #0
    2114:	d106      	bne.n	2124 <TEE_Malloc+0x2c>
/home/qemu-sgx/devel/optee/optee_os/lib/libutee/tee_api.c:405
    2116:	6879      	ldr	r1, [r7, #4]
    2118:	f04f 0001 	mov.w	r0, #1
    211c:	f00a f9c0 	bl	c4a0 <calloc>
    2120:	4603      	mov	r3, r0
    2122:	e019      	b.n	2158 <TEE_Malloc+0x60>
/home/qemu-sgx/devel/optee/optee_os/lib/libutee/tee_api.c:406
    2124:	683b      	ldr	r3, [r7, #0]
    2126:	f1b3 4f00 	cmp.w	r3, #2147483648	; 0x80000000
    212a:	d104      	bne.n	2136 <TEE_Malloc+0x3e>
/home/qemu-sgx/devel/optee/optee_os/lib/libutee/tee_api.c:407
    212c:	6878      	ldr	r0, [r7, #4]
    212e:	f00a f969 	bl	c404 <malloc>
    2132:	4603      	mov	r3, r0
    2134:	e010      	b.n	2158 <TEE_Malloc+0x60>
/home/qemu-sgx/devel/optee/optee_os/lib/libutee/tee_api.c:409
    2136:	683b      	ldr	r3, [r7, #0]
    2138:	9301      	str	r3, [sp, #4]
    213a:	4b0a      	ldr	r3, [pc, #40]	; (2164 <TEE_Malloc+0x6c>)
    213c:	447b      	add	r3, pc
    213e:	9300      	str	r3, [sp, #0]
    2140:	f04f 0301 	mov.w	r3, #1
    2144:	f04f 0201 	mov.w	r2, #1
    2148:	f240 1199 	movw	r1, #409	; 0x199
    214c:	4806      	ldr	r0, [pc, #24]	; (2168 <TEE_Malloc+0x70>)
    214e:	4478      	add	r0, pc
    2150:	f00b fd75 	bl	dc3e <trace_printf>
/home/qemu-sgx/devel/optee/optee_os/lib/libutee/tee_api.c:411
    2154:	f04f 0300 	mov.w	r3, #0
/home/qemu-sgx/devel/optee/optee_os/lib/libutee/tee_api.c:412
    2158:	4618      	mov	r0, r3
    215a:	f107 0708 	add.w	r7, r7, #8
    215e:	46bd      	mov	sp, r7
    2160:	bd80      	pop	{r7, pc}
    2162:	bf00      	nop
    2164:	000117ac 	.word	0x000117ac
    2168:	000117ae 	.word	0x000117ae

0000216c <TEE_Realloc>:
TEE_Realloc():
/home/qemu-sgx/devel/optee/optee_os/lib/libutee/tee_api.c:415
    216c:	e96d 7e02 	strd	r7, lr, [sp, #-8]!
    2170:	b082      	sub	sp, #8
    2172:	af00      	add	r7, sp, #0
    2174:	6078      	str	r0, [r7, #4]
    2176:	6039      	str	r1, [r7, #0]
/home/qemu-sgx/devel/optee/optee_os/lib/libutee/tee_api.c:416
    2178:	683b      	ldr	r3, [r7, #0]
    217a:	2b00      	cmp	r3, #0
    217c:	d105      	bne.n	218a <TEE_Realloc+0x1e>
/home/qemu-sgx/devel/optee/optee_os/lib/libutee/tee_api.c:417
    217e:	6878      	ldr	r0, [r7, #4]
    2180:	f000 f817 	bl	21b2 <TEE_Free>
/home/qemu-sgx/devel/optee/optee_os/lib/libutee/tee_api.c:418
    2184:	f04f 0301 	mov.w	r3, #1
    2188:	e00e      	b.n	21a8 <TEE_Realloc+0x3c>
/home/qemu-sgx/devel/optee/optee_os/lib/libutee/tee_api.c:421
    218a:	687b      	ldr	r3, [r7, #4]
    218c:	2b01      	cmp	r3, #1
    218e:	d106      	bne.n	219e <TEE_Realloc+0x32>
/home/qemu-sgx/devel/optee/optee_os/lib/libutee/tee_api.c:422
    2190:	6839      	ldr	r1, [r7, #0]
    2192:	f04f 0001 	mov.w	r0, #1
    2196:	f00a f983 	bl	c4a0 <calloc>
    219a:	4603      	mov	r3, r0
    219c:	e004      	b.n	21a8 <TEE_Realloc+0x3c>
/home/qemu-sgx/devel/optee/optee_os/lib/libutee/tee_api.c:424
    219e:	6839      	ldr	r1, [r7, #0]
    21a0:	6878      	ldr	r0, [r7, #4]
    21a2:	f00a f9be 	bl	c522 <realloc>
    21a6:	4603      	mov	r3, r0
/home/qemu-sgx/devel/optee/optee_os/lib/libutee/tee_api.c:425
    21a8:	4618      	mov	r0, r3
    21aa:	f107 0708 	add.w	r7, r7, #8
    21ae:	46bd      	mov	sp, r7
    21b0:	bd80      	pop	{r7, pc}

000021b2 <TEE_Free>:
TEE_Free():
/home/qemu-sgx/devel/optee/optee_os/lib/libutee/tee_api.c:428
    21b2:	e96d 7e02 	strd	r7, lr, [sp, #-8]!
    21b6:	b082      	sub	sp, #8
    21b8:	af00      	add	r7, sp, #0
    21ba:	6078      	str	r0, [r7, #4]
/home/qemu-sgx/devel/optee/optee_os/lib/libutee/tee_api.c:429
    21bc:	687b      	ldr	r3, [r7, #4]
    21be:	2b01      	cmp	r3, #1
    21c0:	d002      	beq.n	21c8 <TEE_Free+0x16>
/home/qemu-sgx/devel/optee/optee_os/lib/libutee/tee_api.c:430
    21c2:	6878      	ldr	r0, [r7, #4]
    21c4:	f00a fa11 	bl	c5ea <free>
/home/qemu-sgx/devel/optee/optee_os/lib/libutee/tee_api.c:431
    21c8:	bf00      	nop
    21ca:	f107 0708 	add.w	r7, r7, #8
    21ce:	46bd      	mov	sp, r7
    21d0:	bd80      	pop	{r7, pc}

000021d2 <TEE_CacheClean>:
TEE_CacheClean():
/home/qemu-sgx/devel/optee/optee_os/lib/libutee/tee_api.c:435
    21d2:	e96d 7e02 	strd	r7, lr, [sp, #-8]!
    21d6:	b082      	sub	sp, #8
    21d8:	af00      	add	r7, sp, #0
    21da:	6078      	str	r0, [r7, #4]
    21dc:	6039      	str	r1, [r7, #0]
/home/qemu-sgx/devel/optee/optee_os/lib/libutee/tee_api.c:436
    21de:	f04f 0200 	mov.w	r2, #0
    21e2:	6839      	ldr	r1, [r7, #0]
    21e4:	6878      	ldr	r0, [r7, #4]
    21e6:	f7fe ed02 	blx	bec <_utee_cache_operation>
    21ea:	4603      	mov	r3, r0
/home/qemu-sgx/devel/optee/optee_os/lib/libutee/tee_api.c:437
    21ec:	4618      	mov	r0, r3
    21ee:	f107 0708 	add.w	r7, r7, #8
    21f2:	46bd      	mov	sp, r7
    21f4:	bd80      	pop	{r7, pc}

000021f6 <TEE_CacheFlush>:
TEE_CacheFlush():
/home/qemu-sgx/devel/optee/optee_os/lib/libutee/tee_api.c:439
    21f6:	e96d 7e02 	strd	r7, lr, [sp, #-8]!
    21fa:	b082      	sub	sp, #8
    21fc:	af00      	add	r7, sp, #0
    21fe:	6078      	str	r0, [r7, #4]
    2200:	6039      	str	r1, [r7, #0]
/home/qemu-sgx/devel/optee/optee_os/lib/libutee/tee_api.c:440
    2202:	f04f 0201 	mov.w	r2, #1
    2206:	6839      	ldr	r1, [r7, #0]
    2208:	6878      	ldr	r0, [r7, #4]
    220a:	f7fe ecf0 	blx	bec <_utee_cache_operation>
    220e:	4603      	mov	r3, r0
/home/qemu-sgx/devel/optee/optee_os/lib/libutee/tee_api.c:441
    2210:	4618      	mov	r0, r3
    2212:	f107 0708 	add.w	r7, r7, #8
    2216:	46bd      	mov	sp, r7
    2218:	bd80      	pop	{r7, pc}

0000221a <TEE_CacheInvalidate>:
TEE_CacheInvalidate():
/home/qemu-sgx/devel/optee/optee_os/lib/libutee/tee_api.c:444
    221a:	e96d 7e02 	strd	r7, lr, [sp, #-8]!
    221e:	b082      	sub	sp, #8
    2220:	af00      	add	r7, sp, #0
    2222:	6078      	str	r0, [r7, #4]
    2224:	6039      	str	r1, [r7, #0]
/home/qemu-sgx/devel/optee/optee_os/lib/libutee/tee_api.c:445
    2226:	f04f 0202 	mov.w	r2, #2
    222a:	6839      	ldr	r1, [r7, #0]
    222c:	6878      	ldr	r0, [r7, #4]
    222e:	f7fe ecde 	blx	bec <_utee_cache_operation>
    2232:	4603      	mov	r3, r0
/home/qemu-sgx/devel/optee/optee_os/lib/libutee/tee_api.c:446
    2234:	4618      	mov	r0, r3
    2236:	f107 0708 	add.w	r7, r7, #8
    223a:	46bd      	mov	sp, r7
    223c:	bd80      	pop	{r7, pc}
    223e:	bf00      	nop

00002240 <api_panic>:
api_panic():
/home/qemu-sgx/devel/optee/optee_os/lib/libutee/tee_api_arith_mpi.c:19
    2240:	e96d 7e02 	strd	r7, lr, [sp, #-8]!
    2244:	b084      	sub	sp, #16
    2246:	af00      	add	r7, sp, #0
    2248:	60f8      	str	r0, [r7, #12]
    224a:	60b9      	str	r1, [r7, #8]
    224c:	607a      	str	r2, [r7, #4]
/home/qemu-sgx/devel/optee/optee_os/lib/libutee/tee_api_arith_mpi.c:20
    224e:	687b      	ldr	r3, [r7, #4]
    2250:	68ba      	ldr	r2, [r7, #8]
    2252:	68f9      	ldr	r1, [r7, #12]
    2254:	4805      	ldr	r0, [pc, #20]	; (226c <api_panic+0x2c>)
    2256:	4478      	add	r0, pc
    2258:	f7ff fa40 	bl	16dc <printf>
/home/qemu-sgx/devel/optee/optee_os/lib/libutee/tee_api_arith_mpi.c:21
    225c:	f246 1027 	movw	r0, #24871	; 0x6127
    2260:	f2c0 00b1 	movt	r0, #177	; 0xb1
    2264:	f001 fede 	bl	4024 <TEE_Panic>
/home/qemu-sgx/devel/optee/optee_os/lib/libutee/tee_api_arith_mpi.c:22 (discriminator 1)
    2268:	e7fe      	b.n	2268 <api_panic+0x28>
    226a:	bf00      	nop
    226c:	000116b2 	.word	0x000116b2

00002270 <mpi_panic>:
mpi_panic():
/home/qemu-sgx/devel/optee/optee_os/lib/libutee/tee_api_arith_mpi.c:29
    2270:	e96d 7e02 	strd	r7, lr, [sp, #-8]!
    2274:	b084      	sub	sp, #16
    2276:	af00      	add	r7, sp, #0
    2278:	60f8      	str	r0, [r7, #12]
    227a:	60b9      	str	r1, [r7, #8]
    227c:	607a      	str	r2, [r7, #4]
/home/qemu-sgx/devel/optee/optee_os/lib/libutee/tee_api_arith_mpi.c:30
    227e:	687b      	ldr	r3, [r7, #4]
    2280:	68ba      	ldr	r2, [r7, #8]
    2282:	68f9      	ldr	r1, [r7, #12]
    2284:	4805      	ldr	r0, [pc, #20]	; (229c <mpi_panic+0x2c>)
    2286:	4478      	add	r0, pc
    2288:	f7ff fa28 	bl	16dc <printf>
/home/qemu-sgx/devel/optee/optee_os/lib/libutee/tee_api_arith_mpi.c:31
    228c:	f246 1027 	movw	r0, #24871	; 0x6127
    2290:	f2c0 00b1 	movt	r0, #177	; 0xb1
    2294:	f001 fec6 	bl	4024 <TEE_Panic>
/home/qemu-sgx/devel/optee/optee_os/lib/libutee/tee_api_arith_mpi.c:32 (discriminator 1)
    2298:	e7fe      	b.n	2298 <mpi_panic+0x28>
    229a:	bf00      	nop
    229c:	000116a2 	.word	0x000116a2

000022a0 <_TEE_MathAPI_Init>:
_TEE_MathAPI_Init():
/home/qemu-sgx/devel/optee/optee_os/lib/libutee/tee_api_arith_mpi.c:44
    22a0:	e96d 3404 	strd	r3, r4, [sp, #-16]!
    22a4:	e9cd 7e02 	strd	r7, lr, [sp, #8]
    22a8:	af00      	add	r7, sp, #0
    22aa:	4c12      	ldr	r4, [pc, #72]	; (22f4 <_TEE_MathAPI_Init+0x54>)
    22ac:	447c      	add	r4, pc
/home/qemu-sgx/devel/optee/optee_os/lib/libutee/tee_api_arith_mpi.c:47
    22ae:	f04f 0200 	mov.w	r2, #0
    22b2:	f44f 5140 	mov.w	r1, #12288	; 0x3000
    22b6:	4b10      	ldr	r3, [pc, #64]	; (22f8 <_TEE_MathAPI_Init+0x58>)
    22b8:	447b      	add	r3, pc
    22ba:	4618      	mov	r0, r3
    22bc:	f00b fe88 	bl	dfd0 <mempool_alloc_pool>
    22c0:	4602      	mov	r2, r0
    22c2:	4b0e      	ldr	r3, [pc, #56]	; (22fc <_TEE_MathAPI_Init+0x5c>)
    22c4:	58e3      	ldr	r3, [r4, r3]
    22c6:	601a      	str	r2, [r3, #0]
/home/qemu-sgx/devel/optee/optee_os/lib/libutee/tee_api_arith_mpi.c:48
    22c8:	4b0c      	ldr	r3, [pc, #48]	; (22fc <_TEE_MathAPI_Init+0x5c>)
    22ca:	58e3      	ldr	r3, [r4, r3]
    22cc:	681b      	ldr	r3, [r3, #0]
    22ce:	2b00      	cmp	r3, #0
    22d0:	d109      	bne.n	22e6 <_TEE_MathAPI_Init+0x46>
/home/qemu-sgx/devel/optee/optee_os/lib/libutee/tee_api_arith_mpi.c:49
    22d2:	4b0b      	ldr	r3, [pc, #44]	; (2300 <_TEE_MathAPI_Init+0x60>)
    22d4:	447b      	add	r3, pc
    22d6:	461a      	mov	r2, r3
    22d8:	f04f 0131 	mov.w	r1, #49	; 0x31
    22dc:	4b09      	ldr	r3, [pc, #36]	; (2304 <_TEE_MathAPI_Init+0x64>)
    22de:	447b      	add	r3, pc
    22e0:	4618      	mov	r0, r3
    22e2:	f7ff ffad 	bl	2240 <api_panic>
/home/qemu-sgx/devel/optee/optee_os/lib/libutee/tee_api_arith_mpi.c:50
    22e6:	bf00      	nop
    22e8:	46bd      	mov	sp, r7
    22ea:	e9dd 3400 	ldrd	r3, r4, [sp]
    22ee:	b002      	add	sp, #8
    22f0:	bd80      	pop	{r7, pc}
    22f2:	bf00      	nop
    22f4:	00014dd8 	.word	0x00014dd8
    22f8:	0001d05c 	.word	0x0001d05c
    22fc:	00000044 	.word	0x00000044
    2300:	0001167c 	.word	0x0001167c
    2304:	000116ee 	.word	0x000116ee

00002308 <copy_mpi_to_bigint>:
copy_mpi_to_bigint():
/home/qemu-sgx/devel/optee/optee_os/lib/libutee/tee_api_arith_mpi.c:61
    2308:	e96d 7e02 	strd	r7, lr, [sp, #-8]!
    230c:	b084      	sub	sp, #16
    230e:	af00      	add	r7, sp, #0
    2310:	6078      	str	r0, [r7, #4]
    2312:	6039      	str	r1, [r7, #0]
/home/qemu-sgx/devel/optee/optee_os/lib/libutee/tee_api_arith_mpi.c:62
    2314:	683b      	ldr	r3, [r7, #0]
    2316:	60bb      	str	r3, [r7, #8]
/home/qemu-sgx/devel/optee/optee_os/lib/libutee/tee_api_arith_mpi.c:63
    2318:	687b      	ldr	r3, [r7, #4]
    231a:	685b      	ldr	r3, [r3, #4]
    231c:	60fb      	str	r3, [r7, #12]
/home/qemu-sgx/devel/optee/optee_os/lib/libutee/tee_api_arith_mpi.c:66
    231e:	e003      	b.n	2328 <copy_mpi_to_bigint+0x20>
/home/qemu-sgx/devel/optee/optee_os/lib/libutee/tee_api_arith_mpi.c:67
    2320:	68fb      	ldr	r3, [r7, #12]
    2322:	f103 33ff 	add.w	r3, r3, #4294967295	; 0xffffffff
    2326:	60fb      	str	r3, [r7, #12]
/home/qemu-sgx/devel/optee/optee_os/lib/libutee/tee_api_arith_mpi.c:66
    2328:	68fb      	ldr	r3, [r7, #12]
    232a:	2b00      	cmp	r3, #0
    232c:	d00c      	beq.n	2348 <copy_mpi_to_bigint+0x40>
/home/qemu-sgx/devel/optee/optee_os/lib/libutee/tee_api_arith_mpi.c:66 (discriminator 1)
    232e:	687b      	ldr	r3, [r7, #4]
    2330:	689a      	ldr	r2, [r3, #8]
    2332:	68fb      	ldr	r3, [r7, #12]
    2334:	f103 4380 	add.w	r3, r3, #1073741824	; 0x40000000
    2338:	f103 33ff 	add.w	r3, r3, #4294967295	; 0xffffffff
    233c:	ea4f 0383 	mov.w	r3, r3, lsl #2
    2340:	4413      	add	r3, r2
    2342:	681b      	ldr	r3, [r3, #0]
    2344:	2b00      	cmp	r3, #0
    2346:	d0eb      	beq.n	2320 <copy_mpi_to_bigint+0x18>
/home/qemu-sgx/devel/optee/optee_os/lib/libutee/tee_api_arith_mpi.c:69
    2348:	68bb      	ldr	r3, [r7, #8]
    234a:	889b      	ldrh	r3, [r3, #4]
    234c:	461a      	mov	r2, r3
    234e:	68fb      	ldr	r3, [r7, #12]
    2350:	4293      	cmp	r3, r2
    2352:	d904      	bls.n	235e <copy_mpi_to_bigint+0x56>
/home/qemu-sgx/devel/optee/optee_os/lib/libutee/tee_api_arith_mpi.c:70
    2354:	f243 030f 	movw	r3, #12303	; 0x300f
    2358:	f6cf 73ff 	movt	r3, #65535	; 0xffff
    235c:	e017      	b.n	238e <copy_mpi_to_bigint+0x86>
/home/qemu-sgx/devel/optee/optee_os/lib/libutee/tee_api_arith_mpi.c:72
    235e:	68fb      	ldr	r3, [r7, #12]
    2360:	b29a      	uxth	r2, r3
    2362:	68bb      	ldr	r3, [r7, #8]
    2364:	80da      	strh	r2, [r3, #6]
/home/qemu-sgx/devel/optee/optee_os/lib/libutee/tee_api_arith_mpi.c:73
    2366:	687b      	ldr	r3, [r7, #4]
    2368:	f9b3 3000 	ldrsh.w	r3, [r3]
    236c:	461a      	mov	r2, r3
    236e:	68bb      	ldr	r3, [r7, #8]
    2370:	601a      	str	r2, [r3, #0]
/home/qemu-sgx/devel/optee/optee_os/lib/libutee/tee_api_arith_mpi.c:74
    2372:	68bb      	ldr	r3, [r7, #8]
    2374:	f103 0008 	add.w	r0, r3, #8
    2378:	687b      	ldr	r3, [r7, #4]
    237a:	6899      	ldr	r1, [r3, #8]
    237c:	687b      	ldr	r3, [r7, #4]
    237e:	685b      	ldr	r3, [r3, #4]
    2380:	ea4f 0383 	mov.w	r3, r3, lsl #2
    2384:	461a      	mov	r2, r3
    2386:	f00f fd2e 	bl	11de6 <memcpy>
/home/qemu-sgx/devel/optee/optee_os/lib/libutee/tee_api_arith_mpi.c:76
    238a:	f04f 0300 	mov.w	r3, #0
/home/qemu-sgx/devel/optee/optee_os/lib/libutee/tee_api_arith_mpi.c:77
    238e:	4618      	mov	r0, r3
    2390:	f107 0710 	add.w	r7, r7, #16
    2394:	46bd      	mov	sp, r7
    2396:	bd80      	pop	{r7, pc}

00002398 <get_mpi>:
get_mpi():
/home/qemu-sgx/devel/optee/optee_os/lib/libutee/tee_api_arith_mpi.c:86
    2398:	e96d 7e02 	strd	r7, lr, [sp, #-8]!
    239c:	b086      	sub	sp, #24
    239e:	af00      	add	r7, sp, #0
    23a0:	6078      	str	r0, [r7, #4]
    23a2:	6039      	str	r1, [r7, #0]
/home/qemu-sgx/devel/optee/optee_os/lib/libutee/tee_api_arith_mpi.c:92
    23a4:	bf00      	nop
/home/qemu-sgx/devel/optee/optee_os/lib/libutee/tee_api_arith_mpi.c:98
    23a6:	bf00      	nop
/home/qemu-sgx/devel/optee/optee_os/lib/libutee/tee_api_arith_mpi.c:101
    23a8:	6878      	ldr	r0, [r7, #4]
    23aa:	f002 f9db 	bl	4764 <mbedtls_mpi_init_mempool>
/home/qemu-sgx/devel/optee/optee_os/lib/libutee/tee_api_arith_mpi.c:103
    23ae:	683b      	ldr	r3, [r7, #0]
    23b0:	2b00      	cmp	r3, #0
    23b2:	d03a      	beq.n	242a <get_mpi+0x92>
/home/qemu-sgx/devel/optee/optee_os/lib/libutee/tee_api_arith_mpi.c:104
    23b4:	683b      	ldr	r3, [r7, #0]
    23b6:	613b      	str	r3, [r7, #16]
/home/qemu-sgx/devel/optee/optee_os/lib/libutee/tee_api_arith_mpi.c:105
    23b8:	693b      	ldr	r3, [r7, #16]
    23ba:	f103 0308 	add.w	r3, r3, #8
    23be:	60fb      	str	r3, [r7, #12]
/home/qemu-sgx/devel/optee/optee_os/lib/libutee/tee_api_arith_mpi.c:106
    23c0:	693b      	ldr	r3, [r7, #16]
    23c2:	88db      	ldrh	r3, [r3, #6]
    23c4:	617b      	str	r3, [r7, #20]
/home/qemu-sgx/devel/optee/optee_os/lib/libutee/tee_api_arith_mpi.c:109
    23c6:	e003      	b.n	23d0 <get_mpi+0x38>
/home/qemu-sgx/devel/optee/optee_os/lib/libutee/tee_api_arith_mpi.c:110
    23c8:	697b      	ldr	r3, [r7, #20]
    23ca:	f103 33ff 	add.w	r3, r3, #4294967295	; 0xffffffff
    23ce:	617b      	str	r3, [r7, #20]
/home/qemu-sgx/devel/optee/optee_os/lib/libutee/tee_api_arith_mpi.c:109
    23d0:	697b      	ldr	r3, [r7, #20]
    23d2:	2b00      	cmp	r3, #0
    23d4:	d00b      	beq.n	23ee <get_mpi+0x56>
/home/qemu-sgx/devel/optee/optee_os/lib/libutee/tee_api_arith_mpi.c:109 (discriminator 1)
    23d6:	697b      	ldr	r3, [r7, #20]
    23d8:	f103 4380 	add.w	r3, r3, #1073741824	; 0x40000000
    23dc:	f103 33ff 	add.w	r3, r3, #4294967295	; 0xffffffff
    23e0:	ea4f 0383 	mov.w	r3, r3, lsl #2
    23e4:	68fa      	ldr	r2, [r7, #12]
    23e6:	4413      	add	r3, r2
    23e8:	681b      	ldr	r3, [r3, #0]
    23ea:	2b00      	cmp	r3, #0
    23ec:	d0ec      	beq.n	23c8 <get_mpi+0x30>
/home/qemu-sgx/devel/optee/optee_os/lib/libutee/tee_api_arith_mpi.c:112
    23ee:	6979      	ldr	r1, [r7, #20]
    23f0:	6878      	ldr	r0, [r7, #4]
    23f2:	f002 fa1b 	bl	482c <mbedtls_mpi_grow>
    23f6:	60b8      	str	r0, [r7, #8]
    23f8:	68bb      	ldr	r3, [r7, #8]
    23fa:	2b00      	cmp	r3, #0
    23fc:	d007      	beq.n	240e <get_mpi+0x76>
/home/qemu-sgx/devel/optee/optee_os/lib/libutee/tee_api_arith_mpi.c:112 (discriminator 1)
    23fe:	68ba      	ldr	r2, [r7, #8]
    2400:	f04f 0170 	mov.w	r1, #112	; 0x70
    2404:	4b0b      	ldr	r3, [pc, #44]	; (2434 <get_mpi+0x9c>)
    2406:	447b      	add	r3, pc
    2408:	4618      	mov	r0, r3
    240a:	f7ff ff31 	bl	2270 <mpi_panic>
/home/qemu-sgx/devel/optee/optee_os/lib/libutee/tee_api_arith_mpi.c:113
    240e:	693b      	ldr	r3, [r7, #16]
    2410:	681b      	ldr	r3, [r3, #0]
    2412:	b21a      	sxth	r2, r3
    2414:	687b      	ldr	r3, [r7, #4]
    2416:	801a      	strh	r2, [r3, #0]
/home/qemu-sgx/devel/optee/optee_os/lib/libutee/tee_api_arith_mpi.c:114
    2418:	687b      	ldr	r3, [r7, #4]
    241a:	6898      	ldr	r0, [r3, #8]
    241c:	697b      	ldr	r3, [r7, #20]
    241e:	ea4f 0383 	mov.w	r3, r3, lsl #2
    2422:	461a      	mov	r2, r3
    2424:	68f9      	ldr	r1, [r7, #12]
    2426:	f00f fcde 	bl	11de6 <memcpy>
/home/qemu-sgx/devel/optee/optee_os/lib/libutee/tee_api_arith_mpi.c:116
    242a:	bf00      	nop
    242c:	f107 0718 	add.w	r7, r7, #24
    2430:	46bd      	mov	sp, r7
    2432:	bd80      	pop	{r7, pc}
    2434:	000115da 	.word	0x000115da

00002438 <TEE_BigIntInit>:
TEE_BigIntInit():
/home/qemu-sgx/devel/optee/optee_os/lib/libutee/tee_api_arith_mpi.c:119
    2438:	e96d 7e02 	strd	r7, lr, [sp, #-8]!
    243c:	b084      	sub	sp, #16
    243e:	af00      	add	r7, sp, #0
    2440:	6078      	str	r0, [r7, #4]
    2442:	6039      	str	r1, [r7, #0]
/home/qemu-sgx/devel/optee/optee_os/lib/libutee/tee_api_arith_mpi.c:120
    2444:	687b      	ldr	r3, [r7, #4]
    2446:	60fb      	str	r3, [r7, #12]
/home/qemu-sgx/devel/optee/optee_os/lib/libutee/tee_api_arith_mpi.c:122
    2448:	683b      	ldr	r3, [r7, #0]
    244a:	ea4f 0383 	mov.w	r3, r3, lsl #2
    244e:	461a      	mov	r2, r3
    2450:	f04f 0100 	mov.w	r1, #0
    2454:	6878      	ldr	r0, [r7, #4]
    2456:	f00f fdde 	bl	12016 <memset>
/home/qemu-sgx/devel/optee/optee_os/lib/libutee/tee_api_arith_mpi.c:123
    245a:	68fb      	ldr	r3, [r7, #12]
    245c:	f04f 0201 	mov.w	r2, #1
    2460:	601a      	str	r2, [r3, #0]
/home/qemu-sgx/devel/optee/optee_os/lib/libutee/tee_api_arith_mpi.c:124
    2462:	683b      	ldr	r3, [r7, #0]
    2464:	f1a3 0302 	sub.w	r3, r3, #2
    2468:	f242 7210 	movw	r2, #10000	; 0x2710
    246c:	4293      	cmp	r3, r2
    246e:	d909      	bls.n	2484 <TEE_BigIntInit+0x4c>
/home/qemu-sgx/devel/optee/optee_os/lib/libutee/tee_api_arith_mpi.c:125
    2470:	4b0a      	ldr	r3, [pc, #40]	; (249c <TEE_BigIntInit+0x64>)
    2472:	447b      	add	r3, pc
    2474:	461a      	mov	r2, r3
    2476:	f04f 017d 	mov.w	r1, #125	; 0x7d
    247a:	4b09      	ldr	r3, [pc, #36]	; (24a0 <TEE_BigIntInit+0x68>)
    247c:	447b      	add	r3, pc
    247e:	4618      	mov	r0, r3
    2480:	f7ff fede 	bl	2240 <api_panic>
/home/qemu-sgx/devel/optee/optee_os/lib/libutee/tee_api_arith_mpi.c:126
    2484:	683b      	ldr	r3, [r7, #0]
    2486:	b29b      	uxth	r3, r3
    2488:	f1a3 0302 	sub.w	r3, r3, #2
    248c:	b29a      	uxth	r2, r3
    248e:	68fb      	ldr	r3, [r7, #12]
    2490:	809a      	strh	r2, [r3, #4]
/home/qemu-sgx/devel/optee/optee_os/lib/libutee/tee_api_arith_mpi.c:127
    2492:	bf00      	nop
    2494:	f107 0710 	add.w	r7, r7, #16
    2498:	46bd      	mov	sp, r7
    249a:	bd80      	pop	{r7, pc}
    249c:	00011502 	.word	0x00011502
    24a0:	0001156c 	.word	0x0001156c

000024a4 <TEE_BigIntConvertFromOctetString>:
TEE_BigIntConvertFromOctetString():
/home/qemu-sgx/devel/optee/optee_os/lib/libutee/tee_api_arith_mpi.c:132
    24a4:	e96d 7e02 	strd	r7, lr, [sp, #-8]!
    24a8:	b088      	sub	sp, #32
    24aa:	af00      	add	r7, sp, #0
    24ac:	60f8      	str	r0, [r7, #12]
    24ae:	60b9      	str	r1, [r7, #8]
    24b0:	607a      	str	r2, [r7, #4]
    24b2:	603b      	str	r3, [r7, #0]
/home/qemu-sgx/devel/optee/optee_os/lib/libutee/tee_api_arith_mpi.c:136
    24b4:	f107 0310 	add.w	r3, r7, #16
    24b8:	f04f 0100 	mov.w	r1, #0
    24bc:	4618      	mov	r0, r3
    24be:	f7ff ff6b 	bl	2398 <get_mpi>
/home/qemu-sgx/devel/optee/optee_os/lib/libutee/tee_api_arith_mpi.c:138
    24c2:	f107 0310 	add.w	r3, r7, #16
    24c6:	687a      	ldr	r2, [r7, #4]
    24c8:	68b9      	ldr	r1, [r7, #8]
    24ca:	4618      	mov	r0, r3
    24cc:	f003 fa05 	bl	58da <mbedtls_mpi_read_binary>
    24d0:	4603      	mov	r3, r0
    24d2:	2b00      	cmp	r3, #0
    24d4:	d005      	beq.n	24e2 <TEE_BigIntConvertFromOctetString+0x3e>
/home/qemu-sgx/devel/optee/optee_os/lib/libutee/tee_api_arith_mpi.c:139
    24d6:	f243 030f 	movw	r3, #12303	; 0x300f
    24da:	f6cf 73ff 	movt	r3, #65535	; 0xffff
    24de:	61fb      	str	r3, [r7, #28]
    24e0:	e002      	b.n	24e8 <TEE_BigIntConvertFromOctetString+0x44>
/home/qemu-sgx/devel/optee/optee_os/lib/libutee/tee_api_arith_mpi.c:141
    24e2:	f04f 0300 	mov.w	r3, #0
    24e6:	61fb      	str	r3, [r7, #28]
/home/qemu-sgx/devel/optee/optee_os/lib/libutee/tee_api_arith_mpi.c:143
    24e8:	683b      	ldr	r3, [r7, #0]
    24ea:	2b00      	cmp	r3, #0
    24ec:	da02      	bge.n	24f4 <TEE_BigIntConvertFromOctetString+0x50>
/home/qemu-sgx/devel/optee/optee_os/lib/libutee/tee_api_arith_mpi.c:144
    24ee:	f64f 73ff 	movw	r3, #65535	; 0xffff
    24f2:	823b      	strh	r3, [r7, #16]
/home/qemu-sgx/devel/optee/optee_os/lib/libutee/tee_api_arith_mpi.c:146
    24f4:	69fb      	ldr	r3, [r7, #28]
    24f6:	2b00      	cmp	r3, #0
    24f8:	d106      	bne.n	2508 <TEE_BigIntConvertFromOctetString+0x64>
/home/qemu-sgx/devel/optee/optee_os/lib/libutee/tee_api_arith_mpi.c:147
    24fa:	f107 0310 	add.w	r3, r7, #16
    24fe:	68f9      	ldr	r1, [r7, #12]
    2500:	4618      	mov	r0, r3
    2502:	f7ff ff01 	bl	2308 <copy_mpi_to_bigint>
    2506:	61f8      	str	r0, [r7, #28]
/home/qemu-sgx/devel/optee/optee_os/lib/libutee/tee_api_arith_mpi.c:149
    2508:	f107 0310 	add.w	r3, r7, #16
    250c:	4618      	mov	r0, r3
    250e:	f002 f947 	bl	47a0 <mbedtls_mpi_free>
/home/qemu-sgx/devel/optee/optee_os/lib/libutee/tee_api_arith_mpi.c:151
    2512:	69fb      	ldr	r3, [r7, #28]
/home/qemu-sgx/devel/optee/optee_os/lib/libutee/tee_api_arith_mpi.c:152
    2514:	4618      	mov	r0, r3
    2516:	f107 0720 	add.w	r7, r7, #32
    251a:	46bd      	mov	sp, r7
    251c:	bd80      	pop	{r7, pc}

0000251e <TEE_BigIntConvertToOctetString>:
TEE_BigIntConvertToOctetString():
/home/qemu-sgx/devel/optee/optee_os/lib/libutee/tee_api_arith_mpi.c:156
    251e:	e96d 7e02 	strd	r7, lr, [sp, #-8]!
    2522:	b08a      	sub	sp, #40	; 0x28
    2524:	af00      	add	r7, sp, #0
    2526:	60f8      	str	r0, [r7, #12]
    2528:	60b9      	str	r1, [r7, #8]
    252a:	607a      	str	r2, [r7, #4]
/home/qemu-sgx/devel/optee/optee_os/lib/libutee/tee_api_arith_mpi.c:157
    252c:	f04f 0300 	mov.w	r3, #0
    2530:	627b      	str	r3, [r7, #36]	; 0x24
/home/qemu-sgx/devel/optee/optee_os/lib/libutee/tee_api_arith_mpi.c:161
    2532:	f107 0310 	add.w	r3, r7, #16
    2536:	6879      	ldr	r1, [r7, #4]
    2538:	4618      	mov	r0, r3
    253a:	f7ff ff2d 	bl	2398 <get_mpi>
/home/qemu-sgx/devel/optee/optee_os/lib/libutee/tee_api_arith_mpi.c:163
    253e:	f107 0310 	add.w	r3, r7, #16
    2542:	4618      	mov	r0, r3
    2544:	f002 fe4a 	bl	51dc <mbedtls_mpi_size>
    2548:	6238      	str	r0, [r7, #32]
/home/qemu-sgx/devel/optee/optee_os/lib/libutee/tee_api_arith_mpi.c:164
    254a:	68bb      	ldr	r3, [r7, #8]
    254c:	681b      	ldr	r3, [r3, #0]
    254e:	6a3a      	ldr	r2, [r7, #32]
    2550:	429a      	cmp	r2, r3
    2552:	d812      	bhi.n	257a <TEE_BigIntConvertToOctetString+0x5c>
/home/qemu-sgx/devel/optee/optee_os/lib/libutee/tee_api_arith_mpi.c:165
    2554:	f107 0310 	add.w	r3, r7, #16
    2558:	6a3a      	ldr	r2, [r7, #32]
    255a:	68f9      	ldr	r1, [r7, #12]
    255c:	4618      	mov	r0, r3
    255e:	f003 fa6b 	bl	5a38 <mbedtls_mpi_write_binary>
    2562:	61f8      	str	r0, [r7, #28]
    2564:	69fb      	ldr	r3, [r7, #28]
    2566:	2b00      	cmp	r3, #0
    2568:	d00c      	beq.n	2584 <TEE_BigIntConvertToOctetString+0x66>
/home/qemu-sgx/devel/optee/optee_os/lib/libutee/tee_api_arith_mpi.c:165 (discriminator 1)
    256a:	69fa      	ldr	r2, [r7, #28]
    256c:	f04f 01a5 	mov.w	r1, #165	; 0xa5
    2570:	4b0b      	ldr	r3, [pc, #44]	; (25a0 <TEE_BigIntConvertToOctetString+0x82>)
    2572:	447b      	add	r3, pc
    2574:	4618      	mov	r0, r3
    2576:	f7ff fe7b 	bl	2270 <mpi_panic>
/home/qemu-sgx/devel/optee/optee_os/lib/libutee/tee_api_arith_mpi.c:167
    257a:	f04f 0310 	mov.w	r3, #16
    257e:	f6cf 73ff 	movt	r3, #65535	; 0xffff
    2582:	627b      	str	r3, [r7, #36]	; 0x24
/home/qemu-sgx/devel/optee/optee_os/lib/libutee/tee_api_arith_mpi.c:169
    2584:	68bb      	ldr	r3, [r7, #8]
    2586:	6a3a      	ldr	r2, [r7, #32]
    2588:	601a      	str	r2, [r3, #0]
/home/qemu-sgx/devel/optee/optee_os/lib/libutee/tee_api_arith_mpi.c:171
    258a:	f107 0310 	add.w	r3, r7, #16
    258e:	4618      	mov	r0, r3
    2590:	f002 f906 	bl	47a0 <mbedtls_mpi_free>
/home/qemu-sgx/devel/optee/optee_os/lib/libutee/tee_api_arith_mpi.c:173
    2594:	6a7b      	ldr	r3, [r7, #36]	; 0x24
/home/qemu-sgx/devel/optee/optee_os/lib/libutee/tee_api_arith_mpi.c:174
    2596:	4618      	mov	r0, r3
    2598:	f107 0728 	add.w	r7, r7, #40	; 0x28
    259c:	46bd      	mov	sp, r7
    259e:	bd80      	pop	{r7, pc}
    25a0:	00011486 	.word	0x00011486

000025a4 <TEE_BigIntConvertFromS32>:
TEE_BigIntConvertFromS32():
/home/qemu-sgx/devel/optee/optee_os/lib/libutee/tee_api_arith_mpi.c:177
    25a4:	e96d 7e02 	strd	r7, lr, [sp, #-8]!
    25a8:	b088      	sub	sp, #32
    25aa:	af00      	add	r7, sp, #0
    25ac:	6078      	str	r0, [r7, #4]
    25ae:	6039      	str	r1, [r7, #0]
/home/qemu-sgx/devel/optee/optee_os/lib/libutee/tee_api_arith_mpi.c:180
    25b0:	f107 030c 	add.w	r3, r7, #12
    25b4:	6879      	ldr	r1, [r7, #4]
    25b6:	4618      	mov	r0, r3
    25b8:	f7ff feee 	bl	2398 <get_mpi>
/home/qemu-sgx/devel/optee/optee_os/lib/libutee/tee_api_arith_mpi.c:182
    25bc:	f107 030c 	add.w	r3, r7, #12
    25c0:	6839      	ldr	r1, [r7, #0]
    25c2:	4618      	mov	r0, r3
    25c4:	f002 fca5 	bl	4f12 <mbedtls_mpi_lset>
    25c8:	61f8      	str	r0, [r7, #28]
    25ca:	69fb      	ldr	r3, [r7, #28]
    25cc:	2b00      	cmp	r3, #0
    25ce:	d007      	beq.n	25e0 <TEE_BigIntConvertFromS32+0x3c>
/home/qemu-sgx/devel/optee/optee_os/lib/libutee/tee_api_arith_mpi.c:182 (discriminator 1)
    25d0:	69fa      	ldr	r2, [r7, #28]
    25d2:	f04f 01b6 	mov.w	r1, #182	; 0xb6
    25d6:	4b11      	ldr	r3, [pc, #68]	; (261c <TEE_BigIntConvertFromS32+0x78>)
    25d8:	447b      	add	r3, pc
    25da:	4618      	mov	r0, r3
    25dc:	f7ff fe48 	bl	2270 <mpi_panic>
/home/qemu-sgx/devel/optee/optee_os/lib/libutee/tee_api_arith_mpi.c:184
    25e0:	f107 030c 	add.w	r3, r7, #12
    25e4:	6879      	ldr	r1, [r7, #4]
    25e6:	4618      	mov	r0, r3
    25e8:	f7ff fe8e 	bl	2308 <copy_mpi_to_bigint>
    25ec:	4603      	mov	r3, r0
    25ee:	61bb      	str	r3, [r7, #24]
    25f0:	69bb      	ldr	r3, [r7, #24]
    25f2:	2b00      	cmp	r3, #0
    25f4:	d007      	beq.n	2606 <TEE_BigIntConvertFromS32+0x62>
/home/qemu-sgx/devel/optee/optee_os/lib/libutee/tee_api_arith_mpi.c:184 (discriminator 1)
    25f6:	69ba      	ldr	r2, [r7, #24]
    25f8:	f04f 01b8 	mov.w	r1, #184	; 0xb8
    25fc:	4b08      	ldr	r3, [pc, #32]	; (2620 <TEE_BigIntConvertFromS32+0x7c>)
    25fe:	447b      	add	r3, pc
    2600:	4618      	mov	r0, r3
    2602:	f7ff fe35 	bl	2270 <mpi_panic>
/home/qemu-sgx/devel/optee/optee_os/lib/libutee/tee_api_arith_mpi.c:185
    2606:	f107 030c 	add.w	r3, r7, #12
    260a:	4618      	mov	r0, r3
    260c:	f002 f8c8 	bl	47a0 <mbedtls_mpi_free>
/home/qemu-sgx/devel/optee/optee_os/lib/libutee/tee_api_arith_mpi.c:186
    2610:	bf00      	nop
    2612:	f107 0720 	add.w	r7, r7, #32
    2616:	46bd      	mov	sp, r7
    2618:	bd80      	pop	{r7, pc}
    261a:	bf00      	nop
    261c:	00011440 	.word	0x00011440
    2620:	0001141a 	.word	0x0001141a

00002624 <TEE_BigIntConvertToS32>:
TEE_BigIntConvertToS32():
/home/qemu-sgx/devel/optee/optee_os/lib/libutee/tee_api_arith_mpi.c:189
    2624:	e96d 7e02 	strd	r7, lr, [sp, #-8]!
    2628:	b088      	sub	sp, #32
    262a:	af00      	add	r7, sp, #0
    262c:	6078      	str	r0, [r7, #4]
    262e:	6039      	str	r1, [r7, #0]
/home/qemu-sgx/devel/optee/optee_os/lib/libutee/tee_api_arith_mpi.c:190
    2630:	f04f 0300 	mov.w	r3, #0
    2634:	61fb      	str	r3, [r7, #28]
/home/qemu-sgx/devel/optee/optee_os/lib/libutee/tee_api_arith_mpi.c:194
    2636:	f107 0310 	add.w	r3, r7, #16
    263a:	6839      	ldr	r1, [r7, #0]
    263c:	4618      	mov	r0, r3
    263e:	f7ff feab 	bl	2398 <get_mpi>
/home/qemu-sgx/devel/optee/optee_os/lib/libutee/tee_api_arith_mpi.c:196
    2642:	f107 010c 	add.w	r1, r7, #12
    2646:	f107 0310 	add.w	r3, r7, #16
    264a:	f04f 0204 	mov.w	r2, #4
    264e:	4618      	mov	r0, r3
    2650:	f003 f9f2 	bl	5a38 <mbedtls_mpi_write_binary>
    2654:	4603      	mov	r3, r0
    2656:	2b00      	cmp	r3, #0
    2658:	d005      	beq.n	2666 <TEE_BigIntConvertToS32+0x42>
/home/qemu-sgx/devel/optee/optee_os/lib/libutee/tee_api_arith_mpi.c:197
    265a:	f243 030f 	movw	r3, #12303	; 0x300f
    265e:	f6cf 73ff 	movt	r3, #65535	; 0xffff
    2662:	61fb      	str	r3, [r7, #28]
/home/qemu-sgx/devel/optee/optee_os/lib/libutee/tee_api_arith_mpi.c:198
    2664:	e03d      	b.n	26e2 <TEE_BigIntConvertToS32+0xbe>
/home/qemu-sgx/devel/optee/optee_os/lib/libutee/tee_api_arith_mpi.c:201
    2666:	f9b7 3010 	ldrsh.w	r3, [r7, #16]
    266a:	2b00      	cmp	r3, #0
    266c:	dd1a      	ble.n	26a4 <TEE_BigIntConvertToS32+0x80>
/home/qemu-sgx/devel/optee/optee_os/lib/libutee/tee_api_arith_mpi.c:202
    266e:	68fb      	ldr	r3, [r7, #12]
    2670:	ba1a      	rev	r2, r3
    2672:	f04f 0100 	mov.w	r1, #0
    2676:	f102 0300 	add.w	r3, r2, #0
    267a:	2b00      	cmp	r3, #0
    267c:	db01      	blt.n	2682 <TEE_BigIntConvertToS32+0x5e>
    267e:	4293      	cmp	r3, r2
    2680:	d201      	bcs.n	2686 <TEE_BigIntConvertToS32+0x62>
    2682:	f04f 0101 	mov.w	r1, #1
    2686:	461a      	mov	r2, r3
    2688:	687b      	ldr	r3, [r7, #4]
    268a:	601a      	str	r2, [r3, #0]
    268c:	460b      	mov	r3, r1
    268e:	f003 0301 	and.w	r3, r3, #1
    2692:	b2db      	uxtb	r3, r3
    2694:	2b00      	cmp	r3, #0
    2696:	d024      	beq.n	26e2 <TEE_BigIntConvertToS32+0xbe>
/home/qemu-sgx/devel/optee/optee_os/lib/libutee/tee_api_arith_mpi.c:203
    2698:	f243 030f 	movw	r3, #12303	; 0x300f
    269c:	f6cf 73ff 	movt	r3, #65535	; 0xffff
    26a0:	61fb      	str	r3, [r7, #28]
    26a2:	e01e      	b.n	26e2 <TEE_BigIntConvertToS32+0xbe>
/home/qemu-sgx/devel/optee/optee_os/lib/libutee/tee_api_arith_mpi.c:205
    26a4:	68fb      	ldr	r3, [r7, #12]
    26a6:	ba1a      	rev	r2, r3
    26a8:	f04f 0100 	mov.w	r1, #0
    26ac:	f1c2 0300 	rsb	r3, r2, #0
    26b0:	2a00      	cmp	r2, #0
    26b2:	d002      	beq.n	26ba <TEE_BigIntConvertToS32+0x96>
    26b4:	2b00      	cmp	r3, #0
    26b6:	db04      	blt.n	26c2 <TEE_BigIntConvertToS32+0x9e>
    26b8:	e001      	b.n	26be <TEE_BigIntConvertToS32+0x9a>
    26ba:	2b00      	cmp	r3, #0
    26bc:	da01      	bge.n	26c2 <TEE_BigIntConvertToS32+0x9e>
    26be:	f04f 0101 	mov.w	r1, #1
    26c2:	461a      	mov	r2, r3
    26c4:	687b      	ldr	r3, [r7, #4]
    26c6:	601a      	str	r2, [r3, #0]
    26c8:	460b      	mov	r3, r1
    26ca:	f003 0301 	and.w	r3, r3, #1
    26ce:	b2db      	uxtb	r3, r3
    26d0:	2b00      	cmp	r3, #0
    26d2:	d005      	beq.n	26e0 <TEE_BigIntConvertToS32+0xbc>
/home/qemu-sgx/devel/optee/optee_os/lib/libutee/tee_api_arith_mpi.c:206
    26d4:	f243 030f 	movw	r3, #12303	; 0x300f
    26d8:	f6cf 73ff 	movt	r3, #65535	; 0xffff
    26dc:	61fb      	str	r3, [r7, #28]
    26de:	e000      	b.n	26e2 <TEE_BigIntConvertToS32+0xbe>
/home/qemu-sgx/devel/optee/optee_os/lib/libutee/tee_api_arith_mpi.c:209
    26e0:	bf00      	nop
/home/qemu-sgx/devel/optee/optee_os/lib/libutee/tee_api_arith_mpi.c:210
    26e2:	f107 0310 	add.w	r3, r7, #16
    26e6:	4618      	mov	r0, r3
    26e8:	f002 f85a 	bl	47a0 <mbedtls_mpi_free>
/home/qemu-sgx/devel/optee/optee_os/lib/libutee/tee_api_arith_mpi.c:212
    26ec:	69fb      	ldr	r3, [r7, #28]
/home/qemu-sgx/devel/optee/optee_os/lib/libutee/tee_api_arith_mpi.c:213
    26ee:	4618      	mov	r0, r3
    26f0:	f107 0720 	add.w	r7, r7, #32
    26f4:	46bd      	mov	sp, r7
    26f6:	bd80      	pop	{r7, pc}

000026f8 <TEE_BigIntCmp>:
TEE_BigIntCmp():
/home/qemu-sgx/devel/optee/optee_os/lib/libutee/tee_api_arith_mpi.c:216
    26f8:	e96d 7e02 	strd	r7, lr, [sp, #-8]!
    26fc:	b08a      	sub	sp, #40	; 0x28
    26fe:	af00      	add	r7, sp, #0
    2700:	6078      	str	r0, [r7, #4]
    2702:	6039      	str	r1, [r7, #0]
/home/qemu-sgx/devel/optee/optee_os/lib/libutee/tee_api_arith_mpi.c:221
    2704:	f107 0318 	add.w	r3, r7, #24
    2708:	6879      	ldr	r1, [r7, #4]
    270a:	4618      	mov	r0, r3
    270c:	f7ff fe44 	bl	2398 <get_mpi>
/home/qemu-sgx/devel/optee/optee_os/lib/libutee/tee_api_arith_mpi.c:222
    2710:	f107 030c 	add.w	r3, r7, #12
    2714:	6839      	ldr	r1, [r7, #0]
    2716:	4618      	mov	r0, r3
    2718:	f7ff fe3e 	bl	2398 <get_mpi>
/home/qemu-sgx/devel/optee/optee_os/lib/libutee/tee_api_arith_mpi.c:224
    271c:	f107 020c 	add.w	r2, r7, #12
    2720:	f107 0318 	add.w	r3, r7, #24
    2724:	4611      	mov	r1, r2
    2726:	4618      	mov	r0, r3
    2728:	f003 fc05 	bl	5f36 <mbedtls_mpi_cmp_mpi>
    272c:	6278      	str	r0, [r7, #36]	; 0x24
/home/qemu-sgx/devel/optee/optee_os/lib/libutee/tee_api_arith_mpi.c:226
    272e:	f107 0318 	add.w	r3, r7, #24
    2732:	4618      	mov	r0, r3
    2734:	f002 f834 	bl	47a0 <mbedtls_mpi_free>
/home/qemu-sgx/devel/optee/optee_os/lib/libutee/tee_api_arith_mpi.c:227
    2738:	f107 030c 	add.w	r3, r7, #12
    273c:	4618      	mov	r0, r3
    273e:	f002 f82f 	bl	47a0 <mbedtls_mpi_free>
/home/qemu-sgx/devel/optee/optee_os/lib/libutee/tee_api_arith_mpi.c:229
    2742:	6a7b      	ldr	r3, [r7, #36]	; 0x24
/home/qemu-sgx/devel/optee/optee_os/lib/libutee/tee_api_arith_mpi.c:230
    2744:	4618      	mov	r0, r3
    2746:	f107 0728 	add.w	r7, r7, #40	; 0x28
    274a:	46bd      	mov	sp, r7
    274c:	bd80      	pop	{r7, pc}

0000274e <TEE_BigIntCmpS32>:
TEE_BigIntCmpS32():
/home/qemu-sgx/devel/optee/optee_os/lib/libutee/tee_api_arith_mpi.c:233
    274e:	e96d 7e02 	strd	r7, lr, [sp, #-8]!
    2752:	b086      	sub	sp, #24
    2754:	af00      	add	r7, sp, #0
    2756:	6078      	str	r0, [r7, #4]
    2758:	6039      	str	r1, [r7, #0]
/home/qemu-sgx/devel/optee/optee_os/lib/libutee/tee_api_arith_mpi.c:237
    275a:	f107 0308 	add.w	r3, r7, #8
    275e:	6879      	ldr	r1, [r7, #4]
    2760:	4618      	mov	r0, r3
    2762:	f7ff fe19 	bl	2398 <get_mpi>
/home/qemu-sgx/devel/optee/optee_os/lib/libutee/tee_api_arith_mpi.c:239
    2766:	f107 0308 	add.w	r3, r7, #8
    276a:	6839      	ldr	r1, [r7, #0]
    276c:	4618      	mov	r0, r3
    276e:	f003 fd63 	bl	6238 <mbedtls_mpi_cmp_int>
    2772:	6178      	str	r0, [r7, #20]
/home/qemu-sgx/devel/optee/optee_os/lib/libutee/tee_api_arith_mpi.c:241
    2774:	f107 0308 	add.w	r3, r7, #8
    2778:	4618      	mov	r0, r3
    277a:	f002 f811 	bl	47a0 <mbedtls_mpi_free>
/home/qemu-sgx/devel/optee/optee_os/lib/libutee/tee_api_arith_mpi.c:243
    277e:	697b      	ldr	r3, [r7, #20]
/home/qemu-sgx/devel/optee/optee_os/lib/libutee/tee_api_arith_mpi.c:244
    2780:	4618      	mov	r0, r3
    2782:	f107 0718 	add.w	r7, r7, #24
    2786:	46bd      	mov	sp, r7
    2788:	bd80      	pop	{r7, pc}

0000278a <TEE_BigIntShiftRight>:
TEE_BigIntShiftRight():
/home/qemu-sgx/devel/optee/optee_os/lib/libutee/tee_api_arith_mpi.c:247
    278a:	f84d 4d0c 	str.w	r4, [sp, #-12]!
    278e:	e9cd 7e01 	strd	r7, lr, [sp, #4]
    2792:	b095      	sub	sp, #84	; 0x54
    2794:	af00      	add	r7, sp, #0
    2796:	60f8      	str	r0, [r7, #12]
    2798:	60b9      	str	r1, [r7, #8]
    279a:	607a      	str	r2, [r7, #4]
/home/qemu-sgx/devel/optee/optee_os/lib/libutee/tee_api_arith_mpi.c:251
    279c:	f107 0328 	add.w	r3, r7, #40	; 0x28
    27a0:	68f9      	ldr	r1, [r7, #12]
    27a2:	4618      	mov	r0, r3
    27a4:	f7ff fdf8 	bl	2398 <get_mpi>
/home/qemu-sgx/devel/optee/optee_os/lib/libutee/tee_api_arith_mpi.c:253
    27a8:	68fa      	ldr	r2, [r7, #12]
    27aa:	68bb      	ldr	r3, [r7, #8]
    27ac:	429a      	cmp	r2, r3
    27ae:	d112      	bne.n	27d6 <TEE_BigIntShiftRight+0x4c>
/home/qemu-sgx/devel/optee/optee_os/lib/libutee/tee_api_arith_mpi.c:254
    27b0:	f107 0328 	add.w	r3, r7, #40	; 0x28
    27b4:	6879      	ldr	r1, [r7, #4]
    27b6:	4618      	mov	r0, r3
    27b8:	f003 fa71 	bl	5c9e <mbedtls_mpi_shift_r>
    27bc:	63b8      	str	r0, [r7, #56]	; 0x38
    27be:	6bbb      	ldr	r3, [r7, #56]	; 0x38
    27c0:	2b00      	cmp	r3, #0
    27c2:	f000 808e 	beq.w	28e2 <TEE_BigIntShiftRight+0x158>
/home/qemu-sgx/devel/optee/optee_os/lib/libutee/tee_api_arith_mpi.c:254 (discriminator 1)
    27c6:	6bba      	ldr	r2, [r7, #56]	; 0x38
    27c8:	f04f 01fe 	mov.w	r1, #254	; 0xfe
    27cc:	4b56      	ldr	r3, [pc, #344]	; (2928 <TEE_BigIntShiftRight+0x19e>)
    27ce:	447b      	add	r3, pc
    27d0:	4618      	mov	r0, r3
    27d2:	f7ff fd4d 	bl	2270 <mpi_panic>
/home/qemu-sgx/devel/optee/optee_os/lib/libutee/tee_api_arith_mpi.c:258
    27d6:	f107 031c 	add.w	r3, r7, #28
    27da:	68b9      	ldr	r1, [r7, #8]
    27dc:	4618      	mov	r0, r3
    27de:	f7ff fddb 	bl	2398 <get_mpi>
/home/qemu-sgx/devel/optee/optee_os/lib/libutee/tee_api_arith_mpi.c:260
    27e2:	f107 0328 	add.w	r3, r7, #40	; 0x28
    27e6:	4618      	mov	r0, r3
    27e8:	f002 fcf8 	bl	51dc <mbedtls_mpi_size>
    27ec:	4604      	mov	r4, r0
    27ee:	f107 031c 	add.w	r3, r7, #28
    27f2:	4618      	mov	r0, r3
    27f4:	f002 fcf2 	bl	51dc <mbedtls_mpi_size>
    27f8:	4603      	mov	r3, r0
    27fa:	429c      	cmp	r4, r3
    27fc:	d325      	bcc.n	284a <TEE_BigIntShiftRight+0xc0>
/home/qemu-sgx/devel/optee/optee_os/lib/libutee/tee_api_arith_mpi.c:261
    27fe:	f107 021c 	add.w	r2, r7, #28
    2802:	f107 0328 	add.w	r3, r7, #40	; 0x28
    2806:	4611      	mov	r1, r2
    2808:	4618      	mov	r0, r3
    280a:	f002 f96f 	bl	4aec <mbedtls_mpi_copy>
    280e:	6438      	str	r0, [r7, #64]	; 0x40
    2810:	6c3b      	ldr	r3, [r7, #64]	; 0x40
    2812:	2b00      	cmp	r3, #0
