
out/5ce0c432-0ab0-40e5-a056-782ca0e6aba2.elf:     file format elf32-littlearm
out/5ce0c432-0ab0-40e5-a056-782ca0e6aba2.elf
architecture: armv7, flags 0x00000150:
HAS_SYMS, DYNAMIC, D_PAGED
start address 0x00000364

Program Header:
0x70000001 off    0x00016878 vaddr 0x00015878 paddr 0x00015878 align 2**2
         filesz 0x00000af0 memsz 0x00000af0 flags r--
    LOAD off    0x00001000 vaddr 0x00000000 paddr 0x00000000 align 2**12
         filesz 0x00016424 memsz 0x00016424 flags r-x
    LOAD off    0x00018000 vaddr 0x00017000 paddr 0x00017000 align 2**12
         filesz 0x000002d8 memsz 0x00203338 flags rw-
 DYNAMIC off    0x00018000 vaddr 0x00017000 paddr 0x00017000 align 2**2
         filesz 0x00000088 memsz 0x00000088 flags rw-
   STACK off    0x00000000 vaddr 0x00000000 paddr 0x00000000 align 2**4
         filesz 0x00000000 memsz 0x00000000 flags rwx

Dynamic Section:
  HASH                 0x000163f8
  GNU_HASH             0x0001493c
  STRTAB               0x000163c8
  SYMTAB               0x00016368
  STRSZ                0x0000002e
  SYMENT               0x00000010
  DEBUG                0x00000000
  REL                  0x000170d0
  RELSZ                0x00000120
  RELENT               0x00000008
  FLAGS_1              0x08000000
  RELCOUNT             0x00000015
private flags = 5000400: [Version5 EABI] [hard-float ABI]

Sections:
Idx Name          Size      VMA       LMA       File off  Algn
  0 .ta_head      00000020  00000000  00000000  00001000  2**3
                  CONTENTS, ALLOC, LOAD, READONLY, DATA
  1 .text         0001369c  00000020  00000020  00001020  2**2
                  CONTENTS, ALLOC, LOAD, READONLY, CODE
  2 .rodata       0000127e  000136bc  000136bc  000146bc  2**2
                  CONTENTS, ALLOC, LOAD, READONLY, DATA
  3 .gnu.hash     0000002c  0001493c  0001493c  0001593c  2**2
                  CONTENTS, ALLOC, LOAD, READONLY, DATA
  4 .ARM.extab    00000f10  00014968  00014968  00015968  2**2
                  CONTENTS, ALLOC, LOAD, READONLY, DATA
  5 .ARM.exidx    00000af0  00015878  00015878  00016878  2**2
                  CONTENTS, ALLOC, LOAD, READONLY, DATA
  6 .dynsym       00000060  00016368  00016368  00017368  2**2
                  CONTENTS, ALLOC, LOAD, READONLY, DATA
  7 .dynstr       0000002e  000163c8  000163c8  000173c8  2**0
                  CONTENTS, ALLOC, LOAD, READONLY, DATA
  8 .hash         0000002c  000163f8  000163f8  000173f8  2**2
                  CONTENTS, ALLOC, LOAD, READONLY, DATA
  9 .dynamic      00000088  00017000  00017000  00018000  2**2
                  CONTENTS, ALLOC, LOAD, DATA
 10 .got          00000048  00017088  00017088  00018088  2**2
                  CONTENTS, ALLOC, LOAD, DATA
 11 .rel.got      00000078  00017178  00017178  00018178  2**2
                  CONTENTS, ALLOC, LOAD, READONLY, DATA
 12 .data         000000e8  000171f0  000171f0  000181f0  2**2
                  CONTENTS, ALLOC, LOAD, DATA
 13 .bss          00203060  000172d8  000172d8  000182d8  2**2
                  ALLOC
 14 .debug_info   0000ca6e  00000000  00000000  000182d8  2**0
                  CONTENTS, READONLY, DEBUGGING, OCTETS
 15 .debug_abbrev 000028fd  00000000  00000000  00024d46  2**0
                  CONTENTS, READONLY, DEBUGGING, OCTETS
 16 .debug_aranges 000005d0  00000000  00000000  00027648  2**3
                  CONTENTS, READONLY, DEBUGGING, OCTETS
 17 .debug_macro  0001828c  00000000  00000000  00027c18  2**0
                  CONTENTS, READONLY, DEBUGGING, OCTETS
 18 .debug_line   0000a492  00000000  00000000  0003fea4  2**0
                  CONTENTS, READONLY, DEBUGGING, OCTETS
 19 .debug_str    00017e1c  00000000  00000000  0004a336  2**0
                  CONTENTS, READONLY, DEBUGGING, OCTETS
 20 .comment      0000005d  00000000  00000000  00062152  2**0
                  CONTENTS, READONLY
 21 .ARM.attributes 00000033  00000000  00000000  000621af  2**0
                  CONTENTS, READONLY
 22 .debug_frame  00003738  00000000  00000000  000621e4  2**2
                  CONTENTS, READONLY, DEBUGGING, OCTETS
 23 .rel.dyn      000000a8  000170d0  000170d0  000180d0  2**2
                  CONTENTS, ALLOC, LOAD, READONLY, DATA
 24 .debug_ranges 00000260  00000000  00000000  00065920  2**3
                  CONTENTS, READONLY, DEBUGGING, OCTETS
SYMBOL TABLE:
00000000 l    d  .ta_head	00000000 .ta_head
00000020 l    d  .text	00000000 .text
000136bc l    d  .rodata	00000000 .rodata
0001493c l    d  .gnu.hash	00000000 .gnu.hash
00014968 l    d  .ARM.extab	00000000 .ARM.extab
00015878 l    d  .ARM.exidx	00000000 .ARM.exidx
00016368 l    d  .dynsym	00000000 .dynsym
000163c8 l    d  .dynstr	00000000 .dynstr
000163f8 l    d  .hash	00000000 .hash
00017000 l    d  .dynamic	00000000 .dynamic
00017088 l    d  .got	00000000 .got
00017178 l    d  .rel.got	00000000 .rel.got
000171f0 l    d  .data	00000000 .data
000172d8 l    d  .bss	00000000 .bss
00000000 l    d  .debug_info	00000000 .debug_info
00000000 l    d  .debug_abbrev	00000000 .debug_abbrev
00000000 l    d  .debug_aranges	00000000 .debug_aranges
00000000 l    d  .debug_macro	00000000 .debug_macro
00000000 l    d  .debug_line	00000000 .debug_line
00000000 l    d  .debug_str	00000000 .debug_str
00000000 l    d  .comment	00000000 .comment
00000000 l    d  .ARM.attributes	00000000 .ARM.attributes
00000000 l    d  .debug_frame	00000000 .debug_frame
000170d0 l    d  .rel.dyn	00000000 .rel.dyn
00000000 l    d  .debug_ranges	00000000 .debug_ranges
00000000 l    df *ABS*	00000000 user_ta_header.c
0001370c l     O .rodata	00000001 __compound_literal.0
0001370d l     O .rodata	00000001 __compound_literal.1
0001370e l     O .rodata	00000001 __compound_literal.2
00013710 l     O .rodata	00000004 __compound_literal.3
00013714 l     O .rodata	00000004 __compound_literal.4
00000000 l    df *ABS*	00000000 ta_entry.c
0000007c l     F .text	0000001e inc_active_count
0000009a l     F .text	0000001e dec_active_count
000000b8 l     F .text	000000d0 ta_entry_busy_loop
000136e0 l     O .rodata	00000013 __func__.1
00000188 l     F .text	00000194 ta_entry_sha256
000136f4 l     O .rodata	00000010 __func__.0
00000000 l    df *ABS*	00000000 out/ta_entry_a32.o
00000000 l    df *ABS*	00000000 trace.c
000003d4 l     F .text	00000054 trace_level_to_string
000137fc l     O .rodata	00000005 lvl_strs.0
00000428 l     F .text	00000060 print_thread_id
00000488 l     F .text	0000001e print_core_id
00000000 l    df *ABS*	00000000 atomic_a32.o
00000000 l    df *ABS*	00000000 snprintk.c
00013804 l     O .rodata	00000011 hexdigits
00013818 l     O .rodata	00000011 HEXDIGITS
000009e8 l     F .text	00000fe0 kprintf
0000094a l     F .text	0000009e uuid2str
00000000 l    df *ABS*	00000000 arm32_aeabi_ldivmod_a32.o
00000000 l    df *ABS*	00000000 trace_ext.c
00000000 l    df *ABS*	00000000 tee_api.c
002172d8 l     O .bss	00000004 tee_api_instance_data
00001b14 l     F .text	000002fe copy_param
00001e12 l     F .text	00000110 update_out_param
0001389c l     O .rodata	0000000b __func__.0
00000000 l    df *ABS*	00000000 tee_api_operations.c
00002594 l     F .text	0000006e __tee_alg_get_class
00002602 l     F .text	00000046 __tee_alg_get_main_alg
00002648 l     F .text	00000036 __tee_alg_get_key_type
0000267e l     F .text	0000022e __tee_alg_get_digest_size
00003e6c l     F .text	00000048 init_hash_operation
00004066 l     F .text	00000330 tee_buffer_update
00000000 l    df *ABS*	00000000 tee_api_panic.c
00006092 l     F .text	00000024 check_res
000060b6 l     F .text	00000040 check_access
00000000 l    df *ABS*	00000000 tee_system_pta.c
00006294 l     F .text	00000064 reg_pair_to_64
000062f8 l     F .text	0000003a reg_pair_from_64
00006332 l     F .text	0000007e invoke_system_pta
002172dc l     O .bss	00000004 sess.3
00013968 l     O .rodata	00000010 uuid.2
00013978 l     O .rodata	0000000a __func__.1
00013984 l     O .rodata	00000017 __func__.0
00000000 l    df *ABS*	00000000 utee_syscalls_a32.o
00000000 l    df *ABS*	00000000 user_ta_entry.c
00006a74 l     F .text	00000010 __utee_gprof_init
00006a84 l     F .text	00000010 __utee_gprof_fini
00017248 l     O .data	00000008 ta_sessions
00217310 l     O .bss	00000001 init_done
00017250 l     O .data	00000008 __phdr_info_head
00217314 l     O .bss	00000004 _num_mod_init
00006a94 l     F .text	000000cc _init_iterate_phdr_cb
000139b8 l     O .rodata	00000016 __func__.0
00006b60 l     F .text	000000fc _get_fn_array
00006da8 l     F .text	00000074 _fini_iterate_phdr_cb
00006e3c l     F .text	0000005c init_instance
00006e98 l     F .text	00000018 uninit_instance
00006eb0 l     F .text	00000058 ta_header_save_params
00006f08 l     F .text	00000044 ta_header_get_session
00006f4c l     F .text	000000c0 ta_header_add_session
0000700c l     F .text	000000d4 ta_header_remove_session
000070e0 l     F .text	00000182 to_utee_params
00007262 l     F .text	000000e2 from_utee_params
00007344 l     F .text	0000008e entry_open_session
000073d2 l     F .text	00000040 entry_close_session
00007412 l     F .text	00000070 entry_invoke_command
00000000 l    df *ABS*	00000000 abort.c
00000000 l    df *ABS*	00000000 tee_api_arith_mpi.c
00007518 l     F .text	00000030 api_panic
00007548 l     F .text	00000030 mpi_panic
00217318 l     O .bss	00003000 data.17
00013a9c l     O .rodata	00000012 __func__.16
000075e0 l     F .text	00000090 copy_mpi_to_bigint
00007670 l     F .text	000000a0 get_mpi
00013ab0 l     O .rodata	00000008 __func__.15
00013ab8 l     O .rodata	0000000f __func__.14
00013ac8 l     O .rodata	0000001f __func__.13
00013ae8 l     O .rodata	00000019 __func__.12
00013b04 l     O .rodata	00000015 __func__.11
00007c9a l     F .text	000000fe bigint_binary
00013b1c l     O .rodata	0000000e __func__.10
00007d98 l     F .text	00000184 bigint_binary_mod
00013b2c l     O .rodata	00000012 __func__.9
00013b40 l     O .rodata	0000000e __func__.8
00013b50 l     O .rodata	0000000e __func__.7
00013b60 l     O .rodata	0000000e __func__.6
00013b70 l     O .rodata	00000011 __func__.5
00013b84 l     O .rodata	00000018 __func__.4
000085ac l     F .text	0000002a mpi_is_odd
000085d6 l     F .text	00000032 mpi_is_even
00008608 l     F .text	00000794 mpi_egcd
00013b9c l     O .rodata	00000009 __func__.3
00013ba8 l     O .rodata	0000001d __func__.2
0000902c l     F .text	00000030 rng_read
00013bc8 l     O .rodata	00000019 __func__.1
00013be4 l     O .rodata	00000015 __func__.0
00000000 l    df *ABS*	00000000 tcb.c
0021a318 l     O .bss	00000004 _tcb
0021a31c l     O .bss	00000004 _tls_size
00013c98 l     O .rodata	00000010 __func__.1
00013ca8 l     O .rodata	00000010 __func__.0
00000000 l    df *ABS*	00000000 assert.c
00000000 l    df *ABS*	00000000 bignum.c
000097a4 l     F .text	00000024 mbedtls_mpi_zeroize
000097c8 l     F .text	0000003a mpi_init
00009b44 l     F .text	00000064 mbedtls_mpi_resize_clear
00009ce2 l     F .text	00000056 mpi_safe_cond_select_sign
00009d38 l     F .text	00000078 mpi_safe_cond_assign
0000a1d2 l     F .text	0000004e mbedtls_clz
0000a2bc l     F .text	00000082 mpi_get_digit
0000a53c l     F .text	000000da mpi_write_hlp
0000a810 l     F .text	0000005a mpi_uint_bigendian_to_host_c
0000a86a l     F .text	0000001c mpi_uint_bigendian_to_host
0000a886 l     F .text	00000072 mpi_bigendian_to_host
0000b164 l     F .text	00000052 ct_lt_mpi_uint
0000b4cc l     F .text	000000aa mpi_sub_hlp
0000b8de l     F .text	00001a20 mpi_mul_hlp
0000d56c l     F .text	000000d6 mbedtls_int_div_int
0000de98 l     F .text	0000006e mpi_montg_init
0000df24 l     F .text	0000013a mpi_montmul
0000e088 l     F .text	00000044 mpi_montred
0000e0f2 l     F .text	00000040 mbedtls_mpi_cf_bool_eq
0000e132 l     F .text	0000007e mpi_select
0000ead6 l     F .text	000000ba mpi_fill_random_internal
00013cf4 l     O .rodata	000002a0 small_prime
0000f22a l     F .text	000000a6 mpi_check_small_factors
0000f2d0 l     F .text	000002d2 mpi_miller_rabin
00013f94 l     O .rodata	00000024 gcd_pairs
00000000 l    df *ABS*	00000000 platform_util.c
00017258 l     O .data	00000004 memset_func
00000000 l    df *ABS*	00000000 bget_malloc.c
0000fed8 l     F .text	0000001a tag_asan_free
0000fef2 l     F .text	0000001a tag_asan_alloced
0000ff0c l     F .text	00000024 memset_unchecked
0000ff30 l     F .text	00000024 memcpy_unchecked
0000ff54 l     F .text	00000090 buf_get_pos
00014824 l     O .rodata	00000005 __func__.9
0001482c l     O .rodata	00000006 __func__.8
00014834 l     O .rodata	00000006 __func__.7
0001483c l     O .rodata	00000005 __func__.6
00014844 l     O .rodata	00000006 __func__.5
0001484c l     O .rodata	00000007 __func__.4
0021a324 l     O .bss	00000004 bchain
0021a328 l     O .bss	00000004 bp
0001725c l     O .data	00000004 next
0021a32c l     O .bss	00000004 mymalloc
0021a330 l     O .bss	00000004 myfree
00017260 l     O .data	0000001c mypoolset
000109bc l     F .text	0000004c myrand
00010a08 l     F .text	00000024 mysrand
00010a2c l     F .text	00000064 stats
00010a90 l     F .text	0000003e blimit
00014854 l     O .rodata	0000000f __func__.3
00010ee4 l     F .text	0000001c malloc_lock
00010f00 l     F .text	0000001a malloc_unlock
0001727c l     O .data	0000005c malloc_ctx
00010f1a l     F .text	0000001a print_oom
00010f34 l     F .text	00000064 raw_malloc_return_hook
00010f98 l     F .text	00000044 gen_malloc_reset_stats
00010ff8 l     F .text	00000042 gen_malloc_get_stats
00011060 l     F .text	00000018 raw_malloc_validate_pools
00011078 l     F .text	0000002c bpool_foreach_iterator_init
000110a4 l     F .text	000000d8 bpool_foreach_pool
00014864 l     O .rodata	00000013 __func__.2
0001117c l     F .text	00000076 bpool_foreach
000111f2 l     F .text	0000009c raw_memalign
0001128e l     F .text	0000002e raw_malloc
000112bc l     F .text	00000032 raw_free
000112ee l     F .text	000000ca raw_calloc
000113b8 l     F .text	000000ac raw_realloc
00011464 l     F .text	0000005c bget_buf_size
00014878 l     O .rodata	0000000e __func__.1
00011510 l     F .text	0000004c free_helper
000115b0 l     F .text	0000002e realloc_unlocked
00011680 l     F .text	00000026 get_payload_start_size
000116e2 l     F .text	0000013e gen_malloc_add_pool
00014888 l     O .rodata	00000014 __func__.0
00011820 l     F .text	000000a8 gen_malloc_buffer_is_within_alloced
000118c8 l     F .text	000000ba gen_malloc_buffer_overlaps_heap
00000000 l    df *ABS*	00000000 mempool.c
00011a04 l     F .text	00000018 get_pool
00011a1c l     F .text	00000018 put_pool
00014918 l     O .rodata	00000013 __func__.1
0001492c l     O .rodata	0000000e __func__.0
00000000 l    df *ABS*	00000000 aeabi_unwind.c
00000000 l    df *ABS*	00000000 memchr.c
00000000 l    df *ABS*	00000000 strlen.c
00000000 l    df *ABS*	00000000 arm32_aeabi_ldivmod.c
00011e9a l     F .text	0000012a division_lqr
00011fc4 l     F .text	0000007c ul_div_qr
00000000 l    df *ABS*	00000000 tee_api_objects.c
00000000 l    df *ABS*	00000000 snprintf.c
00000000 l    df *ABS*	00000000 memcpy.c
00000000 l    df *ABS*	00000000 memmove.c
00000000 l    df *ABS*	00000000 memset.c
00000000 l    df *ABS*	00000000 consttime_memcmp.c
00000000 l    df *ABS*	00000000 
00017000 l     O *ABS*	00000000 _DYNAMIC
00017088 l     O *ABS*	00000000 _GLOBAL_OFFSET_TABLE_
00001adc g     F .text	00000038 putchar
0001276c g     F .text	00000164 TEE_PopulateTransientObject
0000912c g     F .text	00000024 TEE_BigIntConvertToFMM
000083b4 g     F .text	00000024 TEE_BigIntSquareMod
00007a62 g     F .text	000001ba TEE_BigIntShiftRight
000064f8 g     F .text	000000cc tee_invoke_supp_plugin
000098e8 g     F .text	00000108 mbedtls_mpi_grow
000120a2 g     F .text	000000e0 __l_divmod
00003eb4 g     F .text	0000005c TEE_DigestUpdate
000024c0 g     F .text	00000046 TEE_Realloc
00003af6 g     F .text	00000232 TEE_SetOperationKey2
00006260 g     F .text	00000034 __utee_check_inout_annotation
00001a30 g     F .text	00000074 printf
000128d0 g     F .text	00000048 TEE_InitRefAttribute
000065ec g     F .text	00000014 _utee_log
00002040 g     F .text	00000126 TEE_InvokeTACommand
000060f6 g     F .text	0000005a __utee_check_outbuf_annotation
00009820 g     F .text	0000003c mbedtls_mpi_init_mempool
00006888 g     F .text	00000014 _utee_cryp_random_number_generate
0000aaf4 g     F .text	000000e4 mbedtls_mpi_write_binary
00004dec g     F .text	00000224 TEE_AEEncryptFinal
00000876 g     F .text	0000002e vsnprintk
0000b88e g     F .text	00000050 mbedtls_mpi_sub_int
000133ae g     F .text	0000013e memmove
00013252 g     F .text	0000003c snprintf
00007a26 g     F .text	0000003c TEE_BigIntCmpS32
00012918 g     F .text	00000048 TEE_InitValueAttribute
000099f0 g     F .text	00000154 mbedtls_mpi_shrink
00011ccc g     F .text	00000010 __aeabi_unwind_cpp_pr0
00007f1c g     F .text	00000034 TEE_BigIntAdd
000067e8 g     F .text	00000014 _utee_cryp_obj_restrict_usage
00013708 g     O .rodata	00000004 ta_heap_size
0001270c g     F .text	00000060 TEE_ResetTransientObject
00006910 g     F .text	00000018 _utee_asymm_operate
0000a33e g     F .text	000001fe mbedtls_mpi_read_string
00003fce g     F .text	00000098 TEE_CipherInit
00007f84 g     F .text	000000b0 TEE_BigIntNeg
000069ac g     F .text	00000014 _utee_storage_free_enum
00000020 g       .text	00000000 __text_start
00012ec6 g     F .text	0000005a TEE_StartPersistentObjectEnumerator
0000ad5a g     F .text	0000016a mbedtls_mpi_shift_r
000119d8 g     F .text	0000002c malloc_buffer_overlaps_heap
00006750 g     F .text	00000014 _utee_hash_init
00008344 g     F .text	00000038 TEE_BigIntSubMod
0000f676 g     F .text	00000314 mbedtls_mpi_gen_prime
0000a03c g     F .text	0000004e mbedtls_mpi_get_bit
0000a996 g     F .text	00000088 mbedtls_mpi_read_binary
00004ade g     F .text	000000ee TEE_AEInit
000004a6 g     F .text	00000036 trace_printf
0000e05e g     F .text	0000002a mbedtls_mpi_montmul
00006a60 g     F .text	00000014 _utee_cache_operation
000132bc g     F .text	000000f2 memcpy
00009150 g     F .text	0000009c TEE_BigIntConvertFromFMM
00006078 g     F .text	0000001a TEE_Panic
000019e0 g     F .text	00000018 __aeabi_uldivmod
00003d28 g     F .text	00000144 TEE_CopyOperation
00001aa4 g     F .text	00000038 puts
000091ec g     F .text	00000110 TEE_BigIntComputeFMM
0001103a g     F .text	00000026 malloc_get_stats
00002420 g     F .text	0000002c TEE_GetREETime
00012e08 g     F .text	0000005a TEE_AllocatePersistentObjectEnumerator
000171f4 g     O .data	00000054 ta_props
000051f0 g     F .text	000001c2 TEE_AsymmetricEncrypt
00006150 g     F .text	00000040 __utee_check_instring_annotation
000114c0 g     F .text	00000050 malloc
00011c94 g     F .text	00000024 __ta_entry_c
00012a64 g     F .text	00000126 TEE_GenerateKey
0001328e g     F .text	0000002e vsnprintf
000171f0 g     O .data	00000004 trace_level
000079d0 g     F .text	00000056 TEE_BigIntCmp
000137d4 g     O .rodata	00000004 ta_num_props
00010418 g     F .text	000000c8 bgetr
00006940 g     F .text	00000018 _utee_storage_obj_open
00011c18 g     F .text	0000007c mempool_free
00004396 g     F .text	000001b6 TEE_CipherUpdate
00006764 g     F .text	00000014 _utee_hash_update
000077f6 g     F .text	00000086 TEE_BigIntConvertToOctetString
00003760 g     F .text	000001cc TEE_GetOperationInfoMultiple
0000a220 g     F .text	00000078 mbedtls_mpi_bitlen
00007c1c g     F .text	00000046 TEE_BigIntGetBit
00013704 g     O .rodata	00000003 trace_ext_prefix
000069e8 g     F .text	00000014 _utee_storage_next_enum
00000808 g     F .text	0000001c atomic_inc32
00010370 g     F .text	000000a8 bgetz
00002268 g     F .text	0000001c TEE_GetInstanceData
0000231e g     F .text	00000038 TEE_Wait
0000d2fe g     F .text	000001c2 mbedtls_mpi_mul_mpi
00011cec g     F .text	00000010 __aeabi_unwind_cpp_pr2
0000254a g     F .text	00000024 TEE_CacheFlush
000004dc g     F .text	0000030c trace_vprintf
00000034 g     F .text	00000010 TA_DestroyEntryPoint
00009802 g     F .text	0000001e mbedtls_mpi_init
00006970 g     F .text	00000014 _utee_storage_obj_del
0000a158 g     F .text	0000007a mbedtls_mpi_lsb
00009748 g     F .text	00000048 _assert_log
00006728 g     F .text	00000014 _utee_cryp_state_copy
00009110 g     F .text	0000001c TEE_BigIntFMMContextSizeInU32
00006448 g     F .text	000000b0 tee_unmap
000049ec g     F .text	000000f2 TEE_MACCompareFinal
00012d98 g     F .text	00000070 TEE_RenamePersistentObject
00003f10 g     F .text	000000be TEE_DigestDoFinal
00007578 g     F .text	00000068 _TEE_MathAPI_Init
000092fc g     F .text	0000030c __utee_tcb_init
0000b6e6 g     F .text	000000ac mbedtls_mpi_add_mpi
000074f8 g     F .text	00000020 abort
0000ebfa g     F .text	00000164 mbedtls_mpi_random
000061e8 g     F .text	00000034 __utee_check_out_annotation
000172d8 g     O .bss	00200000 ta_heap
000083d8 g     F .text	0000010c TEE_BigIntInvMod
00006c5c g     F .text	0000014c __utee_call_elf_init_fn
00000064 g     F .text	00000018 TA_CloseSessionEntryPoint
00006658 g     F .text	00000014 _utee_close_ta_session
000053b2 g     F .text	000001c2 TEE_AsymmetricDecrypt
00012b8a g     F .text	000000be TEE_OpenPersistentObject
0000b792 g     F .text	000000ac mbedtls_mpi_sub_mpi
00013608 g     F .text	000000b4 consttime_memcmp
000065d8 g     F .text	00000014 _utee_return
00006600 g     F .text	00000014 __utee_panic
00009608 g     F .text	00000038 __tls_get_addr
0000031c g     F .text	00000048 TA_InvokeCommandEntryPoint
00006e1c g     F .text	00000020 __utee_call_elf_fini_fn
000116c4 g     F .text	0000001e free_wipe
00011aa8 g     F .text	000000f4 mempool_alloc
000065c4 g     F .text	00000014 _utee_panic
00011b9c g     F .text	0000007c mempool_calloc
00006a4c g     F .text	00000014 _utee_cryp_obj_generate_key
00012960 g     F .text	0000004c TEE_CopyObjectAttributes
00006a24 g     F .text	00000014 _utee_storage_obj_trunc
000066ac g     F .text	00000014 _utee_unmask_cancellation
0001155c g     F .text	00000054 calloc
0000244c g     F .text	00000074 TEE_Malloc
00002202 g     F .text	00000042 TEE_CheckMemoryAccessRights
00012040 g     F .text	00000062 __ul_divmod
00006614 g     F .text	00000018 _utee_get_property
00009fce g     F .text	0000006e mbedtls_mpi_lset
00012fe2 g     F .text	00000092 TEE_ReadObjectData
00012452 g     F .text	000000cc TEE_GetObjectBufferAttribute
00000044 g     F .text	00000020 TA_OpenSessionEntryPoint
000036a8 g     F .text	0000004a TEE_FreeOperation
00009640 g     F .text	00000108 dl_iterate_phdr
0021a338 g       .bss	00000000 __ftrace_buf_end
002172e0 g     O .bss	00000004 ta_param_types
0000dc8e g     F .text	00000052 mbedtls_mpi_div_int
00012182 g     F .text	0000017e __utee_from_attr
0000f5a2 g     F .text	000000ac mbedtls_mpi_is_prime_ext
0000905c g     F .text	00000054 TEE_BigIntIsProbablePrime
0000d4c0 g     F .text	000000ac mbedtls_mpi_mul_int
00012d52 g     F .text	00000046 TEE_CloseAndDeletePersistentObject1
0000e1b0 g     F .text	00000748 mbedtls_mpi_exp_mod
00009db0 g     F .text	000000ca mbedtls_mpi_safe_cond_assign
0000b1b6 g     F .text	0000013e mbedtls_mpi_lt_mpi_ct
00005010 g     F .text	000001e0 TEE_AEDecryptFinal
00007710 g     F .text	0000006c TEE_BigIntInit
00006190 g     F .text	00000058 __utee_check_outstring_annotation
00002284 g     F .text	00000024 TEE_MemMove
0000fea8 g     F .text	00000030 mbedtls_platform_zeroize
0000777c g     F .text	0000007a TEE_BigIntConvertFromOctetString
000068f8 g     F .text	00000018 _utee_authenc_dec_final
0000aec4 g     F .text	0000012e mbedtls_mpi_cmp_abs
000069fc g     F .text	00000014 _utee_storage_obj_read
00004804 g     F .text	00000072 TEE_MACInit
00005574 g     F .text	000001b4 TEE_AsymmetricSignDigest
00011cfc g     F .text	00000114 memchr
0000219a g     F .text	00000034 TEE_UnmaskCancellation
00012300 g     F .text	0000006e TEE_GetObjectInfo
0000f98a g     F .text	0000051e mbedtls_mpi_self_test
00006a38 g     F .text	00000014 _utee_storage_obj_seek
00004c46 g     F .text	000001a6 TEE_AEUpdate
000126ac g     F .text	00000060 TEE_FreeTransientObject
00006698 g     F .text	00000014 _utee_check_access_rights
0000b2f4 g     F .text	0000004c mbedtls_mpi_cmp_int
000069c0 g     F .text	00000014 _utee_storage_reset_enum
00010ace g     F .text	00000416 bget_main_test
00005aa4 g     F .text	00000026 rand
0000621c g     F .text	00000044 __utee_check_attr_in_annotation
000068c8 g     F .text	00000018 _utee_authenc_update_payload
000036f2 g     F .text	0000006e TEE_GetOperationInfo
000082a0 g     F .text	0000006c TEE_BigIntMod
0000dd7e g     F .text	0000011a mbedtls_mpi_mod_int
0000a8f8 g     F .text	0000009e mbedtls_mpi_read_binary_le
00008134 g     F .text	0000016c TEE_BigIntDiv
00006810 g     F .text	00000014 _utee_cryp_obj_alloc
0021a338 g       .bss	00000000 __ftrace_buf_start
00009ba8 g     F .text	000000f8 mbedtls_mpi_copy
00005aca g     F .text	000005ae TEE_IsAlgorithmSupported
00010fdc g     F .text	0000001c malloc_reset_stats
00000916 g     F .text	00000034 __vsprintf
000066fc g     F .text	00000014 _utee_set_ta_time
0000666c g     F .text	00000018 _utee_invoke_ta_command
00012406 g     F .text	0000004c TEE_RestrictObjectUsage1
000115de g     F .text	0000004e realloc
00009ca0 g     F .text	00000042 mbedtls_mpi_swap
00011a34 g     F .text	00000074 mempool_alloc_pool
00008034 g     F .text	000000e0 TEE_BigIntMul
0000392c g     F .text	00000080 TEE_ResetOperation
0000abd8 g     F .text	00000182 mbedtls_mpi_shift_l
0000aff2 g     F .text	00000172 mbedtls_mpi_cmp_mpi
000022cc g     F .text	00000026 TEE_MemFill
00011982 g     F .text	0000002a malloc_add_pool
00004876 g     F .text	00000082 TEE_MACUpdate
000003b0 g     F .text	00000024 trace_get_level
0000b340 g     F .text	0000018c mbedtls_mpi_add_abs
000123ba g     F .text	0000004c TEE_RestrictObjectUsage
000090ea g     F .text	00000026 TEE_BigIntFMMSizeInU32
000090b0 g     F .text	0000001e TEE_BigIntInitFMM
00012610 g     F .text	00000032 TEE_CloseObject
00006790 g     F .text	00000014 _utee_cipher_init
00007482 g     F .text	00000076 __utee_entry
000136bc g       .text	00000000 __text_end
000084e4 g     F .text	000000c8 TEE_BigIntRelativePrime
0000dce0 g     F .text	0000009e mbedtls_mpi_mod_mpi
000067d4 g     F .text	00000014 _utee_cryp_obj_get_info
00000824 g     F .text	0000001c atomic_dec32
00010818 g     F .text	000000fc bpool
00006710 g     F .text	00000018 _utee_cryp_state_alloc
00002166 g     F .text	00000034 TEE_GetCancellationFlag
0000e8f8 g     F .text	000001de mbedtls_mpi_gcd
000023da g     F .text	00000046 TEE_SetTAPersistentTime
0000aa1e g     F .text	000000d6 mbedtls_mpi_write_binary_le
000134ec g     F .text	0000011c memset
00002356 g     F .text	00000084 TEE_GetTAPersistentTime
000007e8 g     F .text	0000001e dhex_dump
00012c48 g     F .text	000000d8 TEE_CreatePersistentObject
000021ce g     F .text	00000034 TEE_MaskCancellation
00004bcc g     F .text	0000007a TEE_AEUpdateAAD
000130f2 g     F .text	0000006c TEE_TruncateObjectData
000067fc g     F .text	00000014 _utee_cryp_obj_get_attr
0001236e g     F .text	0000004c TEE_GetObjectInfo1
000067bc g     F .text	00000018 _utee_cipher_final
00000368 g     F .text	00000048 trace_set_level
0001251e g     F .text	000000f2 TEE_GetObjectValueAttribute
000039ac g     F .text	0000014a TEE_SetOperationKey
0000673c g     F .text	00000014 _utee_cryp_state_free
00006640 g     F .text	00000018 _utee_open_ta_session
000078fc g     F .text	000000d4 TEE_BigIntConvertToS32
00007f50 g     F .text	00000034 TEE_BigIntSub
00011cb8 g     F .text	00000014 tahead_get_trace_level
000069d4 g     F .text	00000014 _utee_storage_start_enum
0001315e g     F .text	000000f4 TEE_SeekObjectData
000063b0 g     F .text	00000098 tee_map_zi
0000e0cc g     F .text	00000026 mbedtls_mpi_montred
0001162c g     F .text	00000054 memalign
0000454c g     F .text	000002b8 TEE_CipherDoFinal
0000787c g     F .text	00000080 TEE_BigIntConvertFromS32
0000b83e g     F .text	00000050 mbedtls_mpi_add_int
000068e0 g     F .text	00000018 _utee_authenc_enc_final
000119ac g     F .text	0000002c malloc_buffer_is_within_alloced
00006824 g     F .text	00000014 _utee_cryp_obj_close
000090ce g     F .text	0000001c TEE_BigIntInitFMMContext
000066c0 g     F .text	00000014 _utee_mask_cancellation
00006984 g     F .text	00000014 _utee_storage_obj_rename
00013074 g     F .text	0000007e TEE_WriteObjectData
00012e94 g     F .text	00000032 TEE_ResetPersistentObjectEnumerator
00008114 g     F .text	00000020 TEE_BigIntSquare
00006a10 g     F .text	00000014 _utee_storage_obj_write
00000020 g     F .text	00000014 TA_CreateEntryPoint
00000364 g     F .text	00000004 __ta_entry
000068b4 g     F .text	00000014 _utee_authenc_update_aad
0000df06 g     F .text	0000001e mbedtls_mpi_montg_init
00000840 g     F .text	00000036 snprintk
00007c62 g     F .text	00000038 TEE_BigIntGetBitCount
00006860 g     F .text	00000014 _utee_cryp_obj_copy
0000837c g     F .text	00000038 TEE_BigIntMulMod
0000ed5e g     F .text	000004cc mbedtls_mpi_inv_mod
000058b2 g     F .text	000001c6 TEE_DeriveKey
002172e4 g     O .bss	00000020 ta_params
0000d642 g     F .text	0000064c mbedtls_mpi_div_mpi
0000a298 g     F .text	00000024 mbedtls_mpi_size
0000ffe4 g     F .text	0000038c bget
00012642 g     F .text	0000006a TEE_AllocateTransientObject
000066d4 g     F .text	00000014 _utee_wait
0000a08a g     F .text	000000ce mbedtls_mpi_set_bit
00002506 g     F .text	00000020 TEE_Free
0000f64e g     F .text	00000028 mbedtls_mpi_is_prime
0000256e g     F .text	00000024 TEE_CacheInvalidate
00009790 g     F .text	00000014 _assert_break
0000830c g     F .text	00000038 TEE_BigIntAddMod
000066e8 g     F .text	00000014 _utee_get_time
000028ac g     F .text	00000dfc TEE_AllocateOperation
0000684c g     F .text	00000014 _utee_cryp_obj_populate
00005a78 g     F .text	0000002c TEE_GenerateRandom
000022a8 g     F .text	00000024 TEE_MemCompare
000067a4 g     F .text	00000018 _utee_cipher_update
000008a4 g     F .text	00000072 __vsnprintf
00217304 g     O .bss	0000000c __elf_phdr_info
00012e62 g     F .text	00000032 TEE_FreePersistentObjectEnumerator
00001f22 g     F .text	000000ee TEE_OpenTASession
000019f8 g     F .text	00000024 trace_ext_puts
00001a1c g     F .text	00000014 trace_ext_get_thread_id
00012d20 g     F .text	00000032 TEE_CloseAndDeletePersistentObject
00006874 g     F .text	00000014 _utee_cryp_derive_key
0000985c g     F .text	0000008c mbedtls_mpi_free
00006838 g     F .text	00000014 _utee_cryp_obj_reset
00002526 g     F .text	00000024 TEE_CacheClean
0000662c g     F .text	00000014 _utee_get_property_name_to_index
00009e7a g     F .text	00000154 mbedtls_mpi_safe_cond_swap
0000689c g     F .text	00000018 _utee_authenc_init
000129ac g     F .text	000000b8 TEE_CopyObjectAttributes1
00011e10 g     F .text	0000008a strlen
00008d9c g     F .text	00000290 TEE_BigIntComputeExtendedGcd
00011cdc g     F .text	00000010 __aeabi_unwind_cpp_pr1
00006998 g     F .text	00000014 _utee_storage_alloc_enum
000022f2 g     F .text	0000002c TEE_GetSystemTime
00006928 g     F .text	00000018 _utee_asymm_verify
00000000 g     O .ta_head	00000020 ta_head
000104e0 g     F .text	00000338 brel
0000b576 g     F .text	00000170 mbedtls_mpi_sub_abs
0000eb90 g     F .text	0000006a mbedtls_mpi_fill_random
00002244 g     F .text	00000024 TEE_SetInstanceData
00006684 g     F .text	00000014 _utee_get_cancellation_flag
000019c8 g     F .text	00000018 __aeabi_ldivmod
0000a616 g     F .text	000001fa mbedtls_mpi_write_string
00012f20 g     F .text	000000c2 TEE_GetNextPersistentObject
00002010 g     F .text	00000030 TEE_CloseTASession
00005728 g     F .text	0000018a TEE_AsymmetricVerifyDigest
00006958 g     F .text	00000018 _utee_storage_obj_create
000116a6 g     F .text	0000001e free
00010914 g     F .text	000000a8 bstats
000048f8 g     F .text	000000f4 TEE_MACComputeFinal
0021a320 g     O .bss	00000004 mbedtls_mpi_mempool
00006778 g     F .text	00000018 _utee_hash_final



Disassembly of section .text:

00000020 <TA_CreateEntryPoint>:
TA_CreateEntryPoint():
/home/qemu-sgx/devel/optee/out-br/build/optee_test_ext-1.0/ta/concurrent_large/ta_entry.c:15
      20:	f84d 7d04 	str.w	r7, [sp, #-4]!
      24:	af00      	add	r7, sp, #0
/home/qemu-sgx/devel/optee/out-br/build/optee_test_ext-1.0/ta/concurrent_large/ta_entry.c:16
      26:	f04f 0300 	mov.w	r3, #0
/home/qemu-sgx/devel/optee/out-br/build/optee_test_ext-1.0/ta/concurrent_large/ta_entry.c:17
      2a:	4618      	mov	r0, r3
      2c:	46bd      	mov	sp, r7
      2e:	f85d 7b04 	ldr.w	r7, [sp], #4
      32:	4770      	bx	lr

00000034 <TA_DestroyEntryPoint>:
TA_DestroyEntryPoint():
/home/qemu-sgx/devel/optee/out-br/build/optee_test_ext-1.0/ta/concurrent_large/ta_entry.c:20
      34:	f84d 7d04 	str.w	r7, [sp, #-4]!
      38:	af00      	add	r7, sp, #0
/home/qemu-sgx/devel/optee/out-br/build/optee_test_ext-1.0/ta/concurrent_large/ta_entry.c:21
      3a:	bf00      	nop
      3c:	46bd      	mov	sp, r7
      3e:	f85d 7b04 	ldr.w	r7, [sp], #4
      42:	4770      	bx	lr

00000044 <TA_OpenSessionEntryPoint>:
TA_OpenSessionEntryPoint():
/home/qemu-sgx/devel/optee/out-br/build/optee_test_ext-1.0/ta/concurrent_large/ta_entry.c:26
      44:	f84d 7d04 	str.w	r7, [sp, #-4]!
      48:	b085      	sub	sp, #20
      4a:	af00      	add	r7, sp, #0
      4c:	60f8      	str	r0, [r7, #12]
      4e:	60b9      	str	r1, [r7, #8]
      50:	607a      	str	r2, [r7, #4]
/home/qemu-sgx/devel/optee/out-br/build/optee_test_ext-1.0/ta/concurrent_large/ta_entry.c:30
      52:	f04f 0300 	mov.w	r3, #0
/home/qemu-sgx/devel/optee/out-br/build/optee_test_ext-1.0/ta/concurrent_large/ta_entry.c:31
      56:	4618      	mov	r0, r3
      58:	f107 0714 	add.w	r7, r7, #20
      5c:	46bd      	mov	sp, r7
      5e:	f85d 7b04 	ldr.w	r7, [sp], #4
      62:	4770      	bx	lr

00000064 <TA_CloseSessionEntryPoint>:
TA_CloseSessionEntryPoint():
/home/qemu-sgx/devel/optee/out-br/build/optee_test_ext-1.0/ta/concurrent_large/ta_entry.c:34
      64:	f84d 7d04 	str.w	r7, [sp, #-4]!
      68:	b083      	sub	sp, #12
      6a:	af00      	add	r7, sp, #0
      6c:	6078      	str	r0, [r7, #4]
/home/qemu-sgx/devel/optee/out-br/build/optee_test_ext-1.0/ta/concurrent_large/ta_entry.c:36
      6e:	bf00      	nop
      70:	f107 070c 	add.w	r7, r7, #12
      74:	46bd      	mov	sp, r7
      76:	f85d 7b04 	ldr.w	r7, [sp], #4
      7a:	4770      	bx	lr

0000007c <inc_active_count>:
inc_active_count():
/home/qemu-sgx/devel/optee/out-br/build/optee_test_ext-1.0/ta/concurrent_large/ta_entry.c:39
      7c:	e96d 7e02 	strd	r7, lr, [sp, #-8]!
      80:	b082      	sub	sp, #8
      82:	af00      	add	r7, sp, #0
      84:	6078      	str	r0, [r7, #4]
/home/qemu-sgx/devel/optee/out-br/build/optee_test_ext-1.0/ta/concurrent_large/ta_entry.c:40
      86:	687b      	ldr	r3, [r7, #4]
      88:	4618      	mov	r0, r3
      8a:	f000 ebbe 	blx	808 <atomic_inc32>
      8e:	4603      	mov	r3, r0
/home/qemu-sgx/devel/optee/out-br/build/optee_test_ext-1.0/ta/concurrent_large/ta_entry.c:41
      90:	4618      	mov	r0, r3
      92:	f107 0708 	add.w	r7, r7, #8
      96:	46bd      	mov	sp, r7
      98:	bd80      	pop	{r7, pc}

0000009a <dec_active_count>:
dec_active_count():
/home/qemu-sgx/devel/optee/out-br/build/optee_test_ext-1.0/ta/concurrent_large/ta_entry.c:44
      9a:	e96d 7e02 	strd	r7, lr, [sp, #-8]!
      9e:	b082      	sub	sp, #8
      a0:	af00      	add	r7, sp, #0
      a2:	6078      	str	r0, [r7, #4]
/home/qemu-sgx/devel/optee/out-br/build/optee_test_ext-1.0/ta/concurrent_large/ta_entry.c:45
      a4:	687b      	ldr	r3, [r7, #4]
      a6:	4618      	mov	r0, r3
      a8:	f000 ebbc 	blx	824 <atomic_dec32>
      ac:	4603      	mov	r3, r0
/home/qemu-sgx/devel/optee/out-br/build/optee_test_ext-1.0/ta/concurrent_large/ta_entry.c:46
      ae:	4618      	mov	r0, r3
      b0:	f107 0708 	add.w	r7, r7, #8
      b4:	46bd      	mov	sp, r7
      b6:	bd80      	pop	{r7, pc}

000000b8 <ta_entry_busy_loop>:
ta_entry_busy_loop():
/home/qemu-sgx/devel/optee/out-br/build/optee_test_ext-1.0/ta/concurrent_large/ta_entry.c:49
      b8:	f84d 4d0c 	str.w	r4, [sp, #-12]!
      bc:	e9cd 7e01 	strd	r7, lr, [sp, #4]
      c0:	b08b      	sub	sp, #44	; 0x2c
      c2:	af04      	add	r7, sp, #16
      c4:	6078      	str	r0, [r7, #4]
      c6:	6039      	str	r1, [r7, #0]
/home/qemu-sgx/devel/optee/out-br/build/optee_test_ext-1.0/ta/concurrent_large/ta_entry.c:50
      c8:	f04f 0300 	mov.w	r3, #0
      cc:	617b      	str	r3, [r7, #20]
/home/qemu-sgx/devel/optee/out-br/build/optee_test_ext-1.0/ta/concurrent_large/ta_entry.c:51
      ce:	f04f 0337 	mov.w	r3, #55	; 0x37
      d2:	613b      	str	r3, [r7, #16]
/home/qemu-sgx/devel/optee/out-br/build/optee_test_ext-1.0/ta/concurrent_large/ta_entry.c:56
      d4:	687a      	ldr	r2, [r7, #4]
      d6:	693b      	ldr	r3, [r7, #16]
      d8:	429a      	cmp	r2, r3
      da:	d015      	beq.n	108 <ta_entry_busy_loop+0x50>
/home/qemu-sgx/devel/optee/out-br/build/optee_test_ext-1.0/ta/concurrent_large/ta_entry.c:57
      dc:	693b      	ldr	r3, [r7, #16]
      de:	9302      	str	r3, [sp, #8]
      e0:	687b      	ldr	r3, [r7, #4]
      e2:	9301      	str	r3, [sp, #4]
      e4:	4b26      	ldr	r3, [pc, #152]	; (180 <ta_entry_busy_loop+0xc8>)
      e6:	447b      	add	r3, pc
      e8:	9300      	str	r3, [sp, #0]
      ea:	f04f 0301 	mov.w	r3, #1
      ee:	f04f 0201 	mov.w	r2, #1
      f2:	f04f 0139 	mov.w	r1, #57	; 0x39
      f6:	4823      	ldr	r0, [pc, #140]	; (184 <ta_entry_busy_loop+0xcc>)
      f8:	4478      	add	r0, pc
      fa:	f000 f9d4 	bl	4a6 <trace_printf>
/home/qemu-sgx/devel/optee/out-br/build/optee_test_ext-1.0/ta/concurrent_large/ta_entry.c:59
      fe:	f04f 0306 	mov.w	r3, #6
     102:	f6cf 73ff 	movt	r3, #65535	; 0xffff
     106:	e031      	b.n	16c <ta_entry_busy_loop+0xb4>
/home/qemu-sgx/devel/optee/out-br/build/optee_test_ext-1.0/ta/concurrent_large/ta_entry.c:62
     108:	683b      	ldr	r3, [r7, #0]
     10a:	685b      	ldr	r3, [r3, #4]
     10c:	2b03      	cmp	r3, #3
     10e:	d804      	bhi.n	11a <ta_entry_busy_loop+0x62>
/home/qemu-sgx/devel/optee/out-br/build/optee_test_ext-1.0/ta/concurrent_large/ta_entry.c:63
     110:	f04f 0306 	mov.w	r3, #6
     114:	f6cf 73ff 	movt	r3, #65535	; 0xffff
     118:	e028      	b.n	16c <ta_entry_busy_loop+0xb4>
/home/qemu-sgx/devel/optee/out-br/build/optee_test_ext-1.0/ta/concurrent_large/ta_entry.c:65
     11a:	683b      	ldr	r3, [r7, #0]
     11c:	681a      	ldr	r2, [r3, #0]
     11e:	683b      	ldr	r3, [r7, #0]
     120:	f103 0408 	add.w	r4, r3, #8
     124:	4610      	mov	r0, r2
     126:	f7ff ffa9 	bl	7c <inc_active_count>
     12a:	4603      	mov	r3, r0
     12c:	6063      	str	r3, [r4, #4]
/home/qemu-sgx/devel/optee/out-br/build/optee_test_ext-1.0/ta/concurrent_large/ta_entry.c:67
     12e:	683b      	ldr	r3, [r7, #0]
     130:	f103 0308 	add.w	r3, r3, #8
     134:	681b      	ldr	r3, [r3, #0]
     136:	617b      	str	r3, [r7, #20]
/home/qemu-sgx/devel/optee/out-br/build/optee_test_ext-1.0/ta/concurrent_large/ta_entry.c:68
     138:	e00e      	b.n	158 <ta_entry_busy_loop+0xa0>
/home/qemu-sgx/devel/optee/out-br/build/optee_test_ext-1.0/ta/concurrent_large/ta_entry.c:69
     13a:	f44f 737a 	mov.w	r3, #1000	; 0x3e8
     13e:	60fb      	str	r3, [r7, #12]
/home/qemu-sgx/devel/optee/out-br/build/optee_test_ext-1.0/ta/concurrent_large/ta_entry.c:71
     140:	e003      	b.n	14a <ta_entry_busy_loop+0x92>
/home/qemu-sgx/devel/optee/out-br/build/optee_test_ext-1.0/ta/concurrent_large/ta_entry.c:72
     142:	68fb      	ldr	r3, [r7, #12]
     144:	f103 33ff 	add.w	r3, r3, #4294967295	; 0xffffffff
     148:	60fb      	str	r3, [r7, #12]
/home/qemu-sgx/devel/optee/out-br/build/optee_test_ext-1.0/ta/concurrent_large/ta_entry.c:71
     14a:	68fb      	ldr	r3, [r7, #12]
     14c:	2b00      	cmp	r3, #0
     14e:	d1f8      	bne.n	142 <ta_entry_busy_loop+0x8a>
/home/qemu-sgx/devel/optee/out-br/build/optee_test_ext-1.0/ta/concurrent_large/ta_entry.c:74
     150:	697b      	ldr	r3, [r7, #20]
     152:	f103 33ff 	add.w	r3, r3, #4294967295	; 0xffffffff
     156:	617b      	str	r3, [r7, #20]
/home/qemu-sgx/devel/optee/out-br/build/optee_test_ext-1.0/ta/concurrent_large/ta_entry.c:68
     158:	697b      	ldr	r3, [r7, #20]
     15a:	2b00      	cmp	r3, #0
     15c:	d1ed      	bne.n	13a <ta_entry_busy_loop+0x82>
/home/qemu-sgx/devel/optee/out-br/build/optee_test_ext-1.0/ta/concurrent_large/ta_entry.c:77
     15e:	683b      	ldr	r3, [r7, #0]
     160:	681b      	ldr	r3, [r3, #0]
     162:	4618      	mov	r0, r3
     164:	f7ff ff99 	bl	9a <dec_active_count>
/home/qemu-sgx/devel/optee/out-br/build/optee_test_ext-1.0/ta/concurrent_large/ta_entry.c:78
     168:	f04f 0300 	mov.w	r3, #0
/home/qemu-sgx/devel/optee/out-br/build/optee_test_ext-1.0/ta/concurrent_large/ta_entry.c:79
     16c:	4618      	mov	r0, r3
     16e:	f107 071c 	add.w	r7, r7, #28
     172:	46bd      	mov	sp, r7
     174:	e9dd 4700 	ldrd	r4, r7, [sp]
     178:	b002      	add	sp, #8
     17a:	f85d fb04 	ldr.w	pc, [sp], #4
     17e:	bf00      	nop
     180:	000135d2 	.word	0x000135d2
     184:	000135e4 	.word	0x000135e4

00000188 <ta_entry_sha256>:
ta_entry_sha256():
/home/qemu-sgx/devel/optee/out-br/build/optee_test_ext-1.0/ta/concurrent_large/ta_entry.c:82
     188:	f84d 4d0c 	str.w	r4, [sp, #-12]!
     18c:	e9cd 7e01 	strd	r7, lr, [sp, #4]
     190:	b08d      	sub	sp, #52	; 0x34
     192:	af04      	add	r7, sp, #16
     194:	6078      	str	r0, [r7, #4]
     196:	6039      	str	r1, [r7, #0]
/home/qemu-sgx/devel/optee/out-br/build/optee_test_ext-1.0/ta/concurrent_large/ta_entry.c:83
     198:	f04f 0300 	mov.w	r3, #0
     19c:	f6cf 73ff 	movt	r3, #65535	; 0xffff
     1a0:	61fb      	str	r3, [r7, #28]
/home/qemu-sgx/devel/optee/out-br/build/optee_test_ext-1.0/ta/concurrent_large/ta_entry.c:84
     1a2:	f04f 0300 	mov.w	r3, #0
     1a6:	60fb      	str	r3, [r7, #12]
/home/qemu-sgx/devel/optee/out-br/build/optee_test_ext-1.0/ta/concurrent_large/ta_entry.c:85
     1a8:	f04f 0300 	mov.w	r3, #0
     1ac:	617b      	str	r3, [r7, #20]
/home/qemu-sgx/devel/optee/out-br/build/optee_test_ext-1.0/ta/concurrent_large/ta_entry.c:86
     1ae:	f04f 0300 	mov.w	r3, #0
     1b2:	60bb      	str	r3, [r7, #8]
/home/qemu-sgx/devel/optee/out-br/build/optee_test_ext-1.0/ta/concurrent_large/ta_entry.c:87
     1b4:	f04f 0300 	mov.w	r3, #0
     1b8:	61bb      	str	r3, [r7, #24]
/home/qemu-sgx/devel/optee/out-br/build/optee_test_ext-1.0/ta/concurrent_large/ta_entry.c:88
     1ba:	f246 5337 	movw	r3, #25911	; 0x6537
     1be:	613b      	str	r3, [r7, #16]
/home/qemu-sgx/devel/optee/out-br/build/optee_test_ext-1.0/ta/concurrent_large/ta_entry.c:94
     1c0:	687a      	ldr	r2, [r7, #4]
     1c2:	693b      	ldr	r3, [r7, #16]
     1c4:	429a      	cmp	r2, r3
     1c6:	d015      	beq.n	1f4 <ta_entry_sha256+0x6c>
/home/qemu-sgx/devel/optee/out-br/build/optee_test_ext-1.0/ta/concurrent_large/ta_entry.c:95
     1c8:	693b      	ldr	r3, [r7, #16]
     1ca:	9302      	str	r3, [sp, #8]
     1cc:	687b      	ldr	r3, [r7, #4]
     1ce:	9301      	str	r3, [sp, #4]
     1d0:	4b50      	ldr	r3, [pc, #320]	; (314 <ta_entry_sha256+0x18c>)
     1d2:	447b      	add	r3, pc
     1d4:	9300      	str	r3, [sp, #0]
     1d6:	f04f 0301 	mov.w	r3, #1
     1da:	f04f 0201 	mov.w	r2, #1
     1de:	f04f 015f 	mov.w	r1, #95	; 0x5f
     1e2:	484d      	ldr	r0, [pc, #308]	; (318 <ta_entry_sha256+0x190>)
     1e4:	4478      	add	r0, pc
     1e6:	f000 f95e 	bl	4a6 <trace_printf>
/home/qemu-sgx/devel/optee/out-br/build/optee_test_ext-1.0/ta/concurrent_large/ta_entry.c:97
     1ea:	f04f 0306 	mov.w	r3, #6
     1ee:	f6cf 73ff 	movt	r3, #65535	; 0xffff
     1f2:	e086      	b.n	302 <ta_entry_sha256+0x17a>
/home/qemu-sgx/devel/optee/out-br/build/optee_test_ext-1.0/ta/concurrent_large/ta_entry.c:100
     1f4:	683b      	ldr	r3, [r7, #0]
     1f6:	685b      	ldr	r3, [r3, #4]
     1f8:	2b03      	cmp	r3, #3
     1fa:	d804      	bhi.n	206 <ta_entry_sha256+0x7e>
/home/qemu-sgx/devel/optee/out-br/build/optee_test_ext-1.0/ta/concurrent_large/ta_entry.c:101
     1fc:	f04f 0306 	mov.w	r3, #6
     200:	f6cf 73ff 	movt	r3, #65535	; 0xffff
     204:	e07d      	b.n	302 <ta_entry_sha256+0x17a>
/home/qemu-sgx/devel/optee/out-br/build/optee_test_ext-1.0/ta/concurrent_large/ta_entry.c:102
     206:	683b      	ldr	r3, [r7, #0]
     208:	f103 0318 	add.w	r3, r3, #24
     20c:	685b      	ldr	r3, [r3, #4]
     20e:	2b1f      	cmp	r3, #31
     210:	d804      	bhi.n	21c <ta_entry_sha256+0x94>
/home/qemu-sgx/devel/optee/out-br/build/optee_test_ext-1.0/ta/concurrent_large/ta_entry.c:103
     212:	f04f 0306 	mov.w	r3, #6
     216:	f6cf 73ff 	movt	r3, #65535	; 0xffff
     21a:	e072      	b.n	302 <ta_entry_sha256+0x17a>
/home/qemu-sgx/devel/optee/out-br/build/optee_test_ext-1.0/ta/concurrent_large/ta_entry.c:105
     21c:	683b      	ldr	r3, [r7, #0]
     21e:	681a      	ldr	r2, [r3, #0]
     220:	683b      	ldr	r3, [r7, #0]
     222:	f103 0408 	add.w	r4, r3, #8
     226:	4610      	mov	r0, r2
     228:	f7ff ff28 	bl	7c <inc_active_count>
     22c:	4603      	mov	r3, r0
     22e:	6063      	str	r3, [r4, #4]
/home/qemu-sgx/devel/optee/out-br/build/optee_test_ext-1.0/ta/concurrent_large/ta_entry.c:107
     230:	683b      	ldr	r3, [r7, #0]
     232:	f103 0318 	add.w	r3, r3, #24
     236:	685b      	ldr	r3, [r3, #4]
     238:	60bb      	str	r3, [r7, #8]
/home/qemu-sgx/devel/optee/out-br/build/optee_test_ext-1.0/ta/concurrent_large/ta_entry.c:108
     23a:	68bb      	ldr	r3, [r7, #8]
     23c:	f04f 0100 	mov.w	r1, #0
     240:	4618      	mov	r0, r3
     242:	f002 f903 	bl	244c <TEE_Malloc>
     246:	6178      	str	r0, [r7, #20]
/home/qemu-sgx/devel/optee/out-br/build/optee_test_ext-1.0/ta/concurrent_large/ta_entry.c:109
     248:	697b      	ldr	r3, [r7, #20]
     24a:	2b00      	cmp	r3, #0
     24c:	d105      	bne.n	25a <ta_entry_sha256+0xd2>
/home/qemu-sgx/devel/optee/out-br/build/optee_test_ext-1.0/ta/concurrent_large/ta_entry.c:110
     24e:	f04f 030c 	mov.w	r3, #12
     252:	f6cf 73ff 	movt	r3, #65535	; 0xffff
     256:	61fb      	str	r3, [r7, #28]
/home/qemu-sgx/devel/optee/out-br/build/optee_test_ext-1.0/ta/concurrent_large/ta_entry.c:111
     258:	e040      	b.n	2dc <ta_entry_sha256+0x154>
/home/qemu-sgx/devel/optee/out-br/build/optee_test_ext-1.0/ta/concurrent_large/ta_entry.c:114
     25a:	f107 000c 	add.w	r0, r7, #12
     25e:	f04f 0300 	mov.w	r3, #0
     262:	f04f 0205 	mov.w	r2, #5
     266:	f04f 0104 	mov.w	r1, #4
     26a:	f2c5 0100 	movt	r1, #20480	; 0x5000
     26e:	f002 fb1d 	bl	28ac <TEE_AllocateOperation>
     272:	61f8      	str	r0, [r7, #28]
/home/qemu-sgx/devel/optee/out-br/build/optee_test_ext-1.0/ta/concurrent_large/ta_entry.c:115
     274:	69fb      	ldr	r3, [r7, #28]
     276:	2b00      	cmp	r3, #0
     278:	d12f      	bne.n	2da <ta_entry_sha256+0x152>
/home/qemu-sgx/devel/optee/out-br/build/optee_test_ext-1.0/ta/concurrent_large/ta_entry.c:119
     27a:	683b      	ldr	r3, [r7, #0]
     27c:	f103 0308 	add.w	r3, r3, #8
     280:	681b      	ldr	r3, [r3, #0]
     282:	61bb      	str	r3, [r7, #24]
/home/qemu-sgx/devel/optee/out-br/build/optee_test_ext-1.0/ta/concurrent_large/ta_entry.c:120
     284:	e017      	b.n	2b6 <ta_entry_sha256+0x12e>
/home/qemu-sgx/devel/optee/out-br/build/optee_test_ext-1.0/ta/concurrent_large/ta_entry.c:121
     286:	68fb      	ldr	r3, [r7, #12]
     288:	4618      	mov	r0, r3
     28a:	f003 fb4f 	bl	392c <TEE_ResetOperation>
/home/qemu-sgx/devel/optee/out-br/build/optee_test_ext-1.0/ta/concurrent_large/ta_entry.c:122
     28e:	68f8      	ldr	r0, [r7, #12]
     290:	683b      	ldr	r3, [r7, #0]
     292:	f103 0310 	add.w	r3, r3, #16
     296:	6819      	ldr	r1, [r3, #0]
/home/qemu-sgx/devel/optee/out-br/build/optee_test_ext-1.0/ta/concurrent_large/ta_entry.c:123
     298:	683b      	ldr	r3, [r7, #0]
     29a:	f103 0310 	add.w	r3, r3, #16
/home/qemu-sgx/devel/optee/out-br/build/optee_test_ext-1.0/ta/concurrent_large/ta_entry.c:122
     29e:	685a      	ldr	r2, [r3, #4]
     2a0:	f107 0308 	add.w	r3, r7, #8
     2a4:	9300      	str	r3, [sp, #0]
     2a6:	697b      	ldr	r3, [r7, #20]
     2a8:	f003 fe32 	bl	3f10 <TEE_DigestDoFinal>
     2ac:	61f8      	str	r0, [r7, #28]
/home/qemu-sgx/devel/optee/out-br/build/optee_test_ext-1.0/ta/concurrent_large/ta_entry.c:124
     2ae:	69bb      	ldr	r3, [r7, #24]
     2b0:	f103 33ff 	add.w	r3, r3, #4294967295	; 0xffffffff
     2b4:	61bb      	str	r3, [r7, #24]
/home/qemu-sgx/devel/optee/out-br/build/optee_test_ext-1.0/ta/concurrent_large/ta_entry.c:120
     2b6:	69bb      	ldr	r3, [r7, #24]
     2b8:	2b00      	cmp	r3, #0
     2ba:	d1e4      	bne.n	286 <ta_entry_sha256+0xfe>
/home/qemu-sgx/devel/optee/out-br/build/optee_test_ext-1.0/ta/concurrent_large/ta_entry.c:127
     2bc:	683b      	ldr	r3, [r7, #0]
     2be:	f103 0318 	add.w	r3, r3, #24
     2c2:	681b      	ldr	r3, [r3, #0]
     2c4:	68ba      	ldr	r2, [r7, #8]
     2c6:	6979      	ldr	r1, [r7, #20]
     2c8:	4618      	mov	r0, r3
     2ca:	f001 ffdb 	bl	2284 <TEE_MemMove>
/home/qemu-sgx/devel/optee/out-br/build/optee_test_ext-1.0/ta/concurrent_large/ta_entry.c:128
     2ce:	683b      	ldr	r3, [r7, #0]
     2d0:	f103 0318 	add.w	r3, r3, #24
     2d4:	68ba      	ldr	r2, [r7, #8]
     2d6:	605a      	str	r2, [r3, #4]
     2d8:	e000      	b.n	2dc <ta_entry_sha256+0x154>
/home/qemu-sgx/devel/optee/out-br/build/optee_test_ext-1.0/ta/concurrent_large/ta_entry.c:116
     2da:	bf00      	nop
/home/qemu-sgx/devel/optee/out-br/build/optee_test_ext-1.0/ta/concurrent_large/ta_entry.c:131
     2dc:	697b      	ldr	r3, [r7, #20]
     2de:	2b00      	cmp	r3, #0
     2e0:	d002      	beq.n	2e8 <ta_entry_sha256+0x160>
/home/qemu-sgx/devel/optee/out-br/build/optee_test_ext-1.0/ta/concurrent_large/ta_entry.c:132
     2e2:	6978      	ldr	r0, [r7, #20]
     2e4:	f002 f90f 	bl	2506 <TEE_Free>
/home/qemu-sgx/devel/optee/out-br/build/optee_test_ext-1.0/ta/concurrent_large/ta_entry.c:133
     2e8:	68fb      	ldr	r3, [r7, #12]
     2ea:	2b00      	cmp	r3, #0
     2ec:	d003      	beq.n	2f6 <ta_entry_sha256+0x16e>
/home/qemu-sgx/devel/optee/out-br/build/optee_test_ext-1.0/ta/concurrent_large/ta_entry.c:134
     2ee:	68fb      	ldr	r3, [r7, #12]
     2f0:	4618      	mov	r0, r3
     2f2:	f003 f9d9 	bl	36a8 <TEE_FreeOperation>
/home/qemu-sgx/devel/optee/out-br/build/optee_test_ext-1.0/ta/concurrent_large/ta_entry.c:135
     2f6:	683b      	ldr	r3, [r7, #0]
     2f8:	681b      	ldr	r3, [r3, #0]
     2fa:	4618      	mov	r0, r3
     2fc:	f7ff fecd 	bl	9a <dec_active_count>
/home/qemu-sgx/devel/optee/out-br/build/optee_test_ext-1.0/ta/concurrent_large/ta_entry.c:136
     300:	69fb      	ldr	r3, [r7, #28]
/home/qemu-sgx/devel/optee/out-br/build/optee_test_ext-1.0/ta/concurrent_large/ta_entry.c:137 (discriminator 1)
     302:	4618      	mov	r0, r3
     304:	f107 0724 	add.w	r7, r7, #36	; 0x24
     308:	46bd      	mov	sp, r7
     30a:	e9dd 4700 	ldrd	r4, r7, [sp]
     30e:	b002      	add	sp, #8
     310:	f85d fb04 	ldr.w	pc, [sp], #4
     314:	000134e6 	.word	0x000134e6
     318:	0001350c 	.word	0x0001350c

0000031c <TA_InvokeCommandEntryPoint>:
TA_InvokeCommandEntryPoint():
/home/qemu-sgx/devel/optee/out-br/build/optee_test_ext-1.0/ta/concurrent_large/ta_entry.c:142
     31c:	e96d 7e02 	strd	r7, lr, [sp, #-8]!
     320:	b084      	sub	sp, #16
     322:	af00      	add	r7, sp, #0
     324:	60f8      	str	r0, [r7, #12]
     326:	60b9      	str	r1, [r7, #8]
     328:	607a      	str	r2, [r7, #4]
     32a:	603b      	str	r3, [r7, #0]
/home/qemu-sgx/devel/optee/out-br/build/optee_test_ext-1.0/ta/concurrent_large/ta_entry.c:145
     32c:	68bb      	ldr	r3, [r7, #8]
     32e:	2b00      	cmp	r3, #0
     330:	d003      	beq.n	33a <TA_InvokeCommandEntryPoint+0x1e>
     332:	68bb      	ldr	r3, [r7, #8]
     334:	2b01      	cmp	r3, #1
     336:	d006      	beq.n	346 <TA_InvokeCommandEntryPoint+0x2a>
     338:	e00b      	b.n	352 <TA_InvokeCommandEntryPoint+0x36>
/home/qemu-sgx/devel/optee/out-br/build/optee_test_ext-1.0/ta/concurrent_large/ta_entry.c:147
     33a:	6839      	ldr	r1, [r7, #0]
     33c:	6878      	ldr	r0, [r7, #4]
     33e:	f7ff febb 	bl	b8 <ta_entry_busy_loop>
     342:	4603      	mov	r3, r0
     344:	e009      	b.n	35a <TA_InvokeCommandEntryPoint+0x3e>
/home/qemu-sgx/devel/optee/out-br/build/optee_test_ext-1.0/ta/concurrent_large/ta_entry.c:149
     346:	6839      	ldr	r1, [r7, #0]
     348:	6878      	ldr	r0, [r7, #4]
     34a:	f7ff ff1d 	bl	188 <ta_entry_sha256>
     34e:	4603      	mov	r3, r0
     350:	e003      	b.n	35a <TA_InvokeCommandEntryPoint+0x3e>
/home/qemu-sgx/devel/optee/out-br/build/optee_test_ext-1.0/ta/concurrent_large/ta_entry.c:151
     352:	f04f 0306 	mov.w	r3, #6
     356:	f6cf 73ff 	movt	r3, #65535	; 0xffff
/home/qemu-sgx/devel/optee/out-br/build/optee_test_ext-1.0/ta/concurrent_large/ta_entry.c:153
     35a:	4618      	mov	r0, r3
     35c:	f107 0710 	add.w	r7, r7, #16
     360:	46bd      	mov	sp, r7
     362:	bd80      	pop	{r7, pc}

00000364 <__ta_entry>:
__ta_entry():
/home/qemu-sgx/devel/optee/optee_os/out/arm/export-ta_arm32/src/ta_entry_a32.S:20
     364:	fa00464a 	blx	11c94 <__ta_entry_c>

00000368 <trace_set_level>:
trace_set_level():
/home/qemu-sgx/devel/optee/optee_os/lib/libutils/ext/trace.c:25
     368:	f84d 7d04 	str.w	r7, [sp, #-4]!
     36c:	b083      	sub	sp, #12
     36e:	af00      	add	r7, sp, #0
     370:	6078      	str	r0, [r7, #4]
     372:	4b0d      	ldr	r3, [pc, #52]	; (3a8 <trace_set_level+0x40>)
     374:	447b      	add	r3, pc
/home/qemu-sgx/devel/optee/optee_os/lib/libutils/ext/trace.c:26
     376:	687a      	ldr	r2, [r7, #4]
     378:	2a00      	cmp	r2, #0
     37a:	db07      	blt.n	38c <trace_set_level+0x24>
/home/qemu-sgx/devel/optee/optee_os/lib/libutils/ext/trace.c:26 (discriminator 1)
     37c:	687a      	ldr	r2, [r7, #4]
     37e:	2a04      	cmp	r2, #4
     380:	dc04      	bgt.n	38c <trace_set_level+0x24>
/home/qemu-sgx/devel/optee/optee_os/lib/libutils/ext/trace.c:27
     382:	4a0a      	ldr	r2, [pc, #40]	; (3ac <trace_set_level+0x44>)
     384:	589b      	ldr	r3, [r3, r2]
     386:	687a      	ldr	r2, [r7, #4]
     388:	601a      	str	r2, [r3, #0]
     38a:	e005      	b.n	398 <trace_set_level+0x30>
/home/qemu-sgx/devel/optee/optee_os/lib/libutils/ext/trace.c:29
     38c:	4a07      	ldr	r2, [pc, #28]	; (3ac <trace_set_level+0x44>)
     38e:	589b      	ldr	r3, [r3, r2]
     390:	f04f 0204 	mov.w	r2, #4
     394:	601a      	str	r2, [r3, #0]
/home/qemu-sgx/devel/optee/optee_os/lib/libutils/ext/trace.c:30
     396:	bf00      	nop
     398:	bf00      	nop
     39a:	f107 070c 	add.w	r7, r7, #12
     39e:	46bd      	mov	sp, r7
     3a0:	f85d 7b04 	ldr.w	r7, [sp], #4
     3a4:	4770      	bx	lr
     3a6:	bf00      	nop
     3a8:	00016d10 	.word	0x00016d10
     3ac:	00000010 	.word	0x00000010

000003b0 <trace_get_level>:
trace_get_level():
/home/qemu-sgx/devel/optee/optee_os/lib/libutils/ext/trace.c:33
     3b0:	f84d 7d04 	str.w	r7, [sp, #-4]!
     3b4:	af00      	add	r7, sp, #0
     3b6:	4a05      	ldr	r2, [pc, #20]	; (3cc <trace_get_level+0x1c>)
     3b8:	447a      	add	r2, pc
/home/qemu-sgx/devel/optee/optee_os/lib/libutils/ext/trace.c:34
     3ba:	4b05      	ldr	r3, [pc, #20]	; (3d0 <trace_get_level+0x20>)
     3bc:	58d3      	ldr	r3, [r2, r3]
     3be:	681b      	ldr	r3, [r3, #0]
/home/qemu-sgx/devel/optee/optee_os/lib/libutils/ext/trace.c:35
     3c0:	4618      	mov	r0, r3
     3c2:	46bd      	mov	sp, r7
     3c4:	f85d 7b04 	ldr.w	r7, [sp], #4
     3c8:	4770      	bx	lr
     3ca:	bf00      	nop
     3cc:	00016ccc 	.word	0x00016ccc
     3d0:	00000010 	.word	0x00000010

000003d4 <trace_level_to_string>:
trace_level_to_string():
/home/qemu-sgx/devel/optee/optee_os/lib/libutils/ext/trace.c:38
     3d4:	f84d 7d04 	str.w	r7, [sp, #-4]!
     3d8:	b085      	sub	sp, #20
     3da:	af00      	add	r7, sp, #0
     3dc:	6078      	str	r0, [r7, #4]
     3de:	460b      	mov	r3, r1
     3e0:	70fb      	strb	r3, [r7, #3]
/home/qemu-sgx/devel/optee/optee_os/lib/libutils/ext/trace.c:47
     3e2:	f04f 0300 	mov.w	r3, #0
     3e6:	60fb      	str	r3, [r7, #12]
/home/qemu-sgx/devel/optee/optee_os/lib/libutils/ext/trace.c:49
     3e8:	78fb      	ldrb	r3, [r7, #3]
     3ea:	f083 0301 	eor.w	r3, r3, #1
     3ee:	b2db      	uxtb	r3, r3
     3f0:	2b00      	cmp	r3, #0
     3f2:	d002      	beq.n	3fa <trace_level_to_string+0x26>
/home/qemu-sgx/devel/optee/optee_os/lib/libutils/ext/trace.c:50
     3f4:	f04f 034d 	mov.w	r3, #77	; 0x4d
     3f8:	e00c      	b.n	414 <trace_level_to_string+0x40>
/home/qemu-sgx/devel/optee/optee_os/lib/libutils/ext/trace.c:52
     3fa:	687b      	ldr	r3, [r7, #4]
     3fc:	2b00      	cmp	r3, #0
     3fe:	db04      	blt.n	40a <trace_level_to_string+0x36>
/home/qemu-sgx/devel/optee/optee_os/lib/libutils/ext/trace.c:52 (discriminator 1)
     400:	687b      	ldr	r3, [r7, #4]
     402:	2b04      	cmp	r3, #4
     404:	dc01      	bgt.n	40a <trace_level_to_string+0x36>
/home/qemu-sgx/devel/optee/optee_os/lib/libutils/ext/trace.c:53
     406:	687b      	ldr	r3, [r7, #4]
     408:	60fb      	str	r3, [r7, #12]
/home/qemu-sgx/devel/optee/optee_os/lib/libutils/ext/trace.c:55
     40a:	4a06      	ldr	r2, [pc, #24]	; (424 <trace_level_to_string+0x50>)
     40c:	447a      	add	r2, pc
     40e:	68fb      	ldr	r3, [r7, #12]
     410:	4413      	add	r3, r2
     412:	781b      	ldrb	r3, [r3, #0]
/home/qemu-sgx/devel/optee/optee_os/lib/libutils/ext/trace.c:56
     414:	4618      	mov	r0, r3
     416:	f107 0714 	add.w	r7, r7, #20
     41a:	46bd      	mov	sp, r7
     41c:	f85d 7b04 	ldr.w	r7, [sp], #4
     420:	4770      	bx	lr
     422:	bf00      	nop
     424:	000133ec 	.word	0x000133ec

00000428 <print_thread_id>:
print_thread_id():
/home/qemu-sgx/devel/optee/optee_os/lib/libutils/ext/trace.c:59
     428:	e96d 7e02 	strd	r7, lr, [sp, #-8]!
     42c:	b086      	sub	sp, #24
     42e:	af02      	add	r7, sp, #8
     430:	6078      	str	r0, [r7, #4]
     432:	6039      	str	r1, [r7, #0]
/home/qemu-sgx/devel/optee/optee_os/lib/libutils/ext/trace.c:63
     434:	f04f 0301 	mov.w	r3, #1
     438:	60fb      	str	r3, [r7, #12]
/home/qemu-sgx/devel/optee/optee_os/lib/libutils/ext/trace.c:65
     43a:	f001 faef 	bl	1a1c <trace_ext_get_thread_id>
     43e:	60b8      	str	r0, [r7, #8]
/home/qemu-sgx/devel/optee/optee_os/lib/libutils/ext/trace.c:67
     440:	68bb      	ldr	r3, [r7, #8]
     442:	2b00      	cmp	r3, #0
     444:	db0a      	blt.n	45c <print_thread_id+0x34>
/home/qemu-sgx/devel/optee/optee_os/lib/libutils/ext/trace.c:68
     446:	68bb      	ldr	r3, [r7, #8]
     448:	9300      	str	r3, [sp, #0]
     44a:	68fb      	ldr	r3, [r7, #12]
     44c:	4a0b      	ldr	r2, [pc, #44]	; (47c <print_thread_id+0x54>)
     44e:	447a      	add	r2, pc
     450:	6839      	ldr	r1, [r7, #0]
     452:	6878      	ldr	r0, [r7, #4]
     454:	f000 f9f4 	bl	840 <snprintk>
     458:	4603      	mov	r3, r0
     45a:	e00a      	b.n	472 <print_thread_id+0x4a>
/home/qemu-sgx/devel/optee/optee_os/lib/libutils/ext/trace.c:70
     45c:	4b08      	ldr	r3, [pc, #32]	; (480 <print_thread_id+0x58>)
     45e:	447b      	add	r3, pc
     460:	9300      	str	r3, [sp, #0]
     462:	68fb      	ldr	r3, [r7, #12]
     464:	4a07      	ldr	r2, [pc, #28]	; (484 <print_thread_id+0x5c>)
     466:	447a      	add	r2, pc
     468:	6839      	ldr	r1, [r7, #0]
     46a:	6878      	ldr	r0, [r7, #4]
     46c:	f000 f9e8 	bl	840 <snprintk>
     470:	4603      	mov	r3, r0
/home/qemu-sgx/devel/optee/optee_os/lib/libutils/ext/trace.c:71
     472:	4618      	mov	r0, r3
     474:	f107 0710 	add.w	r7, r7, #16
     478:	46bd      	mov	sp, r7
     47a:	bd80      	pop	{r7, pc}
     47c:	00013386 	.word	0x00013386
     480:	00013386 	.word	0x00013386
     484:	00013376 	.word	0x00013376

00000488 <print_core_id>:
print_core_id():
/home/qemu-sgx/devel/optee/optee_os/lib/libutils/ext/trace.c:89
     488:	f84d 7d04 	str.w	r7, [sp, #-4]!
     48c:	b083      	sub	sp, #12
     48e:	af00      	add	r7, sp, #0
     490:	6078      	str	r0, [r7, #4]
     492:	6039      	str	r1, [r7, #0]
/home/qemu-sgx/devel/optee/optee_os/lib/libutils/ext/trace.c:90
     494:	f04f 0300 	mov.w	r3, #0
/home/qemu-sgx/devel/optee/optee_os/lib/libutils/ext/trace.c:91
     498:	4618      	mov	r0, r3
     49a:	f107 070c 	add.w	r7, r7, #12
     49e:	46bd      	mov	sp, r7
     4a0:	f85d 7b04 	ldr.w	r7, [sp], #4
     4a4:	4770      	bx	lr

000004a6 <trace_printf>:
trace_printf():
/home/qemu-sgx/devel/optee/optee_os/lib/libutils/ext/trace.c:97
     4a6:	e96d 7e02 	strd	r7, lr, [sp, #-8]!
     4aa:	b088      	sub	sp, #32
     4ac:	af02      	add	r7, sp, #8
     4ae:	60f8      	str	r0, [r7, #12]
     4b0:	60b9      	str	r1, [r7, #8]
     4b2:	607a      	str	r2, [r7, #4]
     4b4:	70fb      	strb	r3, [r7, #3]
/home/qemu-sgx/devel/optee/optee_os/lib/libutils/ext/trace.c:100
     4b6:	f107 0324 	add.w	r3, r7, #36	; 0x24
     4ba:	617b      	str	r3, [r7, #20]
/home/qemu-sgx/devel/optee/optee_os/lib/libutils/ext/trace.c:101
     4bc:	78fa      	ldrb	r2, [r7, #3]
     4be:	697b      	ldr	r3, [r7, #20]
     4c0:	9301      	str	r3, [sp, #4]
     4c2:	6a3b      	ldr	r3, [r7, #32]
     4c4:	9300      	str	r3, [sp, #0]
     4c6:	4613      	mov	r3, r2
     4c8:	687a      	ldr	r2, [r7, #4]
     4ca:	68b9      	ldr	r1, [r7, #8]
     4cc:	68f8      	ldr	r0, [r7, #12]
     4ce:	f000 f805 	bl	4dc <trace_vprintf>
/home/qemu-sgx/devel/optee/optee_os/lib/libutils/ext/trace.c:103
     4d2:	bf00      	nop
     4d4:	f107 0718 	add.w	r7, r7, #24
     4d8:	46bd      	mov	sp, r7
     4da:	bd80      	pop	{r7, pc}

000004dc <trace_vprintf>:
trace_vprintf():
/home/qemu-sgx/devel/optee/optee_os/lib/libutils/ext/trace.c:106
     4dc:	f84d 4d0c 	str.w	r4, [sp, #-12]!
     4e0:	e9cd 7e01 	strd	r7, lr, [sp, #4]
     4e4:	b0c9      	sub	sp, #292	; 0x124
     4e6:	af02      	add	r7, sp, #8
     4e8:	f507 748c 	add.w	r4, r7, #280	; 0x118
     4ec:	f5a4 7486 	sub.w	r4, r4, #268	; 0x10c
     4f0:	6020      	str	r0, [r4, #0]
     4f2:	f507 708c 	add.w	r0, r7, #280	; 0x118
     4f6:	f5a0 7088 	sub.w	r0, r0, #272	; 0x110
     4fa:	6001      	str	r1, [r0, #0]
     4fc:	f507 718c 	add.w	r1, r7, #280	; 0x118
     500:	f5a1 718a 	sub.w	r1, r1, #276	; 0x114
     504:	600a      	str	r2, [r1, #0]
     506:	461a      	mov	r2, r3
     508:	f507 738c 	add.w	r3, r7, #280	; 0x118
     50c:	f2a3 1315 	subw	r3, r3, #277	; 0x115
     510:	701a      	strb	r2, [r3, #0]
     512:	4caf      	ldr	r4, [pc, #700]	; (7d0 <trace_vprintf+0x2f4>)
     514:	447c      	add	r4, pc
/home/qemu-sgx/devel/optee/optee_os/lib/libutils/ext/trace.c:108
     516:	f04f 0300 	mov.w	r3, #0
     51a:	f8c7 3114 	str.w	r3, [r7, #276]	; 0x114
/home/qemu-sgx/devel/optee/optee_os/lib/libutils/ext/trace.c:111
     51e:	f507 738c 	add.w	r3, r7, #280	; 0x118
     522:	f2a3 1315 	subw	r3, r3, #277	; 0x115
     526:	781b      	ldrb	r3, [r3, #0]
     528:	2b00      	cmp	r3, #0
     52a:	d00a      	beq.n	542 <trace_vprintf+0x66>
/home/qemu-sgx/devel/optee/optee_os/lib/libutils/ext/trace.c:111 (discriminator 1)
     52c:	4ba9      	ldr	r3, [pc, #676]	; (7d4 <trace_vprintf+0x2f8>)
     52e:	58e3      	ldr	r3, [r4, r3]
     530:	681b      	ldr	r3, [r3, #0]
     532:	f507 728c 	add.w	r2, r7, #280	; 0x118
     536:	f5a2 728a 	sub.w	r2, r2, #276	; 0x114
     53a:	6812      	ldr	r2, [r2, #0]
     53c:	429a      	cmp	r2, r3
     53e:	f300 8131 	bgt.w	7a4 <trace_vprintf+0x2c8>
/home/qemu-sgx/devel/optee/optee_os/lib/libutils/ext/trace.c:116
     542:	f507 738c 	add.w	r3, r7, #280	; 0x118
     546:	f2a3 1315 	subw	r3, r3, #277	; 0x115
     54a:	781a      	ldrb	r2, [r3, #0]
     54c:	f507 738c 	add.w	r3, r7, #280	; 0x118
     550:	f5a3 738a 	sub.w	r3, r3, #276	; 0x114
     554:	4611      	mov	r1, r2
     556:	6818      	ldr	r0, [r3, #0]
     558:	f7ff ff3c 	bl	3d4 <trace_level_to_string>
     55c:	4603      	mov	r3, r0
/home/qemu-sgx/devel/optee/optee_os/lib/libutils/ext/trace.c:115
     55e:	f107 0010 	add.w	r0, r7, #16
     562:	4a9d      	ldr	r2, [pc, #628]	; (7d8 <trace_vprintf+0x2fc>)
     564:	447a      	add	r2, pc
     566:	f44f 7180 	mov.w	r1, #256	; 0x100
     56a:	f000 f969 	bl	840 <snprintk>
     56e:	f8c7 0110 	str.w	r0, [r7, #272]	; 0x110
/home/qemu-sgx/devel/optee/optee_os/lib/libutils/ext/trace.c:117
     572:	f8d7 3110 	ldr.w	r3, [r7, #272]	; 0x110
     576:	2b00      	cmp	r3, #0
     578:	f2c0 8116 	blt.w	7a8 <trace_vprintf+0x2cc>
/home/qemu-sgx/devel/optee/optee_os/lib/libutils/ext/trace.c:119
     57c:	f8d7 3110 	ldr.w	r3, [r7, #272]	; 0x110
     580:	f8d7 2114 	ldr.w	r2, [r7, #276]	; 0x114
     584:	4413      	add	r3, r2
     586:	f8c7 3114 	str.w	r3, [r7, #276]	; 0x114
/home/qemu-sgx/devel/optee/optee_os/lib/libutils/ext/trace.c:122
     58a:	f107 0210 	add.w	r2, r7, #16
     58e:	f8d7 3114 	ldr.w	r3, [r7, #276]	; 0x114
     592:	eb02 0003 	add.w	r0, r2, r3
     596:	f8d7 3114 	ldr.w	r3, [r7, #276]	; 0x114
     59a:	f5c3 7180 	rsb	r1, r3, #256	; 0x100
     59e:	4b8f      	ldr	r3, [pc, #572]	; (7dc <trace_vprintf+0x300>)
     5a0:	58e3      	ldr	r3, [r4, r3]
     5a2:	4a8f      	ldr	r2, [pc, #572]	; (7e0 <trace_vprintf+0x304>)
     5a4:	447a      	add	r2, pc
     5a6:	f000 f94b 	bl	840 <snprintk>
     5aa:	f8c7 0110 	str.w	r0, [r7, #272]	; 0x110
/home/qemu-sgx/devel/optee/optee_os/lib/libutils/ext/trace.c:124
     5ae:	f8d7 3110 	ldr.w	r3, [r7, #272]	; 0x110
     5b2:	2b00      	cmp	r3, #0
     5b4:	f2c0 80fa 	blt.w	7ac <trace_vprintf+0x2d0>
/home/qemu-sgx/devel/optee/optee_os/lib/libutils/ext/trace.c:126
     5b8:	f8d7 3110 	ldr.w	r3, [r7, #272]	; 0x110
     5bc:	f8d7 2114 	ldr.w	r2, [r7, #276]	; 0x114
     5c0:	4413      	add	r3, r2
     5c2:	f8c7 3114 	str.w	r3, [r7, #276]	; 0x114
/home/qemu-sgx/devel/optee/optee_os/lib/libutils/ext/trace.c:128
     5c6:	f507 738c 	add.w	r3, r7, #280	; 0x118
     5ca:	f2a3 1315 	subw	r3, r3, #277	; 0x115
     5ce:	781b      	ldrb	r3, [r3, #0]
     5d0:	2b00      	cmp	r3, #0
     5d2:	d071      	beq.n	6b8 <trace_vprintf+0x1dc>
/home/qemu-sgx/devel/optee/optee_os/lib/libutils/ext/trace.c:128 (discriminator 1)
     5d4:	f507 738c 	add.w	r3, r7, #280	; 0x118
     5d8:	f5a3 738a 	sub.w	r3, r3, #276	; 0x114
     5dc:	f04f 021a 	mov.w	r2, #26
     5e0:	681b      	ldr	r3, [r3, #0]
     5e2:	fa22 f303 	lsr.w	r3, r2, r3
     5e6:	f003 0301 	and.w	r3, r3, #1
     5ea:	2b00      	cmp	r3, #0
     5ec:	d064      	beq.n	6b8 <trace_vprintf+0x1dc>
/home/qemu-sgx/devel/optee/optee_os/lib/libutils/ext/trace.c:130
     5ee:	f107 0210 	add.w	r2, r7, #16
     5f2:	f8d7 3114 	ldr.w	r3, [r7, #276]	; 0x114
     5f6:	441a      	add	r2, r3
     5f8:	f8d7 3114 	ldr.w	r3, [r7, #276]	; 0x114
     5fc:	f5c3 7380 	rsb	r3, r3, #256	; 0x100
     600:	4619      	mov	r1, r3
     602:	4610      	mov	r0, r2
     604:	f7ff ff40 	bl	488 <print_core_id>
     608:	f8c7 0110 	str.w	r0, [r7, #272]	; 0x110
/home/qemu-sgx/devel/optee/optee_os/lib/libutils/ext/trace.c:131
     60c:	f8d7 3110 	ldr.w	r3, [r7, #272]	; 0x110
     610:	2b00      	cmp	r3, #0
     612:	f2c0 80cd 	blt.w	7b0 <trace_vprintf+0x2d4>
/home/qemu-sgx/devel/optee/optee_os/lib/libutils/ext/trace.c:133
     616:	f8d7 3110 	ldr.w	r3, [r7, #272]	; 0x110
     61a:	f8d7 2114 	ldr.w	r2, [r7, #276]	; 0x114
     61e:	4413      	add	r3, r2
     620:	f8c7 3114 	str.w	r3, [r7, #276]	; 0x114
/home/qemu-sgx/devel/optee/optee_os/lib/libutils/ext/trace.c:136
     624:	f107 0210 	add.w	r2, r7, #16
     628:	f8d7 3114 	ldr.w	r3, [r7, #276]	; 0x114
     62c:	441a      	add	r2, r3
     62e:	f8d7 3114 	ldr.w	r3, [r7, #276]	; 0x114
     632:	f5c3 7380 	rsb	r3, r3, #256	; 0x100
     636:	4619      	mov	r1, r3
     638:	4610      	mov	r0, r2
     63a:	f7ff fef5 	bl	428 <print_thread_id>
     63e:	f8c7 0110 	str.w	r0, [r7, #272]	; 0x110
/home/qemu-sgx/devel/optee/optee_os/lib/libutils/ext/trace.c:137
     642:	f8d7 3110 	ldr.w	r3, [r7, #272]	; 0x110
     646:	2b00      	cmp	r3, #0
     648:	f2c0 80b4 	blt.w	7b4 <trace_vprintf+0x2d8>
/home/qemu-sgx/devel/optee/optee_os/lib/libutils/ext/trace.c:139
     64c:	f8d7 3110 	ldr.w	r3, [r7, #272]	; 0x110
     650:	f8d7 2114 	ldr.w	r2, [r7, #276]	; 0x114
     654:	4413      	add	r3, r2
     656:	f8c7 3114 	str.w	r3, [r7, #276]	; 0x114
/home/qemu-sgx/devel/optee/optee_os/lib/libutils/ext/trace.c:141
     65a:	f507 738c 	add.w	r3, r7, #280	; 0x118
     65e:	f5a3 7386 	sub.w	r3, r3, #268	; 0x10c
     662:	681b      	ldr	r3, [r3, #0]
     664:	2b00      	cmp	r3, #0
     666:	d042      	beq.n	6ee <trace_vprintf+0x212>
/home/qemu-sgx/devel/optee/optee_os/lib/libutils/ext/trace.c:142
     668:	f107 0210 	add.w	r2, r7, #16
     66c:	f8d7 3114 	ldr.w	r3, [r7, #276]	; 0x114
     670:	eb02 0003 	add.w	r0, r2, r3
     674:	f8d7 3114 	ldr.w	r3, [r7, #276]	; 0x114
     678:	f5c3 7180 	rsb	r1, r3, #256	; 0x100
     67c:	f507 738c 	add.w	r3, r7, #280	; 0x118
     680:	f5a3 7386 	sub.w	r3, r3, #268	; 0x10c
     684:	f507 728c 	add.w	r2, r7, #280	; 0x118
     688:	f5a2 7288 	sub.w	r2, r2, #272	; 0x110
     68c:	6812      	ldr	r2, [r2, #0]
     68e:	9200      	str	r2, [sp, #0]
     690:	681b      	ldr	r3, [r3, #0]
     692:	4a54      	ldr	r2, [pc, #336]	; (7e4 <trace_vprintf+0x308>)
     694:	447a      	add	r2, pc
     696:	f000 f8d3 	bl	840 <snprintk>
     69a:	f8c7 0110 	str.w	r0, [r7, #272]	; 0x110
/home/qemu-sgx/devel/optee/optee_os/lib/libutils/ext/trace.c:144
     69e:	f8d7 3110 	ldr.w	r3, [r7, #272]	; 0x110
     6a2:	2b00      	cmp	r3, #0
     6a4:	f2c0 8088 	blt.w	7b8 <trace_vprintf+0x2dc>
/home/qemu-sgx/devel/optee/optee_os/lib/libutils/ext/trace.c:146
     6a8:	f8d7 3110 	ldr.w	r3, [r7, #272]	; 0x110
     6ac:	f8d7 2114 	ldr.w	r2, [r7, #276]	; 0x114
     6b0:	4413      	add	r3, r2
     6b2:	f8c7 3114 	str.w	r3, [r7, #276]	; 0x114
/home/qemu-sgx/devel/optee/optee_os/lib/libutils/ext/trace.c:141
     6b6:	e01a      	b.n	6ee <trace_vprintf+0x212>
/home/qemu-sgx/devel/optee/optee_os/lib/libutils/ext/trace.c:150
     6b8:	f8d7 3114 	ldr.w	r3, [r7, #276]	; 0x114
     6bc:	2bfe      	cmp	r3, #254	; 0xfe
     6be:	d87d      	bhi.n	7bc <trace_vprintf+0x2e0>
/home/qemu-sgx/devel/optee/optee_os/lib/libutils/ext/trace.c:152
     6c0:	f8d7 3114 	ldr.w	r3, [r7, #276]	; 0x114
     6c4:	f103 0201 	add.w	r2, r3, #1
     6c8:	f8c7 2114 	str.w	r2, [r7, #276]	; 0x114
     6cc:	f507 728c 	add.w	r2, r7, #280	; 0x118
     6d0:	f5a2 7284 	sub.w	r2, r2, #264	; 0x108
     6d4:	f04f 0120 	mov.w	r1, #32
     6d8:	54d1      	strb	r1, [r2, r3]
/home/qemu-sgx/devel/optee/optee_os/lib/libutils/ext/trace.c:153
     6da:	f507 738c 	add.w	r3, r7, #280	; 0x118
     6de:	f5a3 7284 	sub.w	r2, r3, #264	; 0x108
     6e2:	f8d7 3114 	ldr.w	r3, [r7, #276]	; 0x114
     6e6:	4413      	add	r3, r2
     6e8:	f04f 0200 	mov.w	r2, #0
     6ec:	701a      	strb	r2, [r3, #0]
/home/qemu-sgx/devel/optee/optee_os/lib/libutils/ext/trace.c:156
     6ee:	f107 0210 	add.w	r2, r7, #16
     6f2:	f8d7 3114 	ldr.w	r3, [r7, #276]	; 0x114
     6f6:	eb02 0003 	add.w	r0, r2, r3
     6fa:	f8d7 3114 	ldr.w	r3, [r7, #276]	; 0x114
     6fe:	f5c3 7180 	rsb	r1, r3, #256	; 0x100
     702:	f8d7 312c 	ldr.w	r3, [r7, #300]	; 0x12c
     706:	f8d7 2128 	ldr.w	r2, [r7, #296]	; 0x128
     70a:	f000 f8b4 	bl	876 <vsnprintk>
     70e:	f8c7 0110 	str.w	r0, [r7, #272]	; 0x110
/home/qemu-sgx/devel/optee/optee_os/lib/libutils/ext/trace.c:157
     712:	f8d7 3110 	ldr.w	r3, [r7, #272]	; 0x110
     716:	2b00      	cmp	r3, #0
     718:	dd06      	ble.n	728 <trace_vprintf+0x24c>
/home/qemu-sgx/devel/optee/optee_os/lib/libutils/ext/trace.c:158
     71a:	f8d7 3110 	ldr.w	r3, [r7, #272]	; 0x110
     71e:	f8d7 2114 	ldr.w	r2, [r7, #276]	; 0x114
     722:	4413      	add	r3, r2
     724:	f8c7 3114 	str.w	r3, [r7, #276]	; 0x114
/home/qemu-sgx/devel/optee/optee_os/lib/libutils/ext/trace.c:160
     728:	f8d7 3114 	ldr.w	r3, [r7, #276]	; 0x114
     72c:	2bfe      	cmp	r3, #254	; 0xfe
     72e:	d903      	bls.n	738 <trace_vprintf+0x25c>
/home/qemu-sgx/devel/optee/optee_os/lib/libutils/ext/trace.c:161
     730:	f04f 03fe 	mov.w	r3, #254	; 0xfe
     734:	f8c7 3114 	str.w	r3, [r7, #276]	; 0x114
/home/qemu-sgx/devel/optee/optee_os/lib/libutils/ext/trace.c:163
     738:	f507 738c 	add.w	r3, r7, #280	; 0x118
     73c:	f5a3 7284 	sub.w	r2, r3, #264	; 0x108
     740:	f8d7 3114 	ldr.w	r3, [r7, #276]	; 0x114
     744:	4413      	add	r3, r2
     746:	f04f 020a 	mov.w	r2, #10
     74a:	701a      	strb	r2, [r3, #0]
/home/qemu-sgx/devel/optee/optee_os/lib/libutils/ext/trace.c:164
     74c:	e005      	b.n	75a <trace_vprintf+0x27e>
/home/qemu-sgx/devel/optee/optee_os/lib/libutils/ext/trace.c:165
     74e:	f8d7 3114 	ldr.w	r3, [r7, #276]	; 0x114
     752:	f103 33ff 	add.w	r3, r3, #4294967295	; 0xffffffff
     756:	f8c7 3114 	str.w	r3, [r7, #276]	; 0x114
/home/qemu-sgx/devel/optee/optee_os/lib/libutils/ext/trace.c:164
     75a:	f8d7 3114 	ldr.w	r3, [r7, #276]	; 0x114
     75e:	2b00      	cmp	r3, #0
     760:	d009      	beq.n	776 <trace_vprintf+0x29a>
/home/qemu-sgx/devel/optee/optee_os/lib/libutils/ext/trace.c:164 (discriminator 1)
     762:	f507 738c 	add.w	r3, r7, #280	; 0x118
     766:	f5a3 7284 	sub.w	r2, r3, #264	; 0x108
     76a:	f8d7 3114 	ldr.w	r3, [r7, #276]	; 0x114
     76e:	4413      	add	r3, r2
     770:	781b      	ldrb	r3, [r3, #0]
     772:	2b0a      	cmp	r3, #10
     774:	d0eb      	beq.n	74e <trace_vprintf+0x272>
/home/qemu-sgx/devel/optee/optee_os/lib/libutils/ext/trace.c:166
     776:	f8d7 3114 	ldr.w	r3, [r7, #276]	; 0x114
     77a:	f103 0301 	add.w	r3, r3, #1
     77e:	f8c7 3114 	str.w	r3, [r7, #276]	; 0x114
/home/qemu-sgx/devel/optee/optee_os/lib/libutils/ext/trace.c:167
     782:	f8d7 3114 	ldr.w	r3, [r7, #276]	; 0x114
     786:	f103 0301 	add.w	r3, r3, #1
     78a:	f507 728c 	add.w	r2, r7, #280	; 0x118
     78e:	f5a2 7284 	sub.w	r2, r2, #264	; 0x108
     792:	f04f 0100 	mov.w	r1, #0
     796:	54d1      	strb	r1, [r2, r3]
/home/qemu-sgx/devel/optee/optee_os/lib/libutils/ext/trace.c:169
     798:	f107 0310 	add.w	r3, r7, #16
     79c:	4618      	mov	r0, r3
     79e:	f001 f92b 	bl	19f8 <trace_ext_puts>
     7a2:	e00c      	b.n	7be <trace_vprintf+0x2e2>
/home/qemu-sgx/devel/optee/optee_os/lib/libutils/ext/trace.c:112
     7a4:	bf00      	nop
     7a6:	e00a      	b.n	7be <trace_vprintf+0x2e2>
/home/qemu-sgx/devel/optee/optee_os/lib/libutils/ext/trace.c:118
     7a8:	bf00      	nop
     7aa:	e008      	b.n	7be <trace_vprintf+0x2e2>
/home/qemu-sgx/devel/optee/optee_os/lib/libutils/ext/trace.c:125
     7ac:	bf00      	nop
     7ae:	e006      	b.n	7be <trace_vprintf+0x2e2>
/home/qemu-sgx/devel/optee/optee_os/lib/libutils/ext/trace.c:132
     7b0:	bf00      	nop
     7b2:	e004      	b.n	7be <trace_vprintf+0x2e2>
/home/qemu-sgx/devel/optee/optee_os/lib/libutils/ext/trace.c:138
     7b4:	bf00      	nop
     7b6:	e002      	b.n	7be <trace_vprintf+0x2e2>
/home/qemu-sgx/devel/optee/optee_os/lib/libutils/ext/trace.c:145
     7b8:	bf00      	nop
     7ba:	e000      	b.n	7be <trace_vprintf+0x2e2>
/home/qemu-sgx/devel/optee/optee_os/lib/libutils/ext/trace.c:151
     7bc:	bf00      	nop
/home/qemu-sgx/devel/optee/optee_os/lib/libutils/ext/trace.c:170
     7be:	f507 778e 	add.w	r7, r7, #284	; 0x11c
     7c2:	46bd      	mov	sp, r7
     7c4:	e9dd 4700 	ldrd	r4, r7, [sp]
     7c8:	b002      	add	sp, #8
     7ca:	f85d fb04 	ldr.w	pc, [sp], #4
     7ce:	bf00      	nop
     7d0:	00016b70 	.word	0x00016b70
     7d4:	00000010 	.word	0x00000010
     7d8:	00013284 	.word	0x00013284
     7dc:	00000014 	.word	0x00000014
     7e0:	00013248 	.word	0x00013248
     7e4:	0001315c 	.word	0x0001315c

000007e8 <dhex_dump>:
dhex_dump():
/home/qemu-sgx/devel/optee/optee_os/lib/libutils/ext/trace.c:279
     7e8:	f84d 7d04 	str.w	r7, [sp, #-4]!
     7ec:	b085      	sub	sp, #20
     7ee:	af00      	add	r7, sp, #0
     7f0:	60f8      	str	r0, [r7, #12]
     7f2:	60b9      	str	r1, [r7, #8]
     7f4:	607a      	str	r2, [r7, #4]
     7f6:	603b      	str	r3, [r7, #0]
/home/qemu-sgx/devel/optee/optee_os/lib/libutils/ext/trace.c:280
     7f8:	bf00      	nop
     7fa:	f107 0714 	add.w	r7, r7, #20
     7fe:	46bd      	mov	sp, r7
     800:	f85d 7b04 	ldr.w	r7, [sp], #4
     804:	4770      	bx	lr
     806:	bf00      	nop

00000808 <atomic_inc32>:
atomic_inc32():
/home/qemu-sgx/devel/optee/optee_os/lib/libutils/ext/arch/arm/atomic_a32.S:10
     808:	e1901f9f 	ldrex	r1, [r0]
/home/qemu-sgx/devel/optee/optee_os/lib/libutils/ext/arch/arm/atomic_a32.S:11
     80c:	e2811001 	add	r1, r1, #1
/home/qemu-sgx/devel/optee/optee_os/lib/libutils/ext/arch/arm/atomic_a32.S:12
     810:	e1802f91 	strex	r2, r1, [r0]
/home/qemu-sgx/devel/optee/optee_os/lib/libutils/ext/arch/arm/atomic_a32.S:13
     814:	e3520000 	cmp	r2, #0
/home/qemu-sgx/devel/optee/optee_os/lib/libutils/ext/arch/arm/atomic_a32.S:14
     818:	1afffffa 	bne	808 <atomic_inc32>
/home/qemu-sgx/devel/optee/optee_os/lib/libutils/ext/arch/arm/atomic_a32.S:15
     81c:	e1a00001 	mov	r0, r1
/home/qemu-sgx/devel/optee/optee_os/lib/libutils/ext/arch/arm/atomic_a32.S:16
     820:	e12fff1e 	bx	lr

00000824 <atomic_dec32>:
atomic_dec32():
/home/qemu-sgx/devel/optee/optee_os/lib/libutils/ext/arch/arm/atomic_a32.S:21
     824:	e1901f9f 	ldrex	r1, [r0]
/home/qemu-sgx/devel/optee/optee_os/lib/libutils/ext/arch/arm/atomic_a32.S:22
     828:	e2411001 	sub	r1, r1, #1
/home/qemu-sgx/devel/optee/optee_os/lib/libutils/ext/arch/arm/atomic_a32.S:23
     82c:	e1802f91 	strex	r2, r1, [r0]
/home/qemu-sgx/devel/optee/optee_os/lib/libutils/ext/arch/arm/atomic_a32.S:24
     830:	e3520000 	cmp	r2, #0
/home/qemu-sgx/devel/optee/optee_os/lib/libutils/ext/arch/arm/atomic_a32.S:25
     834:	1afffffa 	bne	824 <atomic_dec32>
/home/qemu-sgx/devel/optee/optee_os/lib/libutils/ext/arch/arm/atomic_a32.S:26
     838:	e1a00001 	mov	r0, r1
/home/qemu-sgx/devel/optee/optee_os/lib/libutils/ext/arch/arm/atomic_a32.S:27
     83c:	e12fff1e 	bx	lr

00000840 <snprintk>:
snprintk():
/home/qemu-sgx/devel/optee/optee_os/lib/libutils/ext/snprintk.c:113
     840:	b40c      	push	{r2, r3}
     842:	e96d 7e02 	strd	r7, lr, [sp, #-8]!
     846:	b084      	sub	sp, #16
     848:	af00      	add	r7, sp, #0
     84a:	6078      	str	r0, [r7, #4]
     84c:	6039      	str	r1, [r7, #0]
/home/qemu-sgx/devel/optee/optee_os/lib/libutils/ext/snprintk.c:117
     84e:	f107 031c 	add.w	r3, r7, #28
     852:	60bb      	str	r3, [r7, #8]
/home/qemu-sgx/devel/optee/optee_os/lib/libutils/ext/snprintk.c:118
     854:	68bb      	ldr	r3, [r7, #8]
     856:	69ba      	ldr	r2, [r7, #24]
     858:	6839      	ldr	r1, [r7, #0]
     85a:	6878      	ldr	r0, [r7, #4]
     85c:	f000 f80b 	bl	876 <vsnprintk>
     860:	60f8      	str	r0, [r7, #12]
/home/qemu-sgx/devel/optee/optee_os/lib/libutils/ext/snprintk.c:121
     862:	68fb      	ldr	r3, [r7, #12]
/home/qemu-sgx/devel/optee/optee_os/lib/libutils/ext/snprintk.c:122
     864:	4618      	mov	r0, r3
     866:	f107 0710 	add.w	r7, r7, #16
     86a:	46bd      	mov	sp, r7
     86c:	e9dd 7e00 	ldrd	r7, lr, [sp]
     870:	b002      	add	sp, #8
     872:	b002      	add	sp, #8
     874:	4770      	bx	lr

00000876 <vsnprintk>:
vsnprintk():
/home/qemu-sgx/devel/optee/optee_os/lib/libutils/ext/snprintk.c:130
     876:	e96d 7e02 	strd	r7, lr, [sp, #-8]!
     87a:	b086      	sub	sp, #24
     87c:	af02      	add	r7, sp, #8
     87e:	60f8      	str	r0, [r7, #12]
     880:	60b9      	str	r1, [r7, #8]
     882:	607a      	str	r2, [r7, #4]
     884:	603b      	str	r3, [r7, #0]
/home/qemu-sgx/devel/optee/optee_os/lib/libutils/ext/snprintk.c:131
     886:	f04f 0301 	mov.w	r3, #1
     88a:	9300      	str	r3, [sp, #0]
     88c:	683b      	ldr	r3, [r7, #0]
     88e:	687a      	ldr	r2, [r7, #4]
     890:	68b9      	ldr	r1, [r7, #8]
     892:	68f8      	ldr	r0, [r7, #12]
     894:	f000 f806 	bl	8a4 <__vsnprintf>
     898:	4603      	mov	r3, r0
/home/qemu-sgx/devel/optee/optee_os/lib/libutils/ext/snprintk.c:132
     89a:	4618      	mov	r0, r3
     89c:	f107 0710 	add.w	r7, r7, #16
     8a0:	46bd      	mov	sp, r7
     8a2:	bd80      	pop	{r7, pc}

000008a4 <__vsnprintf>:
__vsnprintf():
/home/qemu-sgx/devel/optee/optee_os/lib/libutils/ext/snprintk.c:138
     8a4:	e96d 7e02 	strd	r7, lr, [sp, #-8]!
     8a8:	b088      	sub	sp, #32
     8aa:	af02      	add	r7, sp, #8
     8ac:	60f8      	str	r0, [r7, #12]
     8ae:	60b9      	str	r1, [r7, #8]
     8b0:	607a      	str	r2, [r7, #4]
     8b2:	603b      	str	r3, [r7, #0]
/home/qemu-sgx/devel/optee/optee_os/lib/libutils/ext/snprintk.c:142
     8b4:	68fa      	ldr	r2, [r7, #12]
     8b6:	68bb      	ldr	r3, [r7, #8]
     8b8:	4413      	add	r3, r2
     8ba:	613b      	str	r3, [r7, #16]
/home/qemu-sgx/devel/optee/optee_os/lib/libutils/ext/snprintk.c:143
     8bc:	f107 0210 	add.w	r2, r7, #16
     8c0:	f897 3020 	ldrb.w	r3, [r7, #32]
     8c4:	9301      	str	r3, [sp, #4]
     8c6:	683b      	ldr	r3, [r7, #0]
     8c8:	9300      	str	r3, [sp, #0]
     8ca:	68fb      	ldr	r3, [r7, #12]
     8cc:	f04f 0108 	mov.w	r1, #8
     8d0:	6878      	ldr	r0, [r7, #4]
     8d2:	f000 f889 	bl	9e8 <kprintf>
     8d6:	6178      	str	r0, [r7, #20]
/home/qemu-sgx/devel/optee/optee_os/lib/libutils/ext/snprintk.c:144
     8d8:	68fb      	ldr	r3, [r7, #12]
     8da:	2b00      	cmp	r3, #0
     8dc:	d015      	beq.n	90a <__vsnprintf+0x66>
/home/qemu-sgx/devel/optee/optee_os/lib/libutils/ext/snprintk.c:144 (discriminator 1)
     8de:	68bb      	ldr	r3, [r7, #8]
     8e0:	2b00      	cmp	r3, #0
     8e2:	d012      	beq.n	90a <__vsnprintf+0x66>
/home/qemu-sgx/devel/optee/optee_os/lib/libutils/ext/snprintk.c:146
     8e4:	697b      	ldr	r3, [r7, #20]
     8e6:	68ba      	ldr	r2, [r7, #8]
     8e8:	429a      	cmp	r2, r3
     8ea:	d808      	bhi.n	8fe <__vsnprintf+0x5a>
/home/qemu-sgx/devel/optee/optee_os/lib/libutils/ext/snprintk.c:147
     8ec:	68bb      	ldr	r3, [r7, #8]
     8ee:	f103 33ff 	add.w	r3, r3, #4294967295	; 0xffffffff
     8f2:	68fa      	ldr	r2, [r7, #12]
     8f4:	4413      	add	r3, r2
     8f6:	f04f 0200 	mov.w	r2, #0
     8fa:	701a      	strb	r2, [r3, #0]
     8fc:	e005      	b.n	90a <__vsnprintf+0x66>
/home/qemu-sgx/devel/optee/optee_os/lib/libutils/ext/snprintk.c:149
     8fe:	697b      	ldr	r3, [r7, #20]
     900:	68fa      	ldr	r2, [r7, #12]
     902:	4413      	add	r3, r2
     904:	f04f 0200 	mov.w	r2, #0
     908:	701a      	strb	r2, [r3, #0]
/home/qemu-sgx/devel/optee/optee_os/lib/libutils/ext/snprintk.c:151
     90a:	697b      	ldr	r3, [r7, #20]
/home/qemu-sgx/devel/optee/optee_os/lib/libutils/ext/snprintk.c:152
     90c:	4618      	mov	r0, r3
     90e:	f107 0718 	add.w	r7, r7, #24
     912:	46bd      	mov	sp, r7
     914:	bd80      	pop	{r7, pc}

00000916 <__vsprintf>:
__vsprintf():
/home/qemu-sgx/devel/optee/optee_os/lib/libutils/ext/snprintk.c:155
     916:	e96d 7e02 	strd	r7, lr, [sp, #-8]!
     91a:	b086      	sub	sp, #24
     91c:	af02      	add	r7, sp, #8
     91e:	60f8      	str	r0, [r7, #12]
     920:	60b9      	str	r1, [r7, #8]
     922:	607a      	str	r2, [r7, #4]
/home/qemu-sgx/devel/optee/optee_os/lib/libutils/ext/snprintk.c:156
     924:	f04f 0300 	mov.w	r3, #0
     928:	9301      	str	r3, [sp, #4]
     92a:	687b      	ldr	r3, [r7, #4]
     92c:	9300      	str	r3, [sp, #0]
     92e:	68fb      	ldr	r3, [r7, #12]
     930:	f04f 0200 	mov.w	r2, #0
     934:	f04f 0108 	mov.w	r1, #8
     938:	68b8      	ldr	r0, [r7, #8]
     93a:	f000 f855 	bl	9e8 <kprintf>
     93e:	4603      	mov	r3, r0
/home/qemu-sgx/devel/optee/optee_os/lib/libutils/ext/snprintk.c:157
     940:	4618      	mov	r0, r3
     942:	f107 0710 	add.w	r7, r7, #16
     946:	46bd      	mov	sp, r7
     948:	bd80      	pop	{r7, pc}

0000094a <uuid2str>:
uuid2str():
/home/qemu-sgx/devel/optee/optee_os/lib/libutils/ext/snprintk.c:221
     94a:	f84d 4d14 	str.w	r4, [sp, #-20]!
     94e:	e9cd 5601 	strd	r5, r6, [sp, #4]
     952:	e9cd 7e03 	strd	r7, lr, [sp, #12]
     956:	b095      	sub	sp, #84	; 0x54
     958:	af0a      	add	r7, sp, #40	; 0x28
     95a:	61f8      	str	r0, [r7, #28]
     95c:	61b9      	str	r1, [r7, #24]
     95e:	617a      	str	r2, [r7, #20]
/home/qemu-sgx/devel/optee/optee_os/lib/libutils/ext/snprintk.c:227
     960:	697b      	ldr	r3, [r7, #20]
     962:	627b      	str	r3, [r7, #36]	; 0x24
/home/qemu-sgx/devel/optee/optee_os/lib/libutils/ext/snprintk.c:229
     964:	6a7b      	ldr	r3, [r7, #36]	; 0x24
     966:	681a      	ldr	r2, [r3, #0]
/home/qemu-sgx/devel/optee/optee_os/lib/libutils/ext/snprintk.c:231
     968:	6a7b      	ldr	r3, [r7, #36]	; 0x24
     96a:	889b      	ldrh	r3, [r3, #4]
/home/qemu-sgx/devel/optee/optee_os/lib/libutils/ext/snprintk.c:229
     96c:	4619      	mov	r1, r3
/home/qemu-sgx/devel/optee/optee_os/lib/libutils/ext/snprintk.c:231
     96e:	6a7b      	ldr	r3, [r7, #36]	; 0x24
     970:	88db      	ldrh	r3, [r3, #6]
/home/qemu-sgx/devel/optee/optee_os/lib/libutils/ext/snprintk.c:229
     972:	4618      	mov	r0, r3
/home/qemu-sgx/devel/optee/optee_os/lib/libutils/ext/snprintk.c:232
     974:	6a7b      	ldr	r3, [r7, #36]	; 0x24
     976:	7a1b      	ldrb	r3, [r3, #8]
/home/qemu-sgx/devel/optee/optee_os/lib/libutils/ext/snprintk.c:229
     978:	461c      	mov	r4, r3
/home/qemu-sgx/devel/optee/optee_os/lib/libutils/ext/snprintk.c:232
     97a:	6a7b      	ldr	r3, [r7, #36]	; 0x24
     97c:	7a5b      	ldrb	r3, [r3, #9]
/home/qemu-sgx/devel/optee/optee_os/lib/libutils/ext/snprintk.c:229
     97e:	461d      	mov	r5, r3
/home/qemu-sgx/devel/optee/optee_os/lib/libutils/ext/snprintk.c:233
     980:	6a7b      	ldr	r3, [r7, #36]	; 0x24
     982:	7a9b      	ldrb	r3, [r3, #10]
/home/qemu-sgx/devel/optee/optee_os/lib/libutils/ext/snprintk.c:229
     984:	461e      	mov	r6, r3
/home/qemu-sgx/devel/optee/optee_os/lib/libutils/ext/snprintk.c:233
     986:	6a7b      	ldr	r3, [r7, #36]	; 0x24
     988:	7adb      	ldrb	r3, [r3, #11]
/home/qemu-sgx/devel/optee/optee_os/lib/libutils/ext/snprintk.c:229
     98a:	613b      	str	r3, [r7, #16]
/home/qemu-sgx/devel/optee/optee_os/lib/libutils/ext/snprintk.c:234
     98c:	6a7b      	ldr	r3, [r7, #36]	; 0x24
     98e:	7b1b      	ldrb	r3, [r3, #12]
/home/qemu-sgx/devel/optee/optee_os/lib/libutils/ext/snprintk.c:229
     990:	60fb      	str	r3, [r7, #12]
/home/qemu-sgx/devel/optee/optee_os/lib/libutils/ext/snprintk.c:234
     992:	6a7b      	ldr	r3, [r7, #36]	; 0x24
     994:	7b5b      	ldrb	r3, [r3, #13]
/home/qemu-sgx/devel/optee/optee_os/lib/libutils/ext/snprintk.c:229
     996:	60bb      	str	r3, [r7, #8]
/home/qemu-sgx/devel/optee/optee_os/lib/libutils/ext/snprintk.c:235
     998:	6a7b      	ldr	r3, [r7, #36]	; 0x24
     99a:	7b9b      	ldrb	r3, [r3, #14]
/home/qemu-sgx/devel/optee/optee_os/lib/libutils/ext/snprintk.c:229
     99c:	607b      	str	r3, [r7, #4]
/home/qemu-sgx/devel/optee/optee_os/lib/libutils/ext/snprintk.c:235
     99e:	6a7b      	ldr	r3, [r7, #36]	; 0x24
     9a0:	7bdb      	ldrb	r3, [r3, #15]
/home/qemu-sgx/devel/optee/optee_os/lib/libutils/ext/snprintk.c:229
     9a2:	9309      	str	r3, [sp, #36]	; 0x24
     9a4:	687b      	ldr	r3, [r7, #4]
     9a6:	9308      	str	r3, [sp, #32]
     9a8:	68bb      	ldr	r3, [r7, #8]
     9aa:	9307      	str	r3, [sp, #28]
     9ac:	68fb      	ldr	r3, [r7, #12]
     9ae:	9306      	str	r3, [sp, #24]
     9b0:	693b      	ldr	r3, [r7, #16]
     9b2:	9305      	str	r3, [sp, #20]
     9b4:	9604      	str	r6, [sp, #16]
     9b6:	9503      	str	r5, [sp, #12]
     9b8:	9402      	str	r4, [sp, #8]
     9ba:	9001      	str	r0, [sp, #4]
     9bc:	9100      	str	r1, [sp, #0]
     9be:	4613      	mov	r3, r2
     9c0:	4a08      	ldr	r2, [pc, #32]	; (9e4 <uuid2str+0x9a>)
     9c2:	447a      	add	r2, pc
     9c4:	69b9      	ldr	r1, [r7, #24]
     9c6:	69f8      	ldr	r0, [r7, #28]
     9c8:	f7ff ff3a 	bl	840 <snprintk>
     9cc:	4603      	mov	r3, r0
/home/qemu-sgx/devel/optee/optee_os/lib/libutils/ext/snprintk.c:236
     9ce:	4618      	mov	r0, r3
     9d0:	f107 072c 	add.w	r7, r7, #44	; 0x2c
     9d4:	46bd      	mov	sp, r7
     9d6:	e9dd 4500 	ldrd	r4, r5, [sp]
     9da:	e9dd 6702 	ldrd	r6, r7, [sp, #8]
     9de:	b004      	add	sp, #16
     9e0:	f85d fb04 	ldr.w	pc, [sp], #4
     9e4:	00012e66 	.word	0x00012e66

000009e8 <kprintf>:
kprintf():
/home/qemu-sgx/devel/optee/optee_os/lib/libutils/ext/snprintk.c:244
     9e8:	e96d 4508 	strd	r4, r5, [sp, #-32]!
     9ec:	e9cd 7802 	strd	r7, r8, [sp, #8]
     9f0:	e9cd 9a04 	strd	r9, sl, [sp, #16]
     9f4:	e9cd be06 	strd	fp, lr, [sp, #24]
     9f8:	b0ac      	sub	sp, #176	; 0xb0
     9fa:	af00      	add	r7, sp, #0
     9fc:	6378      	str	r0, [r7, #52]	; 0x34
     9fe:	6339      	str	r1, [r7, #48]	; 0x30
     a00:	62fa      	str	r2, [r7, #44]	; 0x2c
     a02:	62bb      	str	r3, [r7, #40]	; 0x28
/home/qemu-sgx/devel/optee/optee_os/lib/libutils/ext/snprintk.c:264
     a04:	6b3b      	ldr	r3, [r7, #48]	; 0x30
     a06:	2b08      	cmp	r3, #8
     a08:	d106      	bne.n	a18 <kprintf+0x30>
/home/qemu-sgx/devel/optee/optee_os/lib/libutils/ext/snprintk.c:264 (discriminator 1)
     a0a:	6afb      	ldr	r3, [r7, #44]	; 0x2c
     a0c:	2b00      	cmp	r3, #0
     a0e:	d003      	beq.n	a18 <kprintf+0x30>
/home/qemu-sgx/devel/optee/optee_os/lib/libutils/ext/snprintk.c:265
     a10:	6afb      	ldr	r3, [r7, #44]	; 0x2c
     a12:	681b      	ldr	r3, [r3, #0]
     a14:	66bb      	str	r3, [r7, #104]	; 0x68
     a16:	e002      	b.n	a1e <kprintf+0x36>
/home/qemu-sgx/devel/optee/optee_os/lib/libutils/ext/snprintk.c:267
     a18:	f04f 0300 	mov.w	r3, #0
     a1c:	66bb      	str	r3, [r7, #104]	; 0x68
/home/qemu-sgx/devel/optee/optee_os/lib/libutils/ext/snprintk.c:269
     a1e:	f04f 0300 	mov.w	r3, #0
     a22:	f8c7 30a0 	str.w	r3, [r7, #160]	; 0xa0
/home/qemu-sgx/devel/optee/optee_os/lib/libutils/ext/snprintk.c:270
     a26:	f04f 0300 	mov.w	r3, #0
     a2a:	673b      	str	r3, [r7, #112]	; 0x70
/home/qemu-sgx/devel/optee/optee_os/lib/libutils/ext/snprintk.c:272
     a2c:	6b7b      	ldr	r3, [r7, #52]	; 0x34
     a2e:	f8c7 30ac 	str.w	r3, [r7, #172]	; 0xac
/home/qemu-sgx/devel/optee/optee_os/lib/libutils/ext/snprintk.c:273
     a32:	f04f 0300 	mov.w	r3, #0
     a36:	f8c7 3098 	str.w	r3, [r7, #152]	; 0x98
/home/qemu-sgx/devel/optee/optee_os/lib/libutils/ext/snprintk.c:275
     a3a:	f04f 0300 	mov.w	r3, #0
     a3e:	66fb      	str	r3, [r7, #108]	; 0x6c
/home/qemu-sgx/devel/optee/optee_os/lib/libutils/ext/snprintk.c:281
     a40:	e020      	b.n	a84 <kprintf+0x9c>
/home/qemu-sgx/devel/optee/optee_os/lib/libutils/ext/snprintk.c:282
     a42:	f8d7 3098 	ldr.w	r3, [r7, #152]	; 0x98
     a46:	f103 0301 	add.w	r3, r3, #1
     a4a:	f8c7 3098 	str.w	r3, [r7, #152]	; 0x98
/home/qemu-sgx/devel/optee/optee_os/lib/libutils/ext/snprintk.c:283
     a4e:	6b3b      	ldr	r3, [r7, #48]	; 0x30
     a50:	2b08      	cmp	r3, #8
     a52:	d111      	bne.n	a78 <kprintf+0x90>
/home/qemu-sgx/devel/optee/optee_os/lib/libutils/ext/snprintk.c:283 (discriminator 1)
     a54:	6abb      	ldr	r3, [r7, #40]	; 0x28
     a56:	2b00      	cmp	r3, #0
     a58:	d00e      	beq.n	a78 <kprintf+0x90>
/home/qemu-sgx/devel/optee/optee_os/lib/libutils/ext/snprintk.c:283 (discriminator 2)
     a5a:	6afb      	ldr	r3, [r7, #44]	; 0x2c
     a5c:	2b00      	cmp	r3, #0
     a5e:	d003      	beq.n	a68 <kprintf+0x80>
/home/qemu-sgx/devel/optee/optee_os/lib/libutils/ext/snprintk.c:283 (discriminator 4)
     a60:	6aba      	ldr	r2, [r7, #40]	; 0x28
     a62:	6ebb      	ldr	r3, [r7, #104]	; 0x68
     a64:	429a      	cmp	r2, r3
     a66:	d207      	bcs.n	a78 <kprintf+0x90>
/home/qemu-sgx/devel/optee/optee_os/lib/libutils/ext/snprintk.c:283 (discriminator 5)
     a68:	6aba      	ldr	r2, [r7, #40]	; 0x28
     a6a:	f102 0301 	add.w	r3, r2, #1
     a6e:	62bb      	str	r3, [r7, #40]	; 0x28
     a70:	f8d7 30ac 	ldr.w	r3, [r7, #172]	; 0xac
     a74:	781b      	ldrb	r3, [r3, #0]
     a76:	7013      	strb	r3, [r2, #0]
/home/qemu-sgx/devel/optee/optee_os/lib/libutils/ext/snprintk.c:281
     a78:	f8d7 30ac 	ldr.w	r3, [r7, #172]	; 0xac
     a7c:	f103 0301 	add.w	r3, r3, #1
     a80:	f8c7 30ac 	str.w	r3, [r7, #172]	; 0xac
/home/qemu-sgx/devel/optee/optee_os/lib/libutils/ext/snprintk.c:281 (discriminator 1)
     a84:	f8d7 30ac 	ldr.w	r3, [r7, #172]	; 0xac
     a88:	781b      	ldrb	r3, [r3, #0]
     a8a:	2b25      	cmp	r3, #37	; 0x25
     a8c:	d004      	beq.n	a98 <kprintf+0xb0>
/home/qemu-sgx/devel/optee/optee_os/lib/libutils/ext/snprintk.c:281 (discriminator 2)
     a8e:	f8d7 30ac 	ldr.w	r3, [r7, #172]	; 0xac
     a92:	781b      	ldrb	r3, [r3, #0]
     a94:	2b00      	cmp	r3, #0
     a96:	d1d4      	bne.n	a42 <kprintf+0x5a>
/home/qemu-sgx/devel/optee/optee_os/lib/libutils/ext/snprintk.c:285
     a98:	f8d7 30ac 	ldr.w	r3, [r7, #172]	; 0xac
     a9c:	781b      	ldrb	r3, [r3, #0]
     a9e:	2b00      	cmp	r3, #0
     aa0:	f000 876c 	beq.w	197c <kprintf+0xf94>
/home/qemu-sgx/devel/optee/optee_os/lib/libutils/ext/snprintk.c:288
     aa4:	f8d7 30ac 	ldr.w	r3, [r7, #172]	; 0xac
     aa8:	f103 0301 	add.w	r3, r3, #1
     aac:	f8c7 30ac 	str.w	r3, [r7, #172]	; 0xac
/home/qemu-sgx/devel/optee/optee_os/lib/libutils/ext/snprintk.c:290
     ab0:	f04f 0300 	mov.w	r3, #0
     ab4:	f8c7 309c 	str.w	r3, [r7, #156]	; 0x9c
/home/qemu-sgx/devel/optee/optee_os/lib/libutils/ext/snprintk.c:291
     ab8:	f04f 0300 	mov.w	r3, #0
     abc:	67bb      	str	r3, [r7, #120]	; 0x78
/home/qemu-sgx/devel/optee/optee_os/lib/libutils/ext/snprintk.c:292
     abe:	f04f 0300 	mov.w	r3, #0
     ac2:	f8c7 3094 	str.w	r3, [r7, #148]	; 0x94
/home/qemu-sgx/devel/optee/optee_os/lib/libutils/ext/snprintk.c:293
     ac6:	f04f 33ff 	mov.w	r3, #4294967295	; 0xffffffff
     aca:	f8c7 3090 	str.w	r3, [r7, #144]	; 0x90
/home/qemu-sgx/devel/optee/optee_os/lib/libutils/ext/snprintk.c:294
     ace:	f04f 0300 	mov.w	r3, #0
     ad2:	f887 308f 	strb.w	r3, [r7, #143]	; 0x8f
/home/qemu-sgx/devel/optee/optee_os/lib/libutils/ext/snprintk.c:296
     ad6:	f8d7 20ac 	ldr.w	r2, [r7, #172]	; 0xac
     ada:	f102 0301 	add.w	r3, r2, #1
     ade:	f8c7 30ac 	str.w	r3, [r7, #172]	; 0xac
     ae2:	7813      	ldrb	r3, [r2, #0]
     ae4:	f8c7 30a8 	str.w	r3, [r7, #168]	; 0xa8
     ae8:	f8d7 30a8 	ldr.w	r3, [r7, #168]	; 0xa8
     aec:	f1a3 0320 	sub.w	r3, r3, #32
     af0:	2b5a      	cmp	r3, #90	; 0x5a
     af2:	f200 85f5 	bhi.w	16e0 <kprintf+0xcf8>
     af6:	a202      	add	r2, pc, #8	; (adr r2, b00 <kprintf+0x118>)
     af8:	f852 3023 	ldr.w	r3, [r2, r3, lsl #2]
     afc:	441a      	add	r2, r3
     afe:	4710      	bx	r2
     b00:	0000016d 	.word	0x0000016d
     b04:	00000be1 	.word	0x00000be1
     b08:	00000be1 	.word	0x00000be1
     b0c:	00000181 	.word	0x00000181
     b10:	00000be1 	.word	0x00000be1
     b14:	00000be1 	.word	0x00000be1
     b18:	00000be1 	.word	0x00000be1
     b1c:	00000be1 	.word	0x00000be1
     b20:	00000be1 	.word	0x00000be1
     b24:	00000be1 	.word	0x00000be1
     b28:	0000018f 	.word	0x0000018f
     b2c:	000001c5 	.word	0x000001c5
     b30:	00000be1 	.word	0x00000be1
     b34:	000001b7 	.word	0x000001b7
     b38:	000001cf 	.word	0x000001cf
     b3c:	00000be1 	.word	0x00000be1
     b40:	0000025f 	.word	0x0000025f
     b44:	0000026d 	.word	0x0000026d
     b48:	0000026d 	.word	0x0000026d
     b4c:	0000026d 	.word	0x0000026d
     b50:	0000026d 	.word	0x0000026d
     b54:	0000026d 	.word	0x0000026d
     b58:	0000026d 	.word	0x0000026d
     b5c:	0000026d 	.word	0x0000026d
     b60:	0000026d 	.word	0x0000026d
     b64:	0000026d 	.word	0x0000026d
     b68:	00000be1 	.word	0x00000be1
     b6c:	00000be1 	.word	0x00000be1
     b70:	00000be1 	.word	0x00000be1
     b74:	00000be1 	.word	0x00000be1
     b78:	00000be1 	.word	0x00000be1
     b7c:	00000be1 	.word	0x00000be1
     b80:	00000be1 	.word	0x00000be1
     b84:	00000be1 	.word	0x00000be1
     b88:	00000be1 	.word	0x00000be1
     b8c:	00000be1 	.word	0x00000be1
     b90:	00000365 	.word	0x00000365
     b94:	00000be1 	.word	0x00000be1
     b98:	00000be1 	.word	0x00000be1
     b9c:	00000be1 	.word	0x00000be1
     ba0:	00000be1 	.word	0x00000be1
     ba4:	00000be1 	.word	0x00000be1
     ba8:	00000be1 	.word	0x00000be1
     bac:	00000be1 	.word	0x00000be1
     bb0:	00000be1 	.word	0x00000be1
     bb4:	00000be1 	.word	0x00000be1
     bb8:	00000be1 	.word	0x00000be1
     bbc:	000005b7 	.word	0x000005b7
     bc0:	00000be1 	.word	0x00000be1
     bc4:	00000be1 	.word	0x00000be1
     bc8:	00000be1 	.word	0x00000be1
     bcc:	00000be1 	.word	0x00000be1
     bd0:	00000be1 	.word	0x00000be1
     bd4:	000007e7 	.word	0x000007e7
     bd8:	00000be1 	.word	0x00000be1
     bdc:	00000be1 	.word	0x00000be1
     be0:	000008f5 	.word	0x000008f5
     be4:	00000be1 	.word	0x00000be1
     be8:	00000be1 	.word	0x00000be1
     bec:	00000be1 	.word	0x00000be1
     bf0:	00000be1 	.word	0x00000be1
     bf4:	00000be1 	.word	0x00000be1
     bf8:	00000be1 	.word	0x00000be1
     bfc:	00000be1 	.word	0x00000be1
     c00:	00000be1 	.word	0x00000be1
     c04:	00000be1 	.word	0x00000be1
     c08:	00000be1 	.word	0x00000be1
     c0c:	00000335 	.word	0x00000335
     c10:	00000371 	.word	0x00000371
     c14:	00000be1 	.word	0x00000be1
     c18:	00000be1 	.word	0x00000be1
     c1c:	00000be1 	.word	0x00000be1
     c20:	000002bd 	.word	0x000002bd
     c24:	00000371 	.word	0x00000371
     c28:	000002cb 	.word	0x000002cb
     c2c:	00000be1 	.word	0x00000be1
     c30:	000002d9 	.word	0x000002d9
     c34:	00000be1 	.word	0x00000be1
     c38:	000004a9 	.word	0x000004a9
     c3c:	000005c3 	.word	0x000005c3
     c40:	000006c5 	.word	0x000006c5
     c44:	0000030b 	.word	0x0000030b
     c48:	00000be1 	.word	0x00000be1
     c4c:	00000765 	.word	0x00000765
     c50:	00000319 	.word	0x00000319
     c54:	000007f3 	.word	0x000007f3
     c58:	00000be1 	.word	0x00000be1
     c5c:	00000be1 	.word	0x00000be1
     c60:	000008ff 	.word	0x000008ff
     c64:	00000be1 	.word	0x00000be1
     c68:	00000327 	.word	0x00000327
/home/qemu-sgx/devel/optee/optee_os/lib/libutils/ext/snprintk.c:304
     c6c:	f897 308f 	ldrb.w	r3, [r7, #143]	; 0x8f
     c70:	2b00      	cmp	r3, #0
     c72:	f47f af30 	bne.w	ad6 <kprintf+0xee>
/home/qemu-sgx/devel/optee/optee_os/lib/libutils/ext/snprintk.c:305
     c76:	f04f 0320 	mov.w	r3, #32
     c7a:	f887 308f 	strb.w	r3, [r7, #143]	; 0x8f
/home/qemu-sgx/devel/optee/optee_os/lib/libutils/ext/snprintk.c:306
     c7e:	e72a      	b.n	ad6 <kprintf+0xee>
/home/qemu-sgx/devel/optee/optee_os/lib/libutils/ext/snprintk.c:308
     c80:	f8d7 309c 	ldr.w	r3, [r7, #156]	; 0x9c
     c84:	f043 0301 	orr.w	r3, r3, #1
     c88:	f8c7 309c 	str.w	r3, [r7, #156]	; 0x9c
/home/qemu-sgx/devel/optee/optee_os/lib/libutils/ext/snprintk.c:309
     c8c:	e723      	b.n	ad6 <kprintf+0xee>
/home/qemu-sgx/devel/optee/optee_os/lib/libutils/ext/snprintk.c:317
     c8e:	f8d7 20d0 	ldr.w	r2, [r7, #208]	; 0xd0
     c92:	f102 0304 	add.w	r3, r2, #4
     c96:	f8c7 30d0 	str.w	r3, [r7, #208]	; 0xd0
     c9a:	6813      	ldr	r3, [r2, #0]
     c9c:	f8c7 3094 	str.w	r3, [r7, #148]	; 0x94
     ca0:	f8d7 3094 	ldr.w	r3, [r7, #148]	; 0x94
     ca4:	2b00      	cmp	r3, #0
     ca6:	db00      	blt.n	caa <kprintf+0x2c2>
/home/qemu-sgx/devel/optee/optee_os/lib/libutils/ext/snprintk.c:318
     ca8:	e715      	b.n	ad6 <kprintf+0xee>
/home/qemu-sgx/devel/optee/optee_os/lib/libutils/ext/snprintk.c:319
     caa:	f8d7 3094 	ldr.w	r3, [r7, #148]	; 0x94
     cae:	f1c3 0300 	rsb	r3, r3, #0
     cb2:	f8c7 3094 	str.w	r3, [r7, #148]	; 0x94
/home/qemu-sgx/devel/optee/optee_os/lib/libutils/ext/snprintk.c:322
     cb6:	f8d7 309c 	ldr.w	r3, [r7, #156]	; 0x9c
     cba:	f043 0304 	orr.w	r3, r3, #4
     cbe:	f8c7 309c 	str.w	r3, [r7, #156]	; 0x9c
/home/qemu-sgx/devel/optee/optee_os/lib/libutils/ext/snprintk.c:323
     cc2:	e708      	b.n	ad6 <kprintf+0xee>
/home/qemu-sgx/devel/optee/optee_os/lib/libutils/ext/snprintk.c:325
     cc4:	f04f 032b 	mov.w	r3, #43	; 0x2b
     cc8:	f887 308f 	strb.w	r3, [r7, #143]	; 0x8f
/home/qemu-sgx/devel/optee/optee_os/lib/libutils/ext/snprintk.c:326
     ccc:	e703      	b.n	ad6 <kprintf+0xee>
/home/qemu-sgx/devel/optee/optee_os/lib/libutils/ext/snprintk.c:328
     cce:	f8d7 20ac 	ldr.w	r2, [r7, #172]	; 0xac
     cd2:	f102 0301 	add.w	r3, r2, #1
     cd6:	f8c7 30ac 	str.w	r3, [r7, #172]	; 0xac
     cda:	7813      	ldrb	r3, [r2, #0]
     cdc:	f8c7 30a8 	str.w	r3, [r7, #168]	; 0xa8
     ce0:	f8d7 30a8 	ldr.w	r3, [r7, #168]	; 0xa8
     ce4:	2b2a      	cmp	r3, #42	; 0x2a
     ce6:	d10f      	bne.n	d08 <kprintf+0x320>
/home/qemu-sgx/devel/optee/optee_os/lib/libutils/ext/snprintk.c:329
     ce8:	f8d7 20d0 	ldr.w	r2, [r7, #208]	; 0xd0
     cec:	f102 0304 	add.w	r3, r2, #4
     cf0:	f8c7 30d0 	str.w	r3, [r7, #208]	; 0xd0
     cf4:	6813      	ldr	r3, [r2, #0]
     cf6:	f8c7 30a4 	str.w	r3, [r7, #164]	; 0xa4
/home/qemu-sgx/devel/optee/optee_os/lib/libutils/ext/snprintk.c:330
     cfa:	f8d7 30a4 	ldr.w	r3, [r7, #164]	; 0xa4
     cfe:	ea43 73e3 	orr.w	r3, r3, r3, asr #31
     d02:	f8c7 3090 	str.w	r3, [r7, #144]	; 0x90
/home/qemu-sgx/devel/optee/optee_os/lib/libutils/ext/snprintk.c:331
     d06:	e6e6      	b.n	ad6 <kprintf+0xee>
/home/qemu-sgx/devel/optee/optee_os/lib/libutils/ext/snprintk.c:333
     d08:	f04f 0300 	mov.w	r3, #0
     d0c:	f8c7 30a4 	str.w	r3, [r7, #164]	; 0xa4
/home/qemu-sgx/devel/optee/optee_os/lib/libutils/ext/snprintk.c:334
     d10:	e018      	b.n	d44 <kprintf+0x35c>
/home/qemu-sgx/devel/optee/optee_os/lib/libutils/ext/snprintk.c:335
     d12:	f8d7 20a4 	ldr.w	r2, [r7, #164]	; 0xa4
     d16:	4613      	mov	r3, r2
     d18:	ea4f 0383 	mov.w	r3, r3, lsl #2
     d1c:	4413      	add	r3, r2
     d1e:	ea4f 0343 	mov.w	r3, r3, lsl #1
     d22:	461a      	mov	r2, r3
     d24:	f8d7 30a8 	ldr.w	r3, [r7, #168]	; 0xa8
     d28:	f1a3 0330 	sub.w	r3, r3, #48	; 0x30
     d2c:	4413      	add	r3, r2
     d2e:	f8c7 30a4 	str.w	r3, [r7, #164]	; 0xa4
/home/qemu-sgx/devel/optee/optee_os/lib/libutils/ext/snprintk.c:336
     d32:	f8d7 20ac 	ldr.w	r2, [r7, #172]	; 0xac
     d36:	f102 0301 	add.w	r3, r2, #1
     d3a:	f8c7 30ac 	str.w	r3, [r7, #172]	; 0xac
     d3e:	7813      	ldrb	r3, [r2, #0]
     d40:	f8c7 30a8 	str.w	r3, [r7, #168]	; 0xa8
/home/qemu-sgx/devel/optee/optee_os/lib/libutils/ext/snprintk.c:334
     d44:	f8d7 30a8 	ldr.w	r3, [r7, #168]	; 0xa8
     d48:	f1a3 0330 	sub.w	r3, r3, #48	; 0x30
     d4c:	2b09      	cmp	r3, #9
     d4e:	d9e0      	bls.n	d12 <kprintf+0x32a>
/home/qemu-sgx/devel/optee/optee_os/lib/libutils/ext/snprintk.c:338
     d50:	f8d7 30a4 	ldr.w	r3, [r7, #164]	; 0xa4
     d54:	ea43 73e3 	orr.w	r3, r3, r3, asr #31
     d58:	f8c7 3090 	str.w	r3, [r7, #144]	; 0x90
/home/qemu-sgx/devel/optee/optee_os/lib/libutils/ext/snprintk.c:339
     d5c:	e6c4      	b.n	ae8 <kprintf+0x100>
/home/qemu-sgx/devel/optee/optee_os/lib/libutils/ext/snprintk.c:346
     d5e:	f8d7 309c 	ldr.w	r3, [r7, #156]	; 0x9c
     d62:	f443 6380 	orr.w	r3, r3, #1024	; 0x400
     d66:	f8c7 309c 	str.w	r3, [r7, #156]	; 0x9c
/home/qemu-sgx/devel/optee/optee_os/lib/libutils/ext/snprintk.c:347
     d6a:	e6b4      	b.n	ad6 <kprintf+0xee>
/home/qemu-sgx/devel/optee/optee_os/lib/libutils/ext/snprintk.c:350
     d6c:	f04f 0300 	mov.w	r3, #0
     d70:	f8c7 30a4 	str.w	r3, [r7, #164]	; 0xa4
/home/qemu-sgx/devel/optee/optee_os/lib/libutils/ext/snprintk.c:352 (discriminator 1)
     d74:	f8d7 20a4 	ldr.w	r2, [r7, #164]	; 0xa4
     d78:	4613      	mov	r3, r2
     d7a:	ea4f 0383 	mov.w	r3, r3, lsl #2
     d7e:	4413      	add	r3, r2
     d80:	ea4f 0343 	mov.w	r3, r3, lsl #1
     d84:	461a      	mov	r2, r3
     d86:	f8d7 30a8 	ldr.w	r3, [r7, #168]	; 0xa8
     d8a:	f1a3 0330 	sub.w	r3, r3, #48	; 0x30
     d8e:	4413      	add	r3, r2
     d90:	f8c7 30a4 	str.w	r3, [r7, #164]	; 0xa4
/home/qemu-sgx/devel/optee/optee_os/lib/libutils/ext/snprintk.c:353 (discriminator 1)
     d94:	f8d7 20ac 	ldr.w	r2, [r7, #172]	; 0xac
     d98:	f102 0301 	add.w	r3, r2, #1
     d9c:	f8c7 30ac 	str.w	r3, [r7, #172]	; 0xac
     da0:	7813      	ldrb	r3, [r2, #0]
     da2:	f8c7 30a8 	str.w	r3, [r7, #168]	; 0xa8
/home/qemu-sgx/devel/optee/optee_os/lib/libutils/ext/snprintk.c:354 (discriminator 1)
     da6:	f8d7 30a8 	ldr.w	r3, [r7, #168]	; 0xa8
     daa:	f1a3 0330 	sub.w	r3, r3, #48	; 0x30
     dae:	2b09      	cmp	r3, #9
     db0:	d9e0      	bls.n	d74 <kprintf+0x38c>
/home/qemu-sgx/devel/optee/optee_os/lib/libutils/ext/snprintk.c:355
     db2:	f8d7 30a4 	ldr.w	r3, [r7, #164]	; 0xa4
     db6:	f8c7 3094 	str.w	r3, [r7, #148]	; 0x94
/home/qemu-sgx/devel/optee/optee_os/lib/libutils/ext/snprintk.c:356
     dba:	e695      	b.n	ae8 <kprintf+0x100>
/home/qemu-sgx/devel/optee/optee_os/lib/libutils/ext/snprintk.c:358
     dbc:	f8d7 309c 	ldr.w	r3, [r7, #156]	; 0x9c
     dc0:	f043 0340 	orr.w	r3, r3, #64	; 0x40
     dc4:	f8c7 309c 	str.w	r3, [r7, #156]	; 0x9c
/home/qemu-sgx/devel/optee/optee_os/lib/libutils/ext/snprintk.c:359
     dc8:	e685      	b.n	ad6 <kprintf+0xee>
/home/qemu-sgx/devel/optee/optee_os/lib/libutils/ext/snprintk.c:361
     dca:	f8d7 309c 	ldr.w	r3, [r7, #156]	; 0x9c
     dce:	f043 0380 	orr.w	r3, r3, #128	; 0x80
     dd2:	f8c7 309c 	str.w	r3, [r7, #156]	; 0x9c
/home/qemu-sgx/devel/optee/optee_os/lib/libutils/ext/snprintk.c:362
     dd6:	e67e      	b.n	ad6 <kprintf+0xee>
/home/qemu-sgx/devel/optee/optee_os/lib/libutils/ext/snprintk.c:364
     dd8:	f8d7 30ac 	ldr.w	r3, [r7, #172]	; 0xac
     ddc:	781b      	ldrb	r3, [r3, #0]
     dde:	2b6c      	cmp	r3, #108	; 0x6c
     de0:	d10c      	bne.n	dfc <kprintf+0x414>
/home/qemu-sgx/devel/optee/optee_os/lib/libutils/ext/snprintk.c:365
     de2:	f8d7 30ac 	ldr.w	r3, [r7, #172]	; 0xac
     de6:	f103 0301 	add.w	r3, r3, #1
     dea:	f8c7 30ac 	str.w	r3, [r7, #172]	; 0xac
/home/qemu-sgx/devel/optee/optee_os/lib/libutils/ext/snprintk.c:366
     dee:	f8d7 309c 	ldr.w	r3, [r7, #156]	; 0x9c
     df2:	f043 0320 	orr.w	r3, r3, #32
     df6:	f8c7 309c 	str.w	r3, [r7, #156]	; 0x9c
     dfa:	e66c      	b.n	ad6 <kprintf+0xee>
/home/qemu-sgx/devel/optee/optee_os/lib/libutils/ext/snprintk.c:368
     dfc:	f8d7 309c 	ldr.w	r3, [r7, #156]	; 0x9c
     e00:	f043 0310 	orr.w	r3, r3, #16
     e04:	f8c7 309c 	str.w	r3, [r7, #156]	; 0x9c
/home/qemu-sgx/devel/optee/optee_os/lib/libutils/ext/snprintk.c:370
     e08:	e665      	b.n	ad6 <kprintf+0xee>
/home/qemu-sgx/devel/optee/optee_os/lib/libutils/ext/snprintk.c:372
     e0a:	f8d7 309c 	ldr.w	r3, [r7, #156]	; 0x9c
     e0e:	f043 0320 	orr.w	r3, r3, #32
     e12:	f8c7 309c 	str.w	r3, [r7, #156]	; 0x9c
/home/qemu-sgx/devel/optee/optee_os/lib/libutils/ext/snprintk.c:373
     e16:	e65e      	b.n	ad6 <kprintf+0xee>
/home/qemu-sgx/devel/optee/optee_os/lib/libutils/ext/snprintk.c:375
     e18:	f8d7 309c 	ldr.w	r3, [r7, #156]	; 0x9c
     e1c:	f443 7380 	orr.w	r3, r3, #256	; 0x100
     e20:	f8c7 309c 	str.w	r3, [r7, #156]	; 0x9c
/home/qemu-sgx/devel/optee/optee_os/lib/libutils/ext/snprintk.c:376
     e24:	e657      	b.n	ad6 <kprintf+0xee>
/home/qemu-sgx/devel/optee/optee_os/lib/libutils/ext/snprintk.c:378
     e26:	f8d7 309c 	ldr.w	r3, [r7, #156]	; 0x9c
     e2a:	f443 7300 	orr.w	r3, r3, #512	; 0x200
     e2e:	f8c7 309c 	str.w	r3, [r7, #156]	; 0x9c
/home/qemu-sgx/devel/optee/optee_os/lib/libutils/ext/snprintk.c:379
     e32:	e650      	b.n	ad6 <kprintf+0xee>
/home/qemu-sgx/devel/optee/optee_os/lib/libutils/ext/snprintk.c:381
     e34:	f8d7 20d0 	ldr.w	r2, [r7, #208]	; 0xd0
     e38:	f102 0304 	add.w	r3, r2, #4
     e3c:	f8c7 30d0 	str.w	r3, [r7, #208]	; 0xd0
     e40:	6812      	ldr	r2, [r2, #0]
     e42:	f107 033c 	add.w	r3, r7, #60	; 0x3c
     e46:	f8c7 30a0 	str.w	r3, [r7, #160]	; 0xa0
     e4a:	b2d3      	uxtb	r3, r2
     e4c:	f8d7 20a0 	ldr.w	r2, [r7, #160]	; 0xa0
     e50:	7013      	strb	r3, [r2, #0]
/home/qemu-sgx/devel/optee/optee_os/lib/libutils/ext/snprintk.c:382
     e52:	f04f 0301 	mov.w	r3, #1
     e56:	673b      	str	r3, [r7, #112]	; 0x70
/home/qemu-sgx/devel/optee/optee_os/lib/libutils/ext/snprintk.c:383
     e58:	f04f 0300 	mov.w	r3, #0
     e5c:	f887 308f 	strb.w	r3, [r7, #143]	; 0x8f
/home/qemu-sgx/devel/optee/optee_os/lib/libutils/ext/snprintk.c:384
     e60:	f000 bc55 	b.w	170e <kprintf+0xd26>
/home/qemu-sgx/devel/optee/optee_os/lib/libutils/ext/snprintk.c:386
     e64:	f8d7 309c 	ldr.w	r3, [r7, #156]	; 0x9c
     e68:	f043 0310 	orr.w	r3, r3, #16
     e6c:	f8c7 309c 	str.w	r3, [r7, #156]	; 0x9c
/home/qemu-sgx/devel/optee/optee_os/lib/libutils/ext/snprintk.c:390
     e70:	f8d7 309c 	ldr.w	r3, [r7, #156]	; 0x9c
     e74:	f003 0380 	and.w	r3, r3, #128	; 0x80
     e78:	2b00      	cmp	r3, #0
     e7a:	d00e      	beq.n	e9a <kprintf+0x4b2>
     e7c:	f8d7 30d0 	ldr.w	r3, [r7, #208]	; 0xd0
     e80:	f103 0307 	add.w	r3, r3, #7
     e84:	f023 0207 	bic.w	r2, r3, #7
     e88:	f102 0308 	add.w	r3, r2, #8
     e8c:	f8c7 30d0 	str.w	r3, [r7, #208]	; 0xd0
     e90:	e9d2 2300 	ldrd	r2, r3, [r2]
     e94:	e9c7 2308 	strd	r2, r3, [r7, #32]
     e98:	e069      	b.n	f6e <kprintf+0x586>
/home/qemu-sgx/devel/optee/optee_os/lib/libutils/ext/snprintk.c:390 (discriminator 2)
     e9a:	f8d7 309c 	ldr.w	r3, [r7, #156]	; 0x9c
     e9e:	f403 7380 	and.w	r3, r3, #256	; 0x100
     ea2:	2b00      	cmp	r3, #0
     ea4:	d00b      	beq.n	ebe <kprintf+0x4d6>
/home/qemu-sgx/devel/optee/optee_os/lib/libutils/ext/snprintk.c:390
     ea6:	f8d7 20d0 	ldr.w	r2, [r7, #208]	; 0xd0
     eaa:	f102 0304 	add.w	r3, r2, #4
     eae:	f8c7 30d0 	str.w	r3, [r7, #208]	; 0xd0
     eb2:	6813      	ldr	r3, [r2, #0]
     eb4:	ea4f 72e3 	mov.w	r2, r3, asr #31
     eb8:	623b      	str	r3, [r7, #32]
     eba:	627a      	str	r2, [r7, #36]	; 0x24
     ebc:	e057      	b.n	f6e <kprintf+0x586>
/home/qemu-sgx/devel/optee/optee_os/lib/libutils/ext/snprintk.c:390 (discriminator 5)
     ebe:	f8d7 309c 	ldr.w	r3, [r7, #156]	; 0x9c
     ec2:	f403 7300 	and.w	r3, r3, #512	; 0x200
     ec6:	2b00      	cmp	r3, #0
     ec8:	d00b      	beq.n	ee2 <kprintf+0x4fa>
/home/qemu-sgx/devel/optee/optee_os/lib/libutils/ext/snprintk.c:390
     eca:	f8d7 20d0 	ldr.w	r2, [r7, #208]	; 0xd0
     ece:	f102 0304 	add.w	r3, r2, #4
     ed2:	f8c7 30d0 	str.w	r3, [r7, #208]	; 0xd0
     ed6:	6813      	ldr	r3, [r2, #0]
     ed8:	ea4f 72e3 	mov.w	r2, r3, asr #31
     edc:	623b      	str	r3, [r7, #32]
     ede:	627a      	str	r2, [r7, #36]	; 0x24
     ee0:	e045      	b.n	f6e <kprintf+0x586>
/home/qemu-sgx/devel/optee/optee_os/lib/libutils/ext/snprintk.c:390 (discriminator 8)
     ee2:	f8d7 309c 	ldr.w	r3, [r7, #156]	; 0x9c
     ee6:	f003 0320 	and.w	r3, r3, #32
     eea:	2b00      	cmp	r3, #0
     eec:	d00e      	beq.n	f0c <kprintf+0x524>
/home/qemu-sgx/devel/optee/optee_os/lib/libutils/ext/snprintk.c:390
     eee:	f8d7 30d0 	ldr.w	r3, [r7, #208]	; 0xd0
     ef2:	f103 0307 	add.w	r3, r3, #7
     ef6:	f023 0207 	bic.w	r2, r3, #7
     efa:	f102 0308 	add.w	r3, r2, #8
     efe:	f8c7 30d0 	str.w	r3, [r7, #208]	; 0xd0
     f02:	e9d2 2300 	ldrd	r2, r3, [r2]
     f06:	e9c7 2308 	strd	r2, r3, [r7, #32]
     f0a:	e030      	b.n	f6e <kprintf+0x586>
/home/qemu-sgx/devel/optee/optee_os/lib/libutils/ext/snprintk.c:390 (discriminator 11)
     f0c:	f8d7 309c 	ldr.w	r3, [r7, #156]	; 0x9c
     f10:	f003 0310 	and.w	r3, r3, #16
     f14:	2b00      	cmp	r3, #0
     f16:	d00b      	beq.n	f30 <kprintf+0x548>
/home/qemu-sgx/devel/optee/optee_os/lib/libutils/ext/snprintk.c:390
     f18:	f8d7 20d0 	ldr.w	r2, [r7, #208]	; 0xd0
     f1c:	f102 0304 	add.w	r3, r2, #4
     f20:	f8c7 30d0 	str.w	r3, [r7, #208]	; 0xd0
     f24:	6813      	ldr	r3, [r2, #0]
     f26:	ea4f 72e3 	mov.w	r2, r3, asr #31
     f2a:	623b      	str	r3, [r7, #32]
     f2c:	627a      	str	r2, [r7, #36]	; 0x24
     f2e:	e01e      	b.n	f6e <kprintf+0x586>
/home/qemu-sgx/devel/optee/optee_os/lib/libutils/ext/snprintk.c:390 (discriminator 14)
     f30:	f8d7 309c 	ldr.w	r3, [r7, #156]	; 0x9c
     f34:	f003 0340 	and.w	r3, r3, #64	; 0x40
     f38:	2b00      	cmp	r3, #0
     f3a:	d00d      	beq.n	f58 <kprintf+0x570>
/home/qemu-sgx/devel/optee/optee_os/lib/libutils/ext/snprintk.c:390
     f3c:	f8d7 20d0 	ldr.w	r2, [r7, #208]	; 0xd0
     f40:	f102 0304 	add.w	r3, r2, #4
     f44:	f8c7 30d0 	str.w	r3, [r7, #208]	; 0xd0
     f48:	6813      	ldr	r3, [r2, #0]
     f4a:	b21b      	sxth	r3, r3
     f4c:	b21b      	sxth	r3, r3
     f4e:	ea4f 72e3 	mov.w	r2, r3, asr #31
     f52:	623b      	str	r3, [r7, #32]
     f54:	627a      	str	r2, [r7, #36]	; 0x24
     f56:	e00a      	b.n	f6e <kprintf+0x586>
     f58:	f8d7 20d0 	ldr.w	r2, [r7, #208]	; 0xd0
     f5c:	f102 0304 	add.w	r3, r2, #4
     f60:	f8c7 30d0 	str.w	r3, [r7, #208]	; 0xd0
     f64:	6813      	ldr	r3, [r2, #0]
     f66:	ea4f 72e3 	mov.w	r2, r3, asr #31
     f6a:	623b      	str	r3, [r7, #32]
     f6c:	627a      	str	r2, [r7, #36]	; 0x24
/home/qemu-sgx/devel/optee/optee_os/lib/libutils/ext/snprintk.c:390 (discriminator 24)
     f6e:	e9d7 2308 	ldrd	r2, r3, [r7, #32]
     f72:	e9c7 2320 	strd	r2, r3, [r7, #128]	; 0x80
/home/qemu-sgx/devel/optee/optee_os/lib/libutils/ext/snprintk.c:391 (discriminator 24)
     f76:	e9d7 2320 	ldrd	r2, r3, [r7, #128]	; 0x80
     f7a:	2b00      	cmp	r3, #0
     f7c:	da10      	bge.n	fa0 <kprintf+0x5b8>
/home/qemu-sgx/devel/optee/optee_os/lib/libutils/ext/snprintk.c:392
     f7e:	e9d7 2320 	ldrd	r2, r3, [r7, #128]	; 0x80
     f82:	f04f 0100 	mov.w	r1, #0
     f86:	4250      	negs	r0, r2
     f88:	60b8      	str	r0, [r7, #8]
     f8a:	eb61 0303 	sbc.w	r3, r1, r3
     f8e:	60fb      	str	r3, [r7, #12]
     f90:	e9d7 2302 	ldrd	r2, r3, [r7, #8]
     f94:	e9c7 2320 	strd	r2, r3, [r7, #128]	; 0x80
/home/qemu-sgx/devel/optee/optee_os/lib/libutils/ext/snprintk.c:393
     f98:	f04f 032d 	mov.w	r3, #45	; 0x2d
     f9c:	f887 308f 	strb.w	r3, [r7, #143]	; 0x8f
/home/qemu-sgx/devel/optee/optee_os/lib/libutils/ext/snprintk.c:395
     fa0:	f04f 0301 	mov.w	r3, #1
     fa4:	67fb      	str	r3, [r7, #124]	; 0x7c
/home/qemu-sgx/devel/optee/optee_os/lib/libutils/ext/snprintk.c:396
     fa6:	e2c4      	b.n	1532 <kprintf+0xb4a>
/home/qemu-sgx/devel/optee/optee_os/lib/libutils/ext/snprintk.c:398
     fa8:	f8d7 309c 	ldr.w	r3, [r7, #156]	; 0x9c
     fac:	f003 0380 	and.w	r3, r3, #128	; 0x80
     fb0:	2b00      	cmp	r3, #0
     fb2:	d012      	beq.n	fda <kprintf+0x5f2>
/home/qemu-sgx/devel/optee/optee_os/lib/libutils/ext/snprintk.c:399
     fb4:	f8d7 20d0 	ldr.w	r2, [r7, #208]	; 0xd0
     fb8:	f102 0304 	add.w	r3, r2, #4
     fbc:	f8c7 30d0 	str.w	r3, [r7, #208]	; 0xd0
     fc0:	6811      	ldr	r1, [r2, #0]
     fc2:	f8d7 3098 	ldr.w	r3, [r7, #152]	; 0x98
     fc6:	ea4f 72e3 	mov.w	r2, r3, asr #31
     fca:	61bb      	str	r3, [r7, #24]
     fcc:	61fa      	str	r2, [r7, #28]
     fce:	e9d7 2306 	ldrd	r2, r3, [r7, #24]
     fd2:	e9c1 2300 	strd	r2, r3, [r1]
/home/qemu-sgx/devel/optee/optee_os/lib/libutils/ext/snprintk.c:412
     fd6:	f000 bccf 	b.w	1978 <kprintf+0xf90>
/home/qemu-sgx/devel/optee/optee_os/lib/libutils/ext/snprintk.c:400
     fda:	f8d7 309c 	ldr.w	r3, [r7, #156]	; 0x9c
     fde:	f403 7380 	and.w	r3, r3, #256	; 0x100
     fe2:	2b00      	cmp	r3, #0
     fe4:	d00b      	beq.n	ffe <kprintf+0x616>
/home/qemu-sgx/devel/optee/optee_os/lib/libutils/ext/snprintk.c:401
     fe6:	f8d7 20d0 	ldr.w	r2, [r7, #208]	; 0xd0
     fea:	f102 0304 	add.w	r3, r2, #4
     fee:	f8c7 30d0 	str.w	r3, [r7, #208]	; 0xd0
     ff2:	6812      	ldr	r2, [r2, #0]
     ff4:	f8d7 3098 	ldr.w	r3, [r7, #152]	; 0x98
     ff8:	6013      	str	r3, [r2, #0]
/home/qemu-sgx/devel/optee/optee_os/lib/libutils/ext/snprintk.c:412
     ffa:	f000 bcbd 	b.w	1978 <kprintf+0xf90>
/home/qemu-sgx/devel/optee/optee_os/lib/libutils/ext/snprintk.c:402
     ffe:	f8d7 309c 	ldr.w	r3, [r7, #156]	; 0x9c
    1002:	f403 7300 	and.w	r3, r3, #512	; 0x200
    1006:	2b00      	cmp	r3, #0
    1008:	d00b      	beq.n	1022 <kprintf+0x63a>
/home/qemu-sgx/devel/optee/optee_os/lib/libutils/ext/snprintk.c:403
    100a:	f8d7 20d0 	ldr.w	r2, [r7, #208]	; 0xd0
    100e:	f102 0304 	add.w	r3, r2, #4
    1012:	f8c7 30d0 	str.w	r3, [r7, #208]	; 0xd0
    1016:	6812      	ldr	r2, [r2, #0]
    1018:	f8d7 3098 	ldr.w	r3, [r7, #152]	; 0x98
    101c:	6013      	str	r3, [r2, #0]
/home/qemu-sgx/devel/optee/optee_os/lib/libutils/ext/snprintk.c:412
    101e:	f000 bcab 	b.w	1978 <kprintf+0xf90>
/home/qemu-sgx/devel/optee/optee_os/lib/libutils/ext/snprintk.c:404
    1022:	f8d7 309c 	ldr.w	r3, [r7, #156]	; 0x9c
    1026:	f003 0320 	and.w	r3, r3, #32
    102a:	2b00      	cmp	r3, #0
    102c:	d012      	beq.n	1054 <kprintf+0x66c>
/home/qemu-sgx/devel/optee/optee_os/lib/libutils/ext/snprintk.c:405
    102e:	f8d7 20d0 	ldr.w	r2, [r7, #208]	; 0xd0
    1032:	f102 0304 	add.w	r3, r2, #4
    1036:	f8c7 30d0 	str.w	r3, [r7, #208]	; 0xd0
    103a:	6811      	ldr	r1, [r2, #0]
    103c:	f8d7 3098 	ldr.w	r3, [r7, #152]	; 0x98
    1040:	ea4f 72e3 	mov.w	r2, r3, asr #31
    1044:	613b      	str	r3, [r7, #16]
    1046:	617a      	str	r2, [r7, #20]
    1048:	e9d7 2304 	ldrd	r2, r3, [r7, #16]
    104c:	e9c1 2300 	strd	r2, r3, [r1]
/home/qemu-sgx/devel/optee/optee_os/lib/libutils/ext/snprintk.c:412
    1050:	f000 bc92 	b.w	1978 <kprintf+0xf90>
/home/qemu-sgx/devel/optee/optee_os/lib/libutils/ext/snprintk.c:406
    1054:	f8d7 309c 	ldr.w	r3, [r7, #156]	; 0x9c
    1058:	f003 0310 	and.w	r3, r3, #16
    105c:	2b00      	cmp	r3, #0
    105e:	d00b      	beq.n	1078 <kprintf+0x690>
/home/qemu-sgx/devel/optee/optee_os/lib/libutils/ext/snprintk.c:407
    1060:	f8d7 20d0 	ldr.w	r2, [r7, #208]	; 0xd0
    1064:	f102 0304 	add.w	r3, r2, #4
    1068:	f8c7 30d0 	str.w	r3, [r7, #208]	; 0xd0
    106c:	6812      	ldr	r2, [r2, #0]
    106e:	f8d7 3098 	ldr.w	r3, [r7, #152]	; 0x98
    1072:	6013      	str	r3, [r2, #0]
/home/qemu-sgx/devel/optee/optee_os/lib/libutils/ext/snprintk.c:412
    1074:	f000 bc80 	b.w	1978 <kprintf+0xf90>
/home/qemu-sgx/devel/optee/optee_os/lib/libutils/ext/snprintk.c:408
    1078:	f8d7 309c 	ldr.w	r3, [r7, #156]	; 0x9c
    107c:	f003 0340 	and.w	r3, r3, #64	; 0x40
    1080:	2b00      	cmp	r3, #0
    1082:	d00c      	beq.n	109e <kprintf+0x6b6>
/home/qemu-sgx/devel/optee/optee_os/lib/libutils/ext/snprintk.c:409
    1084:	f8d7 20d0 	ldr.w	r2, [r7, #208]	; 0xd0
    1088:	f102 0304 	add.w	r3, r2, #4
    108c:	f8c7 30d0 	str.w	r3, [r7, #208]	; 0xd0
    1090:	6812      	ldr	r2, [r2, #0]
    1092:	f8d7 3098 	ldr.w	r3, [r7, #152]	; 0x98
    1096:	b21b      	sxth	r3, r3
    1098:	8013      	strh	r3, [r2, #0]
/home/qemu-sgx/devel/optee/optee_os/lib/libutils/ext/snprintk.c:412
    109a:	f000 bc6d 	b.w	1978 <kprintf+0xf90>
/home/qemu-sgx/devel/optee/optee_os/lib/libutils/ext/snprintk.c:411
    109e:	f8d7 20d0 	ldr.w	r2, [r7, #208]	; 0xd0
    10a2:	f102 0304 	add.w	r3, r2, #4
    10a6:	f8c7 30d0 	str.w	r3, [r7, #208]	; 0xd0
    10aa:	6812      	ldr	r2, [r2, #0]
    10ac:	f8d7 3098 	ldr.w	r3, [r7, #152]	; 0x98
    10b0:	6013      	str	r3, [r2, #0]
/home/qemu-sgx/devel/optee/optee_os/lib/libutils/ext/snprintk.c:412
    10b2:	f000 bc61 	b.w	1978 <kprintf+0xf90>
/home/qemu-sgx/devel/optee/optee_os/lib/libutils/ext/snprintk.c:414
    10b6:	f8d7 309c 	ldr.w	r3, [r7, #156]	; 0x9c
    10ba:	f043 0310 	orr.w	r3, r3, #16
    10be:	f8c7 309c 	str.w	r3, [r7, #156]	; 0x9c
/home/qemu-sgx/devel/optee/optee_os/lib/libutils/ext/snprintk.c:417
    10c2:	f8d7 309c 	ldr.w	r3, [r7, #156]	; 0x9c
    10c6:	f003 0380 	and.w	r3, r3, #128	; 0x80
    10ca:	2b00      	cmp	r3, #0
    10cc:	d00c      	beq.n	10e8 <kprintf+0x700>
    10ce:	f8d7 30d0 	ldr.w	r3, [r7, #208]	; 0xd0
    10d2:	f103 0307 	add.w	r3, r3, #7
    10d6:	f023 0207 	bic.w	r2, r3, #7
    10da:	f102 0308 	add.w	r3, r2, #8
    10de:	f8c7 30d0 	str.w	r3, [r7, #208]	; 0xd0
    10e2:	e9d2 4500 	ldrd	r4, r5, [r2]
    10e6:	e067      	b.n	11b8 <kprintf+0x7d0>
/home/qemu-sgx/devel/optee/optee_os/lib/libutils/ext/snprintk.c:417 (discriminator 2)
    10e8:	f8d7 309c 	ldr.w	r3, [r7, #156]	; 0x9c
    10ec:	f403 7380 	and.w	r3, r3, #256	; 0x100
    10f0:	2b00      	cmp	r3, #0
    10f2:	d00b      	beq.n	110c <kprintf+0x724>
/home/qemu-sgx/devel/optee/optee_os/lib/libutils/ext/snprintk.c:417
    10f4:	f8d7 20d0 	ldr.w	r2, [r7, #208]	; 0xd0
    10f8:	f102 0304 	add.w	r3, r2, #4
    10fc:	f8c7 30d0 	str.w	r3, [r7, #208]	; 0xd0
    1100:	6813      	ldr	r3, [r2, #0]
    1102:	f04f 0200 	mov.w	r2, #0
    1106:	461c      	mov	r4, r3
    1108:	4615      	mov	r5, r2
    110a:	e055      	b.n	11b8 <kprintf+0x7d0>
/home/qemu-sgx/devel/optee/optee_os/lib/libutils/ext/snprintk.c:417 (discriminator 5)
    110c:	f8d7 309c 	ldr.w	r3, [r7, #156]	; 0x9c
    1110:	f403 7300 	and.w	r3, r3, #512	; 0x200
    1114:	2b00      	cmp	r3, #0
    1116:	d00b      	beq.n	1130 <kprintf+0x748>
/home/qemu-sgx/devel/optee/optee_os/lib/libutils/ext/snprintk.c:417
    1118:	f8d7 20d0 	ldr.w	r2, [r7, #208]	; 0xd0
    111c:	f102 0304 	add.w	r3, r2, #4
    1120:	f8c7 30d0 	str.w	r3, [r7, #208]	; 0xd0
    1124:	6813      	ldr	r3, [r2, #0]
    1126:	f04f 0200 	mov.w	r2, #0
    112a:	461c      	mov	r4, r3
    112c:	4615      	mov	r5, r2
    112e:	e043      	b.n	11b8 <kprintf+0x7d0>
/home/qemu-sgx/devel/optee/optee_os/lib/libutils/ext/snprintk.c:417 (discriminator 8)
    1130:	f8d7 309c 	ldr.w	r3, [r7, #156]	; 0x9c
    1134:	f003 0320 	and.w	r3, r3, #32
    1138:	2b00      	cmp	r3, #0
    113a:	d00c      	beq.n	1156 <kprintf+0x76e>
/home/qemu-sgx/devel/optee/optee_os/lib/libutils/ext/snprintk.c:417
    113c:	f8d7 30d0 	ldr.w	r3, [r7, #208]	; 0xd0
    1140:	f103 0307 	add.w	r3, r3, #7
    1144:	f023 0207 	bic.w	r2, r3, #7
    1148:	f102 0308 	add.w	r3, r2, #8
    114c:	f8c7 30d0 	str.w	r3, [r7, #208]	; 0xd0
    1150:	e9d2 4500 	ldrd	r4, r5, [r2]
    1154:	e030      	b.n	11b8 <kprintf+0x7d0>
/home/qemu-sgx/devel/optee/optee_os/lib/libutils/ext/snprintk.c:417 (discriminator 11)
    1156:	f8d7 309c 	ldr.w	r3, [r7, #156]	; 0x9c
    115a:	f003 0310 	and.w	r3, r3, #16
    115e:	2b00      	cmp	r3, #0
    1160:	d00b      	beq.n	117a <kprintf+0x792>
/home/qemu-sgx/devel/optee/optee_os/lib/libutils/ext/snprintk.c:417
    1162:	f8d7 20d0 	ldr.w	r2, [r7, #208]	; 0xd0
    1166:	f102 0304 	add.w	r3, r2, #4
    116a:	f8c7 30d0 	str.w	r3, [r7, #208]	; 0xd0
    116e:	6813      	ldr	r3, [r2, #0]
    1170:	f04f 0200 	mov.w	r2, #0
    1174:	461c      	mov	r4, r3
    1176:	4615      	mov	r5, r2
    1178:	e01e      	b.n	11b8 <kprintf+0x7d0>
/home/qemu-sgx/devel/optee/optee_os/lib/libutils/ext/snprintk.c:417 (discriminator 14)
    117a:	f8d7 309c 	ldr.w	r3, [r7, #156]	; 0x9c
    117e:	f003 0340 	and.w	r3, r3, #64	; 0x40
    1182:	2b00      	cmp	r3, #0
    1184:	d00d      	beq.n	11a2 <kprintf+0x7ba>
/home/qemu-sgx/devel/optee/optee_os/lib/libutils/ext/snprintk.c:417
    1186:	f8d7 20d0 	ldr.w	r2, [r7, #208]	; 0xd0
    118a:	f102 0304 	add.w	r3, r2, #4
    118e:	f8c7 30d0 	str.w	r3, [r7, #208]	; 0xd0
    1192:	6813      	ldr	r3, [r2, #0]
    1194:	b29b      	uxth	r3, r3
    1196:	b29b      	uxth	r3, r3
    1198:	f04f 0200 	mov.w	r2, #0
    119c:	461c      	mov	r4, r3
    119e:	4615      	mov	r5, r2
    11a0:	e00a      	b.n	11b8 <kprintf+0x7d0>
    11a2:	f8d7 20d0 	ldr.w	r2, [r7, #208]	; 0xd0
    11a6:	f102 0304 	add.w	r3, r2, #4
    11aa:	f8c7 30d0 	str.w	r3, [r7, #208]	; 0xd0
    11ae:	6813      	ldr	r3, [r2, #0]
    11b0:	f04f 0200 	mov.w	r2, #0
    11b4:	461c      	mov	r4, r3
    11b6:	4615      	mov	r5, r2
/home/qemu-sgx/devel/optee/optee_os/lib/libutils/ext/snprintk.c:417 (discriminator 24)
    11b8:	e9c7 4520 	strd	r4, r5, [r7, #128]	; 0x80
/home/qemu-sgx/devel/optee/optee_os/lib/libutils/ext/snprintk.c:418 (discriminator 24)
    11bc:	f04f 0300 	mov.w	r3, #0
    11c0:	67fb      	str	r3, [r7, #124]	; 0x7c
/home/qemu-sgx/devel/optee/optee_os/lib/libutils/ext/snprintk.c:419 (discriminator 24)
    11c2:	e1b2      	b.n	152a <kprintf+0xb42>
/home/qemu-sgx/devel/optee/optee_os/lib/libutils/ext/snprintk.c:421
    11c4:	f897 30d4 	ldrb.w	r3, [r7, #212]	; 0xd4
    11c8:	2b00      	cmp	r3, #0
    11ca:	d029      	beq.n	1220 <kprintf+0x838>
/home/qemu-sgx/devel/optee/optee_os/lib/libutils/ext/snprintk.c:421 (discriminator 1)
    11cc:	f8d7 30ac 	ldr.w	r3, [r7, #172]	; 0xac
    11d0:	781b      	ldrb	r3, [r3, #0]
    11d2:	2b55      	cmp	r3, #85	; 0x55
    11d4:	d124      	bne.n	1220 <kprintf+0x838>
/home/qemu-sgx/devel/optee/optee_os/lib/libutils/ext/snprintk.c:421 (discriminator 2)
    11d6:	f8d7 30ac 	ldr.w	r3, [r7, #172]	; 0xac
    11da:	f103 0301 	add.w	r3, r3, #1
    11de:	781b      	ldrb	r3, [r3, #0]
    11e0:	2b6c      	cmp	r3, #108	; 0x6c
    11e2:	d11d      	bne.n	1220 <kprintf+0x838>
/home/qemu-sgx/devel/optee/optee_os/lib/libutils/ext/snprintk.c:426
    11e4:	f8d7 30ac 	ldr.w	r3, [r7, #172]	; 0xac
    11e8:	f103 0302 	add.w	r3, r3, #2
    11ec:	f8c7 30ac 	str.w	r3, [r7, #172]	; 0xac
/home/qemu-sgx/devel/optee/optee_os/lib/libutils/ext/snprintk.c:427
    11f0:	f8d7 20d0 	ldr.w	r2, [r7, #208]	; 0xd0
    11f4:	f102 0304 	add.w	r3, r2, #4
    11f8:	f8c7 30d0 	str.w	r3, [r7, #208]	; 0xd0
    11fc:	6813      	ldr	r3, [r2, #0]
    11fe:	f107 003c 	add.w	r0, r7, #60	; 0x3c
    1202:	461a      	mov	r2, r3
    1204:	f04f 0125 	mov.w	r1, #37	; 0x25
    1208:	f7ff fb9f 	bl	94a <uuid2str>
    120c:	6738      	str	r0, [r7, #112]	; 0x70
/home/qemu-sgx/devel/optee/optee_os/lib/libutils/ext/snprintk.c:429
    120e:	f107 033c 	add.w	r3, r7, #60	; 0x3c
    1212:	f8c7 30a0 	str.w	r3, [r7, #160]	; 0xa0
/home/qemu-sgx/devel/optee/optee_os/lib/libutils/ext/snprintk.c:430
    1216:	f04f 0300 	mov.w	r3, #0
    121a:	f887 308f 	strb.w	r3, [r7, #143]	; 0x8f
/home/qemu-sgx/devel/optee/optee_os/lib/libutils/ext/snprintk.c:431
    121e:	e276      	b.n	170e <kprintf+0xd26>
/home/qemu-sgx/devel/optee/optee_os/lib/libutils/ext/snprintk.c:441
    1220:	f8d7 20d0 	ldr.w	r2, [r7, #208]	; 0xd0
    1224:	f102 0304 	add.w	r3, r2, #4
    1228:	f8c7 30d0 	str.w	r3, [r7, #208]	; 0xd0
    122c:	6813      	ldr	r3, [r2, #0]
    122e:	461a      	mov	r2, r3
    1230:	f04f 0300 	mov.w	r3, #0
    1234:	603a      	str	r2, [r7, #0]
    1236:	607b      	str	r3, [r7, #4]
    1238:	e9d7 2300 	ldrd	r2, r3, [r7]
    123c:	e9c7 2320 	strd	r2, r3, [r7, #128]	; 0x80
/home/qemu-sgx/devel/optee/optee_os/lib/libutils/ext/snprintk.c:442
    1240:	f04f 0302 	mov.w	r3, #2
    1244:	67fb      	str	r3, [r7, #124]	; 0x7c
/home/qemu-sgx/devel/optee/optee_os/lib/libutils/ext/snprintk.c:443
    1246:	f8df 376c 	ldr.w	r3, [pc, #1900]	; 19b4 <kprintf+0xfcc>
    124a:	447b      	add	r3, pc
    124c:	66fb      	str	r3, [r7, #108]	; 0x6c
/home/qemu-sgx/devel/optee/optee_os/lib/libutils/ext/snprintk.c:444
    124e:	f8d7 309c 	ldr.w	r3, [r7, #156]	; 0x9c
    1252:	f043 0302 	orr.w	r3, r3, #2
    1256:	f8c7 309c 	str.w	r3, [r7, #156]	; 0x9c
/home/qemu-sgx/devel/optee/optee_os/lib/libutils/ext/snprintk.c:445
    125a:	f04f 0378 	mov.w	r3, #120	; 0x78
    125e:	f8c7 30a8 	str.w	r3, [r7, #168]	; 0xa8
/home/qemu-sgx/devel/optee/optee_os/lib/libutils/ext/snprintk.c:446
    1262:	e162      	b.n	152a <kprintf+0xb42>
/home/qemu-sgx/devel/optee/optee_os/lib/libutils/ext/snprintk.c:448
    1264:	f8d7 20d0 	ldr.w	r2, [r7, #208]	; 0xd0
    1268:	f102 0304 	add.w	r3, r2, #4
    126c:	f8c7 30d0 	str.w	r3, [r7, #208]	; 0xd0
    1270:	6813      	ldr	r3, [r2, #0]
    1272:	f8c7 30a0 	str.w	r3, [r7, #160]	; 0xa0
    1276:	f8d7 30a0 	ldr.w	r3, [r7, #160]	; 0xa0
    127a:	2b00      	cmp	r3, #0
    127c:	d104      	bne.n	1288 <kprintf+0x8a0>
/home/qemu-sgx/devel/optee/optee_os/lib/libutils/ext/snprintk.c:450
    127e:	f8df 3738 	ldr.w	r3, [pc, #1848]	; 19b8 <kprintf+0xfd0>
    1282:	447b      	add	r3, pc
    1284:	f8c7 30a0 	str.w	r3, [r7, #160]	; 0xa0
/home/qemu-sgx/devel/optee/optee_os/lib/libutils/ext/snprintk.c:451
    1288:	f8d7 3090 	ldr.w	r3, [r7, #144]	; 0x90
    128c:	2b00      	cmp	r3, #0
    128e:	db1f      	blt.n	12d0 <kprintf+0x8e8>
/home/qemu-sgx/devel/optee/optee_os/lib/libutils/ext/snprintk.c:457
    1290:	f8d7 3090 	ldr.w	r3, [r7, #144]	; 0x90
    1294:	461a      	mov	r2, r3
    1296:	f04f 0100 	mov.w	r1, #0
    129a:	f8d7 00a0 	ldr.w	r0, [r7, #160]	; 0xa0
    129e:	f010 fd2d 	bl	11cfc <memchr>
    12a2:	6678      	str	r0, [r7, #100]	; 0x64
/home/qemu-sgx/devel/optee/optee_os/lib/libutils/ext/snprintk.c:459
    12a4:	6e7b      	ldr	r3, [r7, #100]	; 0x64
    12a6:	2b00      	cmp	r3, #0
    12a8:	d00e      	beq.n	12c8 <kprintf+0x8e0>
/home/qemu-sgx/devel/optee/optee_os/lib/libutils/ext/snprintk.c:460
    12aa:	6e7a      	ldr	r2, [r7, #100]	; 0x64
    12ac:	f8d7 30a0 	ldr.w	r3, [r7, #160]	; 0xa0
    12b0:	eba2 0303 	sub.w	r3, r2, r3
    12b4:	673b      	str	r3, [r7, #112]	; 0x70
/home/qemu-sgx/devel/optee/optee_os/lib/libutils/ext/snprintk.c:461
    12b6:	6f3a      	ldr	r2, [r7, #112]	; 0x70
    12b8:	f8d7 3090 	ldr.w	r3, [r7, #144]	; 0x90
    12bc:	429a      	cmp	r2, r3
    12be:	dd0d      	ble.n	12dc <kprintf+0x8f4>
/home/qemu-sgx/devel/optee/optee_os/lib/libutils/ext/snprintk.c:462
    12c0:	f8d7 3090 	ldr.w	r3, [r7, #144]	; 0x90
    12c4:	673b      	str	r3, [r7, #112]	; 0x70
    12c6:	e009      	b.n	12dc <kprintf+0x8f4>
/home/qemu-sgx/devel/optee/optee_os/lib/libutils/ext/snprintk.c:464
    12c8:	f8d7 3090 	ldr.w	r3, [r7, #144]	; 0x90
    12cc:	673b      	str	r3, [r7, #112]	; 0x70
    12ce:	e005      	b.n	12dc <kprintf+0x8f4>
/home/qemu-sgx/devel/optee/optee_os/lib/libutils/ext/snprintk.c:466
    12d0:	f8d7 00a0 	ldr.w	r0, [r7, #160]	; 0xa0
    12d4:	f010 fd9c 	bl	11e10 <strlen>
    12d8:	4603      	mov	r3, r0
    12da:	673b      	str	r3, [r7, #112]	; 0x70
/home/qemu-sgx/devel/optee/optee_os/lib/libutils/ext/snprintk.c:467
    12dc:	f04f 0300 	mov.w	r3, #0
    12e0:	f887 308f 	strb.w	r3, [r7, #143]	; 0x8f
/home/qemu-sgx/devel/optee/optee_os/lib/libutils/ext/snprintk.c:468
    12e4:	e213      	b.n	170e <kprintf+0xd26>
/home/qemu-sgx/devel/optee/optee_os/lib/libutils/ext/snprintk.c:470
    12e6:	f8d7 309c 	ldr.w	r3, [r7, #156]	; 0x9c
    12ea:	f043 0310 	orr.w	r3, r3, #16
    12ee:	f8c7 309c 	str.w	r3, [r7, #156]	; 0x9c
/home/qemu-sgx/devel/optee/optee_os/lib/libutils/ext/snprintk.c:473
    12f2:	f8d7 309c 	ldr.w	r3, [r7, #156]	; 0x9c
    12f6:	f003 0380 	and.w	r3, r3, #128	; 0x80
    12fa:	2b00      	cmp	r3, #0
    12fc:	d00c      	beq.n	1318 <kprintf+0x930>
    12fe:	f8d7 30d0 	ldr.w	r3, [r7, #208]	; 0xd0
    1302:	f103 0307 	add.w	r3, r3, #7
    1306:	f023 0207 	bic.w	r2, r3, #7
    130a:	f102 0308 	add.w	r3, r2, #8
    130e:	f8c7 30d0 	str.w	r3, [r7, #208]	; 0xd0
    1312:	e9d2 8900 	ldrd	r8, r9, [r2]
    1316:	e067      	b.n	13e8 <kprintf+0xa00>
/home/qemu-sgx/devel/optee/optee_os/lib/libutils/ext/snprintk.c:473 (discriminator 2)
    1318:	f8d7 309c 	ldr.w	r3, [r7, #156]	; 0x9c
    131c:	f403 7380 	and.w	r3, r3, #256	; 0x100
    1320:	2b00      	cmp	r3, #0
    1322:	d00b      	beq.n	133c <kprintf+0x954>
/home/qemu-sgx/devel/optee/optee_os/lib/libutils/ext/snprintk.c:473
    1324:	f8d7 20d0 	ldr.w	r2, [r7, #208]	; 0xd0
    1328:	f102 0304 	add.w	r3, r2, #4
    132c:	f8c7 30d0 	str.w	r3, [r7, #208]	; 0xd0
    1330:	6813      	ldr	r3, [r2, #0]
    1332:	f04f 0200 	mov.w	r2, #0
    1336:	4698      	mov	r8, r3
    1338:	4691      	mov	r9, r2
    133a:	e055      	b.n	13e8 <kprintf+0xa00>
/home/qemu-sgx/devel/optee/optee_os/lib/libutils/ext/snprintk.c:473 (discriminator 5)
    133c:	f8d7 309c 	ldr.w	r3, [r7, #156]	; 0x9c
    1340:	f403 7300 	and.w	r3, r3, #512	; 0x200
    1344:	2b00      	cmp	r3, #0
    1346:	d00b      	beq.n	1360 <kprintf+0x978>
/home/qemu-sgx/devel/optee/optee_os/lib/libutils/ext/snprintk.c:473
    1348:	f8d7 20d0 	ldr.w	r2, [r7, #208]	; 0xd0
    134c:	f102 0304 	add.w	r3, r2, #4
    1350:	f8c7 30d0 	str.w	r3, [r7, #208]	; 0xd0
    1354:	6813      	ldr	r3, [r2, #0]
    1356:	f04f 0200 	mov.w	r2, #0
    135a:	4698      	mov	r8, r3
    135c:	4691      	mov	r9, r2
    135e:	e043      	b.n	13e8 <kprintf+0xa00>
/home/qemu-sgx/devel/optee/optee_os/lib/libutils/ext/snprintk.c:473 (discriminator 8)
    1360:	f8d7 309c 	ldr.w	r3, [r7, #156]	; 0x9c
    1364:	f003 0320 	and.w	r3, r3, #32
    1368:	2b00      	cmp	r3, #0
    136a:	d00c      	beq.n	1386 <kprintf+0x99e>
/home/qemu-sgx/devel/optee/optee_os/lib/libutils/ext/snprintk.c:473
    136c:	f8d7 30d0 	ldr.w	r3, [r7, #208]	; 0xd0
    1370:	f103 0307 	add.w	r3, r3, #7
    1374:	f023 0207 	bic.w	r2, r3, #7
    1378:	f102 0308 	add.w	r3, r2, #8
    137c:	f8c7 30d0 	str.w	r3, [r7, #208]	; 0xd0
    1380:	e9d2 8900 	ldrd	r8, r9, [r2]
    1384:	e030      	b.n	13e8 <kprintf+0xa00>
/home/qemu-sgx/devel/optee/optee_os/lib/libutils/ext/snprintk.c:473 (discriminator 11)
    1386:	f8d7 309c 	ldr.w	r3, [r7, #156]	; 0x9c
    138a:	f003 0310 	and.w	r3, r3, #16
    138e:	2b00      	cmp	r3, #0
    1390:	d00b      	beq.n	13aa <kprintf+0x9c2>
/home/qemu-sgx/devel/optee/optee_os/lib/libutils/ext/snprintk.c:473
    1392:	f8d7 20d0 	ldr.w	r2, [r7, #208]	; 0xd0
    1396:	f102 0304 	add.w	r3, r2, #4
    139a:	f8c7 30d0 	str.w	r3, [r7, #208]	; 0xd0
    139e:	6813      	ldr	r3, [r2, #0]
    13a0:	f04f 0200 	mov.w	r2, #0
    13a4:	4698      	mov	r8, r3
    13a6:	4691      	mov	r9, r2
    13a8:	e01e      	b.n	13e8 <kprintf+0xa00>
/home/qemu-sgx/devel/optee/optee_os/lib/libutils/ext/snprintk.c:473 (discriminator 14)
    13aa:	f8d7 309c 	ldr.w	r3, [r7, #156]	; 0x9c
    13ae:	f003 0340 	and.w	r3, r3, #64	; 0x40
    13b2:	2b00      	cmp	r3, #0
    13b4:	d00d      	beq.n	13d2 <kprintf+0x9ea>
/home/qemu-sgx/devel/optee/optee_os/lib/libutils/ext/snprintk.c:473
    13b6:	f8d7 20d0 	ldr.w	r2, [r7, #208]	; 0xd0
    13ba:	f102 0304 	add.w	r3, r2, #4
    13be:	f8c7 30d0 	str.w	r3, [r7, #208]	; 0xd0
    13c2:	6813      	ldr	r3, [r2, #0]
    13c4:	b29b      	uxth	r3, r3
    13c6:	b29b      	uxth	r3, r3
    13c8:	f04f 0200 	mov.w	r2, #0
    13cc:	4698      	mov	r8, r3
    13ce:	4691      	mov	r9, r2
    13d0:	e00a      	b.n	13e8 <kprintf+0xa00>
    13d2:	f8d7 20d0 	ldr.w	r2, [r7, #208]	; 0xd0
    13d6:	f102 0304 	add.w	r3, r2, #4
    13da:	f8c7 30d0 	str.w	r3, [r7, #208]	; 0xd0
    13de:	6813      	ldr	r3, [r2, #0]
    13e0:	f04f 0200 	mov.w	r2, #0
    13e4:	4698      	mov	r8, r3
    13e6:	4691      	mov	r9, r2
/home/qemu-sgx/devel/optee/optee_os/lib/libutils/ext/snprintk.c:473 (discriminator 24)
    13e8:	e9c7 8920 	strd	r8, r9, [r7, #128]	; 0x80
/home/qemu-sgx/devel/optee/optee_os/lib/libutils/ext/snprintk.c:474 (discriminator 24)
    13ec:	f04f 0301 	mov.w	r3, #1
    13f0:	67fb      	str	r3, [r7, #124]	; 0x7c
/home/qemu-sgx/devel/optee/optee_os/lib/libutils/ext/snprintk.c:475 (discriminator 24)
    13f2:	e09a      	b.n	152a <kprintf+0xb42>
/home/qemu-sgx/devel/optee/optee_os/lib/libutils/ext/snprintk.c:477
    13f4:	f8df 35c4 	ldr.w	r3, [pc, #1476]	; 19bc <kprintf+0xfd4>
    13f8:	447b      	add	r3, pc
    13fa:	66fb      	str	r3, [r7, #108]	; 0x6c
/home/qemu-sgx/devel/optee/optee_os/lib/libutils/ext/snprintk.c:478
    13fc:	e003      	b.n	1406 <kprintf+0xa1e>
/home/qemu-sgx/devel/optee/optee_os/lib/libutils/ext/snprintk.c:480
    13fe:	f8df 35c0 	ldr.w	r3, [pc, #1472]	; 19c0 <kprintf+0xfd8>
    1402:	447b      	add	r3, pc
    1404:	66fb      	str	r3, [r7, #108]	; 0x6c
/home/qemu-sgx/devel/optee/optee_os/lib/libutils/ext/snprintk.c:481
    1406:	f8d7 309c 	ldr.w	r3, [r7, #156]	; 0x9c
    140a:	f003 0380 	and.w	r3, r3, #128	; 0x80
    140e:	2b00      	cmp	r3, #0
    1410:	d00c      	beq.n	142c <kprintf+0xa44>
    1412:	f8d7 30d0 	ldr.w	r3, [r7, #208]	; 0xd0
    1416:	f103 0307 	add.w	r3, r3, #7
    141a:	f023 0207 	bic.w	r2, r3, #7
    141e:	f102 0308 	add.w	r3, r2, #8
    1422:	f8c7 30d0 	str.w	r3, [r7, #208]	; 0xd0
    1426:	e9d2 ab00 	ldrd	sl, fp, [r2]
    142a:	e067      	b.n	14fc <kprintf+0xb14>
/home/qemu-sgx/devel/optee/optee_os/lib/libutils/ext/snprintk.c:481 (discriminator 2)
    142c:	f8d7 309c 	ldr.w	r3, [r7, #156]	; 0x9c
    1430:	f403 7380 	and.w	r3, r3, #256	; 0x100
    1434:	2b00      	cmp	r3, #0
    1436:	d00b      	beq.n	1450 <kprintf+0xa68>
/home/qemu-sgx/devel/optee/optee_os/lib/libutils/ext/snprintk.c:481
    1438:	f8d7 20d0 	ldr.w	r2, [r7, #208]	; 0xd0
    143c:	f102 0304 	add.w	r3, r2, #4
    1440:	f8c7 30d0 	str.w	r3, [r7, #208]	; 0xd0
    1444:	6813      	ldr	r3, [r2, #0]
    1446:	f04f 0200 	mov.w	r2, #0
    144a:	469a      	mov	sl, r3
    144c:	4693      	mov	fp, r2
    144e:	e055      	b.n	14fc <kprintf+0xb14>
/home/qemu-sgx/devel/optee/optee_os/lib/libutils/ext/snprintk.c:481 (discriminator 5)
    1450:	f8d7 309c 	ldr.w	r3, [r7, #156]	; 0x9c
    1454:	f403 7300 	and.w	r3, r3, #512	; 0x200
    1458:	2b00      	cmp	r3, #0
    145a:	d00b      	beq.n	1474 <kprintf+0xa8c>
/home/qemu-sgx/devel/optee/optee_os/lib/libutils/ext/snprintk.c:481
    145c:	f8d7 20d0 	ldr.w	r2, [r7, #208]	; 0xd0
    1460:	f102 0304 	add.w	r3, r2, #4
    1464:	f8c7 30d0 	str.w	r3, [r7, #208]	; 0xd0
    1468:	6813      	ldr	r3, [r2, #0]
    146a:	f04f 0200 	mov.w	r2, #0
    146e:	469a      	mov	sl, r3
    1470:	4693      	mov	fp, r2
    1472:	e043      	b.n	14fc <kprintf+0xb14>
/home/qemu-sgx/devel/optee/optee_os/lib/libutils/ext/snprintk.c:481 (discriminator 8)
    1474:	f8d7 309c 	ldr.w	r3, [r7, #156]	; 0x9c
    1478:	f003 0320 	and.w	r3, r3, #32
    147c:	2b00      	cmp	r3, #0
    147e:	d00c      	beq.n	149a <kprintf+0xab2>
/home/qemu-sgx/devel/optee/optee_os/lib/libutils/ext/snprintk.c:481
    1480:	f8d7 30d0 	ldr.w	r3, [r7, #208]	; 0xd0
    1484:	f103 0307 	add.w	r3, r3, #7
    1488:	f023 0207 	bic.w	r2, r3, #7
    148c:	f102 0308 	add.w	r3, r2, #8
    1490:	f8c7 30d0 	str.w	r3, [r7, #208]	; 0xd0
    1494:	e9d2 ab00 	ldrd	sl, fp, [r2]
    1498:	e030      	b.n	14fc <kprintf+0xb14>
/home/qemu-sgx/devel/optee/optee_os/lib/libutils/ext/snprintk.c:481 (discriminator 11)
    149a:	f8d7 309c 	ldr.w	r3, [r7, #156]	; 0x9c
    149e:	f003 0310 	and.w	r3, r3, #16
    14a2:	2b00      	cmp	r3, #0
    14a4:	d00b      	beq.n	14be <kprintf+0xad6>
/home/qemu-sgx/devel/optee/optee_os/lib/libutils/ext/snprintk.c:481
    14a6:	f8d7 20d0 	ldr.w	r2, [r7, #208]	; 0xd0
    14aa:	f102 0304 	add.w	r3, r2, #4
    14ae:	f8c7 30d0 	str.w	r3, [r7, #208]	; 0xd0
    14b2:	6813      	ldr	r3, [r2, #0]
    14b4:	f04f 0200 	mov.w	r2, #0
    14b8:	469a      	mov	sl, r3
    14ba:	4693      	mov	fp, r2
    14bc:	e01e      	b.n	14fc <kprintf+0xb14>
/home/qemu-sgx/devel/optee/optee_os/lib/libutils/ext/snprintk.c:481 (discriminator 14)
    14be:	f8d7 309c 	ldr.w	r3, [r7, #156]	; 0x9c
    14c2:	f003 0340 	and.w	r3, r3, #64	; 0x40
    14c6:	2b00      	cmp	r3, #0
    14c8:	d00d      	beq.n	14e6 <kprintf+0xafe>
/home/qemu-sgx/devel/optee/optee_os/lib/libutils/ext/snprintk.c:481
    14ca:	f8d7 20d0 	ldr.w	r2, [r7, #208]	; 0xd0
    14ce:	f102 0304 	add.w	r3, r2, #4
    14d2:	f8c7 30d0 	str.w	r3, [r7, #208]	; 0xd0
    14d6:	6813      	ldr	r3, [r2, #0]
    14d8:	b29b      	uxth	r3, r3
    14da:	b29b      	uxth	r3, r3
    14dc:	f04f 0200 	mov.w	r2, #0
    14e0:	469a      	mov	sl, r3
    14e2:	4693      	mov	fp, r2
    14e4:	e00a      	b.n	14fc <kprintf+0xb14>
    14e6:	f8d7 20d0 	ldr.w	r2, [r7, #208]	; 0xd0
    14ea:	f102 0304 	add.w	r3, r2, #4
    14ee:	f8c7 30d0 	str.w	r3, [r7, #208]	; 0xd0
    14f2:	6813      	ldr	r3, [r2, #0]
    14f4:	f04f 0200 	mov.w	r2, #0
    14f8:	469a      	mov	sl, r3
    14fa:	4693      	mov	fp, r2
/home/qemu-sgx/devel/optee/optee_os/lib/libutils/ext/snprintk.c:481 (discriminator 24)
    14fc:	e9c7 ab20 	strd	sl, fp, [r7, #128]	; 0x80
/home/qemu-sgx/devel/optee/optee_os/lib/libutils/ext/snprintk.c:482 (discriminator 24)
    1500:	f04f 0302 	mov.w	r3, #2
    1504:	67fb      	str	r3, [r7, #124]	; 0x7c
/home/qemu-sgx/devel/optee/optee_os/lib/libutils/ext/snprintk.c:484 (discriminator 24)
    1506:	f8d7 309c 	ldr.w	r3, [r7, #156]	; 0x9c
    150a:	f003 0301 	and.w	r3, r3, #1
    150e:	2b00      	cmp	r3, #0
    1510:	d00a      	beq.n	1528 <kprintf+0xb40>
/home/qemu-sgx/devel/optee/optee_os/lib/libutils/ext/snprintk.c:484 (discriminator 1)
    1512:	e9d7 2320 	ldrd	r2, r3, [r7, #128]	; 0x80
    1516:	4313      	orrs	r3, r2
    1518:	d006      	beq.n	1528 <kprintf+0xb40>
/home/qemu-sgx/devel/optee/optee_os/lib/libutils/ext/snprintk.c:485
    151a:	f8d7 309c 	ldr.w	r3, [r7, #156]	; 0x9c
    151e:	f043 0302 	orr.w	r3, r3, #2
    1522:	f8c7 309c 	str.w	r3, [r7, #156]	; 0x9c
    1526:	e000      	b.n	152a <kprintf+0xb42>
/home/qemu-sgx/devel/optee/optee_os/lib/libutils/ext/snprintk.c:488
    1528:	bf00      	nop
    152a:	f04f 0300 	mov.w	r3, #0
    152e:	f887 308f 	strb.w	r3, [r7, #143]	; 0x8f
/home/qemu-sgx/devel/optee/optee_os/lib/libutils/ext/snprintk.c:494
    1532:	f8d7 3090 	ldr.w	r3, [r7, #144]	; 0x90
    1536:	67bb      	str	r3, [r7, #120]	; 0x78
    1538:	6fbb      	ldr	r3, [r7, #120]	; 0x78
    153a:	2b00      	cmp	r3, #0
    153c:	db05      	blt.n	154a <kprintf+0xb62>
/home/qemu-sgx/devel/optee/optee_os/lib/libutils/ext/snprintk.c:495
    153e:	f8d7 309c 	ldr.w	r3, [r7, #156]	; 0x9c
    1542:	f423 6380 	bic.w	r3, r3, #1024	; 0x400
    1546:	f8c7 309c 	str.w	r3, [r7, #156]	; 0x9c
/home/qemu-sgx/devel/optee/optee_os/lib/libutils/ext/snprintk.c:502
    154a:	f107 033c 	add.w	r3, r7, #60	; 0x3c
    154e:	f103 0325 	add.w	r3, r3, #37	; 0x25
    1552:	f8c7 30a0 	str.w	r3, [r7, #160]	; 0xa0
/home/qemu-sgx/devel/optee/optee_os/lib/libutils/ext/snprintk.c:503
    1556:	e9d7 2320 	ldrd	r2, r3, [r7, #128]	; 0x80
    155a:	4313      	orrs	r3, r2
    155c:	d104      	bne.n	1568 <kprintf+0xb80>
/home/qemu-sgx/devel/optee/optee_os/lib/libutils/ext/snprintk.c:503 (discriminator 1)
    155e:	f8d7 3090 	ldr.w	r3, [r7, #144]	; 0x90
    1562:	2b00      	cmp	r3, #0
    1564:	f000 80af 	beq.w	16c6 <kprintf+0xcde>
    1568:	6ffb      	ldr	r3, [r7, #124]	; 0x7c
    156a:	2b02      	cmp	r3, #2
    156c:	d07c      	beq.n	1668 <kprintf+0xc80>
    156e:	6ffb      	ldr	r3, [r7, #124]	; 0x7c
    1570:	2b02      	cmp	r3, #2
    1572:	f200 809c 	bhi.w	16ae <kprintf+0xcc6>
    1576:	6ffb      	ldr	r3, [r7, #124]	; 0x7c
    1578:	2b00      	cmp	r3, #0
    157a:	d004      	beq.n	1586 <kprintf+0xb9e>
    157c:	6ffb      	ldr	r3, [r7, #124]	; 0x7c
    157e:	2b01      	cmp	r3, #1
    1580:	d05c      	beq.n	163c <kprintf+0xc54>
    1582:	e094      	b.n	16ae <kprintf+0xcc6>
/home/qemu-sgx/devel/optee/optee_os/lib/libutils/ext/snprintk.c:510
    1584:	bf00      	nop
/home/qemu-sgx/devel/optee/optee_os/lib/libutils/ext/snprintk.c:512 (discriminator 1)
    1586:	f897 3080 	ldrb.w	r3, [r7, #128]	; 0x80
    158a:	f003 0307 	and.w	r3, r3, #7
    158e:	b2da      	uxtb	r2, r3
    1590:	f8d7 30a0 	ldr.w	r3, [r7, #160]	; 0xa0
    1594:	f103 33ff 	add.w	r3, r3, #4294967295	; 0xffffffff
    1598:	f8c7 30a0 	str.w	r3, [r7, #160]	; 0xa0
    159c:	f102 0330 	add.w	r3, r2, #48	; 0x30
    15a0:	b2db      	uxtb	r3, r3
    15a2:	f8d7 20a0 	ldr.w	r2, [r7, #160]	; 0xa0
    15a6:	7013      	strb	r3, [r2, #0]
/home/qemu-sgx/devel/optee/optee_os/lib/libutils/ext/snprintk.c:513 (discriminator 1)
    15a8:	e9d7 2320 	ldrd	r2, r3, [r7, #128]	; 0x80
    15ac:	f04f 0000 	mov.w	r0, #0
    15b0:	f04f 0100 	mov.w	r1, #0
    15b4:	ea4f 00d2 	mov.w	r0, r2, lsr #3
    15b8:	ea40 7043 	orr.w	r0, r0, r3, lsl #29
    15bc:	ea4f 01d3 	mov.w	r1, r3, lsr #3
    15c0:	e9c7 0120 	strd	r0, r1, [r7, #128]	; 0x80
/home/qemu-sgx/devel/optee/optee_os/lib/libutils/ext/snprintk.c:514 (discriminator 1)
    15c4:	e9d7 2320 	ldrd	r2, r3, [r7, #128]	; 0x80
    15c8:	4313      	orrs	r3, r2
    15ca:	d1db      	bne.n	1584 <kprintf+0xb9c>
/home/qemu-sgx/devel/optee/optee_os/lib/libutils/ext/snprintk.c:516
    15cc:	f8d7 309c 	ldr.w	r3, [r7, #156]	; 0x9c
    15d0:	f003 0301 	and.w	r3, r3, #1
    15d4:	2b00      	cmp	r3, #0
    15d6:	d078      	beq.n	16ca <kprintf+0xce2>
/home/qemu-sgx/devel/optee/optee_os/lib/libutils/ext/snprintk.c:516 (discriminator 1)
    15d8:	f8d7 30a0 	ldr.w	r3, [r7, #160]	; 0xa0
    15dc:	781b      	ldrb	r3, [r3, #0]
    15de:	2b30      	cmp	r3, #48	; 0x30
    15e0:	d073      	beq.n	16ca <kprintf+0xce2>
/home/qemu-sgx/devel/optee/optee_os/lib/libutils/ext/snprintk.c:517
    15e2:	f8d7 30a0 	ldr.w	r3, [r7, #160]	; 0xa0
    15e6:	f103 33ff 	add.w	r3, r3, #4294967295	; 0xffffffff
    15ea:	f8c7 30a0 	str.w	r3, [r7, #160]	; 0xa0
    15ee:	f8d7 20a0 	ldr.w	r2, [r7, #160]	; 0xa0
    15f2:	f04f 0330 	mov.w	r3, #48	; 0x30
    15f6:	7013      	strb	r3, [r2, #0]
/home/qemu-sgx/devel/optee/optee_os/lib/libutils/ext/snprintk.c:518
    15f8:	e067      	b.n	16ca <kprintf+0xce2>
/home/qemu-sgx/devel/optee/optee_os/lib/libutils/ext/snprintk.c:523
    15fa:	e9d7 0120 	ldrd	r0, r1, [r7, #128]	; 0x80
    15fe:	f04f 020a 	mov.w	r2, #10
    1602:	f04f 0300 	mov.w	r3, #0
    1606:	f000 e9ec 	blx	19e0 <__aeabi_uldivmod>
    160a:	b2d2      	uxtb	r2, r2
    160c:	f8d7 30a0 	ldr.w	r3, [r7, #160]	; 0xa0
    1610:	f103 33ff 	add.w	r3, r3, #4294967295	; 0xffffffff
    1614:	f8c7 30a0 	str.w	r3, [r7, #160]	; 0xa0
    1618:	f102 0330 	add.w	r3, r2, #48	; 0x30
    161c:	b2db      	uxtb	r3, r3
    161e:	f8d7 20a0 	ldr.w	r2, [r7, #160]	; 0xa0
    1622:	7013      	strb	r3, [r2, #0]
/home/qemu-sgx/devel/optee/optee_os/lib/libutils/ext/snprintk.c:524
    1624:	e9d7 0120 	ldrd	r0, r1, [r7, #128]	; 0x80
    1628:	f04f 020a 	mov.w	r2, #10
    162c:	f04f 0300 	mov.w	r3, #0
    1630:	f000 e9d6 	blx	19e0 <__aeabi_uldivmod>
    1634:	4602      	mov	r2, r0
    1636:	460b      	mov	r3, r1
    1638:	e9c7 2320 	strd	r2, r3, [r7, #128]	; 0x80
/home/qemu-sgx/devel/optee/optee_os/lib/libutils/ext/snprintk.c:522
    163c:	e9d7 2320 	ldrd	r2, r3, [r7, #128]	; 0x80
    1640:	2a0a      	cmp	r2, #10
    1642:	f173 0300 	sbcs.w	r3, r3, #0
    1646:	d2d8      	bcs.n	15fa <kprintf+0xc12>
/home/qemu-sgx/devel/optee/optee_os/lib/libutils/ext/snprintk.c:526
    1648:	f897 2080 	ldrb.w	r2, [r7, #128]	; 0x80
    164c:	f8d7 30a0 	ldr.w	r3, [r7, #160]	; 0xa0
    1650:	f103 33ff 	add.w	r3, r3, #4294967295	; 0xffffffff
    1654:	f8c7 30a0 	str.w	r3, [r7, #160]	; 0xa0
    1658:	f102 0330 	add.w	r3, r2, #48	; 0x30
    165c:	b2db      	uxtb	r3, r3
    165e:	f8d7 20a0 	ldr.w	r2, [r7, #160]	; 0xa0
    1662:	7013      	strb	r3, [r2, #0]
/home/qemu-sgx/devel/optee/optee_os/lib/libutils/ext/snprintk.c:527
    1664:	e032      	b.n	16cc <kprintf+0xce4>
/home/qemu-sgx/devel/optee/optee_os/lib/libutils/ext/snprintk.c:529
    1666:	bf00      	nop
/home/qemu-sgx/devel/optee/optee_os/lib/libutils/ext/snprintk.c:531 (discriminator 1)
    1668:	f8d7 3080 	ldr.w	r3, [r7, #128]	; 0x80
    166c:	f003 020f 	and.w	r2, r3, #15
    1670:	6efb      	ldr	r3, [r7, #108]	; 0x6c
    1672:	441a      	add	r2, r3
    1674:	f8d7 30a0 	ldr.w	r3, [r7, #160]	; 0xa0
    1678:	f103 33ff 	add.w	r3, r3, #4294967295	; 0xffffffff
    167c:	f8c7 30a0 	str.w	r3, [r7, #160]	; 0xa0
    1680:	7813      	ldrb	r3, [r2, #0]
    1682:	f8d7 20a0 	ldr.w	r2, [r7, #160]	; 0xa0
    1686:	7013      	strb	r3, [r2, #0]
/home/qemu-sgx/devel/optee/optee_os/lib/libutils/ext/snprintk.c:532 (discriminator 1)
    1688:	e9d7 2320 	ldrd	r2, r3, [r7, #128]	; 0x80
    168c:	f04f 0000 	mov.w	r0, #0
    1690:	f04f 0100 	mov.w	r1, #0
    1694:	ea4f 1012 	mov.w	r0, r2, lsr #4
    1698:	ea40 7003 	orr.w	r0, r0, r3, lsl #28
    169c:	ea4f 1113 	mov.w	r1, r3, lsr #4
    16a0:	e9c7 0120 	strd	r0, r1, [r7, #128]	; 0x80
/home/qemu-sgx/devel/optee/optee_os/lib/libutils/ext/snprintk.c:533 (discriminator 1)
    16a4:	e9d7 2320 	ldrd	r2, r3, [r7, #128]	; 0x80
    16a8:	4313      	orrs	r3, r2
    16aa:	d1dc      	bne.n	1666 <kprintf+0xc7e>
/home/qemu-sgx/devel/optee/optee_os/lib/libutils/ext/snprintk.c:534
    16ac:	e00e      	b.n	16cc <kprintf+0xce4>
/home/qemu-sgx/devel/optee/optee_os/lib/libutils/ext/snprintk.c:538
    16ae:	4bc5      	ldr	r3, [pc, #788]	; (19c4 <kprintf+0xfdc>)
    16b0:	447b      	add	r3, pc
    16b2:	f8c7 30a0 	str.w	r3, [r7, #160]	; 0xa0
/home/qemu-sgx/devel/optee/optee_os/lib/libutils/ext/snprintk.c:539
    16b6:	f8d7 00a0 	ldr.w	r0, [r7, #160]	; 0xa0
    16ba:	f010 fba9 	bl	11e10 <strlen>
    16be:	4603      	mov	r3, r0
    16c0:	673b      	str	r3, [r7, #112]	; 0x70
/home/qemu-sgx/devel/optee/optee_os/lib/libutils/ext/snprintk.c:540
    16c2:	bf00      	nop
/home/qemu-sgx/devel/optee/optee_os/lib/libutils/ext/snprintk.c:545
    16c4:	e023      	b.n	170e <kprintf+0xd26>
/home/qemu-sgx/devel/optee/optee_os/lib/libutils/ext/snprintk.c:542
    16c6:	bf00      	nop
    16c8:	e000      	b.n	16cc <kprintf+0xce4>
/home/qemu-sgx/devel/optee/optee_os/lib/libutils/ext/snprintk.c:518
    16ca:	bf00      	nop
/home/qemu-sgx/devel/optee/optee_os/lib/libutils/ext/snprintk.c:543
    16cc:	f107 023c 	add.w	r2, r7, #60	; 0x3c
    16d0:	f102 0225 	add.w	r2, r2, #37	; 0x25
    16d4:	f8d7 30a0 	ldr.w	r3, [r7, #160]	; 0xa0
    16d8:	eba2 0303 	sub.w	r3, r2, r3
    16dc:	673b      	str	r3, [r7, #112]	; 0x70
/home/qemu-sgx/devel/optee/optee_os/lib/libutils/ext/snprintk.c:545
    16de:	e016      	b.n	170e <kprintf+0xd26>
/home/qemu-sgx/devel/optee/optee_os/lib/libutils/ext/snprintk.c:547
    16e0:	f8d7 30a8 	ldr.w	r3, [r7, #168]	; 0xa8
    16e4:	2b00      	cmp	r3, #0
    16e6:	f000 814b 	beq.w	1980 <kprintf+0xf98>
/home/qemu-sgx/devel/optee/optee_os/lib/libutils/ext/snprintk.c:550
    16ea:	f107 033c 	add.w	r3, r7, #60	; 0x3c
    16ee:	f8c7 30a0 	str.w	r3, [r7, #160]	; 0xa0
/home/qemu-sgx/devel/optee/optee_os/lib/libutils/ext/snprintk.c:551
    16f2:	f8d7 30a8 	ldr.w	r3, [r7, #168]	; 0xa8
    16f6:	b2db      	uxtb	r3, r3
    16f8:	f8d7 20a0 	ldr.w	r2, [r7, #160]	; 0xa0
    16fc:	7013      	strb	r3, [r2, #0]
/home/qemu-sgx/devel/optee/optee_os/lib/libutils/ext/snprintk.c:552
    16fe:	f04f 0301 	mov.w	r3, #1
    1702:	673b      	str	r3, [r7, #112]	; 0x70
/home/qemu-sgx/devel/optee/optee_os/lib/libutils/ext/snprintk.c:553
    1704:	f04f 0300 	mov.w	r3, #0
    1708:	f887 308f 	strb.w	r3, [r7, #143]	; 0x8f
/home/qemu-sgx/devel/optee/optee_os/lib/libutils/ext/snprintk.c:554
    170c:	bf00      	nop
/home/qemu-sgx/devel/optee/optee_os/lib/libutils/ext/snprintk.c:571
    170e:	6f3a      	ldr	r2, [r7, #112]	; 0x70
    1710:	6fbb      	ldr	r3, [r7, #120]	; 0x78
    1712:	4293      	cmp	r3, r2
    1714:	bfb8      	it	lt
    1716:	4613      	movlt	r3, r2
    1718:	677b      	str	r3, [r7, #116]	; 0x74
/home/qemu-sgx/devel/optee/optee_os/lib/libutils/ext/snprintk.c:572
    171a:	f897 308f 	ldrb.w	r3, [r7, #143]	; 0x8f
    171e:	2b00      	cmp	r3, #0
    1720:	d004      	beq.n	172c <kprintf+0xd44>
/home/qemu-sgx/devel/optee/optee_os/lib/libutils/ext/snprintk.c:573
    1722:	6f7b      	ldr	r3, [r7, #116]	; 0x74
    1724:	f103 0301 	add.w	r3, r3, #1
    1728:	677b      	str	r3, [r7, #116]	; 0x74
    172a:	e009      	b.n	1740 <kprintf+0xd58>
/home/qemu-sgx/devel/optee/optee_os/lib/libutils/ext/snprintk.c:574
    172c:	f8d7 309c 	ldr.w	r3, [r7, #156]	; 0x9c
    1730:	f003 0302 	and.w	r3, r3, #2
    1734:	2b00      	cmp	r3, #0
    1736:	d003      	beq.n	1740 <kprintf+0xd58>
/home/qemu-sgx/devel/optee/optee_os/lib/libutils/ext/snprintk.c:575
    1738:	6f7b      	ldr	r3, [r7, #116]	; 0x74
    173a:	f103 0302 	add.w	r3, r3, #2
    173e:	677b      	str	r3, [r7, #116]	; 0x74
/home/qemu-sgx/devel/optee/optee_os/lib/libutils/ext/snprintk.c:578
    1740:	6f7a      	ldr	r2, [r7, #116]	; 0x74
    1742:	f8d7 3094 	ldr.w	r3, [r7, #148]	; 0x94
    1746:	429a      	cmp	r2, r3
    1748:	bfb8      	it	lt
    174a:	461a      	movlt	r2, r3
    174c:	f8d7 3098 	ldr.w	r3, [r7, #152]	; 0x98
    1750:	4413      	add	r3, r2
    1752:	f8c7 3098 	str.w	r3, [r7, #152]	; 0x98
/home/qemu-sgx/devel/optee/optee_os/lib/libutils/ext/snprintk.c:581
    1756:	f8d7 209c 	ldr.w	r2, [r7, #156]	; 0x9c
    175a:	f240 4304 	movw	r3, #1028	; 0x404
    175e:	ea03 0302 	and.w	r3, r3, r2
    1762:	2b00      	cmp	r3, #0
    1764:	d123      	bne.n	17ae <kprintf+0xdc6>
/home/qemu-sgx/devel/optee/optee_os/lib/libutils/ext/snprintk.c:582
    1766:	f8d7 2094 	ldr.w	r2, [r7, #148]	; 0x94
    176a:	6f7b      	ldr	r3, [r7, #116]	; 0x74
    176c:	eba2 0303 	sub.w	r3, r2, r3
    1770:	f8c7 30a4 	str.w	r3, [r7, #164]	; 0xa4
/home/qemu-sgx/devel/optee/optee_os/lib/libutils/ext/snprintk.c:583
    1774:	e013      	b.n	179e <kprintf+0xdb6>
/home/qemu-sgx/devel/optee/optee_os/lib/libutils/ext/snprintk.c:584
    1776:	6b3b      	ldr	r3, [r7, #48]	; 0x30
    1778:	2b08      	cmp	r3, #8
    177a:	d110      	bne.n	179e <kprintf+0xdb6>
/home/qemu-sgx/devel/optee/optee_os/lib/libutils/ext/snprintk.c:584 (discriminator 1)
    177c:	6abb      	ldr	r3, [r7, #40]	; 0x28
    177e:	2b00      	cmp	r3, #0
    1780:	d00d      	beq.n	179e <kprintf+0xdb6>
/home/qemu-sgx/devel/optee/optee_os/lib/libutils/ext/snprintk.c:584 (discriminator 2)
    1782:	6afb      	ldr	r3, [r7, #44]	; 0x2c
    1784:	2b00      	cmp	r3, #0
    1786:	d003      	beq.n	1790 <kprintf+0xda8>
/home/qemu-sgx/devel/optee/optee_os/lib/libutils/ext/snprintk.c:584 (discriminator 4)
    1788:	6aba      	ldr	r2, [r7, #40]	; 0x28
    178a:	6ebb      	ldr	r3, [r7, #104]	; 0x68
    178c:	429a      	cmp	r2, r3
    178e:	d206      	bcs.n	179e <kprintf+0xdb6>
/home/qemu-sgx/devel/optee/optee_os/lib/libutils/ext/snprintk.c:584 (discriminator 5)
    1790:	6aba      	ldr	r2, [r7, #40]	; 0x28
    1792:	f102 0301 	add.w	r3, r2, #1
    1796:	62bb      	str	r3, [r7, #40]	; 0x28
    1798:	f04f 0320 	mov.w	r3, #32
    179c:	7013      	strb	r3, [r2, #0]
/home/qemu-sgx/devel/optee/optee_os/lib/libutils/ext/snprintk.c:583
    179e:	f8d7 20a4 	ldr.w	r2, [r7, #164]	; 0xa4
    17a2:	f102 33ff 	add.w	r3, r2, #4294967295	; 0xffffffff
    17a6:	f8c7 30a4 	str.w	r3, [r7, #164]	; 0xa4
    17aa:	2a00      	cmp	r2, #0
    17ac:	dce3      	bgt.n	1776 <kprintf+0xd8e>
/home/qemu-sgx/devel/optee/optee_os/lib/libutils/ext/snprintk.c:588
    17ae:	f897 308f 	ldrb.w	r3, [r7, #143]	; 0x8f
    17b2:	2b00      	cmp	r3, #0
    17b4:	d014      	beq.n	17e0 <kprintf+0xdf8>
/home/qemu-sgx/devel/optee/optee_os/lib/libutils/ext/snprintk.c:589
    17b6:	6b3b      	ldr	r3, [r7, #48]	; 0x30
    17b8:	2b08      	cmp	r3, #8
    17ba:	d140      	bne.n	183e <kprintf+0xe56>
/home/qemu-sgx/devel/optee/optee_os/lib/libutils/ext/snprintk.c:589 (discriminator 1)
    17bc:	6abb      	ldr	r3, [r7, #40]	; 0x28
    17be:	2b00      	cmp	r3, #0
    17c0:	d03d      	beq.n	183e <kprintf+0xe56>
/home/qemu-sgx/devel/optee/optee_os/lib/libutils/ext/snprintk.c:589 (discriminator 2)
    17c2:	6afb      	ldr	r3, [r7, #44]	; 0x2c
    17c4:	2b00      	cmp	r3, #0
    17c6:	d003      	beq.n	17d0 <kprintf+0xde8>
/home/qemu-sgx/devel/optee/optee_os/lib/libutils/ext/snprintk.c:589 (discriminator 4)
    17c8:	6aba      	ldr	r2, [r7, #40]	; 0x28
    17ca:	6ebb      	ldr	r3, [r7, #104]	; 0x68
    17cc:	429a      	cmp	r2, r3
    17ce:	d236      	bcs.n	183e <kprintf+0xe56>
/home/qemu-sgx/devel/optee/optee_os/lib/libutils/ext/snprintk.c:589 (discriminator 5)
    17d0:	6aba      	ldr	r2, [r7, #40]	; 0x28
    17d2:	f102 0301 	add.w	r3, r2, #1
    17d6:	62bb      	str	r3, [r7, #40]	; 0x28
    17d8:	f897 308f 	ldrb.w	r3, [r7, #143]	; 0x8f
    17dc:	7013      	strb	r3, [r2, #0]
    17de:	e02e      	b.n	183e <kprintf+0xe56>
/home/qemu-sgx/devel/optee/optee_os/lib/libutils/ext/snprintk.c:590
    17e0:	f8d7 309c 	ldr.w	r3, [r7, #156]	; 0x9c
    17e4:	f003 0302 	and.w	r3, r3, #2
    17e8:	2b00      	cmp	r3, #0
    17ea:	d028      	beq.n	183e <kprintf+0xe56>
/home/qemu-sgx/devel/optee/optee_os/lib/libutils/ext/snprintk.c:591
    17ec:	6b3b      	ldr	r3, [r7, #48]	; 0x30
    17ee:	2b08      	cmp	r3, #8
    17f0:	d110      	bne.n	1814 <kprintf+0xe2c>
/home/qemu-sgx/devel/optee/optee_os/lib/libutils/ext/snprintk.c:591 (discriminator 1)
    17f2:	6abb      	ldr	r3, [r7, #40]	; 0x28
    17f4:	2b00      	cmp	r3, #0
    17f6:	d00d      	beq.n	1814 <kprintf+0xe2c>
/home/qemu-sgx/devel/optee/optee_os/lib/libutils/ext/snprintk.c:591 (discriminator 2)
    17f8:	6afb      	ldr	r3, [r7, #44]	; 0x2c
    17fa:	2b00      	cmp	r3, #0
    17fc:	d003      	beq.n	1806 <kprintf+0xe1e>
/home/qemu-sgx/devel/optee/optee_os/lib/libutils/ext/snprintk.c:591 (discriminator 4)
    17fe:	6aba      	ldr	r2, [r7, #40]	; 0x28
    1800:	6ebb      	ldr	r3, [r7, #104]	; 0x68
    1802:	429a      	cmp	r2, r3
    1804:	d206      	bcs.n	1814 <kprintf+0xe2c>
/home/qemu-sgx/devel/optee/optee_os/lib/libutils/ext/snprintk.c:591 (discriminator 5)
    1806:	6aba      	ldr	r2, [r7, #40]	; 0x28
    1808:	f102 0301 	add.w	r3, r2, #1
    180c:	62bb      	str	r3, [r7, #40]	; 0x28
    180e:	f04f 0330 	mov.w	r3, #48	; 0x30
    1812:	7013      	strb	r3, [r2, #0]
/home/qemu-sgx/devel/optee/optee_os/lib/libutils/ext/snprintk.c:592
    1814:	6b3b      	ldr	r3, [r7, #48]	; 0x30
    1816:	2b08      	cmp	r3, #8
    1818:	d111      	bne.n	183e <kprintf+0xe56>
/home/qemu-sgx/devel/optee/optee_os/lib/libutils/ext/snprintk.c:592 (discriminator 1)
    181a:	6abb      	ldr	r3, [r7, #40]	; 0x28
    181c:	2b00      	cmp	r3, #0
    181e:	d00e      	beq.n	183e <kprintf+0xe56>
/home/qemu-sgx/devel/optee/optee_os/lib/libutils/ext/snprintk.c:592 (discriminator 2)
    1820:	6afb      	ldr	r3, [r7, #44]	; 0x2c
    1822:	2b00      	cmp	r3, #0
    1824:	d003      	beq.n	182e <kprintf+0xe46>
/home/qemu-sgx/devel/optee/optee_os/lib/libutils/ext/snprintk.c:592 (discriminator 4)
    1826:	6aba      	ldr	r2, [r7, #40]	; 0x28
    1828:	6ebb      	ldr	r3, [r7, #104]	; 0x68
    182a:	429a      	cmp	r2, r3
    182c:	d207      	bcs.n	183e <kprintf+0xe56>
/home/qemu-sgx/devel/optee/optee_os/lib/libutils/ext/snprintk.c:592 (discriminator 5)
    182e:	6aba      	ldr	r2, [r7, #40]	; 0x28
    1830:	f102 0301 	add.w	r3, r2, #1
    1834:	62bb      	str	r3, [r7, #40]	; 0x28
    1836:	f8d7 30a8 	ldr.w	r3, [r7, #168]	; 0xa8
    183a:	b2db      	uxtb	r3, r3
    183c:	7013      	strb	r3, [r2, #0]
/home/qemu-sgx/devel/optee/optee_os/lib/libutils/ext/snprintk.c:596
    183e:	f8d7 209c 	ldr.w	r2, [r7, #156]	; 0x9c
    1842:	f240 4304 	movw	r3, #1028	; 0x404
    1846:	ea03 0302 	and.w	r3, r3, r2
    184a:	f5b3 6f80 	cmp.w	r3, #1024	; 0x400
    184e:	d123      	bne.n	1898 <kprintf+0xeb0>
/home/qemu-sgx/devel/optee/optee_os/lib/libutils/ext/snprintk.c:597
    1850:	f8d7 2094 	ldr.w	r2, [r7, #148]	; 0x94
    1854:	6f7b      	ldr	r3, [r7, #116]	; 0x74
    1856:	eba2 0303 	sub.w	r3, r2, r3
    185a:	f8c7 30a4 	str.w	r3, [r7, #164]	; 0xa4
/home/qemu-sgx/devel/optee/optee_os/lib/libutils/ext/snprintk.c:598
    185e:	e013      	b.n	1888 <kprintf+0xea0>
/home/qemu-sgx/devel/optee/optee_os/lib/libutils/ext/snprintk.c:599
    1860:	6b3b      	ldr	r3, [r7, #48]	; 0x30
    1862:	2b08      	cmp	r3, #8
    1864:	d110      	bne.n	1888 <kprintf+0xea0>
/home/qemu-sgx/devel/optee/optee_os/lib/libutils/ext/snprintk.c:599 (discriminator 1)
    1866:	6abb      	ldr	r3, [r7, #40]	; 0x28
    1868:	2b00      	cmp	r3, #0
    186a:	d00d      	beq.n	1888 <kprintf+0xea0>
/home/qemu-sgx/devel/optee/optee_os/lib/libutils/ext/snprintk.c:599 (discriminator 2)
    186c:	6afb      	ldr	r3, [r7, #44]	; 0x2c
    186e:	2b00      	cmp	r3, #0
    1870:	d003      	beq.n	187a <kprintf+0xe92>
/home/qemu-sgx/devel/optee/optee_os/lib/libutils/ext/snprintk.c:599 (discriminator 4)
    1872:	6aba      	ldr	r2, [r7, #40]	; 0x28
    1874:	6ebb      	ldr	r3, [r7, #104]	; 0x68
    1876:	429a      	cmp	r2, r3
    1878:	d206      	bcs.n	1888 <kprintf+0xea0>
/home/qemu-sgx/devel/optee/optee_os/lib/libutils/ext/snprintk.c:599 (discriminator 5)
    187a:	6aba      	ldr	r2, [r7, #40]	; 0x28
    187c:	f102 0301 	add.w	r3, r2, #1
    1880:	62bb      	str	r3, [r7, #40]	; 0x28
    1882:	f04f 0330 	mov.w	r3, #48	; 0x30
    1886:	7013      	strb	r3, [r2, #0]
/home/qemu-sgx/devel/optee/optee_os/lib/libutils/ext/snprintk.c:598
    1888:	f8d7 20a4 	ldr.w	r2, [r7, #164]	; 0xa4
    188c:	f102 33ff 	add.w	r3, r2, #4294967295	; 0xffffffff
    1890:	f8c7 30a4 	str.w	r3, [r7, #164]	; 0xa4
    1894:	2a00      	cmp	r2, #0
    1896:	dce3      	bgt.n	1860 <kprintf+0xe78>
/home/qemu-sgx/devel/optee/optee_os/lib/libutils/ext/snprintk.c:603
    1898:	6fba      	ldr	r2, [r7, #120]	; 0x78
    189a:	6f3b      	ldr	r3, [r7, #112]	; 0x70
    189c:	eba2 0303 	sub.w	r3, r2, r3
    18a0:	f8c7 30a4 	str.w	r3, [r7, #164]	; 0xa4
/home/qemu-sgx/devel/optee/optee_os/lib/libutils/ext/snprintk.c:604
    18a4:	e013      	b.n	18ce <kprintf+0xee6>
/home/qemu-sgx/devel/optee/optee_os/lib/libutils/ext/snprintk.c:605
    18a6:	6b3b      	ldr	r3, [r7, #48]	; 0x30
    18a8:	2b08      	cmp	r3, #8
    18aa:	d110      	bne.n	18ce <kprintf+0xee6>
/home/qemu-sgx/devel/optee/optee_os/lib/libutils/ext/snprintk.c:605 (discriminator 1)
    18ac:	6abb      	ldr	r3, [r7, #40]	; 0x28
    18ae:	2b00      	cmp	r3, #0
    18b0:	d00d      	beq.n	18ce <kprintf+0xee6>
/home/qemu-sgx/devel/optee/optee_os/lib/libutils/ext/snprintk.c:605 (discriminator 2)
    18b2:	6afb      	ldr	r3, [r7, #44]	; 0x2c
    18b4:	2b00      	cmp	r3, #0
    18b6:	d003      	beq.n	18c0 <kprintf+0xed8>
/home/qemu-sgx/devel/optee/optee_os/lib/libutils/ext/snprintk.c:605 (discriminator 4)
    18b8:	6aba      	ldr	r2, [r7, #40]	; 0x28
    18ba:	6ebb      	ldr	r3, [r7, #104]	; 0x68
    18bc:	429a      	cmp	r2, r3
    18be:	d206      	bcs.n	18ce <kprintf+0xee6>
/home/qemu-sgx/devel/optee/optee_os/lib/libutils/ext/snprintk.c:605 (discriminator 5)
    18c0:	6aba      	ldr	r2, [r7, #40]	; 0x28
    18c2:	f102 0301 	add.w	r3, r2, #1
    18c6:	62bb      	str	r3, [r7, #40]	; 0x28
    18c8:	f04f 0330 	mov.w	r3, #48	; 0x30
    18cc:	7013      	strb	r3, [r2, #0]
/home/qemu-sgx/devel/optee/optee_os/lib/libutils/ext/snprintk.c:604
    18ce:	f8d7 20a4 	ldr.w	r2, [r7, #164]	; 0xa4
    18d2:	f102 33ff 	add.w	r3, r2, #4294967295	; 0xffffffff
    18d6:	f8c7 30a4 	str.w	r3, [r7, #164]	; 0xa4
    18da:	2a00      	cmp	r2, #0
    18dc:	dce3      	bgt.n	18a6 <kprintf+0xebe>
/home/qemu-sgx/devel/optee/optee_os/lib/libutils/ext/snprintk.c:608
    18de:	e01a      	b.n	1916 <kprintf+0xf2e>
/home/qemu-sgx/devel/optee/optee_os/lib/libutils/ext/snprintk.c:609
    18e0:	6b3b      	ldr	r3, [r7, #48]	; 0x30
    18e2:	2b08      	cmp	r3, #8
    18e4:	d111      	bne.n	190a <kprintf+0xf22>
/home/qemu-sgx/devel/optee/optee_os/lib/libutils/ext/snprintk.c:609 (discriminator 1)
    18e6:	6abb      	ldr	r3, [r7, #40]	; 0x28
    18e8:	2b00      	cmp	r3, #0
    18ea:	d00e      	beq.n	190a <kprintf+0xf22>
/home/qemu-sgx/devel/optee/optee_os/lib/libutils/ext/snprintk.c:609 (discriminator 2)
    18ec:	6afb      	ldr	r3, [r7, #44]	; 0x2c
    18ee:	2b00      	cmp	r3, #0
    18f0:	d003      	beq.n	18fa <kprintf+0xf12>
/home/qemu-sgx/devel/optee/optee_os/lib/libutils/ext/snprintk.c:609 (discriminator 4)
    18f2:	6aba      	ldr	r2, [r7, #40]	; 0x28
    18f4:	6ebb      	ldr	r3, [r7, #104]	; 0x68
    18f6:	429a      	cmp	r2, r3
    18f8:	d207      	bcs.n	190a <kprintf+0xf22>
/home/qemu-sgx/devel/optee/optee_os/lib/libutils/ext/snprintk.c:609 (discriminator 5)
    18fa:	6aba      	ldr	r2, [r7, #40]	; 0x28
    18fc:	f102 0301 	add.w	r3, r2, #1
    1900:	62bb      	str	r3, [r7, #40]	; 0x28
    1902:	f8d7 30a0 	ldr.w	r3, [r7, #160]	; 0xa0
    1906:	781b      	ldrb	r3, [r3, #0]
    1908:	7013      	strb	r3, [r2, #0]
/home/qemu-sgx/devel/optee/optee_os/lib/libutils/ext/snprintk.c:608
    190a:	f8d7 30a0 	ldr.w	r3, [r7, #160]	; 0xa0
    190e:	f103 0301 	add.w	r3, r3, #1
    1912:	f8c7 30a0 	str.w	r3, [r7, #160]	; 0xa0
/home/qemu-sgx/devel/optee/optee_os/lib/libutils/ext/snprintk.c:608 (discriminator 1)
    1916:	6f3a      	ldr	r2, [r7, #112]	; 0x70
    1918:	f102 33ff 	add.w	r3, r2, #4294967295	; 0xffffffff
    191c:	673b      	str	r3, [r7, #112]	; 0x70
    191e:	2a00      	cmp	r2, #0
    1920:	d1de      	bne.n	18e0 <kprintf+0xef8>
/home/qemu-sgx/devel/optee/optee_os/lib/libutils/ext/snprintk.c:611
    1922:	f8d7 309c 	ldr.w	r3, [r7, #156]	; 0x9c
    1926:	f003 0304 	and.w	r3, r3, #4
    192a:	2b00      	cmp	r3, #0
    192c:	f43f a8aa 	beq.w	a84 <kprintf+0x9c>
/home/qemu-sgx/devel/optee/optee_os/lib/libutils/ext/snprintk.c:612
    1930:	f8d7 2094 	ldr.w	r2, [r7, #148]	; 0x94
    1934:	6f7b      	ldr	r3, [r7, #116]	; 0x74
    1936:	eba2 0303 	sub.w	r3, r2, r3
    193a:	f8c7 30a4 	str.w	r3, [r7, #164]	; 0xa4
/home/qemu-sgx/devel/optee/optee_os/lib/libutils/ext/snprintk.c:613
    193e:	e013      	b.n	1968 <kprintf+0xf80>
/home/qemu-sgx/devel/optee/optee_os/lib/libutils/ext/snprintk.c:614
    1940:	6b3b      	ldr	r3, [r7, #48]	; 0x30
    1942:	2b08      	cmp	r3, #8
    1944:	d110      	bne.n	1968 <kprintf+0xf80>
/home/qemu-sgx/devel/optee/optee_os/lib/libutils/ext/snprintk.c:614 (discriminator 1)
    1946:	6abb      	ldr	r3, [r7, #40]	; 0x28
    1948:	2b00      	cmp	r3, #0
    194a:	d00d      	beq.n	1968 <kprintf+0xf80>
/home/qemu-sgx/devel/optee/optee_os/lib/libutils/ext/snprintk.c:614 (discriminator 2)
    194c:	6afb      	ldr	r3, [r7, #44]	; 0x2c
    194e:	2b00      	cmp	r3, #0
    1950:	d003      	beq.n	195a <kprintf+0xf72>
/home/qemu-sgx/devel/optee/optee_os/lib/libutils/ext/snprintk.c:614 (discriminator 4)
    1952:	6aba      	ldr	r2, [r7, #40]	; 0x28
    1954:	6ebb      	ldr	r3, [r7, #104]	; 0x68
    1956:	429a      	cmp	r2, r3
    1958:	d206      	bcs.n	1968 <kprintf+0xf80>
/home/qemu-sgx/devel/optee/optee_os/lib/libutils/ext/snprintk.c:614 (discriminator 5)
    195a:	6aba      	ldr	r2, [r7, #40]	; 0x28
    195c:	f102 0301 	add.w	r3, r2, #1
    1960:	62bb      	str	r3, [r7, #40]	; 0x28
    1962:	f04f 0320 	mov.w	r3, #32
    1966:	7013      	strb	r3, [r2, #0]
/home/qemu-sgx/devel/optee/optee_os/lib/libutils/ext/snprintk.c:613
    1968:	f8d7 20a4 	ldr.w	r2, [r7, #164]	; 0xa4
    196c:	f102 33ff 	add.w	r3, r2, #4294967295	; 0xffffffff
    1970:	f8c7 30a4 	str.w	r3, [r7, #164]	; 0xa4
    1974:	2a00      	cmp	r2, #0
    1976:	dce3      	bgt.n	1940 <kprintf+0xf58>
/home/qemu-sgx/devel/optee/optee_os/lib/libutils/ext/snprintk.c:281
    1978:	f7ff b884 	b.w	a84 <kprintf+0x9c>
/home/qemu-sgx/devel/optee/optee_os/lib/libutils/ext/snprintk.c:286
    197c:	bf00      	nop
    197e:	e000      	b.n	1982 <kprintf+0xf9a>
/home/qemu-sgx/devel/optee/optee_os/lib/libutils/ext/snprintk.c:548
    1980:	bf00      	nop
/home/qemu-sgx/devel/optee/optee_os/lib/libutils/ext/snprintk.c:619
    1982:	6b3b      	ldr	r3, [r7, #48]	; 0x30
    1984:	2b08      	cmp	r3, #8
    1986:	d105      	bne.n	1994 <kprintf+0xfac>
/home/qemu-sgx/devel/optee/optee_os/lib/libutils/ext/snprintk.c:619 (discriminator 1)
    1988:	6afb      	ldr	r3, [r7, #44]	; 0x2c
    198a:	2b00      	cmp	r3, #0
    198c:	d002      	beq.n	1994 <kprintf+0xfac>
/home/qemu-sgx/devel/optee/optee_os/lib/libutils/ext/snprintk.c:620
    198e:	6afb      	ldr	r3, [r7, #44]	; 0x2c
    1990:	6aba      	ldr	r2, [r7, #40]	; 0x28
    1992:	601a      	str	r2, [r3, #0]
/home/qemu-sgx/devel/optee/optee_os/lib/libutils/ext/snprintk.c:621
    1994:	f8d7 3098 	ldr.w	r3, [r7, #152]	; 0x98
/home/qemu-sgx/devel/optee/optee_os/lib/libutils/ext/snprintk.c:622
    1998:	4618      	mov	r0, r3
    199a:	f107 07b0 	add.w	r7, r7, #176	; 0xb0
    199e:	46bd      	mov	sp, r7
    19a0:	e9dd 4500 	ldrd	r4, r5, [sp]
    19a4:	e9dd 7802 	ldrd	r7, r8, [sp, #8]
    19a8:	e9dd 9a04 	ldrd	r9, sl, [sp, #16]
    19ac:	b006      	add	sp, #24
    19ae:	e8bd 8800 	ldmia.w	sp!, {fp, pc}
    19b2:	bf00      	nop
    19b4:	000125b6 	.word	0x000125b6
    19b8:	000125da 	.word	0x000125da
    19bc:	0001241c 	.word	0x0001241c
    19c0:	000123fe 	.word	0x000123fe
    19c4:	000121b4 	.word	0x000121b4

000019c8 <__aeabi_ldivmod>:
__aeabi_ldivmod():
/home/qemu-sgx/devel/optee/optee_os/lib/libutils/isoc/arch/arm/arm32_aeabi_ldivmod_a32.S:12
    19c8:	e92d5000 	push	{ip, lr}
/home/qemu-sgx/devel/optee/optee_os/lib/libutils/isoc/arch/arm/arm32_aeabi_ldivmod_a32.S:14
    19cc:	e92d000f 	push	{r0, r1, r2, r3}
/home/qemu-sgx/devel/optee/optee_os/lib/libutils/isoc/arch/arm/arm32_aeabi_ldivmod_a32.S:16
    19d0:	e1a0000d 	mov	r0, sp
/home/qemu-sgx/devel/optee/optee_os/lib/libutils/isoc/arch/arm/arm32_aeabi_ldivmod_a32.S:17
    19d4:	fb0041b1 	blx	120a2 <__l_divmod>
/home/qemu-sgx/devel/optee/optee_os/lib/libutils/isoc/arch/arm/arm32_aeabi_ldivmod_a32.S:18
    19d8:	e8bd000f 	pop	{r0, r1, r2, r3}
/home/qemu-sgx/devel/optee/optee_os/lib/libutils/isoc/arch/arm/arm32_aeabi_ldivmod_a32.S:19
    19dc:	e8bd9000 	pop	{ip, pc}

000019e0 <__aeabi_uldivmod>:
__aeabi_uldivmod():
/home/qemu-sgx/devel/optee/optee_os/lib/libutils/isoc/arch/arm/arm32_aeabi_ldivmod_a32.S:27
    19e0:	e92d5000 	push	{ip, lr}
/home/qemu-sgx/devel/optee/optee_os/lib/libutils/isoc/arch/arm/arm32_aeabi_ldivmod_a32.S:29
    19e4:	e92d000f 	push	{r0, r1, r2, r3}
/home/qemu-sgx/devel/optee/optee_os/lib/libutils/isoc/arch/arm/arm32_aeabi_ldivmod_a32.S:31
    19e8:	e1a0000d 	mov	r0, sp
/home/qemu-sgx/devel/optee/optee_os/lib/libutils/isoc/arch/arm/arm32_aeabi_ldivmod_a32.S:32
    19ec:	fa004193 	blx	12040 <__ul_divmod>
/home/qemu-sgx/devel/optee/optee_os/lib/libutils/isoc/arch/arm/arm32_aeabi_ldivmod_a32.S:33
    19f0:	e8bd000f 	pop	{r0, r1, r2, r3}
/home/qemu-sgx/devel/optee/optee_os/lib/libutils/isoc/arch/arm/arm32_aeabi_ldivmod_a32.S:34
    19f4:	e8bd9000 	pop	{ip, pc}

000019f8 <trace_ext_puts>:
trace_ext_puts():
/home/qemu-sgx/devel/optee/optee_os/lib/libutee/trace_ext.c:22
    19f8:	e96d 7e02 	strd	r7, lr, [sp, #-8]!
    19fc:	b082      	sub	sp, #8
    19fe:	af00      	add	r7, sp, #0
    1a00:	6078      	str	r0, [r7, #4]
/home/qemu-sgx/devel/optee/optee_os/lib/libutee/trace_ext.c:26
    1a02:	6878      	ldr	r0, [r7, #4]
    1a04:	f010 fa04 	bl	11e10 <strlen>
    1a08:	4603      	mov	r3, r0
    1a0a:	4619      	mov	r1, r3
    1a0c:	6878      	ldr	r0, [r7, #4]
    1a0e:	f004 edee 	blx	65ec <_utee_log>
/home/qemu-sgx/devel/optee/optee_os/lib/libutee/trace_ext.c:28
    1a12:	bf00      	nop
    1a14:	f107 0708 	add.w	r7, r7, #8
    1a18:	46bd      	mov	sp, r7
    1a1a:	bd80      	pop	{r7, pc}

00001a1c <trace_ext_get_thread_id>:
trace_ext_get_thread_id():
/home/qemu-sgx/devel/optee/optee_os/lib/libutee/trace_ext.c:31
    1a1c:	f84d 7d04 	str.w	r7, [sp, #-4]!
    1a20:	af00      	add	r7, sp, #0
/home/qemu-sgx/devel/optee/optee_os/lib/libutee/trace_ext.c:32
    1a22:	f04f 33ff 	mov.w	r3, #4294967295	; 0xffffffff
/home/qemu-sgx/devel/optee/optee_os/lib/libutee/trace_ext.c:33
    1a26:	4618      	mov	r0, r3
    1a28:	46bd      	mov	sp, r7
    1a2a:	f85d 7b04 	ldr.w	r7, [sp], #4
    1a2e:	4770      	bx	lr

00001a30 <printf>:
printf():
/home/qemu-sgx/devel/optee/optee_os/lib/libutee/trace_ext.c:41
    1a30:	b40f      	push	{r0, r1, r2, r3}
    1a32:	e96d 7e02 	strd	r7, lr, [sp, #-8]!
    1a36:	b0c2      	sub	sp, #264	; 0x108
    1a38:	af00      	add	r7, sp, #0
/home/qemu-sgx/devel/optee/optee_os/lib/libutee/trace_ext.c:46
    1a3a:	f7fe fcb9 	bl	3b0 <trace_get_level>
    1a3e:	4603      	mov	r3, r0
    1a40:	2b00      	cmp	r3, #0
    1a42:	dc02      	bgt.n	1a4a <printf+0x1a>
/home/qemu-sgx/devel/optee/optee_os/lib/libutee/trace_ext.c:47
    1a44:	f04f 0300 	mov.w	r3, #0
    1a48:	e023      	b.n	1a92 <printf+0x62>
/home/qemu-sgx/devel/optee/optee_os/lib/libutee/trace_ext.c:49
    1a4a:	f507 728a 	add.w	r2, r7, #276	; 0x114
    1a4e:	f507 7384 	add.w	r3, r7, #264	; 0x108
    1a52:	f5a3 7384 	sub.w	r3, r3, #264	; 0x108
    1a56:	601a      	str	r2, [r3, #0]
/home/qemu-sgx/devel/optee/optee_os/lib/libutee/trace_ext.c:50
    1a58:	f507 7384 	add.w	r3, r7, #264	; 0x108
    1a5c:	f5a3 7384 	sub.w	r3, r3, #264	; 0x108
    1a60:	f107 0004 	add.w	r0, r7, #4
    1a64:	681b      	ldr	r3, [r3, #0]
    1a66:	f8d7 2110 	ldr.w	r2, [r7, #272]	; 0x110
    1a6a:	f44f 7180 	mov.w	r1, #256	; 0x100
    1a6e:	f011 fc0e 	bl	1328e <vsnprintf>
    1a72:	f8c7 0104 	str.w	r0, [r7, #260]	; 0x104
/home/qemu-sgx/devel/optee/optee_os/lib/libutee/trace_ext.c:53
    1a76:	f8d7 3104 	ldr.w	r3, [r7, #260]	; 0x104
    1a7a:	2b00      	cmp	r3, #0
    1a7c:	da02      	bge.n	1a84 <printf+0x54>
/home/qemu-sgx/devel/optee/optee_os/lib/libutee/trace_ext.c:54
    1a7e:	f8d7 3104 	ldr.w	r3, [r7, #260]	; 0x104
    1a82:	e006      	b.n	1a92 <printf+0x62>
/home/qemu-sgx/devel/optee/optee_os/lib/libutee/trace_ext.c:56
    1a84:	f107 0304 	add.w	r3, r7, #4
    1a88:	4618      	mov	r0, r3
    1a8a:	f7ff ffb5 	bl	19f8 <trace_ext_puts>
/home/qemu-sgx/devel/optee/optee_os/lib/libutee/trace_ext.c:58
    1a8e:	f8d7 3104 	ldr.w	r3, [r7, #260]	; 0x104
/home/qemu-sgx/devel/optee/optee_os/lib/libutee/trace_ext.c:59 (discriminator 1)
    1a92:	4618      	mov	r0, r3
    1a94:	f507 7784 	add.w	r7, r7, #264	; 0x108
    1a98:	46bd      	mov	sp, r7
    1a9a:	e9dd 7e00 	ldrd	r7, lr, [sp]
    1a9e:	b002      	add	sp, #8
    1aa0:	b004      	add	sp, #16
    1aa2:	4770      	bx	lr

00001aa4 <puts>:
puts():
/home/qemu-sgx/devel/optee/optee_os/lib/libutee/trace_ext.c:62
    1aa4:	e96d 7e02 	strd	r7, lr, [sp, #-8]!
    1aa8:	b082      	sub	sp, #8
    1aaa:	af00      	add	r7, sp, #0
    1aac:	6078      	str	r0, [r7, #4]
/home/qemu-sgx/devel/optee/optee_os/lib/libutee/trace_ext.c:63
    1aae:	f7fe fc7f 	bl	3b0 <trace_get_level>
    1ab2:	4603      	mov	r3, r0
    1ab4:	2b00      	cmp	r3, #0
    1ab6:	dd07      	ble.n	1ac8 <puts+0x24>
/home/qemu-sgx/devel/optee/optee_os/lib/libutee/trace_ext.c:64
    1ab8:	6878      	ldr	r0, [r7, #4]
    1aba:	f7ff ff9d 	bl	19f8 <trace_ext_puts>
/home/qemu-sgx/devel/optee/optee_os/lib/libutee/trace_ext.c:65
    1abe:	4b06      	ldr	r3, [pc, #24]	; (1ad8 <puts+0x34>)
    1ac0:	447b      	add	r3, pc
    1ac2:	4618      	mov	r0, r3
    1ac4:	f7ff ff98 	bl	19f8 <trace_ext_puts>
/home/qemu-sgx/devel/optee/optee_os/lib/libutee/trace_ext.c:67
    1ac8:	f04f 0301 	mov.w	r3, #1
/home/qemu-sgx/devel/optee/optee_os/lib/libutee/trace_ext.c:68
    1acc:	4618      	mov	r0, r3
    1ace:	f107 0708 	add.w	r7, r7, #8
    1ad2:	46bd      	mov	sp, r7
    1ad4:	bd80      	pop	{r7, pc}
    1ad6:	bf00      	nop
    1ad8:	00011dc0 	.word	0x00011dc0

00001adc <putchar>:
putchar():
/home/qemu-sgx/devel/optee/optee_os/lib/libutee/trace_ext.c:71
    1adc:	e96d 7e02 	strd	r7, lr, [sp, #-8]!
    1ae0:	b084      	sub	sp, #16
    1ae2:	af00      	add	r7, sp, #0
    1ae4:	6078      	str	r0, [r7, #4]
/home/qemu-sgx/devel/optee/optee_os/lib/libutee/trace_ext.c:72
    1ae6:	687b      	ldr	r3, [r7, #4]
    1ae8:	b2db      	uxtb	r3, r3
    1aea:	733b      	strb	r3, [r7, #12]
    1aec:	f04f 0300 	mov.w	r3, #0
    1af0:	737b      	strb	r3, [r7, #13]
/home/qemu-sgx/devel/optee/optee_os/lib/libutee/trace_ext.c:74
    1af2:	f7fe fc5d 	bl	3b0 <trace_get_level>
    1af6:	4603      	mov	r3, r0
    1af8:	2b00      	cmp	r3, #0
    1afa:	dd04      	ble.n	1b06 <putchar+0x2a>
/home/qemu-sgx/devel/optee/optee_os/lib/libutee/trace_ext.c:75
    1afc:	f107 030c 	add.w	r3, r7, #12
    1b00:	4618      	mov	r0, r3
    1b02:	f7ff ff79 	bl	19f8 <trace_ext_puts>
/home/qemu-sgx/devel/optee/optee_os/lib/libutee/trace_ext.c:81
    1b06:	687b      	ldr	r3, [r7, #4]
    1b08:	b2db      	uxtb	r3, r3
/home/qemu-sgx/devel/optee/optee_os/lib/libutee/trace_ext.c:82
    1b0a:	4618      	mov	r0, r3
    1b0c:	f107 0710 	add.w	r7, r7, #16
    1b10:	46bd      	mov	sp, r7
    1b12:	bd80      	pop	{r7, pc}

00001b14 <copy_param>:
copy_param():
/home/qemu-sgx/devel/optee/optee_os/lib/libutee/tee_api.c:29
    1b14:	e96d 4508 	strd	r4, r5, [sp, #-32]!
    1b18:	e9cd 7802 	strd	r7, r8, [sp, #8]
    1b1c:	e9cd 9a04 	strd	r9, sl, [sp, #16]
    1b20:	e9cd be06 	strd	fp, lr, [sp, #24]
    1b24:	b090      	sub	sp, #64	; 0x40
    1b26:	af00      	add	r7, sp, #0
    1b28:	61f8      	str	r0, [r7, #28]
    1b2a:	61b9      	str	r1, [r7, #24]
    1b2c:	617a      	str	r2, [r7, #20]
    1b2e:	613b      	str	r3, [r7, #16]
/home/qemu-sgx/devel/optee/optee_os/lib/libutee/tee_api.c:30
    1b30:	f04f 0300 	mov.w	r3, #0
    1b34:	63fb      	str	r3, [r7, #60]	; 0x3c
/home/qemu-sgx/devel/optee/optee_os/lib/libutee/tee_api.c:31
    1b36:	f04f 0300 	mov.w	r3, #0
    1b3a:	63bb      	str	r3, [r7, #56]	; 0x38
/home/qemu-sgx/devel/optee/optee_os/lib/libutee/tee_api.c:32
    1b3c:	f04f 0300 	mov.w	r3, #0
    1b40:	637b      	str	r3, [r7, #52]	; 0x34
/home/qemu-sgx/devel/optee/optee_os/lib/libutee/tee_api.c:33
    1b42:	f04f 0308 	mov.w	r3, #8
    1b46:	62fb      	str	r3, [r7, #44]	; 0x2c
/home/qemu-sgx/devel/optee/optee_os/lib/libutee/tee_api.c:34
    1b48:	f04f 0300 	mov.w	r3, #0
    1b4c:	623b      	str	r3, [r7, #32]
/home/qemu-sgx/devel/optee/optee_os/lib/libutee/tee_api.c:35
    1b4e:	f04f 0300 	mov.w	r3, #0
    1b52:	633b      	str	r3, [r7, #48]	; 0x30
/home/qemu-sgx/devel/optee/optee_os/lib/libutee/tee_api.c:36
    1b54:	f04f 0300 	mov.w	r3, #0
    1b58:	62bb      	str	r3, [r7, #40]	; 0x28
/home/qemu-sgx/devel/optee/optee_os/lib/libutee/tee_api.c:37
    1b5a:	f04f 0301 	mov.w	r3, #1
    1b5e:	627b      	str	r3, [r7, #36]	; 0x24
/home/qemu-sgx/devel/optee/optee_os/lib/libutee/tee_api.c:45
    1b60:	693b      	ldr	r3, [r7, #16]
    1b62:	f04f 0200 	mov.w	r2, #0
    1b66:	601a      	str	r2, [r3, #0]
/home/qemu-sgx/devel/optee/optee_os/lib/libutee/tee_api.c:46
    1b68:	6e3b      	ldr	r3, [r7, #96]	; 0x60
    1b6a:	f04f 0200 	mov.w	r2, #0
    1b6e:	601a      	str	r2, [r3, #0]
/home/qemu-sgx/devel/optee/optee_os/lib/libutee/tee_api.c:47
    1b70:	f04f 0300 	mov.w	r3, #0
    1b74:	63fb      	str	r3, [r7, #60]	; 0x3c
    1b76:	e04b      	b.n	1c10 <copy_param+0xfc>
/home/qemu-sgx/devel/optee/optee_os/lib/libutee/tee_api.c:48
    1b78:	6bfb      	ldr	r3, [r7, #60]	; 0x3c
    1b7a:	ea4f 0383 	mov.w	r3, r3, lsl #2
    1b7e:	6e7a      	ldr	r2, [r7, #100]	; 0x64
    1b80:	4413      	add	r3, r2
    1b82:	f04f 0200 	mov.w	r2, #0
    1b86:	601a      	str	r2, [r3, #0]
/home/qemu-sgx/devel/optee/optee_os/lib/libutee/tee_api.c:49
    1b88:	6bfb      	ldr	r3, [r7, #60]	; 0x3c
    1b8a:	ea4f 0383 	mov.w	r3, r3, lsl #2
    1b8e:	69ba      	ldr	r2, [r7, #24]
    1b90:	fa22 f303 	lsr.w	r3, r2, r3
    1b94:	f003 030f 	and.w	r3, r3, #15
    1b98:	f1a3 0305 	sub.w	r3, r3, #5
    1b9c:	2b02      	cmp	r3, #2
    1b9e:	d830      	bhi.n	1c02 <copy_param+0xee>
/home/qemu-sgx/devel/optee/optee_os/lib/libutee/tee_api.c:53
    1ba0:	6bfb      	ldr	r3, [r7, #60]	; 0x3c
    1ba2:	ea4f 03c3 	mov.w	r3, r3, lsl #3
    1ba6:	697a      	ldr	r2, [r7, #20]
    1ba8:	4413      	add	r3, r2
    1baa:	681b      	ldr	r3, [r3, #0]
    1bac:	633b      	str	r3, [r7, #48]	; 0x30
/home/qemu-sgx/devel/optee/optee_os/lib/libutee/tee_api.c:54
    1bae:	6bfb      	ldr	r3, [r7, #60]	; 0x3c
    1bb0:	ea4f 03c3 	mov.w	r3, r3, lsl #3
    1bb4:	697a      	ldr	r2, [r7, #20]
    1bb6:	4413      	add	r3, r2
    1bb8:	685b      	ldr	r3, [r3, #4]
    1bba:	62bb      	str	r3, [r7, #40]	; 0x28
/home/qemu-sgx/devel/optee/optee_os/lib/libutee/tee_api.c:64
    1bbc:	6b3b      	ldr	r3, [r7, #48]	; 0x30
    1bbe:	2b00      	cmp	r3, #0
    1bc0:	d021      	beq.n	1c06 <copy_param+0xf2>
/home/qemu-sgx/devel/optee/optee_os/lib/libutee/tee_api.c:64 (discriminator 1)
    1bc2:	6abb      	ldr	r3, [r7, #40]	; 0x28
    1bc4:	2b00      	cmp	r3, #0
    1bc6:	d01e      	beq.n	1c06 <copy_param+0xf2>
/home/qemu-sgx/devel/optee/optee_os/lib/libutee/tee_api.c:65 (discriminator 2)
    1bc8:	6aba      	ldr	r2, [r7, #40]	; 0x28
    1bca:	6b39      	ldr	r1, [r7, #48]	; 0x30
    1bcc:	6a78      	ldr	r0, [r7, #36]	; 0x24
    1bce:	f000 fb18 	bl	2202 <TEE_CheckMemoryAccessRights>
    1bd2:	4603      	mov	r3, r0
/home/qemu-sgx/devel/optee/optee_os/lib/libutee/tee_api.c:64 (discriminator 2)
    1bd4:	2b00      	cmp	r3, #0
    1bd6:	d116      	bne.n	1c06 <copy_param+0xf2>
/home/qemu-sgx/devel/optee/optee_os/lib/libutee/tee_api.c:66
    1bd8:	f107 0220 	add.w	r2, r7, #32
    1bdc:	6bfb      	ldr	r3, [r7, #60]	; 0x3c
    1bde:	4413      	add	r3, r2
    1be0:	f04f 0201 	mov.w	r2, #1
    1be4:	701a      	strb	r2, [r3, #0]
/home/qemu-sgx/devel/optee/optee_os/lib/libutee/tee_api.c:67
    1be6:	6afa      	ldr	r2, [r7, #44]	; 0x2c
    1be8:	6abb      	ldr	r3, [r7, #40]	; 0x28
    1bea:	4413      	add	r3, r2
    1bec:	f103 32ff 	add.w	r2, r3, #4294967295	; 0xffffffff
    1bf0:	6afb      	ldr	r3, [r7, #44]	; 0x2c
    1bf2:	f1c3 0300 	rsb	r3, r3, #0
    1bf6:	ea03 0302 	and.w	r3, r3, r2
    1bfa:	6b7a      	ldr	r2, [r7, #52]	; 0x34
    1bfc:	4413      	add	r3, r2
    1bfe:	637b      	str	r3, [r7, #52]	; 0x34
/home/qemu-sgx/devel/optee/optee_os/lib/libutee/tee_api.c:69
    1c00:	e001      	b.n	1c06 <copy_param+0xf2>
/home/qemu-sgx/devel/optee/optee_os/lib/libutee/tee_api.c:71
    1c02:	bf00      	nop
    1c04:	e000      	b.n	1c08 <copy_param+0xf4>
/home/qemu-sgx/devel/optee/optee_os/lib/libutee/tee_api.c:69
    1c06:	bf00      	nop
/home/qemu-sgx/devel/optee/optee_os/lib/libutee/tee_api.c:47 (discriminator 2)
    1c08:	6bfb      	ldr	r3, [r7, #60]	; 0x3c
    1c0a:	f103 0301 	add.w	r3, r3, #1
    1c0e:	63fb      	str	r3, [r7, #60]	; 0x3c
/home/qemu-sgx/devel/optee/optee_os/lib/libutee/tee_api.c:47 (discriminator 1)
    1c10:	6bfb      	ldr	r3, [r7, #60]	; 0x3c
    1c12:	2b03      	cmp	r3, #3
    1c14:	d9b0      	bls.n	1b78 <copy_param+0x64>
/home/qemu-sgx/devel/optee/optee_os/lib/libutee/tee_api.c:75
    1c16:	6b7b      	ldr	r3, [r7, #52]	; 0x34
    1c18:	2b00      	cmp	r3, #0
    1c1a:	d013      	beq.n	1c44 <copy_param+0x130>
/home/qemu-sgx/devel/optee/optee_os/lib/libutee/tee_api.c:76
    1c1c:	f04f 0104 	mov.w	r1, #4
    1c20:	6b78      	ldr	r0, [r7, #52]	; 0x34
    1c22:	f004 fbc5 	bl	63b0 <tee_map_zi>
    1c26:	63b8      	str	r0, [r7, #56]	; 0x38
/home/qemu-sgx/devel/optee/optee_os/lib/libutee/tee_api.c:77
    1c28:	6bbb      	ldr	r3, [r7, #56]	; 0x38
    1c2a:	2b00      	cmp	r3, #0
    1c2c:	d104      	bne.n	1c38 <copy_param+0x124>
/home/qemu-sgx/devel/optee/optee_os/lib/libutee/tee_api.c:78
    1c2e:	f04f 030c 	mov.w	r3, #12
    1c32:	f6cf 73ff 	movt	r3, #65535	; 0xffff
    1c36:	e0df      	b.n	1df8 <copy_param+0x2e4>
/home/qemu-sgx/devel/optee/optee_os/lib/libutee/tee_api.c:79
    1c38:	693b      	ldr	r3, [r7, #16]
    1c3a:	6bba      	ldr	r2, [r7, #56]	; 0x38
    1c3c:	601a      	str	r2, [r3, #0]
/home/qemu-sgx/devel/optee/optee_os/lib/libutee/tee_api.c:80
    1c3e:	6e3b      	ldr	r3, [r7, #96]	; 0x60
    1c40:	6b7a      	ldr	r2, [r7, #52]	; 0x34
    1c42:	601a      	str	r2, [r3, #0]
/home/qemu-sgx/devel/optee/optee_os/lib/libutee/tee_api.c:83
    1c44:	69bb      	ldr	r3, [r7, #24]
    1c46:	f04f 0200 	mov.w	r2, #0
    1c4a:	60bb      	str	r3, [r7, #8]
    1c4c:	60fa      	str	r2, [r7, #12]
    1c4e:	69fb      	ldr	r3, [r7, #28]
    1c50:	e9d7 1202 	ldrd	r1, r2, [r7, #8]
    1c54:	e9c3 1200 	strd	r1, r2, [r3]
/home/qemu-sgx/devel/optee/optee_os/lib/libutee/tee_api.c:84
    1c58:	f04f 0300 	mov.w	r3, #0
    1c5c:	63fb      	str	r3, [r7, #60]	; 0x3c
    1c5e:	e0c5      	b.n	1dec <copy_param+0x2d8>
/home/qemu-sgx/devel/optee/optee_os/lib/libutee/tee_api.c:85
    1c60:	6bfb      	ldr	r3, [r7, #60]	; 0x3c
    1c62:	ea4f 0383 	mov.w	r3, r3, lsl #2
    1c66:	69ba      	ldr	r2, [r7, #24]
    1c68:	fa22 f303 	lsr.w	r3, r2, r3
    1c6c:	f003 030f 	and.w	r3, r3, #15
    1c70:	2b07      	cmp	r3, #7
    1c72:	f200 809a 	bhi.w	1daa <copy_param+0x296>
    1c76:	2b05      	cmp	r3, #5
    1c78:	d231      	bcs.n	1cde <copy_param+0x1ca>
    1c7a:	2b01      	cmp	r3, #1
    1c7c:	d002      	beq.n	1c84 <copy_param+0x170>
    1c7e:	2b03      	cmp	r3, #3
    1c80:	f040 8093 	bne.w	1daa <copy_param+0x296>
/home/qemu-sgx/devel/optee/optee_os/lib/libutee/tee_api.c:88
    1c84:	6bfb      	ldr	r3, [r7, #60]	; 0x3c
    1c86:	ea4f 03c3 	mov.w	r3, r3, lsl #3
    1c8a:	697a      	ldr	r2, [r7, #20]
    1c8c:	4413      	add	r3, r2
    1c8e:	681a      	ldr	r2, [r3, #0]
    1c90:	6bfb      	ldr	r3, [r7, #60]	; 0x3c
    1c92:	ea4f 0343 	mov.w	r3, r3, lsl #1
    1c96:	f04f 0100 	mov.w	r1, #0
    1c9a:	4614      	mov	r4, r2
    1c9c:	460d      	mov	r5, r1
    1c9e:	69fa      	ldr	r2, [r7, #28]
    1ca0:	f103 0301 	add.w	r3, r3, #1
    1ca4:	ea4f 03c3 	mov.w	r3, r3, lsl #3
    1ca8:	4413      	add	r3, r2
    1caa:	e9c3 4500 	strd	r4, r5, [r3]
/home/qemu-sgx/devel/optee/optee_os/lib/libutee/tee_api.c:89
    1cae:	6bfb      	ldr	r3, [r7, #60]	; 0x3c
    1cb0:	ea4f 03c3 	mov.w	r3, r3, lsl #3
    1cb4:	697a      	ldr	r2, [r7, #20]
    1cb6:	4413      	add	r3, r2
    1cb8:	685a      	ldr	r2, [r3, #4]
    1cba:	6bfb      	ldr	r3, [r7, #60]	; 0x3c
    1cbc:	ea4f 0343 	mov.w	r3, r3, lsl #1
    1cc0:	f103 0301 	add.w	r3, r3, #1
    1cc4:	f04f 0100 	mov.w	r1, #0
    1cc8:	4690      	mov	r8, r2
    1cca:	4689      	mov	r9, r1
    1ccc:	69fa      	ldr	r2, [r7, #28]
    1cce:	f103 0301 	add.w	r3, r3, #1
    1cd2:	ea4f 03c3 	mov.w	r3, r3, lsl #3
    1cd6:	4413      	add	r3, r2
    1cd8:	e9c3 8900 	strd	r8, r9, [r3]
/home/qemu-sgx/devel/optee/optee_os/lib/libutee/tee_api.c:90
    1cdc:	e082      	b.n	1de4 <copy_param+0x2d0>
/home/qemu-sgx/devel/optee/optee_os/lib/libutee/tee_api.c:94
    1cde:	6bfb      	ldr	r3, [r7, #60]	; 0x3c
    1ce0:	ea4f 03c3 	mov.w	r3, r3, lsl #3
    1ce4:	697a      	ldr	r2, [r7, #20]
    1ce6:	4413      	add	r3, r2
    1ce8:	685b      	ldr	r3, [r3, #4]
    1cea:	62bb      	str	r3, [r7, #40]	; 0x28
/home/qemu-sgx/devel/optee/optee_os/lib/libutee/tee_api.c:95
    1cec:	f107 0220 	add.w	r2, r7, #32
    1cf0:	6bfb      	ldr	r3, [r7, #60]	; 0x3c
    1cf2:	4413      	add	r3, r2
    1cf4:	781b      	ldrb	r3, [r3, #0]
    1cf6:	2b00      	cmp	r3, #0
    1cf8:	d02b      	beq.n	1d52 <copy_param+0x23e>
/home/qemu-sgx/devel/optee/optee_os/lib/libutee/tee_api.c:96
    1cfa:	6bbb      	ldr	r3, [r7, #56]	; 0x38
    1cfc:	633b      	str	r3, [r7, #48]	; 0x30
/home/qemu-sgx/devel/optee/optee_os/lib/libutee/tee_api.c:97
    1cfe:	6bfb      	ldr	r3, [r7, #60]	; 0x3c
    1d00:	ea4f 0383 	mov.w	r3, r3, lsl #2
    1d04:	6e7a      	ldr	r2, [r7, #100]	; 0x64
    1d06:	4413      	add	r3, r2
    1d08:	6bba      	ldr	r2, [r7, #56]	; 0x38
    1d0a:	601a      	str	r2, [r3, #0]
/home/qemu-sgx/devel/optee/optee_os/lib/libutee/tee_api.c:98
    1d0c:	6afa      	ldr	r2, [r7, #44]	; 0x2c
    1d0e:	6abb      	ldr	r3, [r7, #40]	; 0x28
    1d10:	4413      	add	r3, r2
    1d12:	f103 32ff 	add.w	r2, r3, #4294967295	; 0xffffffff
    1d16:	6afb      	ldr	r3, [r7, #44]	; 0x2c
    1d18:	f1c3 0300 	rsb	r3, r3, #0
    1d1c:	ea03 0302 	and.w	r3, r3, r2
    1d20:	6bba      	ldr	r2, [r7, #56]	; 0x38
    1d22:	4413      	add	r3, r2
    1d24:	63bb      	str	r3, [r7, #56]	; 0x38
/home/qemu-sgx/devel/optee/optee_os/lib/libutee/tee_api.c:99
    1d26:	6bfb      	ldr	r3, [r7, #60]	; 0x3c
    1d28:	ea4f 0383 	mov.w	r3, r3, lsl #2
    1d2c:	69ba      	ldr	r2, [r7, #24]
    1d2e:	fa22 f303 	lsr.w	r3, r2, r3
    1d32:	f003 030f 	and.w	r3, r3, #15
    1d36:	2b06      	cmp	r3, #6
    1d38:	d012      	beq.n	1d60 <copy_param+0x24c>
/home/qemu-sgx/devel/optee/optee_os/lib/libutee/tee_api.c:101
    1d3a:	6bfb      	ldr	r3, [r7, #60]	; 0x3c
    1d3c:	ea4f 03c3 	mov.w	r3, r3, lsl #3
    1d40:	697a      	ldr	r2, [r7, #20]
    1d42:	4413      	add	r3, r2
    1d44:	681b      	ldr	r3, [r3, #0]
    1d46:	6aba      	ldr	r2, [r7, #40]	; 0x28
    1d48:	4619      	mov	r1, r3
    1d4a:	6b38      	ldr	r0, [r7, #48]	; 0x30
    1d4c:	f011 fab6 	bl	132bc <memcpy>
    1d50:	e006      	b.n	1d60 <copy_param+0x24c>
/home/qemu-sgx/devel/optee/optee_os/lib/libutee/tee_api.c:103
    1d52:	6bfb      	ldr	r3, [r7, #60]	; 0x3c
    1d54:	ea4f 03c3 	mov.w	r3, r3, lsl #3
    1d58:	697a      	ldr	r2, [r7, #20]
    1d5a:	4413      	add	r3, r2
    1d5c:	681b      	ldr	r3, [r3, #0]
    1d5e:	633b      	str	r3, [r7, #48]	; 0x30
/home/qemu-sgx/devel/optee/optee_os/lib/libutee/tee_api.c:105
    1d60:	6b3a      	ldr	r2, [r7, #48]	; 0x30
    1d62:	6bfb      	ldr	r3, [r7, #60]	; 0x3c
    1d64:	ea4f 0343 	mov.w	r3, r3, lsl #1
    1d68:	f04f 0100 	mov.w	r1, #0
    1d6c:	4692      	mov	sl, r2
    1d6e:	468b      	mov	fp, r1
    1d70:	69fa      	ldr	r2, [r7, #28]
    1d72:	f103 0301 	add.w	r3, r3, #1
    1d76:	ea4f 03c3 	mov.w	r3, r3, lsl #3
    1d7a:	4413      	add	r3, r2
    1d7c:	e9c3 ab00 	strd	sl, fp, [r3]
/home/qemu-sgx/devel/optee/optee_os/lib/libutee/tee_api.c:106
    1d80:	6bfb      	ldr	r3, [r7, #60]	; 0x3c
    1d82:	ea4f 0343 	mov.w	r3, r3, lsl #1
    1d86:	f103 0301 	add.w	r3, r3, #1
    1d8a:	6aba      	ldr	r2, [r7, #40]	; 0x28
    1d8c:	f04f 0100 	mov.w	r1, #0
    1d90:	603a      	str	r2, [r7, #0]
    1d92:	6079      	str	r1, [r7, #4]
    1d94:	69fa      	ldr	r2, [r7, #28]
    1d96:	f103 0301 	add.w	r3, r3, #1
    1d9a:	ea4f 03c3 	mov.w	r3, r3, lsl #3
    1d9e:	4413      	add	r3, r2
    1da0:	e9d7 1200 	ldrd	r1, r2, [r7]
    1da4:	e9c3 1200 	strd	r1, r2, [r3]
/home/qemu-sgx/devel/optee/optee_os/lib/libutee/tee_api.c:107
    1da8:	e01c      	b.n	1de4 <copy_param+0x2d0>
/home/qemu-sgx/devel/optee/optee_os/lib/libutee/tee_api.c:109
    1daa:	6bfb      	ldr	r3, [r7, #60]	; 0x3c
    1dac:	ea4f 0343 	mov.w	r3, r3, lsl #1
    1db0:	69fa      	ldr	r2, [r7, #28]
    1db2:	f103 0301 	add.w	r3, r3, #1
    1db6:	ea4f 03c3 	mov.w	r3, r3, lsl #3
    1dba:	4413      	add	r3, r2
    1dbc:	efc0 0010 	vmov.i32	d16, #0	; 0x00000000
    1dc0:	edc3 0b00 	vstr	d16, [r3]
/home/qemu-sgx/devel/optee/optee_os/lib/libutee/tee_api.c:110
    1dc4:	6bfb      	ldr	r3, [r7, #60]	; 0x3c
    1dc6:	ea4f 0343 	mov.w	r3, r3, lsl #1
    1dca:	f103 0301 	add.w	r3, r3, #1
    1dce:	69fa      	ldr	r2, [r7, #28]
    1dd0:	f103 0301 	add.w	r3, r3, #1
    1dd4:	ea4f 03c3 	mov.w	r3, r3, lsl #3
    1dd8:	4413      	add	r3, r2
    1dda:	efc0 0010 	vmov.i32	d16, #0	; 0x00000000
    1dde:	edc3 0b00 	vstr	d16, [r3]
/home/qemu-sgx/devel/optee/optee_os/lib/libutee/tee_api.c:111
    1de2:	bf00      	nop
/home/qemu-sgx/devel/optee/optee_os/lib/libutee/tee_api.c:84 (discriminator 2)
    1de4:	6bfb      	ldr	r3, [r7, #60]	; 0x3c
    1de6:	f103 0301 	add.w	r3, r3, #1
    1dea:	63fb      	str	r3, [r7, #60]	; 0x3c
/home/qemu-sgx/devel/optee/optee_os/lib/libutee/tee_api.c:84 (discriminator 1)
    1dec:	6bfb      	ldr	r3, [r7, #60]	; 0x3c
    1dee:	2b03      	cmp	r3, #3
    1df0:	f67f af36 	bls.w	1c60 <copy_param+0x14c>
/home/qemu-sgx/devel/optee/optee_os/lib/libutee/tee_api.c:115
    1df4:	f04f 0300 	mov.w	r3, #0
/home/qemu-sgx/devel/optee/optee_os/lib/libutee/tee_api.c:116 (discriminator 1)
    1df8:	4618      	mov	r0, r3
    1dfa:	f107 0740 	add.w	r7, r7, #64	; 0x40
    1dfe:	46bd      	mov	sp, r7
    1e00:	e9dd 4500 	ldrd	r4, r5, [sp]
    1e04:	e9dd 7802 	ldrd	r7, r8, [sp, #8]
    1e08:	e9dd 9a04 	ldrd	r9, sl, [sp, #16]
    1e0c:	b006      	add	sp, #24
    1e0e:	e8bd 8800 	ldmia.w	sp!, {fp, pc}

00001e12 <update_out_param>:
update_out_param():
/home/qemu-sgx/devel/optee/optee_os/lib/libutee/tee_api.c:121
    1e12:	e96d 7e02 	strd	r7, lr, [sp, #-8]!
    1e16:	b08a      	sub	sp, #40	; 0x28
    1e18:	af00      	add	r7, sp, #0
    1e1a:	60f8      	str	r0, [r7, #12]
    1e1c:	60b9      	str	r1, [r7, #8]
    1e1e:	607a      	str	r2, [r7, #4]
/home/qemu-sgx/devel/optee/optee_os/lib/libutee/tee_api.c:123
    1e20:	687b      	ldr	r3, [r7, #4]
    1e22:	e9d3 2300 	ldrd	r2, r3, [r3]
    1e26:	4613      	mov	r3, r2
    1e28:	623b      	str	r3, [r7, #32]
/home/qemu-sgx/devel/optee/optee_os/lib/libutee/tee_api.c:125
    1e2a:	f04f 0300 	mov.w	r3, #0
    1e2e:	627b      	str	r3, [r7, #36]	; 0x24
    1e30:	e06e      	b.n	1f10 <update_out_param+0xfe>
/home/qemu-sgx/devel/optee/optee_os/lib/libutee/tee_api.c:126
    1e32:	6a7b      	ldr	r3, [r7, #36]	; 0x24
    1e34:	ea4f 0343 	mov.w	r3, r3, lsl #1
    1e38:	687a      	ldr	r2, [r7, #4]
    1e3a:	f103 0301 	add.w	r3, r3, #1
    1e3e:	ea4f 03c3 	mov.w	r3, r3, lsl #3
    1e42:	4413      	add	r3, r2
    1e44:	e9d3 2300 	ldrd	r2, r3, [r3]
    1e48:	4613      	mov	r3, r2
    1e4a:	61fb      	str	r3, [r7, #28]
/home/qemu-sgx/devel/optee/optee_os/lib/libutee/tee_api.c:127
    1e4c:	6a7b      	ldr	r3, [r7, #36]	; 0x24
    1e4e:	ea4f 0343 	mov.w	r3, r3, lsl #1
    1e52:	f103 0301 	add.w	r3, r3, #1
    1e56:	687a      	ldr	r2, [r7, #4]
    1e58:	f103 0301 	add.w	r3, r3, #1
    1e5c:	ea4f 03c3 	mov.w	r3, r3, lsl #3
    1e60:	4413      	add	r3, r2
    1e62:	e9d3 2300 	ldrd	r2, r3, [r3]
    1e66:	4613      	mov	r3, r2
    1e68:	61bb      	str	r3, [r7, #24]
/home/qemu-sgx/devel/optee/optee_os/lib/libutee/tee_api.c:129
    1e6a:	6a7b      	ldr	r3, [r7, #36]	; 0x24
    1e6c:	ea4f 0383 	mov.w	r3, r3, lsl #2
    1e70:	6a3a      	ldr	r2, [r7, #32]
    1e72:	fa22 f303 	lsr.w	r3, r2, r3
    1e76:	f003 030f 	and.w	r3, r3, #15
    1e7a:	2b03      	cmp	r3, #3
    1e7c:	d802      	bhi.n	1e84 <update_out_param+0x72>
    1e7e:	2b02      	cmp	r3, #2
    1e80:	d205      	bcs.n	1e8e <update_out_param+0x7c>
/home/qemu-sgx/devel/optee/optee_os/lib/libutee/tee_api.c:143
    1e82:	e040      	b.n	1f06 <update_out_param+0xf4>
    1e84:	f1a3 0306 	sub.w	r3, r3, #6
/home/qemu-sgx/devel/optee/optee_os/lib/libutee/tee_api.c:129
    1e88:	2b01      	cmp	r3, #1
    1e8a:	d83c      	bhi.n	1f06 <update_out_param+0xf4>
    1e8c:	e00e      	b.n	1eac <update_out_param+0x9a>
/home/qemu-sgx/devel/optee/optee_os/lib/libutee/tee_api.c:132
    1e8e:	6a7b      	ldr	r3, [r7, #36]	; 0x24
    1e90:	ea4f 03c3 	mov.w	r3, r3, lsl #3
    1e94:	68fa      	ldr	r2, [r7, #12]
    1e96:	4413      	add	r3, r2
    1e98:	69fa      	ldr	r2, [r7, #28]
    1e9a:	601a      	str	r2, [r3, #0]
/home/qemu-sgx/devel/optee/optee_os/lib/libutee/tee_api.c:133
    1e9c:	6a7b      	ldr	r3, [r7, #36]	; 0x24
    1e9e:	ea4f 03c3 	mov.w	r3, r3, lsl #3
    1ea2:	68fa      	ldr	r2, [r7, #12]
    1ea4:	4413      	add	r3, r2
    1ea6:	69ba      	ldr	r2, [r7, #24]
    1ea8:	605a      	str	r2, [r3, #4]
/home/qemu-sgx/devel/optee/optee_os/lib/libutee/tee_api.c:134
    1eaa:	e02d      	b.n	1f08 <update_out_param+0xf6>
/home/qemu-sgx/devel/optee/optee_os/lib/libutee/tee_api.c:137
    1eac:	6a7b      	ldr	r3, [r7, #36]	; 0x24
    1eae:	ea4f 0383 	mov.w	r3, r3, lsl #2
    1eb2:	68ba      	ldr	r2, [r7, #8]
    1eb4:	4413      	add	r3, r2
    1eb6:	681b      	ldr	r3, [r3, #0]
    1eb8:	2b00      	cmp	r3, #0
    1eba:	d01c      	beq.n	1ef6 <update_out_param+0xe4>
/home/qemu-sgx/devel/optee/optee_os/lib/libutee/tee_api.c:138
    1ebc:	6a7b      	ldr	r3, [r7, #36]	; 0x24
    1ebe:	ea4f 03c3 	mov.w	r3, r3, lsl #3
    1ec2:	68fa      	ldr	r2, [r7, #12]
    1ec4:	4413      	add	r3, r2
    1ec6:	6818      	ldr	r0, [r3, #0]
    1ec8:	6a7b      	ldr	r3, [r7, #36]	; 0x24
    1eca:	ea4f 0383 	mov.w	r3, r3, lsl #2
    1ece:	68ba      	ldr	r2, [r7, #8]
    1ed0:	4413      	add	r3, r2
    1ed2:	6819      	ldr	r1, [r3, #0]
/home/qemu-sgx/devel/optee/optee_os/lib/libutee/tee_api.c:139
    1ed4:	69bb      	ldr	r3, [r7, #24]
    1ed6:	617b      	str	r3, [r7, #20]
    1ed8:	6a7b      	ldr	r3, [r7, #36]	; 0x24
    1eda:	ea4f 03c3 	mov.w	r3, r3, lsl #3
    1ede:	68fa      	ldr	r2, [r7, #12]
    1ee0:	4413      	add	r3, r2
    1ee2:	685b      	ldr	r3, [r3, #4]
    1ee4:	613b      	str	r3, [r7, #16]
    1ee6:	693a      	ldr	r2, [r7, #16]
    1ee8:	697b      	ldr	r3, [r7, #20]
    1eea:	4293      	cmp	r3, r2
    1eec:	bf28      	it	cs
    1eee:	4613      	movcs	r3, r2
/home/qemu-sgx/devel/optee/optee_os/lib/libutee/tee_api.c:138
    1ef0:	461a      	mov	r2, r3
    1ef2:	f011 f9e3 	bl	132bc <memcpy>
/home/qemu-sgx/devel/optee/optee_os/lib/libutee/tee_api.c:140
    1ef6:	6a7b      	ldr	r3, [r7, #36]	; 0x24
    1ef8:	ea4f 03c3 	mov.w	r3, r3, lsl #3
    1efc:	68fa      	ldr	r2, [r7, #12]
    1efe:	4413      	add	r3, r2
    1f00:	69ba      	ldr	r2, [r7, #24]
    1f02:	605a      	str	r2, [r3, #4]
/home/qemu-sgx/devel/optee/optee_os/lib/libutee/tee_api.c:141
    1f04:	e000      	b.n	1f08 <update_out_param+0xf6>
/home/qemu-sgx/devel/optee/optee_os/lib/libutee/tee_api.c:143
    1f06:	bf00      	nop
/home/qemu-sgx/devel/optee/optee_os/lib/libutee/tee_api.c:125 (discriminator 2)
    1f08:	6a7b      	ldr	r3, [r7, #36]	; 0x24
    1f0a:	f103 0301 	add.w	r3, r3, #1
    1f0e:	627b      	str	r3, [r7, #36]	; 0x24
/home/qemu-sgx/devel/optee/optee_os/lib/libutee/tee_api.c:125 (discriminator 1)
    1f10:	6a7b      	ldr	r3, [r7, #36]	; 0x24
    1f12:	2b03      	cmp	r3, #3
    1f14:	d98d      	bls.n	1e32 <update_out_param+0x20>
/home/qemu-sgx/devel/optee/optee_os/lib/libutee/tee_api.c:146
    1f16:	bf00      	nop
    1f18:	bf00      	nop
    1f1a:	f107 0728 	add.w	r7, r7, #40	; 0x28
    1f1e:	46bd      	mov	sp, r7
    1f20:	bd80      	pop	{r7, pc}

00001f22 <TEE_OpenTASession>:
TEE_OpenTASession():
/home/qemu-sgx/devel/optee/optee_os/lib/libutee/tee_api.c:154
    1f22:	e96d 7e02 	strd	r7, lr, [sp, #-8]!
    1f26:	b0a2      	sub	sp, #136	; 0x88
    1f28:	af02      	add	r7, sp, #8
    1f2a:	60f8      	str	r0, [r7, #12]
    1f2c:	60b9      	str	r1, [r7, #8]
    1f2e:	607a      	str	r2, [r7, #4]
    1f30:	603b      	str	r3, [r7, #0]
/home/qemu-sgx/devel/optee/optee_os/lib/libutee/tee_api.c:155
    1f32:	f04f 0300 	mov.w	r3, #0
    1f36:	67fb      	str	r3, [r7, #124]	; 0x7c
/home/qemu-sgx/devel/optee/optee_os/lib/libutee/tee_api.c:157
    1f38:	f04f 0300 	mov.w	r3, #0
    1f3c:	62fb      	str	r3, [r7, #44]	; 0x2c
/home/qemu-sgx/devel/optee/optee_os/lib/libutee/tee_api.c:158
    1f3e:	f04f 0300 	mov.w	r3, #0
    1f42:	62bb      	str	r3, [r7, #40]	; 0x28
/home/qemu-sgx/devel/optee/optee_os/lib/libutee/tee_api.c:159
    1f44:	f04f 0300 	mov.w	r3, #0
    1f48:	627b      	str	r3, [r7, #36]	; 0x24
/home/qemu-sgx/devel/optee/optee_os/lib/libutee/tee_api.c:160
    1f4a:	f107 0314 	add.w	r3, r7, #20
    1f4e:	efc0 0010 	vmov.i32	d16, #0	; 0x00000000
    1f52:	edc3 0b00 	vstr	d16, [r3]
    1f56:	edc3 0b02 	vstr	d16, [r3, #8]
/home/qemu-sgx/devel/optee/optee_os/lib/libutee/tee_api.c:162
    1f5a:	687b      	ldr	r3, [r7, #4]
    1f5c:	2b00      	cmp	r3, #0
    1f5e:	d004      	beq.n	1f6a <TEE_OpenTASession+0x48>
/home/qemu-sgx/devel/optee/optee_os/lib/libutee/tee_api.c:163
    1f60:	f04f 0120 	mov.w	r1, #32
    1f64:	6838      	ldr	r0, [r7, #0]
    1f66:	f004 f97b 	bl	6260 <__utee_check_inout_annotation>
/home/qemu-sgx/devel/optee/optee_os/lib/libutee/tee_api.c:166
    1f6a:	f04f 0104 	mov.w	r1, #4
    1f6e:	f8d7 0088 	ldr.w	r0, [r7, #136]	; 0x88
    1f72:	f004 f939 	bl	61e8 <__utee_check_out_annotation>
/home/qemu-sgx/devel/optee/optee_os/lib/libutee/tee_api.c:168
    1f76:	f107 0228 	add.w	r2, r7, #40	; 0x28
    1f7a:	f107 0030 	add.w	r0, r7, #48	; 0x30
    1f7e:	f107 0314 	add.w	r3, r7, #20
    1f82:	9301      	str	r3, [sp, #4]
    1f84:	f107 0324 	add.w	r3, r7, #36	; 0x24
    1f88:	9300      	str	r3, [sp, #0]
    1f8a:	4613      	mov	r3, r2
    1f8c:	683a      	ldr	r2, [r7, #0]
    1f8e:	6879      	ldr	r1, [r7, #4]
    1f90:	f7ff fdc0 	bl	1b14 <copy_param>
    1f94:	67f8      	str	r0, [r7, #124]	; 0x7c
/home/qemu-sgx/devel/optee/optee_os/lib/libutee/tee_api.c:169
    1f96:	6ffb      	ldr	r3, [r7, #124]	; 0x7c
    1f98:	2b00      	cmp	r3, #0
    1f9a:	d125      	bne.n	1fe8 <TEE_OpenTASession+0xc6>
/home/qemu-sgx/devel/optee/optee_os/lib/libutee/tee_api.c:171
    1f9c:	f107 012c 	add.w	r1, r7, #44	; 0x2c
    1fa0:	f107 0230 	add.w	r2, r7, #48	; 0x30
    1fa4:	f8d7 308c 	ldr.w	r3, [r7, #140]	; 0x8c
    1fa8:	9300      	str	r3, [sp, #0]
    1faa:	460b      	mov	r3, r1
    1fac:	68b9      	ldr	r1, [r7, #8]
    1fae:	68f8      	ldr	r0, [r7, #12]
    1fb0:	f004 eb46 	blx	6640 <_utee_open_ta_session>
    1fb4:	67f8      	str	r0, [r7, #124]	; 0x7c
/home/qemu-sgx/devel/optee/optee_os/lib/libutee/tee_api.c:173
    1fb6:	f107 0230 	add.w	r2, r7, #48	; 0x30
    1fba:	f107 0314 	add.w	r3, r7, #20
    1fbe:	4619      	mov	r1, r3
    1fc0:	6838      	ldr	r0, [r7, #0]
    1fc2:	f7ff ff26 	bl	1e12 <update_out_param>
/home/qemu-sgx/devel/optee/optee_os/lib/libutee/tee_api.c:174
    1fc6:	6abb      	ldr	r3, [r7, #40]	; 0x28
    1fc8:	2b00      	cmp	r3, #0
    1fca:	d00f      	beq.n	1fec <TEE_OpenTASession+0xca>
/home/qemu-sgx/devel/optee/optee_os/lib/libutee/tee_api.c:175
    1fcc:	6abb      	ldr	r3, [r7, #40]	; 0x28
    1fce:	6a7a      	ldr	r2, [r7, #36]	; 0x24
    1fd0:	4611      	mov	r1, r2
    1fd2:	4618      	mov	r0, r3
    1fd4:	f004 fa38 	bl	6448 <tee_unmap>
    1fd8:	67b8      	str	r0, [r7, #120]	; 0x78
/home/qemu-sgx/devel/optee/optee_os/lib/libutee/tee_api.c:177
    1fda:	6fbb      	ldr	r3, [r7, #120]	; 0x78
    1fdc:	2b00      	cmp	r3, #0
    1fde:	d005      	beq.n	1fec <TEE_OpenTASession+0xca>
/home/qemu-sgx/devel/optee/optee_os/lib/libutee/tee_api.c:178
    1fe0:	6fb8      	ldr	r0, [r7, #120]	; 0x78
    1fe2:	f004 f849 	bl	6078 <TEE_Panic>
    1fe6:	e002      	b.n	1fee <TEE_OpenTASession+0xcc>
/home/qemu-sgx/devel/optee/optee_os/lib/libutee/tee_api.c:170
    1fe8:	bf00      	nop
    1fea:	e000      	b.n	1fee <TEE_OpenTASession+0xcc>
/home/qemu-sgx/devel/optee/optee_os/lib/libutee/tee_api.c:181
    1fec:	bf00      	nop
/home/qemu-sgx/devel/optee/optee_os/lib/libutee/tee_api.c:187
    1fee:	6ffb      	ldr	r3, [r7, #124]	; 0x7c
    1ff0:	2b00      	cmp	r3, #0
    1ff2:	d002      	beq.n	1ffa <TEE_OpenTASession+0xd8>
/home/qemu-sgx/devel/optee/optee_os/lib/libutee/tee_api.c:188
    1ff4:	f04f 0300 	mov.w	r3, #0
    1ff8:	62fb      	str	r3, [r7, #44]	; 0x2c
/home/qemu-sgx/devel/optee/optee_os/lib/libutee/tee_api.c:190
    1ffa:	6afb      	ldr	r3, [r7, #44]	; 0x2c
    1ffc:	461a      	mov	r2, r3
    1ffe:	f8d7 3088 	ldr.w	r3, [r7, #136]	; 0x88
    2002:	601a      	str	r2, [r3, #0]
/home/qemu-sgx/devel/optee/optee_os/lib/libutee/tee_api.c:191
    2004:	6ffb      	ldr	r3, [r7, #124]	; 0x7c
/home/qemu-sgx/devel/optee/optee_os/lib/libutee/tee_api.c:192
    2006:	4618      	mov	r0, r3
    2008:	f107 0780 	add.w	r7, r7, #128	; 0x80
    200c:	46bd      	mov	sp, r7
    200e:	bd80      	pop	{r7, pc}

00002010 <TEE_CloseTASession>:
TEE_CloseTASession():
/home/qemu-sgx/devel/optee/optee_os/lib/libutee/tee_api.c:195
    2010:	e96d 7e02 	strd	r7, lr, [sp, #-8]!
    2014:	b084      	sub	sp, #16
    2016:	af00      	add	r7, sp, #0
    2018:	6078      	str	r0, [r7, #4]
/home/qemu-sgx/devel/optee/optee_os/lib/libutee/tee_api.c:196
    201a:	687b      	ldr	r3, [r7, #4]
    201c:	2b00      	cmp	r3, #0
    201e:	d00a      	beq.n	2036 <TEE_CloseTASession+0x26>
/home/qemu-sgx/devel/optee/optee_os/lib/libutee/tee_api.c:197
    2020:	687b      	ldr	r3, [r7, #4]
    2022:	4618      	mov	r0, r3
    2024:	f004 eb18 	blx	6658 <_utee_close_ta_session>
    2028:	60f8      	str	r0, [r7, #12]
/home/qemu-sgx/devel/optee/optee_os/lib/libutee/tee_api.c:199
    202a:	68fb      	ldr	r3, [r7, #12]
    202c:	2b00      	cmp	r3, #0
    202e:	d002      	beq.n	2036 <TEE_CloseTASession+0x26>
/home/qemu-sgx/devel/optee/optee_os/lib/libutee/tee_api.c:200
    2030:	68f8      	ldr	r0, [r7, #12]
    2032:	f004 f821 	bl	6078 <TEE_Panic>
/home/qemu-sgx/devel/optee/optee_os/lib/libutee/tee_api.c:202
    2036:	bf00      	nop
    2038:	f107 0710 	add.w	r7, r7, #16
    203c:	46bd      	mov	sp, r7
    203e:	bd80      	pop	{r7, pc}

00002040 <TEE_InvokeTACommand>:
TEE_InvokeTACommand():
/home/qemu-sgx/devel/optee/optee_os/lib/libutee/tee_api.c:209
    2040:	e96d 7e02 	strd	r7, lr, [sp, #-8]!
    2044:	b0a2      	sub	sp, #136	; 0x88
    2046:	af02      	add	r7, sp, #8
    2048:	60f8      	str	r0, [r7, #12]
    204a:	60b9      	str	r1, [r7, #8]
    204c:	607a      	str	r2, [r7, #4]
    204e:	603b      	str	r3, [r7, #0]
/home/qemu-sgx/devel/optee/optee_os/lib/libutee/tee_api.c:210
    2050:	f04f 0300 	mov.w	r3, #0
    2054:	67fb      	str	r3, [r7, #124]	; 0x7c
/home/qemu-sgx/devel/optee/optee_os/lib/libutee/tee_api.c:211
    2056:	f04f 0303 	mov.w	r3, #3
    205a:	677b      	str	r3, [r7, #116]	; 0x74
/home/qemu-sgx/devel/optee/optee_os/lib/libutee/tee_api.c:213
    205c:	f04f 0300 	mov.w	r3, #0
    2060:	627b      	str	r3, [r7, #36]	; 0x24
/home/qemu-sgx/devel/optee/optee_os/lib/libutee/tee_api.c:214
    2062:	f04f 0300 	mov.w	r3, #0
    2066:	623b      	str	r3, [r7, #32]
/home/qemu-sgx/devel/optee/optee_os/lib/libutee/tee_api.c:215
    2068:	f107 0310 	add.w	r3, r7, #16
    206c:	efc0 0010 	vmov.i32	d16, #0	; 0x00000000
    2070:	edc3 0b00 	vstr	d16, [r3]
    2074:	edc3 0b02 	vstr	d16, [r3, #8]
/home/qemu-sgx/devel/optee/optee_os/lib/libutee/tee_api.c:217
    2078:	683b      	ldr	r3, [r7, #0]
    207a:	2b00      	cmp	r3, #0
    207c:	d005      	beq.n	208a <TEE_InvokeTACommand+0x4a>
/home/qemu-sgx/devel/optee/optee_os/lib/libutee/tee_api.c:218
    207e:	f04f 0120 	mov.w	r1, #32
    2082:	f8d7 0088 	ldr.w	r0, [r7, #136]	; 0x88
    2086:	f004 f8eb 	bl	6260 <__utee_check_inout_annotation>
/home/qemu-sgx/devel/optee/optee_os/lib/libutee/tee_api.c:221
    208a:	f8d7 308c 	ldr.w	r3, [r7, #140]	; 0x8c
    208e:	2b00      	cmp	r3, #0
    2090:	d005      	beq.n	209e <TEE_InvokeTACommand+0x5e>
/home/qemu-sgx/devel/optee/optee_os/lib/libutee/tee_api.c:222
    2092:	f04f 0104 	mov.w	r1, #4
    2096:	f8d7 008c 	ldr.w	r0, [r7, #140]	; 0x8c
    209a:	f004 f8a5 	bl	61e8 <__utee_check_out_annotation>
/home/qemu-sgx/devel/optee/optee_os/lib/libutee/tee_api.c:225
    209e:	f107 0224 	add.w	r2, r7, #36	; 0x24
    20a2:	f107 0028 	add.w	r0, r7, #40	; 0x28
    20a6:	f107 0310 	add.w	r3, r7, #16
    20aa:	9301      	str	r3, [sp, #4]
    20ac:	f107 0320 	add.w	r3, r7, #32
    20b0:	9300      	str	r3, [sp, #0]
    20b2:	4613      	mov	r3, r2
    20b4:	f8d7 2088 	ldr.w	r2, [r7, #136]	; 0x88
    20b8:	6839      	ldr	r1, [r7, #0]
    20ba:	f7ff fd2b 	bl	1b14 <copy_param>
    20be:	67f8      	str	r0, [r7, #124]	; 0x7c
/home/qemu-sgx/devel/optee/optee_os/lib/libutee/tee_api.c:226
    20c0:	6ffb      	ldr	r3, [r7, #124]	; 0x7c
    20c2:	2b00      	cmp	r3, #0
    20c4:	d125      	bne.n	2112 <TEE_InvokeTACommand+0xd2>
/home/qemu-sgx/devel/optee/optee_os/lib/libutee/tee_api.c:228
    20c6:	68f8      	ldr	r0, [r7, #12]
    20c8:	f107 0228 	add.w	r2, r7, #40	; 0x28
    20cc:	f107 0374 	add.w	r3, r7, #116	; 0x74
    20d0:	9300      	str	r3, [sp, #0]
    20d2:	4613      	mov	r3, r2
    20d4:	687a      	ldr	r2, [r7, #4]
    20d6:	68b9      	ldr	r1, [r7, #8]
    20d8:	f004 eac8 	blx	666c <_utee_invoke_ta_command>
    20dc:	67f8      	str	r0, [r7, #124]	; 0x7c
/home/qemu-sgx/devel/optee/optee_os/lib/libutee/tee_api.c:231
    20de:	f107 0228 	add.w	r2, r7, #40	; 0x28
    20e2:	f107 0310 	add.w	r3, r7, #16
    20e6:	4619      	mov	r1, r3
    20e8:	f8d7 0088 	ldr.w	r0, [r7, #136]	; 0x88
    20ec:	f7ff fe91 	bl	1e12 <update_out_param>
/home/qemu-sgx/devel/optee/optee_os/lib/libutee/tee_api.c:232
    20f0:	6a7b      	ldr	r3, [r7, #36]	; 0x24
    20f2:	2b00      	cmp	r3, #0
    20f4:	d00f      	beq.n	2116 <TEE_InvokeTACommand+0xd6>
/home/qemu-sgx/devel/optee/optee_os/lib/libutee/tee_api.c:233
    20f6:	6a7b      	ldr	r3, [r7, #36]	; 0x24
    20f8:	6a3a      	ldr	r2, [r7, #32]
    20fa:	4611      	mov	r1, r2
    20fc:	4618      	mov	r0, r3
    20fe:	f004 f9a3 	bl	6448 <tee_unmap>
    2102:	67b8      	str	r0, [r7, #120]	; 0x78
/home/qemu-sgx/devel/optee/optee_os/lib/libutee/tee_api.c:235
    2104:	6fbb      	ldr	r3, [r7, #120]	; 0x78
    2106:	2b00      	cmp	r3, #0
    2108:	d005      	beq.n	2116 <TEE_InvokeTACommand+0xd6>
/home/qemu-sgx/devel/optee/optee_os/lib/libutee/tee_api.c:236
    210a:	6fb8      	ldr	r0, [r7, #120]	; 0x78
    210c:	f003 ffb4 	bl	6078 <TEE_Panic>
    2110:	e002      	b.n	2118 <TEE_InvokeTACommand+0xd8>
/home/qemu-sgx/devel/optee/optee_os/lib/libutee/tee_api.c:227
    2112:	bf00      	nop
    2114:	e000      	b.n	2118 <TEE_InvokeTACommand+0xd8>
/home/qemu-sgx/devel/optee/optee_os/lib/libutee/tee_api.c:239
    2116:	bf00      	nop
/home/qemu-sgx/devel/optee/optee_os/lib/libutee/tee_api.c:240
    2118:	f8d7 308c 	ldr.w	r3, [r7, #140]	; 0x8c
    211c:	2b00      	cmp	r3, #0
    211e:	d003      	beq.n	2128 <TEE_InvokeTACommand+0xe8>
/home/qemu-sgx/devel/optee/optee_os/lib/libutee/tee_api.c:241
    2120:	6f7a      	ldr	r2, [r7, #116]	; 0x74
    2122:	f8d7 308c 	ldr.w	r3, [r7, #140]	; 0x8c
    2126:	601a      	str	r2, [r3, #0]
/home/qemu-sgx/devel/optee/optee_os/lib/libutee/tee_api.c:243
    2128:	6f7b      	ldr	r3, [r7, #116]	; 0x74
    212a:	2b04      	cmp	r3, #4
    212c:	d101      	bne.n	2132 <TEE_InvokeTACommand+0xf2>
/home/qemu-sgx/devel/optee/optee_os/lib/libutee/tee_api.c:244
    212e:	6ffb      	ldr	r3, [r7, #124]	; 0x7c
    2130:	e014      	b.n	215c <TEE_InvokeTACommand+0x11c>
/home/qemu-sgx/devel/optee/optee_os/lib/libutee/tee_api.c:246
    2132:	6ffb      	ldr	r3, [r7, #124]	; 0x7c
    2134:	2b00      	cmp	r3, #0
    2136:	d010      	beq.n	215a <TEE_InvokeTACommand+0x11a>
/home/qemu-sgx/devel/optee/optee_os/lib/libutee/tee_api.c:246 (discriminator 1)
    2138:	6ffa      	ldr	r2, [r7, #124]	; 0x7c
    213a:	f04f 030c 	mov.w	r3, #12
    213e:	f6cf 73ff 	movt	r3, #65535	; 0xffff
    2142:	429a      	cmp	r2, r3
    2144:	d009      	beq.n	215a <TEE_InvokeTACommand+0x11a>
/home/qemu-sgx/devel/optee/optee_os/lib/libutee/tee_api.c:247
    2146:	6ffa      	ldr	r2, [r7, #124]	; 0x7c
    2148:	f243 0324 	movw	r3, #12324	; 0x3024
    214c:	f6cf 73ff 	movt	r3, #65535	; 0xffff
    2150:	429a      	cmp	r2, r3
    2152:	d002      	beq.n	215a <TEE_InvokeTACommand+0x11a>
/home/qemu-sgx/devel/optee/optee_os/lib/libutee/tee_api.c:249
    2154:	6ff8      	ldr	r0, [r7, #124]	; 0x7c
    2156:	f003 ff8f 	bl	6078 <TEE_Panic>
/home/qemu-sgx/devel/optee/optee_os/lib/libutee/tee_api.c:251
    215a:	6ffb      	ldr	r3, [r7, #124]	; 0x7c
/home/qemu-sgx/devel/optee/optee_os/lib/libutee/tee_api.c:252 (discriminator 1)
    215c:	4618      	mov	r0, r3
    215e:	f107 0780 	add.w	r7, r7, #128	; 0x80
    2162:	46bd      	mov	sp, r7
    2164:	bd80      	pop	{r7, pc}

00002166 <TEE_GetCancellationFlag>:
TEE_GetCancellationFlag():
/home/qemu-sgx/devel/optee/optee_os/lib/libutee/tee_api.c:257
    2166:	e96d 7e02 	strd	r7, lr, [sp, #-8]!
    216a:	b082      	sub	sp, #8
    216c:	af00      	add	r7, sp, #0
/home/qemu-sgx/devel/optee/optee_os/lib/libutee/tee_api.c:259
    216e:	463b      	mov	r3, r7
    2170:	4618      	mov	r0, r3
    2172:	f004 ea88 	blx	6684 <_utee_get_cancellation_flag>
    2176:	6078      	str	r0, [r7, #4]
/home/qemu-sgx/devel/optee/optee_os/lib/libutee/tee_api.c:261
    2178:	687b      	ldr	r3, [r7, #4]
    217a:	2b00      	cmp	r3, #0
    217c:	d002      	beq.n	2184 <TEE_GetCancellationFlag+0x1e>
/home/qemu-sgx/devel/optee/optee_os/lib/libutee/tee_api.c:262
    217e:	f04f 0300 	mov.w	r3, #0
    2182:	603b      	str	r3, [r7, #0]
/home/qemu-sgx/devel/optee/optee_os/lib/libutee/tee_api.c:263
    2184:	683b      	ldr	r3, [r7, #0]
    2186:	2b00      	cmp	r3, #0
    2188:	bf14      	ite	ne
    218a:	2301      	movne	r3, #1
    218c:	2300      	moveq	r3, #0
    218e:	b2db      	uxtb	r3, r3
/home/qemu-sgx/devel/optee/optee_os/lib/libutee/tee_api.c:264
    2190:	4618      	mov	r0, r3
    2192:	f107 0708 	add.w	r7, r7, #8
    2196:	46bd      	mov	sp, r7
    2198:	bd80      	pop	{r7, pc}

0000219a <TEE_UnmaskCancellation>:
TEE_UnmaskCancellation():
/home/qemu-sgx/devel/optee/optee_os/lib/libutee/tee_api.c:267
    219a:	e96d 7e02 	strd	r7, lr, [sp, #-8]!
    219e:	b082      	sub	sp, #8
    21a0:	af00      	add	r7, sp, #0
/home/qemu-sgx/devel/optee/optee_os/lib/libutee/tee_api.c:269
    21a2:	463b      	mov	r3, r7
    21a4:	4618      	mov	r0, r3
    21a6:	f004 ea82 	blx	66ac <_utee_unmask_cancellation>
    21aa:	6078      	str	r0, [r7, #4]
/home/qemu-sgx/devel/optee/optee_os/lib/libutee/tee_api.c:271
    21ac:	687b      	ldr	r3, [r7, #4]
    21ae:	2b00      	cmp	r3, #0
    21b0:	d002      	beq.n	21b8 <TEE_UnmaskCancellation+0x1e>
/home/qemu-sgx/devel/optee/optee_os/lib/libutee/tee_api.c:272
    21b2:	6878      	ldr	r0, [r7, #4]
    21b4:	f003 ff60 	bl	6078 <TEE_Panic>
/home/qemu-sgx/devel/optee/optee_os/lib/libutee/tee_api.c:273
    21b8:	683b      	ldr	r3, [r7, #0]
    21ba:	2b00      	cmp	r3, #0
    21bc:	bf14      	ite	ne
    21be:	2301      	movne	r3, #1
    21c0:	2300      	moveq	r3, #0
    21c2:	b2db      	uxtb	r3, r3
/home/qemu-sgx/devel/optee/optee_os/lib/libutee/tee_api.c:274
    21c4:	4618      	mov	r0, r3
    21c6:	f107 0708 	add.w	r7, r7, #8
    21ca:	46bd      	mov	sp, r7
    21cc:	bd80      	pop	{r7, pc}

000021ce <TEE_MaskCancellation>:
TEE_MaskCancellation():
/home/qemu-sgx/devel/optee/optee_os/lib/libutee/tee_api.c:277
    21ce:	e96d 7e02 	strd	r7, lr, [sp, #-8]!
    21d2:	b082      	sub	sp, #8
    21d4:	af00      	add	r7, sp, #0
/home/qemu-sgx/devel/optee/optee_os/lib/libutee/tee_api.c:279
    21d6:	463b      	mov	r3, r7
    21d8:	4618      	mov	r0, r3
    21da:	f004 ea72 	blx	66c0 <_utee_mask_cancellation>
    21de:	6078      	str	r0, [r7, #4]
/home/qemu-sgx/devel/optee/optee_os/lib/libutee/tee_api.c:281
    21e0:	687b      	ldr	r3, [r7, #4]
    21e2:	2b00      	cmp	r3, #0
    21e4:	d002      	beq.n	21ec <TEE_MaskCancellation+0x1e>
/home/qemu-sgx/devel/optee/optee_os/lib/libutee/tee_api.c:282
    21e6:	6878      	ldr	r0, [r7, #4]
    21e8:	f003 ff46 	bl	6078 <TEE_Panic>
/home/qemu-sgx/devel/optee/optee_os/lib/libutee/tee_api.c:283
    21ec:	683b      	ldr	r3, [r7, #0]
    21ee:	2b00      	cmp	r3, #0
    21f0:	bf14      	ite	ne
    21f2:	2301      	movne	r3, #1
    21f4:	2300      	moveq	r3, #0
    21f6:	b2db      	uxtb	r3, r3
/home/qemu-sgx/devel/optee/optee_os/lib/libutee/tee_api.c:284
    21f8:	4618      	mov	r0, r3
    21fa:	f107 0708 	add.w	r7, r7, #8
    21fe:	46bd      	mov	sp, r7
    2200:	bd80      	pop	{r7, pc}

00002202 <TEE_CheckMemoryAccessRights>:
TEE_CheckMemoryAccessRights():
/home/qemu-sgx/devel/optee/optee_os/lib/libutee/tee_api.c:290
    2202:	e96d 7e02 	strd	r7, lr, [sp, #-8]!
    2206:	b086      	sub	sp, #24
    2208:	af00      	add	r7, sp, #0
    220a:	60f8      	str	r0, [r7, #12]
    220c:	60b9      	str	r1, [r7, #8]
    220e:	607a      	str	r2, [r7, #4]
/home/qemu-sgx/devel/optee/optee_os/lib/libutee/tee_api.c:293
    2210:	687b      	ldr	r3, [r7, #4]
    2212:	2b00      	cmp	r3, #0
    2214:	d102      	bne.n	221c <TEE_CheckMemoryAccessRights+0x1a>
/home/qemu-sgx/devel/optee/optee_os/lib/libutee/tee_api.c:294
    2216:	f04f 0300 	mov.w	r3, #0
    221a:	e00e      	b.n	223a <TEE_CheckMemoryAccessRights+0x38>
/home/qemu-sgx/devel/optee/optee_os/lib/libutee/tee_api.c:297
    221c:	687a      	ldr	r2, [r7, #4]
    221e:	68b9      	ldr	r1, [r7, #8]
    2220:	68f8      	ldr	r0, [r7, #12]
    2222:	f004 ea3a 	blx	6698 <_utee_check_access_rights>
    2226:	6178      	str	r0, [r7, #20]
/home/qemu-sgx/devel/optee/optee_os/lib/libutee/tee_api.c:298
    2228:	697b      	ldr	r3, [r7, #20]
    222a:	2b00      	cmp	r3, #0
    222c:	d103      	bne.n	2236 <TEE_CheckMemoryAccessRights+0x34>
/home/qemu-sgx/devel/optee/optee_os/lib/libutee/tee_api.c:306
    222e:	f04f 0300 	mov.w	r3, #0
    2232:	617b      	str	r3, [r7, #20]
    2234:	e000      	b.n	2238 <TEE_CheckMemoryAccessRights+0x36>
/home/qemu-sgx/devel/optee/optee_os/lib/libutee/tee_api.c:299
    2236:	bf00      	nop
/home/qemu-sgx/devel/optee/optee_os/lib/libutee/tee_api.c:308
    2238:	697b      	ldr	r3, [r7, #20]
/home/qemu-sgx/devel/optee/optee_os/lib/libutee/tee_api.c:309
    223a:	4618      	mov	r0, r3
    223c:	f107 0718 	add.w	r7, r7, #24
    2240:	46bd      	mov	sp, r7
    2242:	bd80      	pop	{r7, pc}

00002244 <TEE_SetInstanceData>:
TEE_SetInstanceData():
/home/qemu-sgx/devel/optee/optee_os/lib/libutee/tee_api.c:312
    2244:	f84d 7d04 	str.w	r7, [sp, #-4]!
    2248:	b083      	sub	sp, #12
    224a:	af00      	add	r7, sp, #0
    224c:	6078      	str	r0, [r7, #4]
/home/qemu-sgx/devel/optee/optee_os/lib/libutee/tee_api.c:313
    224e:	4b05      	ldr	r3, [pc, #20]	; (2264 <TEE_SetInstanceData+0x20>)
    2250:	447b      	add	r3, pc
    2252:	687a      	ldr	r2, [r7, #4]
    2254:	601a      	str	r2, [r3, #0]
/home/qemu-sgx/devel/optee/optee_os/lib/libutee/tee_api.c:314
    2256:	bf00      	nop
    2258:	f107 070c 	add.w	r7, r7, #12
    225c:	46bd      	mov	sp, r7
    225e:	f85d 7b04 	ldr.w	r7, [sp], #4
    2262:	4770      	bx	lr
    2264:	00215084 	.word	0x00215084

00002268 <TEE_GetInstanceData>:
TEE_GetInstanceData():
/home/qemu-sgx/devel/optee/optee_os/lib/libutee/tee_api.c:317
    2268:	f84d 7d04 	str.w	r7, [sp, #-4]!
    226c:	af00      	add	r7, sp, #0
/home/qemu-sgx/devel/optee/optee_os/lib/libutee/tee_api.c:318
    226e:	4b04      	ldr	r3, [pc, #16]	; (2280 <TEE_GetInstanceData+0x18>)
    2270:	447b      	add	r3, pc
    2272:	681b      	ldr	r3, [r3, #0]
/home/qemu-sgx/devel/optee/optee_os/lib/libutee/tee_api.c:319
    2274:	4618      	mov	r0, r3
    2276:	46bd      	mov	sp, r7
    2278:	f85d 7b04 	ldr.w	r7, [sp], #4
    227c:	4770      	bx	lr
    227e:	bf00      	nop
    2280:	00215064 	.word	0x00215064

00002284 <TEE_MemMove>:
TEE_MemMove():
/home/qemu-sgx/devel/optee/optee_os/lib/libutee/tee_api.c:322
    2284:	e96d 7e02 	strd	r7, lr, [sp, #-8]!
    2288:	b084      	sub	sp, #16
    228a:	af00      	add	r7, sp, #0
    228c:	60f8      	str	r0, [r7, #12]
    228e:	60b9      	str	r1, [r7, #8]
    2290:	607a      	str	r2, [r7, #4]
/home/qemu-sgx/devel/optee/optee_os/lib/libutee/tee_api.c:323
    2292:	687a      	ldr	r2, [r7, #4]
    2294:	68b9      	ldr	r1, [r7, #8]
    2296:	68f8      	ldr	r0, [r7, #12]
    2298:	f011 f889 	bl	133ae <memmove>
    229c:	4603      	mov	r3, r0
/home/qemu-sgx/devel/optee/optee_os/lib/libutee/tee_api.c:324
    229e:	4618      	mov	r0, r3
    22a0:	f107 0710 	add.w	r7, r7, #16
    22a4:	46bd      	mov	sp, r7
    22a6:	bd80      	pop	{r7, pc}

000022a8 <TEE_MemCompare>:
TEE_MemCompare():
/home/qemu-sgx/devel/optee/optee_os/lib/libutee/tee_api.c:327
    22a8:	e96d 7e02 	strd	r7, lr, [sp, #-8]!
    22ac:	b084      	sub	sp, #16
    22ae:	af00      	add	r7, sp, #0
    22b0:	60f8      	str	r0, [r7, #12]
    22b2:	60b9      	str	r1, [r7, #8]
    22b4:	607a      	str	r2, [r7, #4]
/home/qemu-sgx/devel/optee/optee_os/lib/libutee/tee_api.c:328
    22b6:	687a      	ldr	r2, [r7, #4]
    22b8:	68b9      	ldr	r1, [r7, #8]
    22ba:	68f8      	ldr	r0, [r7, #12]
    22bc:	f011 f9a4 	bl	13608 <consttime_memcmp>
    22c0:	4603      	mov	r3, r0
/home/qemu-sgx/devel/optee/optee_os/lib/libutee/tee_api.c:329
    22c2:	4618      	mov	r0, r3
    22c4:	f107 0710 	add.w	r7, r7, #16
    22c8:	46bd      	mov	sp, r7
    22ca:	bd80      	pop	{r7, pc}

000022cc <TEE_MemFill>:
TEE_MemFill():
/home/qemu-sgx/devel/optee/optee_os/lib/libutee/tee_api.c:332
    22cc:	e96d 7e02 	strd	r7, lr, [sp, #-8]!
    22d0:	b084      	sub	sp, #16
    22d2:	af00      	add	r7, sp, #0
    22d4:	60f8      	str	r0, [r7, #12]
    22d6:	60b9      	str	r1, [r7, #8]
    22d8:	607a      	str	r2, [r7, #4]
/home/qemu-sgx/devel/optee/optee_os/lib/libutee/tee_api.c:333
    22da:	68bb      	ldr	r3, [r7, #8]
    22dc:	687a      	ldr	r2, [r7, #4]
    22de:	4619      	mov	r1, r3
    22e0:	68f8      	ldr	r0, [r7, #12]
    22e2:	f011 f903 	bl	134ec <memset>
    22e6:	4603      	mov	r3, r0
/home/qemu-sgx/devel/optee/optee_os/lib/libutee/tee_api.c:334
    22e8:	4618      	mov	r0, r3
    22ea:	f107 0710 	add.w	r7, r7, #16
    22ee:	46bd      	mov	sp, r7
    22f0:	bd80      	pop	{r7, pc}

000022f2 <TEE_GetSystemTime>:
TEE_GetSystemTime():
/home/qemu-sgx/devel/optee/optee_os/lib/libutee/tee_api.c:339
    22f2:	e96d 7e02 	strd	r7, lr, [sp, #-8]!
    22f6:	b084      	sub	sp, #16
    22f8:	af00      	add	r7, sp, #0
    22fa:	6078      	str	r0, [r7, #4]
/home/qemu-sgx/devel/optee/optee_os/lib/libutee/tee_api.c:340
    22fc:	6879      	ldr	r1, [r7, #4]
    22fe:	f04f 0000 	mov.w	r0, #0
    2302:	f004 e9f2 	blx	66e8 <_utee_get_time>
    2306:	60f8      	str	r0, [r7, #12]
/home/qemu-sgx/devel/optee/optee_os/lib/libutee/tee_api.c:342
    2308:	68fb      	ldr	r3, [r7, #12]
    230a:	2b00      	cmp	r3, #0
    230c:	d002      	beq.n	2314 <TEE_GetSystemTime+0x22>
/home/qemu-sgx/devel/optee/optee_os/lib/libutee/tee_api.c:343
    230e:	68f8      	ldr	r0, [r7, #12]
    2310:	f003 feb2 	bl	6078 <TEE_Panic>
/home/qemu-sgx/devel/optee/optee_os/lib/libutee/tee_api.c:344
    2314:	bf00      	nop
    2316:	f107 0710 	add.w	r7, r7, #16
    231a:	46bd      	mov	sp, r7
    231c:	bd80      	pop	{r7, pc}

0000231e <TEE_Wait>:
TEE_Wait():
/home/qemu-sgx/devel/optee/optee_os/lib/libutee/tee_api.c:347
    231e:	e96d 7e02 	strd	r7, lr, [sp, #-8]!
    2322:	b084      	sub	sp, #16
    2324:	af00      	add	r7, sp, #0
    2326:	6078      	str	r0, [r7, #4]
/home/qemu-sgx/devel/optee/optee_os/lib/libutee/tee_api.c:348
    2328:	6878      	ldr	r0, [r7, #4]
    232a:	f004 e9d4 	blx	66d4 <_utee_wait>
    232e:	60f8      	str	r0, [r7, #12]
/home/qemu-sgx/devel/optee/optee_os/lib/libutee/tee_api.c:350
    2330:	68fb      	ldr	r3, [r7, #12]
    2332:	2b00      	cmp	r3, #0
    2334:	d009      	beq.n	234a <TEE_Wait+0x2c>
/home/qemu-sgx/devel/optee/optee_os/lib/libutee/tee_api.c:350 (discriminator 1)
    2336:	68fa      	ldr	r2, [r7, #12]
    2338:	f04f 0302 	mov.w	r3, #2
    233c:	f6cf 73ff 	movt	r3, #65535	; 0xffff
    2340:	429a      	cmp	r2, r3
    2342:	d002      	beq.n	234a <TEE_Wait+0x2c>
/home/qemu-sgx/devel/optee/optee_os/lib/libutee/tee_api.c:351
    2344:	68f8      	ldr	r0, [r7, #12]
    2346:	f003 fe97 	bl	6078 <TEE_Panic>
/home/qemu-sgx/devel/optee/optee_os/lib/libutee/tee_api.c:353
    234a:	68fb      	ldr	r3, [r7, #12]
/home/qemu-sgx/devel/optee/optee_os/lib/libutee/tee_api.c:354
    234c:	4618      	mov	r0, r3
    234e:	f107 0710 	add.w	r7, r7, #16
    2352:	46bd      	mov	sp, r7
    2354:	bd80      	pop	{r7, pc}

00002356 <TEE_GetTAPersistentTime>:
TEE_GetTAPersistentTime():
/home/qemu-sgx/devel/optee/optee_os/lib/libutee/tee_api.c:357
    2356:	e96d 7e02 	strd	r7, lr, [sp, #-8]!
    235a:	b084      	sub	sp, #16
    235c:	af00      	add	r7, sp, #0
    235e:	6078      	str	r0, [r7, #4]
/home/qemu-sgx/devel/optee/optee_os/lib/libutee/tee_api.c:360
    2360:	6879      	ldr	r1, [r7, #4]
    2362:	f04f 0001 	mov.w	r0, #1
    2366:	f004 e9c0 	blx	66e8 <_utee_get_time>
    236a:	60f8      	str	r0, [r7, #12]
/home/qemu-sgx/devel/optee/optee_os/lib/libutee/tee_api.c:362
    236c:	68fb      	ldr	r3, [r7, #12]
    236e:	2b00      	cmp	r3, #0
    2370:	d00e      	beq.n	2390 <TEE_GetTAPersistentTime+0x3a>
/home/qemu-sgx/devel/optee/optee_os/lib/libutee/tee_api.c:362 (discriminator 1)
    2372:	68fa      	ldr	r2, [r7, #12]
    2374:	f243 030f 	movw	r3, #12303	; 0x300f
    2378:	f6cf 73ff 	movt	r3, #65535	; 0xffff
    237c:	429a      	cmp	r2, r3
    237e:	d007      	beq.n	2390 <TEE_GetTAPersistentTime+0x3a>
/home/qemu-sgx/devel/optee/optee_os/lib/libutee/tee_api.c:363
    2380:	687b      	ldr	r3, [r7, #4]
    2382:	f04f 0200 	mov.w	r2, #0
    2386:	601a      	str	r2, [r3, #0]
/home/qemu-sgx/devel/optee/optee_os/lib/libutee/tee_api.c:364
    2388:	687b      	ldr	r3, [r7, #4]
    238a:	f04f 0200 	mov.w	r2, #0
    238e:	605a      	str	r2, [r3, #4]
/home/qemu-sgx/devel/optee/optee_os/lib/libutee/tee_api.c:367
    2390:	68fb      	ldr	r3, [r7, #12]
    2392:	2b00      	cmp	r3, #0
    2394:	d01b      	beq.n	23ce <TEE_GetTAPersistentTime+0x78>
/home/qemu-sgx/devel/optee/optee_os/lib/libutee/tee_api.c:367 (discriminator 1)
    2396:	68fb      	ldr	r3, [r7, #12]
    2398:	f513 4f30 	cmn.w	r3, #45056	; 0xb000
    239c:	d017      	beq.n	23ce <TEE_GetTAPersistentTime+0x78>
/home/qemu-sgx/devel/optee/optee_os/lib/libutee/tee_api.c:368
    239e:	68fa      	ldr	r2, [r7, #12]
    23a0:	f245 0301 	movw	r3, #20481	; 0x5001
    23a4:	f6cf 73ff 	movt	r3, #65535	; 0xffff
    23a8:	429a      	cmp	r2, r3
    23aa:	d010      	beq.n	23ce <TEE_GetTAPersistentTime+0x78>
/home/qemu-sgx/devel/optee/optee_os/lib/libutee/tee_api.c:369
    23ac:	68fa      	ldr	r2, [r7, #12]
    23ae:	f243 030f 	movw	r3, #12303	; 0x300f
    23b2:	f6cf 73ff 	movt	r3, #65535	; 0xffff
    23b6:	429a      	cmp	r2, r3
    23b8:	d009      	beq.n	23ce <TEE_GetTAPersistentTime+0x78>
/home/qemu-sgx/devel/optee/optee_os/lib/libutee/tee_api.c:370
    23ba:	68fa      	ldr	r2, [r7, #12]
    23bc:	f04f 030c 	mov.w	r3, #12
    23c0:	f6cf 73ff 	movt	r3, #65535	; 0xffff
    23c4:	429a      	cmp	r2, r3
    23c6:	d002      	beq.n	23ce <TEE_GetTAPersistentTime+0x78>
/home/qemu-sgx/devel/optee/optee_os/lib/libutee/tee_api.c:372
    23c8:	68f8      	ldr	r0, [r7, #12]
    23ca:	f003 fe55 	bl	6078 <TEE_Panic>
/home/qemu-sgx/devel/optee/optee_os/lib/libutee/tee_api.c:374
    23ce:	68fb      	ldr	r3, [r7, #12]
/home/qemu-sgx/devel/optee/optee_os/lib/libutee/tee_api.c:375
    23d0:	4618      	mov	r0, r3
    23d2:	f107 0710 	add.w	r7, r7, #16
    23d6:	46bd      	mov	sp, r7
    23d8:	bd80      	pop	{r7, pc}

000023da <TEE_SetTAPersistentTime>:
TEE_SetTAPersistentTime():
/home/qemu-sgx/devel/optee/optee_os/lib/libutee/tee_api.c:378
    23da:	e96d 7e02 	strd	r7, lr, [sp, #-8]!
    23de:	b084      	sub	sp, #16
    23e0:	af00      	add	r7, sp, #0
    23e2:	6078      	str	r0, [r7, #4]
/home/qemu-sgx/devel/optee/optee_os/lib/libutee/tee_api.c:381
    23e4:	6878      	ldr	r0, [r7, #4]
    23e6:	f004 e98a 	blx	66fc <_utee_set_ta_time>
    23ea:	60f8      	str	r0, [r7, #12]
/home/qemu-sgx/devel/optee/optee_os/lib/libutee/tee_api.c:383
    23ec:	68fb      	ldr	r3, [r7, #12]
    23ee:	2b00      	cmp	r3, #0
    23f0:	d010      	beq.n	2414 <TEE_SetTAPersistentTime+0x3a>
/home/qemu-sgx/devel/optee/optee_os/lib/libutee/tee_api.c:383 (discriminator 1)
    23f2:	68fa      	ldr	r2, [r7, #12]
    23f4:	f04f 030c 	mov.w	r3, #12
    23f8:	f6cf 73ff 	movt	r3, #65535	; 0xffff
    23fc:	429a      	cmp	r2, r3
    23fe:	d009      	beq.n	2414 <TEE_SetTAPersistentTime+0x3a>
/home/qemu-sgx/devel/optee/optee_os/lib/libutee/tee_api.c:384
    2400:	68fa      	ldr	r2, [r7, #12]
    2402:	f243 0341 	movw	r3, #12353	; 0x3041
    2406:	f6cf 73ff 	movt	r3, #65535	; 0xffff
    240a:	429a      	cmp	r2, r3
    240c:	d002      	beq.n	2414 <TEE_SetTAPersistentTime+0x3a>
/home/qemu-sgx/devel/optee/optee_os/lib/libutee/tee_api.c:386
    240e:	68f8      	ldr	r0, [r7, #12]
    2410:	f003 fe32 	bl	6078 <TEE_Panic>
/home/qemu-sgx/devel/optee/optee_os/lib/libutee/tee_api.c:388
    2414:	68fb      	ldr	r3, [r7, #12]
/home/qemu-sgx/devel/optee/optee_os/lib/libutee/tee_api.c:389
    2416:	4618      	mov	r0, r3
    2418:	f107 0710 	add.w	r7, r7, #16
    241c:	46bd      	mov	sp, r7
    241e:	bd80      	pop	{r7, pc}

00002420 <TEE_GetREETime>:
TEE_GetREETime():
/home/qemu-sgx/devel/optee/optee_os/lib/libutee/tee_api.c:392
    2420:	e96d 7e02 	strd	r7, lr, [sp, #-8]!
    2424:	b084      	sub	sp, #16
    2426:	af00      	add	r7, sp, #0
    2428:	6078      	str	r0, [r7, #4]
/home/qemu-sgx/devel/optee/optee_os/lib/libutee/tee_api.c:393
    242a:	6879      	ldr	r1, [r7, #4]
    242c:	f04f 0002 	mov.w	r0, #2
    2430:	f004 e95a 	blx	66e8 <_utee_get_time>
    2434:	60f8      	str	r0, [r7, #12]
/home/qemu-sgx/devel/optee/optee_os/lib/libutee/tee_api.c:395
    2436:	68fb      	ldr	r3, [r7, #12]
    2438:	2b00      	cmp	r3, #0
    243a:	d002      	beq.n	2442 <TEE_GetREETime+0x22>
/home/qemu-sgx/devel/optee/optee_os/lib/libutee/tee_api.c:396
    243c:	68f8      	ldr	r0, [r7, #12]
    243e:	f003 fe1b 	bl	6078 <TEE_Panic>
/home/qemu-sgx/devel/optee/optee_os/lib/libutee/tee_api.c:397
    2442:	bf00      	nop
    2444:	f107 0710 	add.w	r7, r7, #16
    2448:	46bd      	mov	sp, r7
    244a:	bd80      	pop	{r7, pc}

0000244c <TEE_Malloc>:
TEE_Malloc():
/home/qemu-sgx/devel/optee/optee_os/lib/libutee/tee_api.c:400
    244c:	e96d 7e02 	strd	r7, lr, [sp, #-8]!
    2450:	b084      	sub	sp, #16
    2452:	af02      	add	r7, sp, #8
    2454:	6078      	str	r0, [r7, #4]
    2456:	6039      	str	r1, [r7, #0]
/home/qemu-sgx/devel/optee/optee_os/lib/libutee/tee_api.c:401
    2458:	687b      	ldr	r3, [r7, #4]
    245a:	2b00      	cmp	r3, #0
    245c:	d102      	bne.n	2464 <TEE_Malloc+0x18>
/home/qemu-sgx/devel/optee/optee_os/lib/libutee/tee_api.c:402
    245e:	f04f 0301 	mov.w	r3, #1
    2462:	e023      	b.n	24ac <TEE_Malloc+0x60>
/home/qemu-sgx/devel/optee/optee_os/lib/libutee/tee_api.c:404
    2464:	683b      	ldr	r3, [r7, #0]
    2466:	2b00      	cmp	r3, #0
    2468:	d106      	bne.n	2478 <TEE_Malloc+0x2c>
/home/qemu-sgx/devel/optee/optee_os/lib/libutee/tee_api.c:405
    246a:	6879      	ldr	r1, [r7, #4]
    246c:	f04f 0001 	mov.w	r0, #1
    2470:	f00f f874 	bl	1155c <calloc>
    2474:	4603      	mov	r3, r0
    2476:	e019      	b.n	24ac <TEE_Malloc+0x60>
/home/qemu-sgx/devel/optee/optee_os/lib/libutee/tee_api.c:406
    2478:	683b      	ldr	r3, [r7, #0]
    247a:	f1b3 4f00 	cmp.w	r3, #2147483648	; 0x80000000
    247e:	d104      	bne.n	248a <TEE_Malloc+0x3e>
/home/qemu-sgx/devel/optee/optee_os/lib/libutee/tee_api.c:407
    2480:	6878      	ldr	r0, [r7, #4]
    2482:	f00f f81d 	bl	114c0 <malloc>
    2486:	4603      	mov	r3, r0
    2488:	e010      	b.n	24ac <TEE_Malloc+0x60>
/home/qemu-sgx/devel/optee/optee_os/lib/libutee/tee_api.c:409
    248a:	683b      	ldr	r3, [r7, #0]
    248c:	9301      	str	r3, [sp, #4]
    248e:	4b0a      	ldr	r3, [pc, #40]	; (24b8 <TEE_Malloc+0x6c>)
    2490:	447b      	add	r3, pc
    2492:	9300      	str	r3, [sp, #0]
    2494:	f04f 0301 	mov.w	r3, #1
    2498:	f04f 0201 	mov.w	r2, #1
    249c:	f240 1199 	movw	r1, #409	; 0x199
    24a0:	4806      	ldr	r0, [pc, #24]	; (24bc <TEE_Malloc+0x70>)
    24a2:	4478      	add	r0, pc
    24a4:	f7fd ffff 	bl	4a6 <trace_printf>
/home/qemu-sgx/devel/optee/optee_os/lib/libutee/tee_api.c:411
    24a8:	f04f 0300 	mov.w	r3, #0
/home/qemu-sgx/devel/optee/optee_os/lib/libutee/tee_api.c:412
    24ac:	4618      	mov	r0, r3
    24ae:	f107 0708 	add.w	r7, r7, #8
    24b2:	46bd      	mov	sp, r7
    24b4:	bd80      	pop	{r7, pc}
    24b6:	bf00      	nop
    24b8:	000113f4 	.word	0x000113f4
    24bc:	000113f6 	.word	0x000113f6

000024c0 <TEE_Realloc>:
TEE_Realloc():
/home/qemu-sgx/devel/optee/optee_os/lib/libutee/tee_api.c:415
    24c0:	e96d 7e02 	strd	r7, lr, [sp, #-8]!
    24c4:	b082      	sub	sp, #8
    24c6:	af00      	add	r7, sp, #0
    24c8:	6078      	str	r0, [r7, #4]
    24ca:	6039      	str	r1, [r7, #0]
/home/qemu-sgx/devel/optee/optee_os/lib/libutee/tee_api.c:416
    24cc:	683b      	ldr	r3, [r7, #0]
    24ce:	2b00      	cmp	r3, #0
    24d0:	d105      	bne.n	24de <TEE_Realloc+0x1e>
/home/qemu-sgx/devel/optee/optee_os/lib/libutee/tee_api.c:417
    24d2:	6878      	ldr	r0, [r7, #4]
    24d4:	f000 f817 	bl	2506 <TEE_Free>
/home/qemu-sgx/devel/optee/optee_os/lib/libutee/tee_api.c:418
    24d8:	f04f 0301 	mov.w	r3, #1
    24dc:	e00e      	b.n	24fc <TEE_Realloc+0x3c>
/home/qemu-sgx/devel/optee/optee_os/lib/libutee/tee_api.c:421
    24de:	687b      	ldr	r3, [r7, #4]
    24e0:	2b01      	cmp	r3, #1
    24e2:	d106      	bne.n	24f2 <TEE_Realloc+0x32>
/home/qemu-sgx/devel/optee/optee_os/lib/libutee/tee_api.c:422
    24e4:	6839      	ldr	r1, [r7, #0]
    24e6:	f04f 0001 	mov.w	r0, #1
    24ea:	f00f f837 	bl	1155c <calloc>
    24ee:	4603      	mov	r3, r0
    24f0:	e004      	b.n	24fc <TEE_Realloc+0x3c>
/home/qemu-sgx/devel/optee/optee_os/lib/libutee/tee_api.c:424
    24f2:	6839      	ldr	r1, [r7, #0]
    24f4:	6878      	ldr	r0, [r7, #4]
    24f6:	f00f f872 	bl	115de <realloc>
    24fa:	4603      	mov	r3, r0
/home/qemu-sgx/devel/optee/optee_os/lib/libutee/tee_api.c:425
    24fc:	4618      	mov	r0, r3
    24fe:	f107 0708 	add.w	r7, r7, #8
    2502:	46bd      	mov	sp, r7
    2504:	bd80      	pop	{r7, pc}

00002506 <TEE_Free>:
TEE_Free():
/home/qemu-sgx/devel/optee/optee_os/lib/libutee/tee_api.c:428
    2506:	e96d 7e02 	strd	r7, lr, [sp, #-8]!
    250a:	b082      	sub	sp, #8
    250c:	af00      	add	r7, sp, #0
    250e:	6078      	str	r0, [r7, #4]
/home/qemu-sgx/devel/optee/optee_os/lib/libutee/tee_api.c:429
    2510:	687b      	ldr	r3, [r7, #4]
    2512:	2b01      	cmp	r3, #1
    2514:	d002      	beq.n	251c <TEE_Free+0x16>
/home/qemu-sgx/devel/optee/optee_os/lib/libutee/tee_api.c:430
    2516:	6878      	ldr	r0, [r7, #4]
    2518:	f00f f8c5 	bl	116a6 <free>
/home/qemu-sgx/devel/optee/optee_os/lib/libutee/tee_api.c:431
    251c:	bf00      	nop
    251e:	f107 0708 	add.w	r7, r7, #8
    2522:	46bd      	mov	sp, r7
    2524:	bd80      	pop	{r7, pc}

00002526 <TEE_CacheClean>:
TEE_CacheClean():
/home/qemu-sgx/devel/optee/optee_os/lib/libutee/tee_api.c:435
    2526:	e96d 7e02 	strd	r7, lr, [sp, #-8]!
    252a:	b082      	sub	sp, #8
    252c:	af00      	add	r7, sp, #0
    252e:	6078      	str	r0, [r7, #4]
    2530:	6039      	str	r1, [r7, #0]
/home/qemu-sgx/devel/optee/optee_os/lib/libutee/tee_api.c:436
    2532:	f04f 0200 	mov.w	r2, #0
    2536:	6839      	ldr	r1, [r7, #0]
    2538:	6878      	ldr	r0, [r7, #4]
    253a:	f004 ea92 	blx	6a60 <_utee_cache_operation>
    253e:	4603      	mov	r3, r0
/home/qemu-sgx/devel/optee/optee_os/lib/libutee/tee_api.c:437
    2540:	4618      	mov	r0, r3
    2542:	f107 0708 	add.w	r7, r7, #8
    2546:	46bd      	mov	sp, r7
    2548:	bd80      	pop	{r7, pc}

0000254a <TEE_CacheFlush>:
TEE_CacheFlush():
/home/qemu-sgx/devel/optee/optee_os/lib/libutee/tee_api.c:439
    254a:	e96d 7e02 	strd	r7, lr, [sp, #-8]!
    254e:	b082      	sub	sp, #8
    2550:	af00      	add	r7, sp, #0
    2552:	6078      	str	r0, [r7, #4]
    2554:	6039      	str	r1, [r7, #0]
/home/qemu-sgx/devel/optee/optee_os/lib/libutee/tee_api.c:440
    2556:	f04f 0201 	mov.w	r2, #1
    255a:	6839      	ldr	r1, [r7, #0]
    255c:	6878      	ldr	r0, [r7, #4]
    255e:	f004 ea80 	blx	6a60 <_utee_cache_operation>
    2562:	4603      	mov	r3, r0
/home/qemu-sgx/devel/optee/optee_os/lib/libutee/tee_api.c:441
    2564:	4618      	mov	r0, r3
    2566:	f107 0708 	add.w	r7, r7, #8
    256a:	46bd      	mov	sp, r7
    256c:	bd80      	pop	{r7, pc}

0000256e <TEE_CacheInvalidate>:
TEE_CacheInvalidate():
/home/qemu-sgx/devel/optee/optee_os/lib/libutee/tee_api.c:444
    256e:	e96d 7e02 	strd	r7, lr, [sp, #-8]!
    2572:	b082      	sub	sp, #8
    2574:	af00      	add	r7, sp, #0
    2576:	6078      	str	r0, [r7, #4]
    2578:	6039      	str	r1, [r7, #0]
/home/qemu-sgx/devel/optee/optee_os/lib/libutee/tee_api.c:445
    257a:	f04f 0202 	mov.w	r2, #2
    257e:	6839      	ldr	r1, [r7, #0]
    2580:	6878      	ldr	r0, [r7, #4]
    2582:	f004 ea6e 	blx	6a60 <_utee_cache_operation>
    2586:	4603      	mov	r3, r0
/home/qemu-sgx/devel/optee/optee_os/lib/libutee/tee_api.c:446
    2588:	4618      	mov	r0, r3
    258a:	f107 0708 	add.w	r7, r7, #8
    258e:	46bd      	mov	sp, r7
    2590:	bd80      	pop	{r7, pc}
    2592:	bf00      	nop

00002594 <__tee_alg_get_class>:
__tee_alg_get_class():
/home/qemu-sgx/devel/optee/optee_os/lib/libutee/include/utee_defines.h:56
    2594:	f84d 7d04 	str.w	r7, [sp, #-4]!
    2598:	b083      	sub	sp, #12
    259a:	af00      	add	r7, sp, #0
    259c:	6078      	str	r0, [r7, #4]
/home/qemu-sgx/devel/optee/optee_os/lib/libutee/include/utee_defines.h:57
    259e:	687a      	ldr	r2, [r7, #4]
    25a0:	f04f 0345 	mov.w	r3, #69	; 0x45
    25a4:	f2c8 0300 	movt	r3, #32768	; 0x8000
    25a8:	429a      	cmp	r2, r3
    25aa:	d102      	bne.n	25b2 <__tee_alg_get_class+0x1e>
/home/qemu-sgx/devel/optee/optee_os/lib/libutee/include/utee_defines.h:58
    25ac:	f04f 0306 	mov.w	r3, #6
    25b0:	e020      	b.n	25f4 <__tee_alg_get_class+0x60>
/home/qemu-sgx/devel/optee/optee_os/lib/libutee/include/utee_defines.h:59
    25b2:	687a      	ldr	r2, [r7, #4]
    25b4:	f04f 0345 	mov.w	r3, #69	; 0x45
    25b8:	f2c6 0300 	movt	r3, #24576	; 0x6000
    25bc:	429a      	cmp	r2, r3
    25be:	d102      	bne.n	25c6 <__tee_alg_get_class+0x32>
/home/qemu-sgx/devel/optee/optee_os/lib/libutee/include/utee_defines.h:60
    25c0:	f04f 0308 	mov.w	r3, #8
    25c4:	e016      	b.n	25f4 <__tee_alg_get_class+0x60>
/home/qemu-sgx/devel/optee/optee_os/lib/libutee/include/utee_defines.h:61
    25c6:	687a      	ldr	r2, [r7, #4]
    25c8:	f44f 6303 	mov.w	r3, #2096	; 0x830
    25cc:	f2cf 0300 	movt	r3, #61440	; 0xf000
    25d0:	429a      	cmp	r2, r3
    25d2:	d102      	bne.n	25da <__tee_alg_get_class+0x46>
/home/qemu-sgx/devel/optee/optee_os/lib/libutee/include/utee_defines.h:62
    25d4:	f04f 0307 	mov.w	r3, #7
    25d8:	e00c      	b.n	25f4 <__tee_alg_get_class+0x60>
/home/qemu-sgx/devel/optee/optee_os/lib/libutee/include/utee_defines.h:63
    25da:	687a      	ldr	r2, [r7, #4]
    25dc:	f240 6313 	movw	r3, #1555	; 0x613
    25e0:	f2cf 0300 	movt	r3, #61440	; 0xf000
    25e4:	429a      	cmp	r2, r3
    25e6:	d102      	bne.n	25ee <__tee_alg_get_class+0x5a>
/home/qemu-sgx/devel/optee/optee_os/lib/libutee/include/utee_defines.h:64
    25e8:	f04f 0303 	mov.w	r3, #3
    25ec:	e002      	b.n	25f4 <__tee_alg_get_class+0x60>
/home/qemu-sgx/devel/optee/optee_os/lib/libutee/include/utee_defines.h:66
    25ee:	687b      	ldr	r3, [r7, #4]
    25f0:	ea4f 7313 	mov.w	r3, r3, lsr #28
/home/qemu-sgx/devel/optee/optee_os/lib/libutee/include/utee_defines.h:67
    25f4:	4618      	mov	r0, r3
    25f6:	f107 070c 	add.w	r7, r7, #12
    25fa:	46bd      	mov	sp, r7
    25fc:	f85d 7b04 	ldr.w	r7, [sp], #4
    2600:	4770      	bx	lr

00002602 <__tee_alg_get_main_alg>:
__tee_alg_get_main_alg():
/home/qemu-sgx/devel/optee/optee_os/lib/libutee/include/utee_defines.h:72
    2602:	f84d 7d04 	str.w	r7, [sp, #-4]!
    2606:	b083      	sub	sp, #12
    2608:	af00      	add	r7, sp, #0
    260a:	6078      	str	r0, [r7, #4]
/home/qemu-sgx/devel/optee/optee_os/lib/libutee/include/utee_defines.h:73
    260c:	687a      	ldr	r2, [r7, #4]
    260e:	f04f 0345 	mov.w	r3, #69	; 0x45
    2612:	f2c6 0300 	movt	r3, #24576	; 0x6000
    2616:	429a      	cmp	r2, r3
    2618:	d009      	beq.n	262e <__tee_alg_get_main_alg+0x2c>
    261a:	687a      	ldr	r2, [r7, #4]
    261c:	f04f 0345 	mov.w	r3, #69	; 0x45
    2620:	f2c8 0300 	movt	r3, #32768	; 0x8000
    2624:	429a      	cmp	r2, r3
    2626:	d105      	bne.n	2634 <__tee_alg_get_main_alg+0x32>
/home/qemu-sgx/devel/optee/optee_os/lib/libutee/include/utee_defines.h:75
    2628:	f04f 0347 	mov.w	r3, #71	; 0x47
    262c:	e005      	b.n	263a <__tee_alg_get_main_alg+0x38>
/home/qemu-sgx/devel/optee/optee_os/lib/libutee/include/utee_defines.h:77
    262e:	f04f 0346 	mov.w	r3, #70	; 0x46
    2632:	e002      	b.n	263a <__tee_alg_get_main_alg+0x38>
/home/qemu-sgx/devel/optee/optee_os/lib/libutee/include/utee_defines.h:79
    2634:	bf00      	nop
/home/qemu-sgx/devel/optee/optee_os/lib/libutee/include/utee_defines.h:82
    2636:	687b      	ldr	r3, [r7, #4]
    2638:	b2db      	uxtb	r3, r3
/home/qemu-sgx/devel/optee/optee_os/lib/libutee/include/utee_defines.h:83
    263a:	4618      	mov	r0, r3
    263c:	f107 070c 	add.w	r7, r7, #12
    2640:	46bd      	mov	sp, r7
    2642:	f85d 7b04 	ldr.w	r7, [sp], #4
    2646:	4770      	bx	lr

00002648 <__tee_alg_get_key_type>:
__tee_alg_get_key_type():
/home/qemu-sgx/devel/optee/optee_os/lib/libutee/include/utee_defines.h:113
    2648:	e96d 7e02 	strd	r7, lr, [sp, #-8]!
    264c:	b084      	sub	sp, #16
    264e:	af00      	add	r7, sp, #0
    2650:	6078      	str	r0, [r7, #4]
    2652:	460b      	mov	r3, r1
    2654:	70fb      	strb	r3, [r7, #3]
/home/qemu-sgx/devel/optee/optee_os/lib/libutee/include/utee_defines.h:114
    2656:	6878      	ldr	r0, [r7, #4]
    2658:	f7ff ffd3 	bl	2602 <__tee_alg_get_main_alg>
    265c:	4603      	mov	r3, r0
    265e:	f043 4320 	orr.w	r3, r3, #2684354560	; 0xa0000000
    2662:	60fb      	str	r3, [r7, #12]
/home/qemu-sgx/devel/optee/optee_os/lib/libutee/include/utee_defines.h:116
    2664:	78fb      	ldrb	r3, [r7, #3]
    2666:	2b00      	cmp	r3, #0
    2668:	d003      	beq.n	2672 <__tee_alg_get_key_type+0x2a>
/home/qemu-sgx/devel/optee/optee_os/lib/libutee/include/utee_defines.h:117
    266a:	68fb      	ldr	r3, [r7, #12]
    266c:	f043 7380 	orr.w	r3, r3, #16777216	; 0x1000000
    2670:	60fb      	str	r3, [r7, #12]
/home/qemu-sgx/devel/optee/optee_os/lib/libutee/include/utee_defines.h:119
    2672:	68fb      	ldr	r3, [r7, #12]
/home/qemu-sgx/devel/optee/optee_os/lib/libutee/include/utee_defines.h:120
    2674:	4618      	mov	r0, r3
    2676:	f107 0710 	add.w	r7, r7, #16
    267a:	46bd      	mov	sp, r7
    267c:	bd80      	pop	{r7, pc}

0000267e <__tee_alg_get_digest_size>:
__tee_alg_get_digest_size():
/home/qemu-sgx/devel/optee/optee_os/lib/libutee/include/utee_defines.h:175
    267e:	f84d 7d04 	str.w	r7, [sp, #-4]!
    2682:	b083      	sub	sp, #12
    2684:	af00      	add	r7, sp, #0
    2686:	6078      	str	r0, [r7, #4]
/home/qemu-sgx/devel/optee/optee_os/lib/libutee/include/utee_defines.h:176
    2688:	687a      	ldr	r2, [r7, #4]
    268a:	f240 6313 	movw	r3, #1555	; 0x613
    268e:	f2cf 0300 	movt	r3, #61440	; 0xf000
    2692:	429a      	cmp	r2, r3
    2694:	f000 80fe 	beq.w	2894 <__tee_alg_get_digest_size+0x216>
    2698:	687a      	ldr	r2, [r7, #4]
    269a:	f240 6313 	movw	r3, #1555	; 0x613
    269e:	f2cf 0300 	movt	r3, #61440	; 0xf000
    26a2:	429a      	cmp	r2, r3
    26a4:	f200 80f9 	bhi.w	289a <__tee_alg_get_digest_size+0x21c>
    26a8:	687a      	ldr	r2, [r7, #4]
    26aa:	f244 1331 	movw	r3, #16689	; 0x4131
    26ae:	f2c7 0300 	movt	r3, #28672	; 0x7000
    26b2:	429a      	cmp	r2, r3
    26b4:	f000 80df 	beq.w	2876 <__tee_alg_get_digest_size+0x1f8>
    26b8:	687a      	ldr	r2, [r7, #4]
    26ba:	f244 1331 	movw	r3, #16689	; 0x4131
    26be:	f2c7 0300 	movt	r3, #28672	; 0x7000
    26c2:	429a      	cmp	r2, r3
    26c4:	f200 80e9 	bhi.w	289a <__tee_alg_get_digest_size+0x21c>
    26c8:	687a      	ldr	r2, [r7, #4]
    26ca:	f243 1331 	movw	r3, #12593	; 0x3131
    26ce:	f2c7 0300 	movt	r3, #28672	; 0x7000
    26d2:	429a      	cmp	r2, r3
    26d4:	f000 80cc 	beq.w	2870 <__tee_alg_get_digest_size+0x1f2>
    26d8:	687a      	ldr	r2, [r7, #4]
    26da:	f243 1331 	movw	r3, #12593	; 0x3131
    26de:	f2c7 0300 	movt	r3, #28672	; 0x7000
    26e2:	429a      	cmp	r2, r3
    26e4:	f200 80d9 	bhi.w	289a <__tee_alg_get_digest_size+0x21c>
    26e8:	687a      	ldr	r2, [r7, #4]
    26ea:	f242 1331 	movw	r3, #8497	; 0x2131
    26ee:	f2c7 0300 	movt	r3, #28672	; 0x7000
    26f2:	429a      	cmp	r2, r3
    26f4:	f000 80b9 	beq.w	286a <__tee_alg_get_digest_size+0x1ec>
    26f8:	687a      	ldr	r2, [r7, #4]
    26fa:	f242 1331 	movw	r3, #8497	; 0x2131
    26fe:	f2c7 0300 	movt	r3, #28672	; 0x7000
    2702:	429a      	cmp	r2, r3
    2704:	f200 80c9 	bhi.w	289a <__tee_alg_get_digest_size+0x21c>
    2708:	687a      	ldr	r2, [r7, #4]
    270a:	f04f 0307 	mov.w	r3, #7
    270e:	f2c5 0300 	movt	r3, #20480	; 0x5000
    2712:	429a      	cmp	r2, r3
    2714:	f200 80c1 	bhi.w	289a <__tee_alg_get_digest_size+0x21c>
    2718:	687b      	ldr	r3, [r7, #4]
    271a:	f1b3 4fa0 	cmp.w	r3, #1342177280	; 0x50000000
    271e:	d865      	bhi.n	27ec <__tee_alg_get_digest_size+0x16e>
    2720:	687a      	ldr	r2, [r7, #4]
    2722:	f44f 63c2 	mov.w	r3, #1552	; 0x610
    2726:	f2c3 0300 	movt	r3, #12288	; 0x3000
    272a:	429a      	cmp	r2, r3
    272c:	f000 80af 	beq.w	288e <__tee_alg_get_digest_size+0x210>
    2730:	687a      	ldr	r2, [r7, #4]
    2732:	f44f 63c2 	mov.w	r3, #1552	; 0x610
    2736:	f2c3 0300 	movt	r3, #12288	; 0x3000
    273a:	429a      	cmp	r2, r3
    273c:	f200 80ad 	bhi.w	289a <__tee_alg_get_digest_size+0x21c>
    2740:	687a      	ldr	r2, [r7, #4]
    2742:	f240 5313 	movw	r3, #1299	; 0x513
    2746:	f2c3 0300 	movt	r3, #12288	; 0x3000
    274a:	429a      	cmp	r2, r3
    274c:	f000 80a2 	beq.w	2894 <__tee_alg_get_digest_size+0x216>
    2750:	687a      	ldr	r2, [r7, #4]
    2752:	f240 5313 	movw	r3, #1299	; 0x513
    2756:	f2c3 0300 	movt	r3, #12288	; 0x3000
    275a:	429a      	cmp	r2, r3
    275c:	f200 809d 	bhi.w	289a <__tee_alg_get_digest_size+0x21c>
    2760:	687a      	ldr	r2, [r7, #4]
    2762:	f240 5311 	movw	r3, #1297	; 0x511
    2766:	f2c3 0300 	movt	r3, #12288	; 0x3000
    276a:	429a      	cmp	r2, r3
    276c:	f000 8092 	beq.w	2894 <__tee_alg_get_digest_size+0x216>
    2770:	687a      	ldr	r2, [r7, #4]
    2772:	f240 5311 	movw	r3, #1297	; 0x511
    2776:	f2c3 0300 	movt	r3, #12288	; 0x3000
    277a:	429a      	cmp	r2, r3
    277c:	f200 808d 	bhi.w	289a <__tee_alg_get_digest_size+0x21c>
    2780:	687a      	ldr	r2, [r7, #4]
    2782:	f44f 63a2 	mov.w	r3, #1296	; 0x510
    2786:	f2c3 0300 	movt	r3, #12288	; 0x3000
    278a:	429a      	cmp	r2, r3
    278c:	d07f      	beq.n	288e <__tee_alg_get_digest_size+0x210>
    278e:	687a      	ldr	r2, [r7, #4]
    2790:	f44f 63a2 	mov.w	r3, #1296	; 0x510
    2794:	f2c3 0300 	movt	r3, #12288	; 0x3000
    2798:	429a      	cmp	r2, r3
    279a:	d87e      	bhi.n	289a <__tee_alg_get_digest_size+0x21c>
    279c:	687a      	ldr	r2, [r7, #4]
    279e:	f240 1313 	movw	r3, #275	; 0x113
    27a2:	f2c3 0300 	movt	r3, #12288	; 0x3000
    27a6:	429a      	cmp	r2, r3
    27a8:	d074      	beq.n	2894 <__tee_alg_get_digest_size+0x216>
    27aa:	687a      	ldr	r2, [r7, #4]
    27ac:	f240 1313 	movw	r3, #275	; 0x113
    27b0:	f2c3 0300 	movt	r3, #12288	; 0x3000
    27b4:	429a      	cmp	r2, r3
    27b6:	d870      	bhi.n	289a <__tee_alg_get_digest_size+0x21c>
    27b8:	687a      	ldr	r2, [r7, #4]
    27ba:	f240 1311 	movw	r3, #273	; 0x111
    27be:	f2c3 0300 	movt	r3, #12288	; 0x3000
    27c2:	429a      	cmp	r2, r3
    27c4:	d066      	beq.n	2894 <__tee_alg_get_digest_size+0x216>
    27c6:	687a      	ldr	r2, [r7, #4]
    27c8:	f240 1311 	movw	r3, #273	; 0x111
    27cc:	f2c3 0300 	movt	r3, #12288	; 0x3000
    27d0:	429a      	cmp	r2, r3
    27d2:	d862      	bhi.n	289a <__tee_alg_get_digest_size+0x21c>
    27d4:	687a      	ldr	r2, [r7, #4]
    27d6:	f04f 0307 	mov.w	r3, #7
    27da:	f2c3 0300 	movt	r3, #12288	; 0x3000
    27de:	429a      	cmp	r2, r3
    27e0:	d838      	bhi.n	2854 <__tee_alg_get_digest_size+0x1d6>
    27e2:	687b      	ldr	r3, [r7, #4]
    27e4:	f1b3 5f40 	cmp.w	r3, #805306368	; 0x30000000
    27e8:	d81a      	bhi.n	2820 <__tee_alg_get_digest_size+0x1a2>
    27ea:	e056      	b.n	289a <__tee_alg_get_digest_size+0x21c>
    27ec:	687b      	ldr	r3, [r7, #4]
    27ee:	f103 4330 	add.w	r3, r3, #2952790016	; 0xb0000000
    27f2:	f103 33ff 	add.w	r3, r3, #4294967295	; 0xffffffff
    27f6:	2b06      	cmp	r3, #6
    27f8:	d84f      	bhi.n	289a <__tee_alg_get_digest_size+0x21c>
    27fa:	a202      	add	r2, pc, #8	; (adr r2, 2804 <__tee_alg_get_digest_size+0x186>)
    27fc:	f852 3023 	ldr.w	r3, [r2, r3, lsl #2]
    2800:	441a      	add	r2, r3
    2802:	4710      	bx	r2
    2804:	00000061 	.word	0x00000061
    2808:	00000067 	.word	0x00000067
    280c:	0000006d 	.word	0x0000006d
    2810:	00000073 	.word	0x00000073
    2814:	00000079 	.word	0x00000079
    2818:	0000007f 	.word	0x0000007f
    281c:	00000085 	.word	0x00000085
    2820:	687b      	ldr	r3, [r7, #4]
    2822:	f103 4350 	add.w	r3, r3, #3489660928	; 0xd0000000
    2826:	f103 33ff 	add.w	r3, r3, #4294967295	; 0xffffffff
    282a:	2b06      	cmp	r3, #6
    282c:	d835      	bhi.n	289a <__tee_alg_get_digest_size+0x21c>
    282e:	a202      	add	r2, pc, #8	; (adr r2, 2838 <__tee_alg_get_digest_size+0x1ba>)
    2830:	f852 3023 	ldr.w	r3, [r2, r3, lsl #2]
    2834:	441a      	add	r2, r3
    2836:	4710      	bx	r2
    2838:	0000002d 	.word	0x0000002d
    283c:	00000033 	.word	0x00000033
    2840:	00000039 	.word	0x00000039
    2844:	0000003f 	.word	0x0000003f
    2848:	00000045 	.word	0x00000045
    284c:	0000004b 	.word	0x0000004b
    2850:	00000051 	.word	0x00000051
    2854:	687a      	ldr	r2, [r7, #4]
    2856:	f44f 7388 	mov.w	r3, #272	; 0x110
    285a:	f2c3 0300 	movt	r3, #12288	; 0x3000
    285e:	429a      	cmp	r2, r3
    2860:	d015      	beq.n	288e <__tee_alg_get_digest_size+0x210>
    2862:	e01a      	b.n	289a <__tee_alg_get_digest_size+0x21c>
/home/qemu-sgx/devel/optee/optee_os/lib/libutee/include/utee_defines.h:179
    2864:	f04f 0310 	mov.w	r3, #16
    2868:	e019      	b.n	289e <__tee_alg_get_digest_size+0x220>
/home/qemu-sgx/devel/optee/optee_os/lib/libutee/include/utee_defines.h:183
    286a:	f04f 0314 	mov.w	r3, #20
    286e:	e016      	b.n	289e <__tee_alg_get_digest_size+0x220>
/home/qemu-sgx/devel/optee/optee_os/lib/libutee/include/utee_defines.h:187
    2870:	f04f 031c 	mov.w	r3, #28
    2874:	e013      	b.n	289e <__tee_alg_get_digest_size+0x220>
/home/qemu-sgx/devel/optee/optee_os/lib/libutee/include/utee_defines.h:191
    2876:	f04f 0320 	mov.w	r3, #32
    287a:	e010      	b.n	289e <__tee_alg_get_digest_size+0x220>
/home/qemu-sgx/devel/optee/optee_os/lib/libutee/include/utee_defines.h:194
    287c:	f04f 0330 	mov.w	r3, #48	; 0x30
    2880:	e00d      	b.n	289e <__tee_alg_get_digest_size+0x220>
/home/qemu-sgx/devel/optee/optee_os/lib/libutee/include/utee_defines.h:197
    2882:	f04f 0340 	mov.w	r3, #64	; 0x40
    2886:	e00a      	b.n	289e <__tee_alg_get_digest_size+0x220>
/home/qemu-sgx/devel/optee/optee_os/lib/libutee/include/utee_defines.h:200
    2888:	f04f 0320 	mov.w	r3, #32
    288c:	e007      	b.n	289e <__tee_alg_get_digest_size+0x220>
/home/qemu-sgx/devel/optee/optee_os/lib/libutee/include/utee_defines.h:204
    288e:	f04f 0310 	mov.w	r3, #16
    2892:	e004      	b.n	289e <__tee_alg_get_digest_size+0x220>
/home/qemu-sgx/devel/optee/optee_os/lib/libutee/include/utee_defines.h:210
    2894:	f04f 0308 	mov.w	r3, #8
    2898:	e001      	b.n	289e <__tee_alg_get_digest_size+0x220>
/home/qemu-sgx/devel/optee/optee_os/lib/libutee/include/utee_defines.h:212
    289a:	f04f 0300 	mov.w	r3, #0
/home/qemu-sgx/devel/optee/optee_os/lib/libutee/include/utee_defines.h:214
    289e:	4618      	mov	r0, r3
    28a0:	f107 070c 	add.w	r7, r7, #12
    28a4:	46bd      	mov	sp, r7
    28a6:	f85d 7b04 	ldr.w	r7, [sp], #4
    28aa:	4770      	bx	lr

000028ac <TEE_AllocateOperation>:
TEE_AllocateOperation():
/home/qemu-sgx/devel/optee/optee_os/lib/libutee/tee_api_operations.c:35
    28ac:	e96d 7e02 	strd	r7, lr, [sp, #-8]!
    28b0:	b090      	sub	sp, #64	; 0x40
    28b2:	af02      	add	r7, sp, #8
    28b4:	60f8      	str	r0, [r7, #12]
    28b6:	60b9      	str	r1, [r7, #8]
    28b8:	607a      	str	r2, [r7, #4]
    28ba:	603b      	str	r3, [r7, #0]
/home/qemu-sgx/devel/optee/optee_os/lib/libutee/tee_api_operations.c:37
    28bc:	f04f 0300 	mov.w	r3, #0
    28c0:	61bb      	str	r3, [r7, #24]
/home/qemu-sgx/devel/optee/optee_os/lib/libutee/tee_api_operations.c:38
    28c2:	f04f 0300 	mov.w	r3, #0
    28c6:	633b      	str	r3, [r7, #48]	; 0x30
/home/qemu-sgx/devel/optee/optee_os/lib/libutee/tee_api_operations.c:39
    28c8:	f04f 0301 	mov.w	r3, #1
    28cc:	62fb      	str	r3, [r7, #44]	; 0x2c
/home/qemu-sgx/devel/optee/optee_os/lib/libutee/tee_api_operations.c:41
    28ce:	f04f 0300 	mov.w	r3, #0
    28d2:	f887 3027 	strb.w	r3, [r7, #39]	; 0x27
/home/qemu-sgx/devel/optee/optee_os/lib/libutee/tee_api_operations.c:42
    28d6:	f04f 0300 	mov.w	r3, #0
    28da:	f887 3026 	strb.w	r3, [r7, #38]	; 0x26
/home/qemu-sgx/devel/optee/optee_os/lib/libutee/tee_api_operations.c:44
    28de:	68fb      	ldr	r3, [r7, #12]
    28e0:	2b00      	cmp	r3, #0
    28e2:	d103      	bne.n	28ec <TEE_AllocateOperation+0x40>
/home/qemu-sgx/devel/optee/optee_os/lib/libutee/tee_api_operations.c:45
    28e4:	f04f 0000 	mov.w	r0, #0
    28e8:	f003 fbc6 	bl	6078 <TEE_Panic>
/home/qemu-sgx/devel/optee/optee_os/lib/libutee/tee_api_operations.c:47
    28ec:	68ba      	ldr	r2, [r7, #8]
    28ee:	f44f 6382 	mov.w	r3, #1040	; 0x410
    28f2:	f2c1 0300 	movt	r3, #4096	; 0x1000
    28f6:	429a      	cmp	r2, r3
    28f8:	d006      	beq.n	2908 <TEE_AllocateOperation+0x5c>
/home/qemu-sgx/devel/optee/optee_os/lib/libutee/tee_api_operations.c:47 (discriminator 1)
    28fa:	68ba      	ldr	r2, [r7, #8]
    28fc:	f04f 0345 	mov.w	r3, #69	; 0x45
    2900:	f2c6 0300 	movt	r3, #24576	; 0x6000
    2904:	429a      	cmp	r2, r3
    2906:	d102      	bne.n	290e <TEE_AllocateOperation+0x62>
/home/qemu-sgx/devel/optee/optee_os/lib/libutee/tee_api_operations.c:48
    2908:	f44f 2300 	mov.w	r3, #524288	; 0x80000
    290c:	633b      	str	r3, [r7, #48]	; 0x30
/home/qemu-sgx/devel/optee/optee_os/lib/libutee/tee_api_operations.c:51
    290e:	68ba      	ldr	r2, [r7, #8]
    2910:	f245 0342 	movw	r3, #20546	; 0x5042
    2914:	f2c8 0300 	movt	r3, #32768	; 0x8000
    2918:	429a      	cmp	r2, r3
    291a:	f000 814a 	beq.w	2bb2 <TEE_AllocateOperation+0x306>
    291e:	68ba      	ldr	r2, [r7, #8]
    2920:	f245 0342 	movw	r3, #20546	; 0x5042
    2924:	f2c8 0300 	movt	r3, #32768	; 0x8000
    2928:	429a      	cmp	r2, r3
    292a:	f200 814d 	bhi.w	2bc8 <TEE_AllocateOperation+0x31c>
    292e:	68ba      	ldr	r2, [r7, #8]
    2930:	f244 0342 	movw	r3, #16450	; 0x4042
    2934:	f2c8 0300 	movt	r3, #32768	; 0x8000
    2938:	429a      	cmp	r2, r3
    293a:	f000 8130 	beq.w	2b9e <TEE_AllocateOperation+0x2f2>
    293e:	68ba      	ldr	r2, [r7, #8]
    2940:	f244 0342 	movw	r3, #16450	; 0x4042
    2944:	f2c8 0300 	movt	r3, #32768	; 0x8000
    2948:	429a      	cmp	r2, r3
    294a:	f200 813d 	bhi.w	2bc8 <TEE_AllocateOperation+0x31c>
    294e:	68ba      	ldr	r2, [r7, #8]
    2950:	f243 0342 	movw	r3, #12354	; 0x3042
    2954:	f2c8 0300 	movt	r3, #32768	; 0x8000
    2958:	429a      	cmp	r2, r3
    295a:	f000 810c 	beq.w	2b76 <TEE_AllocateOperation+0x2ca>
    295e:	68ba      	ldr	r2, [r7, #8]
    2960:	f243 0342 	movw	r3, #12354	; 0x3042
    2964:	f2c8 0300 	movt	r3, #32768	; 0x8000
    2968:	429a      	cmp	r2, r3
    296a:	f200 812d 	bhi.w	2bc8 <TEE_AllocateOperation+0x31c>
    296e:	68ba      	ldr	r2, [r7, #8]
    2970:	f242 0342 	movw	r3, #8258	; 0x2042
    2974:	f2c8 0300 	movt	r3, #32768	; 0x8000
    2978:	429a      	cmp	r2, r3
